
elf/test1.elf:     file format elf32-sparc


Disassembly of section .text:

40000000 <__bcc_entry_point>:
40000000:	88 10 00 00 	mov  %g0, %g4
40000004:	09 10 00 04 	sethi  %hi(0x40001000), %g4
40000008:	81 c1 22 98 	jmp  %g4 + 0x298	! 40001298 <__bcc_trap_reset_mvt>
4000000c:	01 00 00 00 	nop 
40000010:	91 d0 20 00 	ta  0
40000014:	01 00 00 00 	nop 
40000018:	01 00 00 00 	nop 
4000001c:	01 00 00 00 	nop 
40000020:	91 d0 20 00 	ta  0
40000024:	01 00 00 00 	nop 
40000028:	01 00 00 00 	nop 
4000002c:	01 00 00 00 	nop 
40000030:	91 d0 20 00 	ta  0
40000034:	01 00 00 00 	nop 
40000038:	01 00 00 00 	nop 
4000003c:	01 00 00 00 	nop 
40000040:	91 d0 20 00 	ta  0
40000044:	01 00 00 00 	nop 
40000048:	01 00 00 00 	nop 
4000004c:	01 00 00 00 	nop 
40000050:	a1 48 00 00 	rd  %psr, %l0
40000054:	29 10 00 04 	sethi  %hi(0x40001000), %l4
40000058:	81 c5 23 28 	jmp  %l4 + 0x328	! 40001328 <__bcc_trap_window_overflow>
4000005c:	01 00 00 00 	nop 
40000060:	a1 48 00 00 	rd  %psr, %l0
40000064:	29 10 00 04 	sethi  %hi(0x40001000), %l4
40000068:	81 c5 23 78 	jmp  %l4 + 0x378	! 40001378 <__bcc_trap_window_underflow>
4000006c:	01 00 00 00 	nop 
40000070:	91 d0 20 00 	ta  0
40000074:	01 00 00 00 	nop 
40000078:	01 00 00 00 	nop 
4000007c:	01 00 00 00 	nop 
40000080:	91 d0 20 00 	ta  0
40000084:	01 00 00 00 	nop 
40000088:	01 00 00 00 	nop 
4000008c:	01 00 00 00 	nop 
40000090:	91 d0 20 00 	ta  0
40000094:	01 00 00 00 	nop 
40000098:	01 00 00 00 	nop 
4000009c:	01 00 00 00 	nop 
400000a0:	91 d0 20 00 	ta  0
400000a4:	01 00 00 00 	nop 
400000a8:	01 00 00 00 	nop 
400000ac:	01 00 00 00 	nop 
400000b0:	91 d0 20 00 	ta  0
400000b4:	01 00 00 00 	nop 
400000b8:	01 00 00 00 	nop 
400000bc:	01 00 00 00 	nop 
400000c0:	91 d0 20 00 	ta  0
400000c4:	01 00 00 00 	nop 
400000c8:	01 00 00 00 	nop 
400000cc:	01 00 00 00 	nop 
400000d0:	91 d0 20 00 	ta  0
400000d4:	01 00 00 00 	nop 
400000d8:	01 00 00 00 	nop 
400000dc:	01 00 00 00 	nop 
400000e0:	91 d0 20 00 	ta  0
400000e4:	01 00 00 00 	nop 
400000e8:	01 00 00 00 	nop 
400000ec:	01 00 00 00 	nop 
400000f0:	91 d0 20 00 	ta  0
400000f4:	01 00 00 00 	nop 
400000f8:	01 00 00 00 	nop 
400000fc:	01 00 00 00 	nop 
40000100:	91 d0 20 00 	ta  0
40000104:	01 00 00 00 	nop 
40000108:	01 00 00 00 	nop 
4000010c:	01 00 00 00 	nop 
40000110:	a1 48 00 00 	rd  %psr, %l0
40000114:	29 10 00 04 	sethi  %hi(0x40001000), %l4
40000118:	81 c5 23 dc 	jmp  %l4 + 0x3dc	! 400013dc <__bcc_trap_interrupt>
4000011c:	a6 10 20 01 	mov  1, %l3
40000120:	a1 48 00 00 	rd  %psr, %l0
40000124:	29 10 00 04 	sethi  %hi(0x40001000), %l4
40000128:	81 c5 23 dc 	jmp  %l4 + 0x3dc	! 400013dc <__bcc_trap_interrupt>
4000012c:	a6 10 20 02 	mov  2, %l3
40000130:	a1 48 00 00 	rd  %psr, %l0
40000134:	29 10 00 04 	sethi  %hi(0x40001000), %l4
40000138:	81 c5 23 dc 	jmp  %l4 + 0x3dc	! 400013dc <__bcc_trap_interrupt>
4000013c:	a6 10 20 03 	mov  3, %l3
40000140:	a1 48 00 00 	rd  %psr, %l0
40000144:	29 10 00 04 	sethi  %hi(0x40001000), %l4
40000148:	81 c5 23 dc 	jmp  %l4 + 0x3dc	! 400013dc <__bcc_trap_interrupt>
4000014c:	a6 10 20 04 	mov  4, %l3
40000150:	a1 48 00 00 	rd  %psr, %l0
40000154:	29 10 00 04 	sethi  %hi(0x40001000), %l4
40000158:	81 c5 23 dc 	jmp  %l4 + 0x3dc	! 400013dc <__bcc_trap_interrupt>
4000015c:	a6 10 20 05 	mov  5, %l3
40000160:	a1 48 00 00 	rd  %psr, %l0
40000164:	29 10 00 04 	sethi  %hi(0x40001000), %l4
40000168:	81 c5 23 dc 	jmp  %l4 + 0x3dc	! 400013dc <__bcc_trap_interrupt>
4000016c:	a6 10 20 06 	mov  6, %l3
40000170:	a1 48 00 00 	rd  %psr, %l0
40000174:	29 10 00 04 	sethi  %hi(0x40001000), %l4
40000178:	81 c5 23 dc 	jmp  %l4 + 0x3dc	! 400013dc <__bcc_trap_interrupt>
4000017c:	a6 10 20 07 	mov  7, %l3
40000180:	a1 48 00 00 	rd  %psr, %l0
40000184:	29 10 00 04 	sethi  %hi(0x40001000), %l4
40000188:	81 c5 23 dc 	jmp  %l4 + 0x3dc	! 400013dc <__bcc_trap_interrupt>
4000018c:	a6 10 20 08 	mov  8, %l3
40000190:	a1 48 00 00 	rd  %psr, %l0
40000194:	29 10 00 04 	sethi  %hi(0x40001000), %l4
40000198:	81 c5 23 dc 	jmp  %l4 + 0x3dc	! 400013dc <__bcc_trap_interrupt>
4000019c:	a6 10 20 09 	mov  9, %l3
400001a0:	a1 48 00 00 	rd  %psr, %l0
400001a4:	29 10 00 04 	sethi  %hi(0x40001000), %l4
400001a8:	81 c5 23 dc 	jmp  %l4 + 0x3dc	! 400013dc <__bcc_trap_interrupt>
400001ac:	a6 10 20 0a 	mov  0xa, %l3
400001b0:	a1 48 00 00 	rd  %psr, %l0
400001b4:	29 10 00 04 	sethi  %hi(0x40001000), %l4
400001b8:	81 c5 23 dc 	jmp  %l4 + 0x3dc	! 400013dc <__bcc_trap_interrupt>
400001bc:	a6 10 20 0b 	mov  0xb, %l3
400001c0:	a1 48 00 00 	rd  %psr, %l0
400001c4:	29 10 00 04 	sethi  %hi(0x40001000), %l4
400001c8:	81 c5 23 dc 	jmp  %l4 + 0x3dc	! 400013dc <__bcc_trap_interrupt>
400001cc:	a6 10 20 0c 	mov  0xc, %l3
400001d0:	a1 48 00 00 	rd  %psr, %l0
400001d4:	29 10 00 04 	sethi  %hi(0x40001000), %l4
400001d8:	81 c5 23 dc 	jmp  %l4 + 0x3dc	! 400013dc <__bcc_trap_interrupt>
400001dc:	a6 10 20 0d 	mov  0xd, %l3
400001e0:	a1 48 00 00 	rd  %psr, %l0
400001e4:	29 10 00 04 	sethi  %hi(0x40001000), %l4
400001e8:	81 c5 23 dc 	jmp  %l4 + 0x3dc	! 400013dc <__bcc_trap_interrupt>
400001ec:	a6 10 20 0e 	mov  0xe, %l3
400001f0:	a1 48 00 00 	rd  %psr, %l0
400001f4:	29 10 00 04 	sethi  %hi(0x40001000), %l4
400001f8:	81 c5 23 dc 	jmp  %l4 + 0x3dc	! 400013dc <__bcc_trap_interrupt>
400001fc:	a6 10 20 0f 	mov  0xf, %l3
40000200:	91 d0 20 00 	ta  0
40000204:	01 00 00 00 	nop 
40000208:	01 00 00 00 	nop 
4000020c:	01 00 00 00 	nop 
40000210:	91 d0 20 00 	ta  0
40000214:	01 00 00 00 	nop 
40000218:	01 00 00 00 	nop 
4000021c:	01 00 00 00 	nop 
40000220:	91 d0 20 00 	ta  0
40000224:	01 00 00 00 	nop 
40000228:	01 00 00 00 	nop 
4000022c:	01 00 00 00 	nop 
40000230:	91 d0 20 00 	ta  0
40000234:	01 00 00 00 	nop 
40000238:	01 00 00 00 	nop 
4000023c:	01 00 00 00 	nop 
40000240:	91 d0 20 00 	ta  0
40000244:	01 00 00 00 	nop 
40000248:	01 00 00 00 	nop 
4000024c:	01 00 00 00 	nop 
40000250:	91 d0 20 00 	ta  0
40000254:	01 00 00 00 	nop 
40000258:	01 00 00 00 	nop 
4000025c:	01 00 00 00 	nop 
40000260:	91 d0 20 00 	ta  0
40000264:	01 00 00 00 	nop 
40000268:	01 00 00 00 	nop 
4000026c:	01 00 00 00 	nop 
40000270:	91 d0 20 00 	ta  0
40000274:	01 00 00 00 	nop 
40000278:	01 00 00 00 	nop 
4000027c:	01 00 00 00 	nop 
40000280:	91 d0 20 00 	ta  0
40000284:	01 00 00 00 	nop 
40000288:	01 00 00 00 	nop 
4000028c:	01 00 00 00 	nop 
40000290:	91 d0 20 00 	ta  0
40000294:	01 00 00 00 	nop 
40000298:	01 00 00 00 	nop 
4000029c:	01 00 00 00 	nop 
400002a0:	91 d0 20 00 	ta  0
400002a4:	01 00 00 00 	nop 
400002a8:	01 00 00 00 	nop 
400002ac:	01 00 00 00 	nop 
400002b0:	91 d0 20 00 	ta  0
400002b4:	01 00 00 00 	nop 
400002b8:	01 00 00 00 	nop 
400002bc:	01 00 00 00 	nop 
400002c0:	91 d0 20 00 	ta  0
400002c4:	01 00 00 00 	nop 
400002c8:	01 00 00 00 	nop 
400002cc:	01 00 00 00 	nop 
400002d0:	91 d0 20 00 	ta  0
400002d4:	01 00 00 00 	nop 
400002d8:	01 00 00 00 	nop 
400002dc:	01 00 00 00 	nop 
400002e0:	91 d0 20 00 	ta  0
400002e4:	01 00 00 00 	nop 
400002e8:	01 00 00 00 	nop 
400002ec:	01 00 00 00 	nop 
400002f0:	91 d0 20 00 	ta  0
400002f4:	01 00 00 00 	nop 
400002f8:	01 00 00 00 	nop 
400002fc:	01 00 00 00 	nop 
40000300:	91 d0 20 00 	ta  0
40000304:	01 00 00 00 	nop 
40000308:	01 00 00 00 	nop 
4000030c:	01 00 00 00 	nop 
40000310:	91 d0 20 00 	ta  0
40000314:	01 00 00 00 	nop 
40000318:	01 00 00 00 	nop 
4000031c:	01 00 00 00 	nop 
40000320:	91 d0 20 00 	ta  0
40000324:	01 00 00 00 	nop 
40000328:	01 00 00 00 	nop 
4000032c:	01 00 00 00 	nop 
40000330:	91 d0 20 00 	ta  0
40000334:	01 00 00 00 	nop 
40000338:	01 00 00 00 	nop 
4000033c:	01 00 00 00 	nop 
40000340:	91 d0 20 00 	ta  0
40000344:	01 00 00 00 	nop 
40000348:	01 00 00 00 	nop 
4000034c:	01 00 00 00 	nop 
40000350:	91 d0 20 00 	ta  0
40000354:	01 00 00 00 	nop 
40000358:	01 00 00 00 	nop 
4000035c:	01 00 00 00 	nop 
40000360:	91 d0 20 00 	ta  0
40000364:	01 00 00 00 	nop 
40000368:	01 00 00 00 	nop 
4000036c:	01 00 00 00 	nop 
40000370:	91 d0 20 00 	ta  0
40000374:	01 00 00 00 	nop 
40000378:	01 00 00 00 	nop 
4000037c:	01 00 00 00 	nop 
40000380:	91 d0 20 00 	ta  0
40000384:	01 00 00 00 	nop 
40000388:	01 00 00 00 	nop 
4000038c:	01 00 00 00 	nop 
40000390:	91 d0 20 00 	ta  0
40000394:	01 00 00 00 	nop 
40000398:	01 00 00 00 	nop 
4000039c:	01 00 00 00 	nop 
400003a0:	91 d0 20 00 	ta  0
400003a4:	01 00 00 00 	nop 
400003a8:	01 00 00 00 	nop 
400003ac:	01 00 00 00 	nop 
400003b0:	91 d0 20 00 	ta  0
400003b4:	01 00 00 00 	nop 
400003b8:	01 00 00 00 	nop 
400003bc:	01 00 00 00 	nop 
400003c0:	91 d0 20 00 	ta  0
400003c4:	01 00 00 00 	nop 
400003c8:	01 00 00 00 	nop 
400003cc:	01 00 00 00 	nop 
400003d0:	91 d0 20 00 	ta  0
400003d4:	01 00 00 00 	nop 
400003d8:	01 00 00 00 	nop 
400003dc:	01 00 00 00 	nop 
400003e0:	91 d0 20 00 	ta  0
400003e4:	01 00 00 00 	nop 
400003e8:	01 00 00 00 	nop 
400003ec:	01 00 00 00 	nop 
400003f0:	91 d0 20 00 	ta  0
400003f4:	01 00 00 00 	nop 
400003f8:	01 00 00 00 	nop 
400003fc:	01 00 00 00 	nop 
40000400:	91 d0 20 00 	ta  0
40000404:	01 00 00 00 	nop 
40000408:	01 00 00 00 	nop 
4000040c:	01 00 00 00 	nop 
40000410:	91 d0 20 00 	ta  0
40000414:	01 00 00 00 	nop 
40000418:	01 00 00 00 	nop 
4000041c:	01 00 00 00 	nop 
40000420:	91 d0 20 00 	ta  0
40000424:	01 00 00 00 	nop 
40000428:	01 00 00 00 	nop 
4000042c:	01 00 00 00 	nop 
40000430:	91 d0 20 00 	ta  0
40000434:	01 00 00 00 	nop 
40000438:	01 00 00 00 	nop 
4000043c:	01 00 00 00 	nop 
40000440:	91 d0 20 00 	ta  0
40000444:	01 00 00 00 	nop 
40000448:	01 00 00 00 	nop 
4000044c:	01 00 00 00 	nop 
40000450:	91 d0 20 00 	ta  0
40000454:	01 00 00 00 	nop 
40000458:	01 00 00 00 	nop 
4000045c:	01 00 00 00 	nop 
40000460:	91 d0 20 00 	ta  0
40000464:	01 00 00 00 	nop 
40000468:	01 00 00 00 	nop 
4000046c:	01 00 00 00 	nop 
40000470:	91 d0 20 00 	ta  0
40000474:	01 00 00 00 	nop 
40000478:	01 00 00 00 	nop 
4000047c:	01 00 00 00 	nop 
40000480:	91 d0 20 00 	ta  0
40000484:	01 00 00 00 	nop 
40000488:	01 00 00 00 	nop 
4000048c:	01 00 00 00 	nop 
40000490:	91 d0 20 00 	ta  0
40000494:	01 00 00 00 	nop 
40000498:	01 00 00 00 	nop 
4000049c:	01 00 00 00 	nop 
400004a0:	91 d0 20 00 	ta  0
400004a4:	01 00 00 00 	nop 
400004a8:	01 00 00 00 	nop 
400004ac:	01 00 00 00 	nop 
400004b0:	91 d0 20 00 	ta  0
400004b4:	01 00 00 00 	nop 
400004b8:	01 00 00 00 	nop 
400004bc:	01 00 00 00 	nop 
400004c0:	91 d0 20 00 	ta  0
400004c4:	01 00 00 00 	nop 
400004c8:	01 00 00 00 	nop 
400004cc:	01 00 00 00 	nop 
400004d0:	91 d0 20 00 	ta  0
400004d4:	01 00 00 00 	nop 
400004d8:	01 00 00 00 	nop 
400004dc:	01 00 00 00 	nop 
400004e0:	91 d0 20 00 	ta  0
400004e4:	01 00 00 00 	nop 
400004e8:	01 00 00 00 	nop 
400004ec:	01 00 00 00 	nop 
400004f0:	91 d0 20 00 	ta  0
400004f4:	01 00 00 00 	nop 
400004f8:	01 00 00 00 	nop 
400004fc:	01 00 00 00 	nop 
40000500:	91 d0 20 00 	ta  0
40000504:	01 00 00 00 	nop 
40000508:	01 00 00 00 	nop 
4000050c:	01 00 00 00 	nop 
40000510:	91 d0 20 00 	ta  0
40000514:	01 00 00 00 	nop 
40000518:	01 00 00 00 	nop 
4000051c:	01 00 00 00 	nop 
40000520:	91 d0 20 00 	ta  0
40000524:	01 00 00 00 	nop 
40000528:	01 00 00 00 	nop 
4000052c:	01 00 00 00 	nop 
40000530:	91 d0 20 00 	ta  0
40000534:	01 00 00 00 	nop 
40000538:	01 00 00 00 	nop 
4000053c:	01 00 00 00 	nop 
40000540:	91 d0 20 00 	ta  0
40000544:	01 00 00 00 	nop 
40000548:	01 00 00 00 	nop 
4000054c:	01 00 00 00 	nop 
40000550:	91 d0 20 00 	ta  0
40000554:	01 00 00 00 	nop 
40000558:	01 00 00 00 	nop 
4000055c:	01 00 00 00 	nop 
40000560:	91 d0 20 00 	ta  0
40000564:	01 00 00 00 	nop 
40000568:	01 00 00 00 	nop 
4000056c:	01 00 00 00 	nop 
40000570:	91 d0 20 00 	ta  0
40000574:	01 00 00 00 	nop 
40000578:	01 00 00 00 	nop 
4000057c:	01 00 00 00 	nop 
40000580:	91 d0 20 00 	ta  0
40000584:	01 00 00 00 	nop 
40000588:	01 00 00 00 	nop 
4000058c:	01 00 00 00 	nop 
40000590:	91 d0 20 00 	ta  0
40000594:	01 00 00 00 	nop 
40000598:	01 00 00 00 	nop 
4000059c:	01 00 00 00 	nop 
400005a0:	91 d0 20 00 	ta  0
400005a4:	01 00 00 00 	nop 
400005a8:	01 00 00 00 	nop 
400005ac:	01 00 00 00 	nop 
400005b0:	91 d0 20 00 	ta  0
400005b4:	01 00 00 00 	nop 
400005b8:	01 00 00 00 	nop 
400005bc:	01 00 00 00 	nop 
400005c0:	91 d0 20 00 	ta  0
400005c4:	01 00 00 00 	nop 
400005c8:	01 00 00 00 	nop 
400005cc:	01 00 00 00 	nop 
400005d0:	91 d0 20 00 	ta  0
400005d4:	01 00 00 00 	nop 
400005d8:	01 00 00 00 	nop 
400005dc:	01 00 00 00 	nop 
400005e0:	91 d0 20 00 	ta  0
400005e4:	01 00 00 00 	nop 
400005e8:	01 00 00 00 	nop 
400005ec:	01 00 00 00 	nop 
400005f0:	91 d0 20 00 	ta  0
400005f4:	01 00 00 00 	nop 
400005f8:	01 00 00 00 	nop 
400005fc:	01 00 00 00 	nop 
40000600:	91 d0 20 00 	ta  0
40000604:	01 00 00 00 	nop 
40000608:	01 00 00 00 	nop 
4000060c:	01 00 00 00 	nop 
40000610:	91 d0 20 00 	ta  0
40000614:	01 00 00 00 	nop 
40000618:	01 00 00 00 	nop 
4000061c:	01 00 00 00 	nop 
40000620:	91 d0 20 00 	ta  0
40000624:	01 00 00 00 	nop 
40000628:	01 00 00 00 	nop 
4000062c:	01 00 00 00 	nop 
40000630:	91 d0 20 00 	ta  0
40000634:	01 00 00 00 	nop 
40000638:	01 00 00 00 	nop 
4000063c:	01 00 00 00 	nop 
40000640:	91 d0 20 00 	ta  0
40000644:	01 00 00 00 	nop 
40000648:	01 00 00 00 	nop 
4000064c:	01 00 00 00 	nop 
40000650:	91 d0 20 00 	ta  0
40000654:	01 00 00 00 	nop 
40000658:	01 00 00 00 	nop 
4000065c:	01 00 00 00 	nop 
40000660:	91 d0 20 00 	ta  0
40000664:	01 00 00 00 	nop 
40000668:	01 00 00 00 	nop 
4000066c:	01 00 00 00 	nop 
40000670:	91 d0 20 00 	ta  0
40000674:	01 00 00 00 	nop 
40000678:	01 00 00 00 	nop 
4000067c:	01 00 00 00 	nop 
40000680:	91 d0 20 00 	ta  0
40000684:	01 00 00 00 	nop 
40000688:	01 00 00 00 	nop 
4000068c:	01 00 00 00 	nop 
40000690:	91 d0 20 00 	ta  0
40000694:	01 00 00 00 	nop 
40000698:	01 00 00 00 	nop 
4000069c:	01 00 00 00 	nop 
400006a0:	91 d0 20 00 	ta  0
400006a4:	01 00 00 00 	nop 
400006a8:	01 00 00 00 	nop 
400006ac:	01 00 00 00 	nop 
400006b0:	91 d0 20 00 	ta  0
400006b4:	01 00 00 00 	nop 
400006b8:	01 00 00 00 	nop 
400006bc:	01 00 00 00 	nop 
400006c0:	91 d0 20 00 	ta  0
400006c4:	01 00 00 00 	nop 
400006c8:	01 00 00 00 	nop 
400006cc:	01 00 00 00 	nop 
400006d0:	91 d0 20 00 	ta  0
400006d4:	01 00 00 00 	nop 
400006d8:	01 00 00 00 	nop 
400006dc:	01 00 00 00 	nop 
400006e0:	91 d0 20 00 	ta  0
400006e4:	01 00 00 00 	nop 
400006e8:	01 00 00 00 	nop 
400006ec:	01 00 00 00 	nop 
400006f0:	91 d0 20 00 	ta  0
400006f4:	01 00 00 00 	nop 
400006f8:	01 00 00 00 	nop 
400006fc:	01 00 00 00 	nop 
40000700:	91 d0 20 00 	ta  0
40000704:	01 00 00 00 	nop 
40000708:	01 00 00 00 	nop 
4000070c:	01 00 00 00 	nop 
40000710:	91 d0 20 00 	ta  0
40000714:	01 00 00 00 	nop 
40000718:	01 00 00 00 	nop 
4000071c:	01 00 00 00 	nop 
40000720:	91 d0 20 00 	ta  0
40000724:	01 00 00 00 	nop 
40000728:	01 00 00 00 	nop 
4000072c:	01 00 00 00 	nop 
40000730:	91 d0 20 00 	ta  0
40000734:	01 00 00 00 	nop 
40000738:	01 00 00 00 	nop 
4000073c:	01 00 00 00 	nop 
40000740:	91 d0 20 00 	ta  0
40000744:	01 00 00 00 	nop 
40000748:	01 00 00 00 	nop 
4000074c:	01 00 00 00 	nop 
40000750:	91 d0 20 00 	ta  0
40000754:	01 00 00 00 	nop 
40000758:	01 00 00 00 	nop 
4000075c:	01 00 00 00 	nop 
40000760:	91 d0 20 00 	ta  0
40000764:	01 00 00 00 	nop 
40000768:	01 00 00 00 	nop 
4000076c:	01 00 00 00 	nop 
40000770:	91 d0 20 00 	ta  0
40000774:	01 00 00 00 	nop 
40000778:	01 00 00 00 	nop 
4000077c:	01 00 00 00 	nop 
40000780:	91 d0 20 00 	ta  0
40000784:	01 00 00 00 	nop 
40000788:	01 00 00 00 	nop 
4000078c:	01 00 00 00 	nop 
40000790:	91 d0 20 00 	ta  0
40000794:	01 00 00 00 	nop 
40000798:	01 00 00 00 	nop 
4000079c:	01 00 00 00 	nop 
400007a0:	91 d0 20 00 	ta  0
400007a4:	01 00 00 00 	nop 
400007a8:	01 00 00 00 	nop 
400007ac:	01 00 00 00 	nop 
400007b0:	91 d0 20 00 	ta  0
400007b4:	01 00 00 00 	nop 
400007b8:	01 00 00 00 	nop 
400007bc:	01 00 00 00 	nop 
400007c0:	91 d0 20 00 	ta  0
400007c4:	01 00 00 00 	nop 
400007c8:	01 00 00 00 	nop 
400007cc:	01 00 00 00 	nop 
400007d0:	91 d0 20 00 	ta  0
400007d4:	01 00 00 00 	nop 
400007d8:	01 00 00 00 	nop 
400007dc:	01 00 00 00 	nop 
400007e0:	91 d0 20 00 	ta  0
400007e4:	01 00 00 00 	nop 
400007e8:	01 00 00 00 	nop 
400007ec:	01 00 00 00 	nop 
400007f0:	91 d0 20 00 	ta  0
400007f4:	01 00 00 00 	nop 
400007f8:	01 00 00 00 	nop 
400007fc:	01 00 00 00 	nop 
40000800:	91 d0 20 00 	ta  0
40000804:	01 00 00 00 	nop 
40000808:	01 00 00 00 	nop 
4000080c:	01 00 00 00 	nop 
40000810:	91 d0 20 00 	ta  0
40000814:	01 00 00 00 	nop 
40000818:	01 00 00 00 	nop 
4000081c:	01 00 00 00 	nop 
40000820:	91 d0 20 00 	ta  0
40000824:	01 00 00 00 	nop 
40000828:	01 00 00 00 	nop 
4000082c:	01 00 00 00 	nop 
40000830:	a1 48 00 00 	rd  %psr, %l0
40000834:	29 10 00 05 	sethi  %hi(0x40001400), %l4
40000838:	81 c5 21 88 	jmp  %l4 + 0x188	! 40001588 <__bcc_trap_flush_windows>
4000083c:	01 00 00 00 	nop 
40000840:	91 d0 20 00 	ta  0
40000844:	01 00 00 00 	nop 
40000848:	01 00 00 00 	nop 
4000084c:	01 00 00 00 	nop 
40000850:	91 d0 20 00 	ta  0
40000854:	01 00 00 00 	nop 
40000858:	01 00 00 00 	nop 
4000085c:	01 00 00 00 	nop 
40000860:	91 d0 20 00 	ta  0
40000864:	01 00 00 00 	nop 
40000868:	01 00 00 00 	nop 
4000086c:	01 00 00 00 	nop 
40000870:	91 d0 20 00 	ta  0
40000874:	01 00 00 00 	nop 
40000878:	01 00 00 00 	nop 
4000087c:	01 00 00 00 	nop 
40000880:	91 d0 20 00 	ta  0
40000884:	01 00 00 00 	nop 
40000888:	01 00 00 00 	nop 
4000088c:	01 00 00 00 	nop 
40000890:	a1 48 00 00 	rd  %psr, %l0
40000894:	29 10 00 05 	sethi  %hi(0x40001400), %l4
40000898:	81 c5 22 10 	jmp  %l4 + 0x210	! 40001610 <__bcc_trap_sw_set_pil>
4000089c:	01 00 00 00 	nop 
400008a0:	91 d0 20 00 	ta  0
400008a4:	01 00 00 00 	nop 
400008a8:	01 00 00 00 	nop 
400008ac:	01 00 00 00 	nop 
400008b0:	91 d0 20 00 	ta  0
400008b4:	01 00 00 00 	nop 
400008b8:	01 00 00 00 	nop 
400008bc:	01 00 00 00 	nop 
400008c0:	91 d0 20 00 	ta  0
400008c4:	01 00 00 00 	nop 
400008c8:	01 00 00 00 	nop 
400008cc:	01 00 00 00 	nop 
400008d0:	91 d0 20 00 	ta  0
400008d4:	01 00 00 00 	nop 
400008d8:	01 00 00 00 	nop 
400008dc:	01 00 00 00 	nop 
400008e0:	91 d0 20 00 	ta  0
400008e4:	01 00 00 00 	nop 
400008e8:	01 00 00 00 	nop 
400008ec:	01 00 00 00 	nop 
400008f0:	91 d0 20 00 	ta  0
400008f4:	01 00 00 00 	nop 
400008f8:	01 00 00 00 	nop 
400008fc:	01 00 00 00 	nop 
40000900:	91 d0 20 00 	ta  0
40000904:	01 00 00 00 	nop 
40000908:	01 00 00 00 	nop 
4000090c:	01 00 00 00 	nop 
40000910:	91 d0 20 00 	ta  0
40000914:	01 00 00 00 	nop 
40000918:	01 00 00 00 	nop 
4000091c:	01 00 00 00 	nop 
40000920:	91 d0 20 00 	ta  0
40000924:	01 00 00 00 	nop 
40000928:	01 00 00 00 	nop 
4000092c:	01 00 00 00 	nop 
40000930:	91 d0 20 00 	ta  0
40000934:	01 00 00 00 	nop 
40000938:	01 00 00 00 	nop 
4000093c:	01 00 00 00 	nop 
40000940:	91 d0 20 00 	ta  0
40000944:	01 00 00 00 	nop 
40000948:	01 00 00 00 	nop 
4000094c:	01 00 00 00 	nop 
40000950:	91 d0 20 00 	ta  0
40000954:	01 00 00 00 	nop 
40000958:	01 00 00 00 	nop 
4000095c:	01 00 00 00 	nop 
40000960:	91 d0 20 00 	ta  0
40000964:	01 00 00 00 	nop 
40000968:	01 00 00 00 	nop 
4000096c:	01 00 00 00 	nop 
40000970:	91 d0 20 00 	ta  0
40000974:	01 00 00 00 	nop 
40000978:	01 00 00 00 	nop 
4000097c:	01 00 00 00 	nop 
40000980:	91 d0 20 00 	ta  0
40000984:	01 00 00 00 	nop 
40000988:	01 00 00 00 	nop 
4000098c:	01 00 00 00 	nop 
40000990:	91 d0 20 00 	ta  0
40000994:	01 00 00 00 	nop 
40000998:	01 00 00 00 	nop 
4000099c:	01 00 00 00 	nop 
400009a0:	91 d0 20 00 	ta  0
400009a4:	01 00 00 00 	nop 
400009a8:	01 00 00 00 	nop 
400009ac:	01 00 00 00 	nop 
400009b0:	91 d0 20 00 	ta  0
400009b4:	01 00 00 00 	nop 
400009b8:	01 00 00 00 	nop 
400009bc:	01 00 00 00 	nop 
400009c0:	91 d0 20 00 	ta  0
400009c4:	01 00 00 00 	nop 
400009c8:	01 00 00 00 	nop 
400009cc:	01 00 00 00 	nop 
400009d0:	91 d0 20 00 	ta  0
400009d4:	01 00 00 00 	nop 
400009d8:	01 00 00 00 	nop 
400009dc:	01 00 00 00 	nop 
400009e0:	91 d0 20 00 	ta  0
400009e4:	01 00 00 00 	nop 
400009e8:	01 00 00 00 	nop 
400009ec:	01 00 00 00 	nop 
400009f0:	91 d0 20 00 	ta  0
400009f4:	01 00 00 00 	nop 
400009f8:	01 00 00 00 	nop 
400009fc:	01 00 00 00 	nop 
40000a00:	91 d0 20 00 	ta  0
40000a04:	01 00 00 00 	nop 
40000a08:	01 00 00 00 	nop 
40000a0c:	01 00 00 00 	nop 
40000a10:	91 d0 20 00 	ta  0
40000a14:	01 00 00 00 	nop 
40000a18:	01 00 00 00 	nop 
40000a1c:	01 00 00 00 	nop 
40000a20:	91 d0 20 00 	ta  0
40000a24:	01 00 00 00 	nop 
40000a28:	01 00 00 00 	nop 
40000a2c:	01 00 00 00 	nop 
40000a30:	91 d0 20 00 	ta  0
40000a34:	01 00 00 00 	nop 
40000a38:	01 00 00 00 	nop 
40000a3c:	01 00 00 00 	nop 
40000a40:	91 d0 20 00 	ta  0
40000a44:	01 00 00 00 	nop 
40000a48:	01 00 00 00 	nop 
40000a4c:	01 00 00 00 	nop 
40000a50:	91 d0 20 00 	ta  0
40000a54:	01 00 00 00 	nop 
40000a58:	01 00 00 00 	nop 
40000a5c:	01 00 00 00 	nop 
40000a60:	91 d0 20 00 	ta  0
40000a64:	01 00 00 00 	nop 
40000a68:	01 00 00 00 	nop 
40000a6c:	01 00 00 00 	nop 
40000a70:	91 d0 20 00 	ta  0
40000a74:	01 00 00 00 	nop 
40000a78:	01 00 00 00 	nop 
40000a7c:	01 00 00 00 	nop 
40000a80:	91 d0 20 00 	ta  0
40000a84:	01 00 00 00 	nop 
40000a88:	01 00 00 00 	nop 
40000a8c:	01 00 00 00 	nop 
40000a90:	91 d0 20 00 	ta  0
40000a94:	01 00 00 00 	nop 
40000a98:	01 00 00 00 	nop 
40000a9c:	01 00 00 00 	nop 
40000aa0:	91 d0 20 00 	ta  0
40000aa4:	01 00 00 00 	nop 
40000aa8:	01 00 00 00 	nop 
40000aac:	01 00 00 00 	nop 
40000ab0:	91 d0 20 00 	ta  0
40000ab4:	01 00 00 00 	nop 
40000ab8:	01 00 00 00 	nop 
40000abc:	01 00 00 00 	nop 
40000ac0:	91 d0 20 00 	ta  0
40000ac4:	01 00 00 00 	nop 
40000ac8:	01 00 00 00 	nop 
40000acc:	01 00 00 00 	nop 
40000ad0:	91 d0 20 00 	ta  0
40000ad4:	01 00 00 00 	nop 
40000ad8:	01 00 00 00 	nop 
40000adc:	01 00 00 00 	nop 
40000ae0:	91 d0 20 00 	ta  0
40000ae4:	01 00 00 00 	nop 
40000ae8:	01 00 00 00 	nop 
40000aec:	01 00 00 00 	nop 
40000af0:	91 d0 20 00 	ta  0
40000af4:	01 00 00 00 	nop 
40000af8:	01 00 00 00 	nop 
40000afc:	01 00 00 00 	nop 
40000b00:	91 d0 20 00 	ta  0
40000b04:	01 00 00 00 	nop 
40000b08:	01 00 00 00 	nop 
40000b0c:	01 00 00 00 	nop 
40000b10:	91 d0 20 00 	ta  0
40000b14:	01 00 00 00 	nop 
40000b18:	01 00 00 00 	nop 
40000b1c:	01 00 00 00 	nop 
40000b20:	91 d0 20 00 	ta  0
40000b24:	01 00 00 00 	nop 
40000b28:	01 00 00 00 	nop 
40000b2c:	01 00 00 00 	nop 
40000b30:	91 d0 20 00 	ta  0
40000b34:	01 00 00 00 	nop 
40000b38:	01 00 00 00 	nop 
40000b3c:	01 00 00 00 	nop 
40000b40:	91 d0 20 00 	ta  0
40000b44:	01 00 00 00 	nop 
40000b48:	01 00 00 00 	nop 
40000b4c:	01 00 00 00 	nop 
40000b50:	91 d0 20 00 	ta  0
40000b54:	01 00 00 00 	nop 
40000b58:	01 00 00 00 	nop 
40000b5c:	01 00 00 00 	nop 
40000b60:	91 d0 20 00 	ta  0
40000b64:	01 00 00 00 	nop 
40000b68:	01 00 00 00 	nop 
40000b6c:	01 00 00 00 	nop 
40000b70:	91 d0 20 00 	ta  0
40000b74:	01 00 00 00 	nop 
40000b78:	01 00 00 00 	nop 
40000b7c:	01 00 00 00 	nop 
40000b80:	91 d0 20 00 	ta  0
40000b84:	01 00 00 00 	nop 
40000b88:	01 00 00 00 	nop 
40000b8c:	01 00 00 00 	nop 
40000b90:	91 d0 20 00 	ta  0
40000b94:	01 00 00 00 	nop 
40000b98:	01 00 00 00 	nop 
40000b9c:	01 00 00 00 	nop 
40000ba0:	91 d0 20 00 	ta  0
40000ba4:	01 00 00 00 	nop 
40000ba8:	01 00 00 00 	nop 
40000bac:	01 00 00 00 	nop 
40000bb0:	91 d0 20 00 	ta  0
40000bb4:	01 00 00 00 	nop 
40000bb8:	01 00 00 00 	nop 
40000bbc:	01 00 00 00 	nop 
40000bc0:	91 d0 20 00 	ta  0
40000bc4:	01 00 00 00 	nop 
40000bc8:	01 00 00 00 	nop 
40000bcc:	01 00 00 00 	nop 
40000bd0:	91 d0 20 00 	ta  0
40000bd4:	01 00 00 00 	nop 
40000bd8:	01 00 00 00 	nop 
40000bdc:	01 00 00 00 	nop 
40000be0:	91 d0 20 00 	ta  0
40000be4:	01 00 00 00 	nop 
40000be8:	01 00 00 00 	nop 
40000bec:	01 00 00 00 	nop 
40000bf0:	91 d0 20 00 	ta  0
40000bf4:	01 00 00 00 	nop 
40000bf8:	01 00 00 00 	nop 
40000bfc:	01 00 00 00 	nop 
40000c00:	91 d0 20 00 	ta  0
40000c04:	01 00 00 00 	nop 
40000c08:	01 00 00 00 	nop 
40000c0c:	01 00 00 00 	nop 
40000c10:	91 d0 20 00 	ta  0
40000c14:	01 00 00 00 	nop 
40000c18:	01 00 00 00 	nop 
40000c1c:	01 00 00 00 	nop 
40000c20:	91 d0 20 00 	ta  0
40000c24:	01 00 00 00 	nop 
40000c28:	01 00 00 00 	nop 
40000c2c:	01 00 00 00 	nop 
40000c30:	91 d0 20 00 	ta  0
40000c34:	01 00 00 00 	nop 
40000c38:	01 00 00 00 	nop 
40000c3c:	01 00 00 00 	nop 
40000c40:	91 d0 20 00 	ta  0
40000c44:	01 00 00 00 	nop 
40000c48:	01 00 00 00 	nop 
40000c4c:	01 00 00 00 	nop 
40000c50:	91 d0 20 00 	ta  0
40000c54:	01 00 00 00 	nop 
40000c58:	01 00 00 00 	nop 
40000c5c:	01 00 00 00 	nop 
40000c60:	91 d0 20 00 	ta  0
40000c64:	01 00 00 00 	nop 
40000c68:	01 00 00 00 	nop 
40000c6c:	01 00 00 00 	nop 
40000c70:	91 d0 20 00 	ta  0
40000c74:	01 00 00 00 	nop 
40000c78:	01 00 00 00 	nop 
40000c7c:	01 00 00 00 	nop 
40000c80:	91 d0 20 00 	ta  0
40000c84:	01 00 00 00 	nop 
40000c88:	01 00 00 00 	nop 
40000c8c:	01 00 00 00 	nop 
40000c90:	91 d0 20 00 	ta  0
40000c94:	01 00 00 00 	nop 
40000c98:	01 00 00 00 	nop 
40000c9c:	01 00 00 00 	nop 
40000ca0:	91 d0 20 00 	ta  0
40000ca4:	01 00 00 00 	nop 
40000ca8:	01 00 00 00 	nop 
40000cac:	01 00 00 00 	nop 
40000cb0:	91 d0 20 00 	ta  0
40000cb4:	01 00 00 00 	nop 
40000cb8:	01 00 00 00 	nop 
40000cbc:	01 00 00 00 	nop 
40000cc0:	91 d0 20 00 	ta  0
40000cc4:	01 00 00 00 	nop 
40000cc8:	01 00 00 00 	nop 
40000ccc:	01 00 00 00 	nop 
40000cd0:	91 d0 20 00 	ta  0
40000cd4:	01 00 00 00 	nop 
40000cd8:	01 00 00 00 	nop 
40000cdc:	01 00 00 00 	nop 
40000ce0:	91 d0 20 00 	ta  0
40000ce4:	01 00 00 00 	nop 
40000ce8:	01 00 00 00 	nop 
40000cec:	01 00 00 00 	nop 
40000cf0:	91 d0 20 00 	ta  0
40000cf4:	01 00 00 00 	nop 
40000cf8:	01 00 00 00 	nop 
40000cfc:	01 00 00 00 	nop 
40000d00:	91 d0 20 00 	ta  0
40000d04:	01 00 00 00 	nop 
40000d08:	01 00 00 00 	nop 
40000d0c:	01 00 00 00 	nop 
40000d10:	91 d0 20 00 	ta  0
40000d14:	01 00 00 00 	nop 
40000d18:	01 00 00 00 	nop 
40000d1c:	01 00 00 00 	nop 
40000d20:	91 d0 20 00 	ta  0
40000d24:	01 00 00 00 	nop 
40000d28:	01 00 00 00 	nop 
40000d2c:	01 00 00 00 	nop 
40000d30:	91 d0 20 00 	ta  0
40000d34:	01 00 00 00 	nop 
40000d38:	01 00 00 00 	nop 
40000d3c:	01 00 00 00 	nop 
40000d40:	91 d0 20 00 	ta  0
40000d44:	01 00 00 00 	nop 
40000d48:	01 00 00 00 	nop 
40000d4c:	01 00 00 00 	nop 
40000d50:	91 d0 20 00 	ta  0
40000d54:	01 00 00 00 	nop 
40000d58:	01 00 00 00 	nop 
40000d5c:	01 00 00 00 	nop 
40000d60:	91 d0 20 00 	ta  0
40000d64:	01 00 00 00 	nop 
40000d68:	01 00 00 00 	nop 
40000d6c:	01 00 00 00 	nop 
40000d70:	91 d0 20 00 	ta  0
40000d74:	01 00 00 00 	nop 
40000d78:	01 00 00 00 	nop 
40000d7c:	01 00 00 00 	nop 
40000d80:	91 d0 20 00 	ta  0
40000d84:	01 00 00 00 	nop 
40000d88:	01 00 00 00 	nop 
40000d8c:	01 00 00 00 	nop 
40000d90:	91 d0 20 00 	ta  0
40000d94:	01 00 00 00 	nop 
40000d98:	01 00 00 00 	nop 
40000d9c:	01 00 00 00 	nop 
40000da0:	91 d0 20 00 	ta  0
40000da4:	01 00 00 00 	nop 
40000da8:	01 00 00 00 	nop 
40000dac:	01 00 00 00 	nop 
40000db0:	91 d0 20 00 	ta  0
40000db4:	01 00 00 00 	nop 
40000db8:	01 00 00 00 	nop 
40000dbc:	01 00 00 00 	nop 
40000dc0:	91 d0 20 00 	ta  0
40000dc4:	01 00 00 00 	nop 
40000dc8:	01 00 00 00 	nop 
40000dcc:	01 00 00 00 	nop 
40000dd0:	91 d0 20 00 	ta  0
40000dd4:	01 00 00 00 	nop 
40000dd8:	01 00 00 00 	nop 
40000ddc:	01 00 00 00 	nop 
40000de0:	91 d0 20 00 	ta  0
40000de4:	01 00 00 00 	nop 
40000de8:	01 00 00 00 	nop 
40000dec:	01 00 00 00 	nop 
40000df0:	91 d0 20 00 	ta  0
40000df4:	01 00 00 00 	nop 
40000df8:	01 00 00 00 	nop 
40000dfc:	01 00 00 00 	nop 
40000e00:	91 d0 20 00 	ta  0
40000e04:	01 00 00 00 	nop 
40000e08:	01 00 00 00 	nop 
40000e0c:	01 00 00 00 	nop 
40000e10:	91 d0 20 00 	ta  0
40000e14:	01 00 00 00 	nop 
40000e18:	01 00 00 00 	nop 
40000e1c:	01 00 00 00 	nop 
40000e20:	91 d0 20 00 	ta  0
40000e24:	01 00 00 00 	nop 
40000e28:	01 00 00 00 	nop 
40000e2c:	01 00 00 00 	nop 
40000e30:	91 d0 20 00 	ta  0
40000e34:	01 00 00 00 	nop 
40000e38:	01 00 00 00 	nop 
40000e3c:	01 00 00 00 	nop 
40000e40:	91 d0 20 00 	ta  0
40000e44:	01 00 00 00 	nop 
40000e48:	01 00 00 00 	nop 
40000e4c:	01 00 00 00 	nop 
40000e50:	91 d0 20 00 	ta  0
40000e54:	01 00 00 00 	nop 
40000e58:	01 00 00 00 	nop 
40000e5c:	01 00 00 00 	nop 
40000e60:	91 d0 20 00 	ta  0
40000e64:	01 00 00 00 	nop 
40000e68:	01 00 00 00 	nop 
40000e6c:	01 00 00 00 	nop 
40000e70:	91 d0 20 00 	ta  0
40000e74:	01 00 00 00 	nop 
40000e78:	01 00 00 00 	nop 
40000e7c:	01 00 00 00 	nop 
40000e80:	91 d0 20 00 	ta  0
40000e84:	01 00 00 00 	nop 
40000e88:	01 00 00 00 	nop 
40000e8c:	01 00 00 00 	nop 
40000e90:	91 d0 20 00 	ta  0
40000e94:	01 00 00 00 	nop 
40000e98:	01 00 00 00 	nop 
40000e9c:	01 00 00 00 	nop 
40000ea0:	91 d0 20 00 	ta  0
40000ea4:	01 00 00 00 	nop 
40000ea8:	01 00 00 00 	nop 
40000eac:	01 00 00 00 	nop 
40000eb0:	91 d0 20 00 	ta  0
40000eb4:	01 00 00 00 	nop 
40000eb8:	01 00 00 00 	nop 
40000ebc:	01 00 00 00 	nop 
40000ec0:	91 d0 20 00 	ta  0
40000ec4:	01 00 00 00 	nop 
40000ec8:	01 00 00 00 	nop 
40000ecc:	01 00 00 00 	nop 
40000ed0:	91 d0 20 00 	ta  0
40000ed4:	01 00 00 00 	nop 
40000ed8:	01 00 00 00 	nop 
40000edc:	01 00 00 00 	nop 
40000ee0:	91 d0 20 00 	ta  0
40000ee4:	01 00 00 00 	nop 
40000ee8:	01 00 00 00 	nop 
40000eec:	01 00 00 00 	nop 
40000ef0:	91 d0 20 00 	ta  0
40000ef4:	01 00 00 00 	nop 
40000ef8:	01 00 00 00 	nop 
40000efc:	01 00 00 00 	nop 
40000f00:	91 d0 20 00 	ta  0
40000f04:	01 00 00 00 	nop 
40000f08:	01 00 00 00 	nop 
40000f0c:	01 00 00 00 	nop 
40000f10:	91 d0 20 00 	ta  0
40000f14:	01 00 00 00 	nop 
40000f18:	01 00 00 00 	nop 
40000f1c:	01 00 00 00 	nop 
40000f20:	91 d0 20 00 	ta  0
40000f24:	01 00 00 00 	nop 
40000f28:	01 00 00 00 	nop 
40000f2c:	01 00 00 00 	nop 
40000f30:	91 d0 20 00 	ta  0
40000f34:	01 00 00 00 	nop 
40000f38:	01 00 00 00 	nop 
40000f3c:	01 00 00 00 	nop 
40000f40:	91 d0 20 00 	ta  0
40000f44:	01 00 00 00 	nop 
40000f48:	01 00 00 00 	nop 
40000f4c:	01 00 00 00 	nop 
40000f50:	91 d0 20 00 	ta  0
40000f54:	01 00 00 00 	nop 
40000f58:	01 00 00 00 	nop 
40000f5c:	01 00 00 00 	nop 
40000f60:	91 d0 20 00 	ta  0
40000f64:	01 00 00 00 	nop 
40000f68:	01 00 00 00 	nop 
40000f6c:	01 00 00 00 	nop 
40000f70:	91 d0 20 00 	ta  0
40000f74:	01 00 00 00 	nop 
40000f78:	01 00 00 00 	nop 
40000f7c:	01 00 00 00 	nop 
40000f80:	91 d0 20 00 	ta  0
40000f84:	01 00 00 00 	nop 
40000f88:	01 00 00 00 	nop 
40000f8c:	01 00 00 00 	nop 
40000f90:	91 d0 20 00 	ta  0
40000f94:	01 00 00 00 	nop 
40000f98:	01 00 00 00 	nop 
40000f9c:	01 00 00 00 	nop 
40000fa0:	91 d0 20 00 	ta  0
40000fa4:	01 00 00 00 	nop 
40000fa8:	01 00 00 00 	nop 
40000fac:	01 00 00 00 	nop 
40000fb0:	91 d0 20 00 	ta  0
40000fb4:	01 00 00 00 	nop 
40000fb8:	01 00 00 00 	nop 
40000fbc:	01 00 00 00 	nop 
40000fc0:	91 d0 20 00 	ta  0
40000fc4:	01 00 00 00 	nop 
40000fc8:	01 00 00 00 	nop 
40000fcc:	01 00 00 00 	nop 
40000fd0:	91 d0 20 00 	ta  0
40000fd4:	01 00 00 00 	nop 
40000fd8:	01 00 00 00 	nop 
40000fdc:	01 00 00 00 	nop 
40000fe0:	91 d0 20 00 	ta  0
40000fe4:	01 00 00 00 	nop 
40000fe8:	01 00 00 00 	nop 
40000fec:	01 00 00 00 	nop 
40000ff0:	91 d0 20 00 	ta  0
40000ff4:	01 00 00 00 	nop 
40000ff8:	01 00 00 00 	nop 
40000ffc:	01 00 00 00 	nop 

40001000 <__bcc_crt0>:
40001000:	40 00 01 8f 	call  4000163c <__bcc_init40>
40001004:	01 00 00 00 	nop 
40001008:	a0 0b bf f0 	and  %sp, -16, %l0
4000100c:	9c 24 20 60 	sub  %l0, 0x60, %sp
40001010:	bc 10 00 00 	mov  %g0, %fp
40001014:	be 10 00 00 	mov  %g0, %i7
40001018:	19 00 00 00 	sethi  %hi(0), %o4
4000101c:	98 13 20 00 	mov  %o4, %o4	! 0 <__bcc_cfg_skip_clear_bss>
40001020:	80 a3 00 00 	cmp  %o4, %g0
40001024:	12 80 00 09 	bne  40001048 <__bcc_crt0+0x48>
40001028:	11 10 00 3e 	sethi  %hi(0x4000f800), %o0
4000102c:	90 12 21 40 	or  %o0, 0x140, %o0	! 4000f940 <__TMC_END__>
40001030:	15 10 00 3e 	sethi  %hi(0x4000f800), %o2
40001034:	94 12 a3 00 	or  %o2, 0x300, %o2	! 4000fb00 <__bss_end>
40001038:	96 22 80 08 	sub  %o2, %o0, %o3
4000103c:	93 32 e0 03 	srl  %o3, 3, %o1
40001040:	40 00 01 a7 	call  400016dc <bcc_dwzero>
40001044:	01 00 00 00 	nop 
40001048:	23 10 00 3e 	sethi  %hi(0x4000f800), %l1
4000104c:	e0 24 61 40 	st  %l0, [ %l1 + 0x140 ]	! 4000f940 <__TMC_END__>
40001050:	40 00 01 ae 	call  40001708 <__bcc_copy_data>
40001054:	01 00 00 00 	nop 
40001058:	40 00 01 79 	call  4000163c <__bcc_init40>
4000105c:	01 00 00 00 	nop 
40001060:	40 00 01 79 	call  40001644 <__bcc_get_leon_info>
40001064:	01 00 00 00 	nop 
40001068:	40 00 02 3d 	call  4000195c <__bcc_con_init>
4000106c:	01 00 00 00 	nop 
40001070:	40 00 02 4f 	call  400019ac <__bcc_timer_init>
40001074:	01 00 00 00 	nop 
40001078:	40 00 01 cd 	call  400017ac <__bcc_int_init>
4000107c:	01 00 00 00 	nop 
40001080:	11 10 00 3b 	sethi  %hi(0x4000ec00), %o0
40001084:	90 12 20 a0 	or  %o0, 0xa0, %o0	! 4000eca0 <_fini>
40001088:	40 00 04 4c 	call  400021b8 <atexit>
4000108c:	01 00 00 00 	nop 
40001090:	40 00 36 fc 	call  4000ec80 <_init>
40001094:	01 00 00 00 	nop 
40001098:	40 00 01 69 	call  4000163c <__bcc_init40>
4000109c:	01 00 00 00 	nop 
400010a0:	21 10 00 3e 	sethi  %hi(0x4000f800), %l0
400010a4:	d0 04 22 00 	ld  [ %l0 + 0x200 ], %o0	! 4000fa00 <__bcc_argc>
400010a8:	23 10 00 3c 	sethi  %hi(0x4000f000), %l1
400010ac:	d2 04 63 58 	ld  [ %l1 + 0x358 ], %o1	! 4000f358 <__bcc_argvp>
400010b0:	40 00 00 68 	call  40001250 <main>
400010b4:	94 10 00 00 	mov  %g0, %o2
400010b8:	40 00 04 47 	call  400021d4 <exit>
400010bc:	01 00 00 00 	nop 
400010c0:	82 10 20 02 	mov  2, %g1	! 2 <_CONTEXT_I_+0x1>
400010c4:	91 d0 20 01 	ta  1

400010c8 <deregister_tm_clones>:
400010c8:	9d e3 bf a0 	save  %sp, -96, %sp
400010cc:	11 10 00 3e 	sethi  %hi(0x4000f800), %o0
400010d0:	03 10 00 3e 	sethi  %hi(0x4000f800), %g1
400010d4:	90 12 21 40 	or  %o0, 0x140, %o0
400010d8:	82 10 61 40 	or  %g1, 0x140, %g1
400010dc:	80 a0 40 08 	cmp  %g1, %o0
400010e0:	02 80 00 08 	be  40001100 <deregister_tm_clones+0x38>
400010e4:	03 00 00 00 	sethi  %hi(0), %g1
400010e8:	82 10 60 00 	mov  %g1, %g1	! 0 <__bcc_cfg_skip_clear_bss>
400010ec:	80 a0 60 00 	cmp  %g1, 0
400010f0:	02 80 00 04 	be  40001100 <deregister_tm_clones+0x38>
400010f4:	01 00 00 00 	nop 
400010f8:	9f c0 40 00 	call  %g1
400010fc:	01 00 00 00 	nop 
40001100:	81 c7 e0 08 	ret 
40001104:	81 e8 00 00 	restore 

40001108 <register_tm_clones>:
40001108:	9d e3 bf a0 	save  %sp, -96, %sp
4000110c:	03 10 00 3e 	sethi  %hi(0x4000f800), %g1
40001110:	11 10 00 3e 	sethi  %hi(0x4000f800), %o0
40001114:	92 10 61 40 	or  %g1, 0x140, %o1
40001118:	90 12 21 40 	or  %o0, 0x140, %o0
4000111c:	92 22 40 08 	sub  %o1, %o0, %o1
40001120:	83 3a 60 02 	sra  %o1, 2, %g1
40001124:	93 32 60 1f 	srl  %o1, 0x1f, %o1
40001128:	92 02 40 01 	add  %o1, %g1, %o1
4000112c:	93 3a 60 01 	sra  %o1, 1, %o1
40001130:	80 a2 60 00 	cmp  %o1, 0
40001134:	02 80 00 08 	be  40001154 <register_tm_clones+0x4c>
40001138:	03 00 00 00 	sethi  %hi(0), %g1
4000113c:	82 10 60 00 	mov  %g1, %g1	! 0 <__bcc_cfg_skip_clear_bss>
40001140:	80 a0 60 00 	cmp  %g1, 0
40001144:	02 80 00 04 	be  40001154 <register_tm_clones+0x4c>
40001148:	01 00 00 00 	nop 
4000114c:	9f c0 40 00 	call  %g1
40001150:	01 00 00 00 	nop 
40001154:	81 c7 e0 08 	ret 
40001158:	81 e8 00 00 	restore 

4000115c <__do_global_dtors_aux>:
4000115c:	9d e3 bf a0 	save  %sp, -96, %sp
40001160:	35 10 00 3e 	sethi  %hi(0x4000f800), %i2
40001164:	c2 0e a1 44 	ldub  [ %i2 + 0x144 ], %g1	! 4000f944 <completed.2>
40001168:	80 a0 60 00 	cmp  %g1, 0
4000116c:	12 80 00 25 	bne  40001200 <__do_global_dtors_aux+0xa4>
40001170:	03 10 00 3b 	sethi  %hi(0x4000ec00), %g1
40001174:	82 10 60 74 	or  %g1, 0x74, %g1	! 4000ec74 <__DTOR_LIST__>
40001178:	3b 10 00 3e 	sethi  %hi(0x4000f800), %i5
4000117c:	39 10 00 3b 	sethi  %hi(0x4000ec00), %i4
40001180:	05 10 00 3b 	sethi  %hi(0x4000ec00), %g2
40001184:	b8 17 20 78 	or  %i4, 0x78, %i4
40001188:	b6 10 a0 74 	or  %g2, 0x74, %i3
4000118c:	b8 27 00 01 	sub  %i4, %g1, %i4
40001190:	c2 07 61 48 	ld  [ %i5 + 0x148 ], %g1
40001194:	b9 3f 20 02 	sra  %i4, 2, %i4
40001198:	b8 07 3f ff 	add  %i4, -1, %i4
4000119c:	80 a0 40 1c 	cmp  %g1, %i4
400011a0:	1a 80 00 0c 	bcc  400011d0 <__do_global_dtors_aux+0x74>
400011a4:	82 00 60 01 	inc  %g1
400011a8:	ba 17 61 48 	or  %i5, 0x148, %i5
400011ac:	85 28 60 02 	sll  %g1, 2, %g2
400011b0:	c2 27 40 00 	st  %g1, [ %i5 ]
400011b4:	c2 06 c0 02 	ld  [ %i3 + %g2 ], %g1
400011b8:	9f c0 40 00 	call  %g1
400011bc:	01 00 00 00 	nop 
400011c0:	c2 07 40 00 	ld  [ %i5 ], %g1
400011c4:	80 a0 40 1c 	cmp  %g1, %i4
400011c8:	0a bf ff f9 	bcs  400011ac <__do_global_dtors_aux+0x50>
400011cc:	82 00 60 01 	inc  %g1
400011d0:	7f ff ff be 	call  400010c8 <deregister_tm_clones>
400011d4:	01 00 00 00 	nop 
400011d8:	03 00 00 00 	sethi  %hi(0), %g1
400011dc:	82 10 60 00 	mov  %g1, %g1	! 0 <__bcc_cfg_skip_clear_bss>
400011e0:	80 a0 60 00 	cmp  %g1, 0
400011e4:	02 80 00 06 	be  400011fc <__do_global_dtors_aux+0xa0>
400011e8:	82 10 20 01 	mov  1, %g1
400011ec:	11 10 00 3b 	sethi  %hi(0x4000ec00), %o0
400011f0:	6f ff fb 84 	call  0 <__bcc_cfg_skip_clear_bss>
400011f4:	90 12 20 00 	mov  %o0, %o0	! 4000ec00 <__EH_FRAME_BEGIN__>
400011f8:	82 10 20 01 	mov  1, %g1
400011fc:	c2 2e a1 44 	stb  %g1, [ %i2 + 0x144 ]
40001200:	81 c7 e0 08 	ret 
40001204:	81 e8 00 00 	restore 

40001208 <call___do_global_dtors_aux>:
40001208:	9d e3 bf a0 	save  %sp, -96, %sp
4000120c:	81 c7 e0 08 	ret 
40001210:	81 e8 00 00 	restore 

40001214 <frame_dummy>:
40001214:	9d e3 bf a0 	save  %sp, -96, %sp
40001218:	03 00 00 00 	sethi  %hi(0), %g1
4000121c:	82 10 60 00 	mov  %g1, %g1	! 0 <__bcc_cfg_skip_clear_bss>
40001220:	80 a0 60 00 	cmp  %g1, 0
40001224:	02 80 00 06 	be  4000123c <frame_dummy+0x28>
40001228:	13 10 00 3e 	sethi  %hi(0x4000f800), %o1
4000122c:	11 10 00 3b 	sethi  %hi(0x4000ec00), %o0
40001230:	92 12 61 4c 	or  %o1, 0x14c, %o1
40001234:	6f ff fb 73 	call  0 <__bcc_cfg_skip_clear_bss>
40001238:	90 12 20 00 	mov  %o0, %o0
4000123c:	7f ff ff b3 	call  40001108 <register_tm_clones>
40001240:	81 e8 00 00 	restore 

40001244 <call_frame_dummy>:
40001244:	9d e3 bf a0 	save  %sp, -96, %sp
40001248:	81 c7 e0 08 	ret 
4000124c:	81 e8 00 00 	restore 

40001250 <main>:
40001250:	9d e3 bf 98 	save  %sp, -104, %sp
40001254:	82 10 20 19 	mov  0x19, %g1
40001258:	c2 27 bf fc 	st  %g1, [ %fp + -4 ]
4000125c:	c2 07 bf fc 	ld  [ %fp + -4 ], %g1
40001260:	c2 27 bf f8 	st  %g1, [ %fp + -8 ]
40001264:	c2 07 bf f8 	ld  [ %fp + -8 ], %g1
40001268:	82 00 7f f6 	add  %g1, -10, %g1
4000126c:	c2 27 bf f8 	st  %g1, [ %fp + -8 ]
40001270:	d2 07 bf f8 	ld  [ %fp + -8 ], %o1
40001274:	03 10 00 3b 	sethi  %hi(0x4000ec00), %g1
40001278:	90 10 60 c0 	or  %g1, 0xc0, %o0	! 4000ecc0 <__text_end>
4000127c:	40 00 04 6d 	call  40002430 <printf>
40001280:	01 00 00 00 	nop 
40001284:	82 10 20 00 	clr  %g1	! 0 <__bcc_cfg_skip_clear_bss>
40001288:	b0 10 00 01 	mov  %g1, %i0
4000128c:	81 e8 00 00 	restore 
40001290:	81 c3 e0 08 	retl 
40001294:	01 00 00 00 	nop 

40001298 <__bcc_trap_reset_mvt>:
40001298:	40 00 00 e9 	call  4000163c <__bcc_init40>
4000129c:	01 00 00 00 	nop 
400012a0:	83 48 00 00 	rd  %psr, %g1
400012a4:	83 30 60 18 	srl  %g1, 0x18, %g1
400012a8:	82 08 60 0f 	and  %g1, 0xf, %g1
400012ac:	80 a0 60 03 	cmp  %g1, 3
400012b0:	02 80 00 07 	be  400012cc <__bcc_trap_reset_mvt+0x34>
400012b4:	01 00 00 00 	nop 
400012b8:	80 a0 60 05 	cmp  %g1, 5
400012bc:	02 80 00 04 	be  400012cc <__bcc_trap_reset_mvt+0x34>
400012c0:	01 00 00 00 	nop 
400012c4:	10 80 00 09 	b  400012e8 <__bcc_trap_reset_mvt+0x50>
400012c8:	01 00 00 00 	nop 
400012cc:	83 44 40 00 	rd  %asr17, %g1
400012d0:	05 00 00 08 	sethi  %hi(0x2000), %g2
400012d4:	82 28 40 02 	andn  %g1, %g2, %g1
400012d8:	a3 80 00 01 	wr  %g1, %asr17
400012dc:	01 00 00 00 	nop 
400012e0:	01 00 00 00 	nop 
400012e4:	01 00 00 00 	nop 
400012e8:	03 10 00 00 	sethi  %hi(0x40000000), %g1
400012ec:	82 10 60 00 	mov  %g1, %g1	! 40000000 <__bcc_entry_point>
400012f0:	81 98 00 01 	wr  %g1, %tbr
400012f4:	81 90 20 02 	wr  2, %wim
400012f8:	88 10 00 0e 	mov  %sp, %g4
400012fc:	83 48 00 00 	rd  %psr, %g1
40001300:	86 10 2f 3f 	mov  0xf3f, %g3
40001304:	84 28 40 03 	andn  %g1, %g3, %g2
40001308:	81 88 a0 20 	wr  %g2, 0x20, %psr
4000130c:	01 00 00 00 	nop 
40001310:	01 00 00 00 	nop 
40001314:	01 00 00 00 	nop 
40001318:	9c 10 00 04 	mov  %g4, %sp
4000131c:	03 10 00 04 	sethi  %hi(0x40001000), %g1
40001320:	81 c0 60 00 	jmp  %g1
40001324:	01 00 00 00 	nop 

40001328 <__bcc_trap_window_overflow>:
40001328:	81 e0 00 00 	save 
4000132c:	e0 3b a0 00 	std  %l0, [ %sp ]
40001330:	21 10 00 3c 	sethi  %hi(0x4000f000), %l0
40001334:	a0 14 23 4c 	or  %l0, 0x34c, %l0	! 4000f34c <__bcc_nwindows_min1>
40001338:	e4 3b a0 08 	std  %l2, [ %sp + 8 ]
4000133c:	e2 04 00 00 	ld  [ %l0 ], %l1
40001340:	e8 3b a0 10 	std  %l4, [ %sp + 0x10 ]
40001344:	a7 50 00 00 	rd  %wim, %l3
40001348:	ec 3b a0 18 	std  %l6, [ %sp + 0x18 ]
4000134c:	a5 2c c0 11 	sll  %l3, %l1, %l2
40001350:	f0 3b a0 20 	std  %i0, [ %sp + 0x20 ]
40001354:	a7 34 e0 01 	srl  %l3, 1, %l3
40001358:	f4 3b a0 28 	std  %i2, [ %sp + 0x28 ]
4000135c:	81 94 c0 12 	wr  %l3, %l2, %wim
40001360:	f8 3b a0 30 	std  %i4, [ %sp + 0x30 ]
40001364:	01 00 00 00 	nop 
40001368:	fc 3b a0 38 	std  %fp, [ %sp + 0x38 ]
4000136c:	81 e8 00 00 	restore 
40001370:	81 c4 40 00 	jmp  %l1
40001374:	81 cc 80 00 	rett  %l2

40001378 <__bcc_trap_window_underflow>:
40001378:	2d 10 00 3c 	sethi  %hi(0x4000f000), %l6
4000137c:	ac 15 a3 4c 	or  %l6, 0x34c, %l6	! 4000f34c <__bcc_nwindows_min1>
40001380:	ee 05 80 00 	ld  [ %l6 ], %l7
40001384:	a7 50 00 00 	rd  %wim, %l3
40001388:	a9 2c e0 01 	sll  %l3, 1, %l4
4000138c:	ab 34 c0 17 	srl  %l3, %l7, %l5
40001390:	81 95 00 15 	wr  %l4, %l5, %wim
40001394:	01 00 00 00 	nop 
40001398:	01 00 00 00 	nop 
4000139c:	01 00 00 00 	nop 
400013a0:	81 e8 00 00 	restore 
400013a4:	81 e8 00 00 	restore 
400013a8:	e0 1b a0 00 	ldd  [ %sp ], %l0
400013ac:	e4 1b a0 08 	ldd  [ %sp + 8 ], %l2
400013b0:	e8 1b a0 10 	ldd  [ %sp + 0x10 ], %l4
400013b4:	ec 1b a0 18 	ldd  [ %sp + 0x18 ], %l6
400013b8:	f0 1b a0 20 	ldd  [ %sp + 0x20 ], %i0
400013bc:	f4 1b a0 28 	ldd  [ %sp + 0x28 ], %i2
400013c0:	f8 1b a0 30 	ldd  [ %sp + 0x30 ], %i4
400013c4:	fc 1b a0 38 	ldd  [ %sp + 0x38 ], %fp
400013c8:	81 e0 00 00 	save 
400013cc:	81 e0 00 00 	save 
400013d0:	81 c4 40 00 	jmp  %l1
400013d4:	81 cc 80 00 	rett  %l2

400013d8 <__bcc_trap_interrupt_svt>:
400013d8:	a6 25 a0 10 	sub  %l6, 0x10, %l3

400013dc <__bcc_trap_interrupt>:
400013dc:	a8 10 00 02 	mov  %g2, %l4
400013e0:	aa 10 00 03 	mov  %g3, %l5
400013e4:	85 50 00 00 	rd  %wim, %g2
400013e8:	87 30 80 10 	srl  %g2, %l0, %g3
400013ec:	80 a0 e0 01 	cmp  %g3, 1
400013f0:	12 80 00 11 	bne  40001434 <__bcc_trap_interrupt+0x58>
400013f4:	07 10 00 3c 	sethi  %hi(0x4000f000), %g3
400013f8:	c6 00 e3 4c 	ld  [ %g3 + 0x34c ], %g3	! 4000f34c <__bcc_nwindows_min1>
400013fc:	87 28 80 03 	sll  %g2, %g3, %g3
40001400:	85 30 a0 01 	srl  %g2, 1, %g2
40001404:	84 10 80 03 	or  %g2, %g3, %g2
40001408:	81 e0 00 00 	save 
4000140c:	e0 3b a0 00 	std  %l0, [ %sp ]
40001410:	81 90 00 02 	wr  %g2, %wim
40001414:	e4 3b a0 08 	std  %l2, [ %sp + 8 ]
40001418:	e8 3b a0 10 	std  %l4, [ %sp + 0x10 ]
4000141c:	ec 3b a0 18 	std  %l6, [ %sp + 0x18 ]
40001420:	f0 3b a0 20 	std  %i0, [ %sp + 0x20 ]
40001424:	f4 3b a0 28 	std  %i2, [ %sp + 0x28 ]
40001428:	f8 3b a0 30 	std  %i4, [ %sp + 0x30 ]
4000142c:	fc 3b a0 38 	std  %fp, [ %sp + 0x38 ]
40001430:	81 e8 00 00 	restore 
40001434:	9c 27 a0 18 	sub  %fp, 0x18, %sp
40001438:	c2 23 a0 04 	st  %g1, [ %sp + 4 ]
4000143c:	e8 3b a0 08 	std  %l4, [ %sp + 8 ]
40001440:	83 40 00 00 	rd  %y, %g1
40001444:	c8 23 a0 10 	st  %g4, [ %sp + 0x10 ]
40001448:	c2 23 a0 00 	st  %g1, [ %sp ]
4000144c:	29 10 00 3c 	sethi  %hi(0x4000f000), %l4
40001450:	a8 15 23 38 	or  %l4, 0x338, %l4	! 4000f338 <__bcc_int_nest>
40001454:	96 2c 2f 00 	andn  %l0, 0xf00, %o3
40001458:	d2 0d 00 13 	ldub  [ %l4 + %l3 ], %o1
4000145c:	95 2a 60 08 	sll  %o1, 8, %o2
40001460:	90 12 c0 0a 	or  %o3, %o2, %o0
40001464:	ea 0d 00 00 	ldub  [ %l4 ], %l5
40001468:	ac 05 60 01 	add  %l5, 1, %l6
4000146c:	ec 2d 00 00 	stb  %l6, [ %l4 ]
40001470:	9c 23 a0 60 	sub  %sp, 0x60, %sp
40001474:	81 8a 20 20 	wr  %o0, 0x20, %psr
40001478:	01 00 00 00 	nop 
4000147c:	01 00 00 00 	nop 
40001480:	01 00 00 00 	nop 
40001484:	40 00 00 b8 	call  40001764 <__bcc_int_get_source>
40001488:	90 10 00 13 	mov  %l3, %o0
4000148c:	80 a2 00 00 	cmp  %o0, %g0
40001490:	02 80 00 10 	be  400014d0 <__bcc_trap_interrupt+0xf4>
40001494:	ac 10 00 08 	mov  %o0, %l6
40001498:	03 10 00 3e 	sethi  %hi(0x4000f800), %g1
4000149c:	82 10 61 7c 	or  %g1, 0x17c, %g1	! 4000f97c <__bcc_isr_list>
400014a0:	85 2a 20 02 	sll  %o0, 2, %g2
400014a4:	e6 00 40 02 	ld  [ %g1 + %g2 ], %l3
400014a8:	80 a4 c0 00 	cmp  %l3, %g0
400014ac:	02 80 00 09 	be  400014d0 <__bcc_trap_interrupt+0xf4>
400014b0:	92 10 00 16 	mov  %l6, %o1
400014b4:	c8 04 e0 08 	ld  [ %l3 + 8 ], %g4
400014b8:	01 00 00 00 	nop 
400014bc:	d0 04 e0 0c 	ld  [ %l3 + 0xc ], %o0
400014c0:	9f c1 00 00 	call  %g4
400014c4:	01 00 00 00 	nop 
400014c8:	10 bf ff f8 	b  400014a8 <__bcc_trap_interrupt+0xcc>
400014cc:	e6 04 e0 00 	ld  [ %l3 ], %l3
400014d0:	81 88 00 10 	wr  %l0, %psr
400014d4:	01 00 00 00 	nop 
400014d8:	01 00 00 00 	nop 
400014dc:	01 00 00 00 	nop 
400014e0:	9c 03 a0 60 	add  %sp, 0x60, %sp
400014e4:	ea 2d 00 00 	stb  %l5, [ %l4 ]
400014e8:	c2 03 a0 00 	ld  [ %sp ], %g1
400014ec:	81 80 00 01 	wr  %g1, %y
400014f0:	c8 03 a0 10 	ld  [ %sp + 0x10 ], %g4
400014f4:	c4 1b a0 08 	ldd  [ %sp + 8 ], %g2
400014f8:	c2 03 a0 04 	ld  [ %sp + 4 ], %g1
400014fc:	a9 50 00 00 	rd  %wim, %l4
40001500:	ac 04 20 01 	add  %l0, 1, %l6
40001504:	ac 0d a0 1f 	and  %l6, 0x1f, %l6
40001508:	2b 10 00 3c 	sethi  %hi(0x4000f000), %l5
4000150c:	ee 05 63 50 	ld  [ %l5 + 0x350 ], %l7	! 4000f350 <__bcc_nwindows>
40001510:	80 a5 80 17 	cmp  %l6, %l7
40001514:	36 80 00 02 	bge,a   4000151c <__bcc_trap_interrupt+0x140>
40001518:	ac 10 20 00 	clr  %l6
4000151c:	ab 35 00 16 	srl  %l4, %l6, %l5
40001520:	80 a5 60 01 	cmp  %l5, 1
40001524:	12 80 00 13 	bne  40001570 <__bcc_trap_interrupt+0x194>
40001528:	01 00 00 00 	nop 
4000152c:	ae 25 e0 01 	dec  %l7
40001530:	ab 35 00 17 	srl  %l4, %l7, %l5
40001534:	a9 2d 20 01 	sll  %l4, 1, %l4
40001538:	81 95 00 15 	wr  %l4, %l5, %wim
4000153c:	01 00 00 00 	nop 
40001540:	01 00 00 00 	nop 
40001544:	01 00 00 00 	nop 
40001548:	81 e8 00 00 	restore 
4000154c:	e0 1b a0 00 	ldd  [ %sp ], %l0
40001550:	e4 1b a0 08 	ldd  [ %sp + 8 ], %l2
40001554:	e8 1b a0 10 	ldd  [ %sp + 0x10 ], %l4
40001558:	ec 1b a0 18 	ldd  [ %sp + 0x18 ], %l6
4000155c:	f0 1b a0 20 	ldd  [ %sp + 0x20 ], %i0
40001560:	f4 1b a0 28 	ldd  [ %sp + 0x28 ], %i2
40001564:	f8 1b a0 30 	ldd  [ %sp + 0x30 ], %i4
40001568:	fc 1b a0 38 	ldd  [ %sp + 0x38 ], %fp
4000156c:	81 e0 00 00 	save 
40001570:	81 88 00 10 	wr  %l0, %psr
40001574:	01 00 00 00 	nop 
40001578:	01 00 00 00 	nop 
4000157c:	01 00 00 00 	nop 
40001580:	81 c4 40 00 	jmp  %l1
40001584:	81 cc 80 00 	rett  %l2

40001588 <__bcc_trap_flush_windows>:
40001588:	29 10 00 3e 	sethi  %hi(0x4000f800), %l4
4000158c:	a8 15 21 68 	or  %l4, 0x168, %l4	! 4000f968 <__bcc_winflush_spill_globals>
40001590:	c4 3d 00 00 	std  %g2, [ %l4 ]
40001594:	e4 25 20 10 	st  %l2, [ %l4 + 0x10 ]
40001598:	e0 3d 20 08 	std  %l0, [ %l4 + 8 ]
4000159c:	81 e8 00 00 	restore 
400015a0:	07 10 00 3c 	sethi  %hi(0x4000f000), %g3
400015a4:	c6 00 e3 4c 	ld  [ %g3 + 0x34c ], %g3	! 4000f34c <__bcc_nwindows_min1>
400015a8:	85 48 00 00 	rd  %psr, %g2
400015ac:	84 10 af 00 	or  %g2, 0xf00, %g2
400015b0:	81 88 a0 20 	wr  %g2, 0x20, %psr
400015b4:	01 00 00 00 	nop 
400015b8:	86 20 e0 01 	dec  %g3
400015bc:	84 10 00 03 	mov  %g3, %g2
400015c0:	81 e0 00 00 	save 
400015c4:	80 a0 c0 00 	cmp  %g3, %g0
400015c8:	12 bf ff fe 	bne  400015c0 <__bcc_trap_flush_windows+0x38>
400015cc:	86 20 e0 01 	dec  %g3
400015d0:	81 e8 00 00 	restore 
400015d4:	80 a0 80 00 	cmp  %g2, %g0
400015d8:	12 bf ff fe 	bne  400015d0 <__bcc_trap_flush_windows+0x48>
400015dc:	84 20 a0 01 	dec  %g2
400015e0:	81 e0 00 00 	save 
400015e4:	29 10 00 3e 	sethi  %hi(0x4000f800), %l4
400015e8:	a8 15 21 68 	or  %l4, 0x168, %l4	! 4000f968 <__bcc_winflush_spill_globals>
400015ec:	c4 1d 00 00 	ldd  [ %l4 ], %g2
400015f0:	e0 1d 20 08 	ldd  [ %l4 + 8 ], %l0
400015f4:	e4 05 20 10 	ld  [ %l4 + 0x10 ], %l2
400015f8:	81 88 00 10 	wr  %l0, %psr
400015fc:	01 00 00 00 	nop 
40001600:	01 00 00 00 	nop 
40001604:	01 00 00 00 	nop 
40001608:	81 c4 80 00 	jmp  %l2
4000160c:	81 cc a0 04 	rett  %l2 + 4

40001610 <__bcc_trap_sw_set_pil>:
40001610:	b1 2e 20 08 	sll  %i0, 8, %i0
40001614:	aa 2c 2f 00 	andn  %l0, 0xf00, %l5
40001618:	aa 15 40 18 	or  %l5, %i0, %l5
4000161c:	81 88 00 15 	wr  %l5, %psr
40001620:	01 00 00 00 	nop 
40001624:	01 00 00 00 	nop 
40001628:	01 00 00 00 	nop 
4000162c:	a6 0c 2f 00 	and  %l0, 0xf00, %l3
40001630:	b1 34 e0 08 	srl  %l3, 8, %i0
40001634:	81 c4 80 00 	jmp  %l2
40001638:	81 cc a0 04 	rett  %l2 + 4

4000163c <__bcc_init40>:
4000163c:	81 c3 e0 08 	retl 
40001640:	01 00 00 00 	nop 

40001644 <__bcc_get_leon_info>:
40001644:	91 48 00 00 	rd  %psr, %o0
40001648:	93 32 20 18 	srl  %o0, 0x18, %o1
4000164c:	90 0a 60 0f 	and  %o1, 0xf, %o0
40001650:	80 a2 20 03 	cmp  %o0, 3
40001654:	02 80 00 07 	be  40001670 <__bcc_get_leon_info+0x2c>
40001658:	01 00 00 00 	nop 
4000165c:	80 a2 20 05 	cmp  %o0, 5
40001660:	02 80 00 04 	be  40001670 <__bcc_get_leon_info+0x2c>
40001664:	01 00 00 00 	nop 
40001668:	12 80 00 0a 	bne  40001690 <__bcc_get_leon_info+0x4c>
4000166c:	01 00 00 00 	nop 
40001670:	93 44 40 00 	rd  %asr17, %o1
40001674:	93 32 60 00 	srl  %o1, 0, %o1
40001678:	95 44 40 00 	rd  %asr17, %o2
4000167c:	17 3c 00 00 	sethi  %hi(0xf0000000), %o3
40001680:	94 0a 80 0b 	and  %o2, %o3, %o2
40001684:	95 32 a0 1c 	srl  %o2, 0x1c, %o2
40001688:	10 80 00 07 	b  400016a4 <__bcc_get_leon_info+0x60>
4000168c:	01 00 00 00 	nop 
40001690:	90 10 20 02 	mov  2, %o0	! 2 <_CONTEXT_I_+0x1>
40001694:	15 20 00 00 	sethi  %hi(0x80000000), %o2
40001698:	d6 02 a0 24 	ld  [ %o2 + 0x24 ], %o3	! 80000024 <__bss_end+0x3fff0524>
4000169c:	93 32 e0 14 	srl  %o3, 0x14, %o1
400016a0:	94 10 20 00 	clr  %o2
400016a4:	92 0a 60 1f 	and  %o1, 0x1f, %o1
400016a8:	98 02 60 01 	add  %o1, 1, %o4
400016ac:	17 10 00 3c 	sethi  %hi(0x4000f000), %o3
400016b0:	96 12 e3 48 	or  %o3, 0x348, %o3	! 4000f348 <__bcc_leon_version>
400016b4:	d0 22 e0 00 	st  %o0, [ %o3 ]
400016b8:	d2 22 e0 04 	st  %o1, [ %o3 + 4 ]
400016bc:	d8 22 e0 08 	st  %o4, [ %o3 + 8 ]
400016c0:	d4 22 e0 0c 	st  %o2, [ %o3 + 0xc ]
400016c4:	81 c3 e0 08 	retl 
400016c8:	01 00 00 00 	nop 

400016cc <bcc_get_cpuid>:
400016cc:	03 10 00 3c 	sethi  %hi(0x4000f000), %g1
400016d0:	d0 00 63 54 	ld  [ %g1 + 0x354 ], %o0	! 4000f354 <__bcc_cpuid>
400016d4:	81 c3 e0 08 	retl 
400016d8:	01 00 00 00 	nop 

400016dc <bcc_dwzero>:
400016dc:	82 10 00 00 	mov  %g0, %g1
400016e0:	88 10 00 00 	mov  %g0, %g4
400016e4:	80 a1 00 09 	cmp  %g4, %o1
400016e8:	02 80 00 06 	be  40001700 <bcc_dwzero+0x24>
400016ec:	85 29 20 03 	sll  %g4, 3, %g2
400016f0:	86 02 00 02 	add  %o0, %g2, %g3
400016f4:	c0 38 c0 00 	std  %g0, [ %g3 ]
400016f8:	10 bf ff fb 	b  400016e4 <bcc_dwzero+0x8>
400016fc:	88 01 20 01 	inc  %g4
40001700:	81 c3 e0 08 	retl 
40001704:	01 00 00 00 	nop 

40001708 <__bcc_copy_data>:
40001708:	1b 10 00 3c 	sethi  %hi(0x4000f000), %o5
4000170c:	09 10 00 3c 	sethi  %hi(0x4000f000), %g4
40001710:	9a 13 63 30 	or  %o5, 0x330, %o5
40001714:	88 11 23 30 	or  %g4, 0x330, %g4
40001718:	80 a3 40 04 	cmp  %o5, %g4
4000171c:	02 80 00 10 	be  4000175c <__bcc_copy_data+0x54>
40001720:	03 10 00 3e 	sethi  %hi(0x4000f800), %g1
40001724:	82 10 61 40 	or  %g1, 0x140, %g1	! 4000f940 <__TMC_END__>
40001728:	80 a1 00 01 	cmp  %g4, %g1
4000172c:	1a 80 00 0c 	bcc  4000175c <__bcc_copy_data+0x54>
40001730:	84 00 7f ff 	add  %g1, -1, %g2
40001734:	82 10 20 00 	clr  %g1
40001738:	84 20 80 04 	sub  %g2, %g4, %g2
4000173c:	84 08 bf fc 	and  %g2, -4, %g2
40001740:	84 00 a0 04 	add  %g2, 4, %g2
40001744:	c6 03 40 01 	ld  [ %o5 + %g1 ], %g3
40001748:	c6 21 00 01 	st  %g3, [ %g4 + %g1 ]
4000174c:	82 00 60 04 	add  %g1, 4, %g1
40001750:	80 a0 40 02 	cmp  %g1, %g2
40001754:	32 bf ff fd 	bne,a   40001748 <__bcc_copy_data+0x40>
40001758:	c6 03 40 01 	ld  [ %o5 + %g1 ], %g3
4000175c:	81 c3 e0 08 	retl 
40001760:	01 00 00 00 	nop 

40001764 <__bcc_int_get_source>:
40001764:	03 10 00 3e 	sethi  %hi(0x4000f800), %g1
40001768:	c2 00 62 0c 	ld  [ %g1 + 0x20c ], %g1	! 4000fa0c <__bcc_int_irqmp_eirq>
4000176c:	80 a0 40 08 	cmp  %g1, %o0
40001770:	02 80 00 04 	be  40001780 <__bcc_int_get_source+0x1c>
40001774:	03 10 00 3c 	sethi  %hi(0x4000f000), %g1
40001778:	81 c3 e0 08 	retl 
4000177c:	01 00 00 00 	nop 
40001780:	05 10 00 3e 	sethi  %hi(0x4000f800), %g2
40001784:	c2 00 63 54 	ld  [ %g1 + 0x354 ], %g1
40001788:	c4 00 a2 10 	ld  [ %g2 + 0x210 ], %g2
4000178c:	82 00 60 30 	add  %g1, 0x30, %g1
40001790:	83 28 60 02 	sll  %g1, 2, %g1
40001794:	c2 00 80 01 	ld  [ %g2 + %g1 ], %g1
40001798:	82 88 60 1f 	andcc  %g1, 0x1f, %g1
4000179c:	02 bf ff f7 	be  40001778 <__bcc_int_get_source+0x14>
400017a0:	01 00 00 00 	nop 
400017a4:	81 c3 e0 08 	retl 
400017a8:	90 10 00 01 	mov  %g1, %o0

400017ac <__bcc_int_init>:
400017ac:	9d e3 bf 88 	save  %sp, -120, %sp
400017b0:	3b 10 00 3e 	sethi  %hi(0x4000f800), %i5
400017b4:	c2 07 62 10 	ld  [ %i5 + 0x210 ], %g1	! 4000fa10 <__bcc_int_handle>
400017b8:	80 a0 60 00 	cmp  %g1, 0
400017bc:	02 80 00 0e 	be  400017f4 <__bcc_int_init+0x48>
400017c0:	05 10 00 3e 	sethi  %hi(0x4000f800), %g2
400017c4:	f0 00 a2 0c 	ld  [ %g2 + 0x20c ], %i0	! 4000fa0c <__bcc_int_irqmp_eirq>
400017c8:	80 a6 20 00 	cmp  %i0, 0
400017cc:	12 80 00 08 	bne  400017ec <__bcc_int_init+0x40>
400017d0:	01 00 00 00 	nop 
400017d4:	c2 00 60 10 	ld  [ %g1 + 0x10 ], %g1
400017d8:	83 30 60 10 	srl  %g1, 0x10, %g1
400017dc:	82 08 60 0f 	and  %g1, 0xf, %g1
400017e0:	c2 20 a2 0c 	st  %g1, [ %g2 + 0x20c ]
400017e4:	81 c7 e0 08 	ret 
400017e8:	81 e8 00 00 	restore 
400017ec:	81 c7 e0 08 	ret 
400017f0:	91 e8 20 00 	restore  %g0, 0, %o0
400017f4:	82 07 bf f0 	add  %fp, -16, %g1
400017f8:	1b 10 00 08 	sethi  %hi(0x40002000), %o5
400017fc:	c2 23 a0 5c 	st  %g1, [ %sp + 0x5c ]
40001800:	9a 13 61 44 	or  %o5, 0x144, %o5
40001804:	98 10 20 04 	mov  4, %o4
40001808:	96 10 20 04 	mov  4, %o3
4000180c:	94 10 20 0d 	mov  0xd, %o2
40001810:	92 10 20 01 	mov  1, %o1
40001814:	11 3f fc 00 	sethi  %hi(0xfff00000), %o0
40001818:	40 00 02 3e 	call  40002110 <ambapp_visit>
4000181c:	b0 10 20 01 	mov  1, %i0
40001820:	80 a2 20 00 	cmp  %o0, 0
40001824:	02 80 00 29 	be  400018c8 <__bcc_int_init+0x11c>
40001828:	01 00 00 00 	nop 
4000182c:	c4 02 20 20 	ld  [ %o0 + 0x20 ], %g2
40001830:	03 3c 00 00 	sethi  %hi(0xf0000000), %g1
40001834:	80 88 80 01 	btst  %g2, %g1
40001838:	12 80 00 26 	bne  400018d0 <__bcc_int_init+0x124>
4000183c:	03 10 00 3c 	sethi  %hi(0x4000f000), %g1
40001840:	05 10 00 3e 	sethi  %hi(0x4000f800), %g2
40001844:	c2 02 20 10 	ld  [ %o0 + 0x10 ], %g1
40001848:	d0 27 62 10 	st  %o0, [ %i5 + 0x210 ]
4000184c:	83 30 60 10 	srl  %g1, 0x10, %g1
40001850:	82 08 60 0f 	and  %g1, 0xf, %g1
40001854:	c2 20 a2 0c 	st  %g1, [ %g2 + 0x20c ]
40001858:	c4 07 bf f8 	ld  [ %fp + -8 ], %g2
4000185c:	80 a0 a3 00 	cmp  %g2, 0x300
40001860:	08 80 00 32 	bleu  40001928 <__bcc_int_init+0x17c>
40001864:	03 10 00 3e 	sethi  %hi(0x4000f800), %g1
40001868:	c4 02 23 00 	ld  [ %o0 + 0x300 ], %g2
4000186c:	c2 02 22 00 	ld  [ %o0 + 0x200 ], %g1
40001870:	86 38 00 01 	xnor  %g0, %g1, %g3
40001874:	c6 22 23 00 	st  %g3, [ %o0 + 0x300 ]
40001878:	c6 02 22 00 	ld  [ %o0 + 0x200 ], %g3
4000187c:	80 a0 40 03 	cmp  %g1, %g3
40001880:	12 80 00 32 	bne  40001948 <__bcc_int_init+0x19c>
40001884:	01 00 00 00 	nop 
40001888:	82 38 00 02 	xnor  %g0, %g2, %g1
4000188c:	c2 22 23 00 	st  %g1, [ %o0 + 0x300 ]
40001890:	c6 02 23 00 	ld  [ %o0 + 0x300 ], %g3
40001894:	80 a0 80 03 	cmp  %g2, %g3
40001898:	02 80 00 04 	be  400018a8 <__bcc_int_init+0xfc>
4000189c:	82 10 20 00 	clr  %g1
400018a0:	c4 22 23 00 	st  %g2, [ %o0 + 0x300 ]
400018a4:	82 10 20 01 	mov  1, %g1
400018a8:	05 10 00 3e 	sethi  %hi(0x4000f800), %g2
400018ac:	c2 20 a2 08 	st  %g1, [ %g2 + 0x208 ]	! 4000fa08 <__bcc_int_irqmp_map>
400018b0:	c2 02 21 04 	ld  [ %o0 + 0x104 ], %g1
400018b4:	05 10 00 3e 	sethi  %hi(0x4000f800), %g2
400018b8:	83 30 60 1b 	srl  %g1, 0x1b, %g1
400018bc:	c2 20 a2 04 	st  %g1, [ %g2 + 0x204 ]
400018c0:	81 c7 e0 08 	ret 
400018c4:	91 e8 20 00 	restore  %g0, 0, %o0
400018c8:	81 c7 e0 08 	ret 
400018cc:	81 e8 00 00 	restore 
400018d0:	c2 00 63 54 	ld  [ %g1 + 0x354 ], %g1
400018d4:	85 30 60 03 	srl  %g1, 3, %g2
400018d8:	82 38 00 01 	xnor  %g0, %g1, %g1
400018dc:	84 00 a0 08 	add  %g2, 8, %g2
400018e0:	87 28 60 02 	sll  %g1, 2, %g3
400018e4:	85 28 a0 02 	sll  %g2, 2, %g2
400018e8:	84 02 00 02 	add  %o0, %g2, %g2
400018ec:	c2 00 a0 04 	ld  [ %g2 + 4 ], %g1
400018f0:	83 30 40 03 	srl  %g1, %g3, %g1
400018f4:	82 08 60 0f 	and  %g1, 0xf, %g1
400018f8:	83 28 60 0c 	sll  %g1, 0xc, %g1
400018fc:	05 10 00 3e 	sethi  %hi(0x4000f800), %g2
40001900:	90 02 00 01 	add  %o0, %g1, %o0
40001904:	c2 02 20 10 	ld  [ %o0 + 0x10 ], %g1
40001908:	d0 27 62 10 	st  %o0, [ %i5 + 0x210 ]
4000190c:	83 30 60 10 	srl  %g1, 0x10, %g1
40001910:	82 08 60 0f 	and  %g1, 0xf, %g1
40001914:	c2 20 a2 0c 	st  %g1, [ %g2 + 0x20c ]
40001918:	c4 07 bf f8 	ld  [ %fp + -8 ], %g2
4000191c:	80 a0 a3 00 	cmp  %g2, 0x300
40001920:	18 bf ff d2 	bgu  40001868 <__bcc_int_init+0xbc>
40001924:	03 10 00 3e 	sethi  %hi(0x4000f800), %g1
40001928:	c0 20 62 08 	clr  [ %g1 + 0x208 ]	! 4000fa08 <__bcc_int_irqmp_map>
4000192c:	80 a0 a1 00 	cmp  %g2, 0x100
40001930:	18 bf ff e0 	bgu  400018b0 <__bcc_int_init+0x104>
40001934:	82 10 20 00 	clr  %g1
40001938:	05 10 00 3e 	sethi  %hi(0x4000f800), %g2
4000193c:	c2 20 a2 04 	st  %g1, [ %g2 + 0x204 ]	! 4000fa04 <__bcc_int_irqmp_nts>
40001940:	81 c7 e0 08 	ret 
40001944:	91 e8 20 00 	restore  %g0, 0, %o0
40001948:	c2 22 22 00 	st  %g1, [ %o0 + 0x200 ]
4000194c:	05 10 00 3e 	sethi  %hi(0x4000f800), %g2
40001950:	82 10 20 00 	clr  %g1
40001954:	10 bf ff d7 	b  400018b0 <__bcc_int_init+0x104>
40001958:	c2 20 a2 08 	st  %g1, [ %g2 + 0x208 ]

4000195c <__bcc_con_init>:
4000195c:	9d e3 bf 98 	save  %sp, -104, %sp
40001960:	3b 10 00 3e 	sethi  %hi(0x4000f800), %i5
40001964:	c2 07 62 14 	ld  [ %i5 + 0x214 ], %g1	! 4000fa14 <__bcc_con_handle>
40001968:	80 a0 60 00 	cmp  %g1, 0
4000196c:	12 80 00 0e 	bne  400019a4 <__bcc_con_init+0x48>
40001970:	b0 10 20 00 	clr  %i0
40001974:	c0 23 a0 5c 	clr  [ %sp + 0x5c ]
40001978:	98 10 20 04 	mov  4, %o4
4000197c:	96 10 20 04 	mov  4, %o3
40001980:	94 10 20 0c 	mov  0xc, %o2
40001984:	92 10 20 01 	mov  1, %o1
40001988:	1b 10 00 08 	sethi  %hi(0x40002000), %o5
4000198c:	11 3f fc 00 	sethi  %hi(0xfff00000), %o0
40001990:	40 00 01 e0 	call  40002110 <ambapp_visit>
40001994:	9a 13 61 44 	or  %o5, 0x144, %o5
40001998:	80 a0 00 08 	cmp  %g0, %o0
4000199c:	d0 27 62 14 	st  %o0, [ %i5 + 0x214 ]
400019a0:	b0 60 3f ff 	subx  %g0, -1, %i0
400019a4:	81 c7 e0 08 	ret 
400019a8:	81 e8 00 00 	restore 

400019ac <__bcc_timer_init>:
400019ac:	9d e3 bf 88 	save  %sp, -120, %sp
400019b0:	3b 10 00 3e 	sethi  %hi(0x4000f800), %i5
400019b4:	c2 07 62 1c 	ld  [ %i5 + 0x21c ], %g1	! 4000fa1c <__bcc_timer_handle>
400019b8:	80 a0 60 00 	cmp  %g1, 0
400019bc:	02 80 00 04 	be  400019cc <__bcc_timer_init+0x20>
400019c0:	b0 10 20 00 	clr  %i0
400019c4:	81 c7 e0 08 	ret 
400019c8:	81 e8 00 00 	restore 
400019cc:	82 07 bf f0 	add  %fp, -16, %g1
400019d0:	1b 10 00 08 	sethi  %hi(0x40002000), %o5
400019d4:	c2 23 a0 5c 	st  %g1, [ %sp + 0x5c ]
400019d8:	9a 13 61 44 	or  %o5, 0x144, %o5
400019dc:	98 10 20 04 	mov  4, %o4
400019e0:	96 10 20 04 	mov  4, %o3
400019e4:	94 10 20 11 	mov  0x11, %o2
400019e8:	92 10 20 01 	mov  1, %o1
400019ec:	40 00 01 c9 	call  40002110 <ambapp_visit>
400019f0:	11 3f fc 00 	sethi  %hi(0xfff00000), %o0
400019f4:	d0 27 62 1c 	st  %o0, [ %i5 + 0x21c ]
400019f8:	80 a2 20 00 	cmp  %o0, 0
400019fc:	02 bf ff f2 	be  400019c4 <__bcc_timer_init+0x18>
40001a00:	b0 10 20 01 	mov  1, %i0
40001a04:	c4 0f bf f1 	ldub  [ %fp + -15 ], %g2
40001a08:	03 10 00 3e 	sethi  %hi(0x4000f800), %g1
40001a0c:	c4 20 62 18 	st  %g2, [ %g1 + 0x218 ]	! 4000fa18 <__bcc_timer_interrupt>
40001a10:	81 c7 e0 08 	ret 
40001a14:	91 e8 20 00 	restore  %g0, 0, %o0

40001a18 <ambapp_get_ahbinfo>:
40001a18:	80 a2 60 00 	cmp  %o1, 0
40001a1c:	02 80 00 80 	be  40001c1c <ambapp_get_ahbinfo+0x204>
40001a20:	80 a2 a0 00 	cmp  %o2, 0
40001a24:	02 80 00 a8 	be  40001cc4 <ambapp_get_ahbinfo+0x2ac>
40001a28:	01 00 00 00 	nop 
40001a2c:	c4 02 40 00 	ld  [ %o1 ], %g2
40001a30:	d2 22 a0 34 	st  %o1, [ %o2 + 0x34 ]
40001a34:	83 30 a0 05 	srl  %g2, 5, %g1
40001a38:	84 08 a0 1f 	and  %g2, 0x1f, %g2
40001a3c:	86 08 60 1f 	and  %g1, 0x1f, %g3
40001a40:	82 08 60 60 	and  %g1, 0x60, %g1
40001a44:	c6 2a 80 00 	stb  %g3, [ %o2 ]
40001a48:	82 10 40 02 	or  %g1, %g2, %g1
40001a4c:	c2 2a a0 01 	stb  %g1, [ %o2 + 1 ]
40001a50:	c2 02 60 10 	ld  [ %o1 + 0x10 ], %g1
40001a54:	80 a0 60 00 	cmp  %g1, 0
40001a58:	22 80 00 4c 	be,a   40001b88 <ambapp_get_ahbinfo+0x170>
40001a5c:	82 10 20 00 	clr  %g1
40001a60:	85 28 60 10 	sll  %g1, 0x10, %g2
40001a64:	86 08 60 0f 	and  %g1, 0xf, %g3
40001a68:	84 08 80 01 	and  %g2, %g1, %g2
40001a6c:	09 3f fc 00 	sethi  %hi(0xfff00000), %g4
40001a70:	80 a0 e0 03 	cmp  %g3, 3
40001a74:	02 80 00 8b 	be  40001ca0 <ambapp_get_ahbinfo+0x288>
40001a78:	84 08 80 04 	and  %g2, %g4, %g2
40001a7c:	83 30 60 04 	srl  %g1, 4, %g1
40001a80:	83 28 60 14 	sll  %g1, 0x14, %g1
40001a84:	80 a0 00 01 	cmp  %g0, %g1
40001a88:	88 60 20 00 	subx  %g0, 0, %g4
40001a8c:	82 29 00 01 	andn  %g4, %g1, %g1
40001a90:	c6 2a a0 0c 	stb  %g3, [ %o2 + 0xc ]
40001a94:	c2 22 a0 08 	st  %g1, [ %o2 + 8 ]
40001a98:	c4 22 a0 04 	st  %g2, [ %o2 + 4 ]
40001a9c:	c2 02 60 14 	ld  [ %o1 + 0x14 ], %g1
40001aa0:	80 a0 60 00 	cmp  %g1, 0
40001aa4:	22 80 00 43 	be,a   40001bb0 <ambapp_get_ahbinfo+0x198>
40001aa8:	82 10 20 00 	clr  %g1
40001aac:	85 28 60 10 	sll  %g1, 0x10, %g2
40001ab0:	86 08 60 0f 	and  %g1, 0xf, %g3
40001ab4:	84 08 80 01 	and  %g2, %g1, %g2
40001ab8:	09 3f fc 00 	sethi  %hi(0xfff00000), %g4
40001abc:	80 a0 e0 03 	cmp  %g3, 3
40001ac0:	02 80 00 6f 	be  40001c7c <ambapp_get_ahbinfo+0x264>
40001ac4:	84 08 80 04 	and  %g2, %g4, %g2
40001ac8:	83 30 60 04 	srl  %g1, 4, %g1
40001acc:	83 28 60 14 	sll  %g1, 0x14, %g1
40001ad0:	80 a0 00 01 	cmp  %g0, %g1
40001ad4:	88 60 20 00 	subx  %g0, 0, %g4
40001ad8:	82 29 00 01 	andn  %g4, %g1, %g1
40001adc:	c6 2a a0 18 	stb  %g3, [ %o2 + 0x18 ]
40001ae0:	c2 22 a0 14 	st  %g1, [ %o2 + 0x14 ]
40001ae4:	c4 22 a0 10 	st  %g2, [ %o2 + 0x10 ]
40001ae8:	c2 02 60 18 	ld  [ %o1 + 0x18 ], %g1
40001aec:	80 a0 60 00 	cmp  %g1, 0
40001af0:	22 80 00 3a 	be,a   40001bd8 <ambapp_get_ahbinfo+0x1c0>
40001af4:	82 10 20 00 	clr  %g1
40001af8:	85 28 60 10 	sll  %g1, 0x10, %g2
40001afc:	86 08 60 0f 	and  %g1, 0xf, %g3
40001b00:	84 08 80 01 	and  %g2, %g1, %g2
40001b04:	09 3f fc 00 	sethi  %hi(0xfff00000), %g4
40001b08:	80 a0 e0 03 	cmp  %g3, 3
40001b0c:	02 80 00 53 	be  40001c58 <ambapp_get_ahbinfo+0x240>
40001b10:	84 08 80 04 	and  %g2, %g4, %g2
40001b14:	83 30 60 04 	srl  %g1, 4, %g1
40001b18:	83 28 60 14 	sll  %g1, 0x14, %g1
40001b1c:	80 a0 00 01 	cmp  %g0, %g1
40001b20:	88 60 20 00 	subx  %g0, 0, %g4
40001b24:	82 29 00 01 	andn  %g4, %g1, %g1
40001b28:	c6 2a a0 24 	stb  %g3, [ %o2 + 0x24 ]
40001b2c:	c2 22 a0 20 	st  %g1, [ %o2 + 0x20 ]
40001b30:	c4 22 a0 1c 	st  %g2, [ %o2 + 0x1c ]
40001b34:	c2 02 60 1c 	ld  [ %o1 + 0x1c ], %g1
40001b38:	80 a0 60 00 	cmp  %g1, 0
40001b3c:	22 80 00 31 	be,a   40001c00 <ambapp_get_ahbinfo+0x1e8>
40001b40:	82 10 20 00 	clr  %g1
40001b44:	85 28 60 10 	sll  %g1, 0x10, %g2
40001b48:	86 08 60 0f 	and  %g1, 0xf, %g3
40001b4c:	84 08 80 01 	and  %g2, %g1, %g2
40001b50:	09 3f fc 00 	sethi  %hi(0xfff00000), %g4
40001b54:	80 a0 e0 03 	cmp  %g3, 3
40001b58:	02 80 00 33 	be  40001c24 <ambapp_get_ahbinfo+0x20c>
40001b5c:	84 08 80 04 	and  %g2, %g4, %g2
40001b60:	83 30 60 04 	srl  %g1, 4, %g1
40001b64:	c4 22 a0 28 	st  %g2, [ %o2 + 0x28 ]
40001b68:	83 28 60 14 	sll  %g1, 0x14, %g1
40001b6c:	c6 2a a0 30 	stb  %g3, [ %o2 + 0x30 ]
40001b70:	80 a0 00 01 	cmp  %g0, %g1
40001b74:	90 10 20 00 	clr  %o0
40001b78:	88 60 20 00 	subx  %g0, 0, %g4
40001b7c:	82 29 00 01 	andn  %g4, %g1, %g1
40001b80:	81 c3 e0 08 	retl 
40001b84:	c2 22 a0 2c 	st  %g1, [ %o2 + 0x2c ]
40001b88:	84 10 20 00 	clr  %g2
40001b8c:	86 10 20 00 	clr  %g3
40001b90:	c2 22 a0 08 	st  %g1, [ %o2 + 8 ]
40001b94:	c6 2a a0 0c 	stb  %g3, [ %o2 + 0xc ]
40001b98:	c4 22 a0 04 	st  %g2, [ %o2 + 4 ]
40001b9c:	c2 02 60 14 	ld  [ %o1 + 0x14 ], %g1
40001ba0:	80 a0 60 00 	cmp  %g1, 0
40001ba4:	12 bf ff c3 	bne  40001ab0 <ambapp_get_ahbinfo+0x98>
40001ba8:	85 28 60 10 	sll  %g1, 0x10, %g2
40001bac:	82 10 20 00 	clr  %g1
40001bb0:	84 10 20 00 	clr  %g2
40001bb4:	86 10 20 00 	clr  %g3
40001bb8:	c2 22 a0 14 	st  %g1, [ %o2 + 0x14 ]
40001bbc:	c6 2a a0 18 	stb  %g3, [ %o2 + 0x18 ]
40001bc0:	c4 22 a0 10 	st  %g2, [ %o2 + 0x10 ]
40001bc4:	c2 02 60 18 	ld  [ %o1 + 0x18 ], %g1
40001bc8:	80 a0 60 00 	cmp  %g1, 0
40001bcc:	12 bf ff cc 	bne  40001afc <ambapp_get_ahbinfo+0xe4>
40001bd0:	85 28 60 10 	sll  %g1, 0x10, %g2
40001bd4:	82 10 20 00 	clr  %g1
40001bd8:	84 10 20 00 	clr  %g2
40001bdc:	86 10 20 00 	clr  %g3
40001be0:	c2 22 a0 20 	st  %g1, [ %o2 + 0x20 ]
40001be4:	c6 2a a0 24 	stb  %g3, [ %o2 + 0x24 ]
40001be8:	c4 22 a0 1c 	st  %g2, [ %o2 + 0x1c ]
40001bec:	c2 02 60 1c 	ld  [ %o1 + 0x1c ], %g1
40001bf0:	80 a0 60 00 	cmp  %g1, 0
40001bf4:	12 bf ff d5 	bne  40001b48 <ambapp_get_ahbinfo+0x130>
40001bf8:	85 28 60 10 	sll  %g1, 0x10, %g2
40001bfc:	82 10 20 00 	clr  %g1
40001c00:	84 10 20 00 	clr  %g2
40001c04:	86 10 20 00 	clr  %g3
40001c08:	c4 22 a0 28 	st  %g2, [ %o2 + 0x28 ]
40001c0c:	c2 22 a0 2c 	st  %g1, [ %o2 + 0x2c ]
40001c10:	c6 2a a0 30 	stb  %g3, [ %o2 + 0x30 ]
40001c14:	81 c3 e0 08 	retl 
40001c18:	90 10 20 00 	clr  %o0
40001c1c:	81 c3 e0 08 	retl 
40001c20:	90 10 20 01 	mov  1, %o0
40001c24:	85 30 a0 0c 	srl  %g2, 0xc, %g2
40001c28:	82 38 00 01 	xnor  %g0, %g1, %g1
40001c2c:	84 12 00 02 	or  %o0, %g2, %g2
40001c30:	83 28 60 04 	sll  %g1, 4, %g1
40001c34:	09 00 03 ff 	sethi  %hi(0xffc00), %g4
40001c38:	c4 22 a0 28 	st  %g2, [ %o2 + 0x28 ]
40001c3c:	88 11 23 00 	or  %g4, 0x300, %g4
40001c40:	c6 2a a0 30 	stb  %g3, [ %o2 + 0x30 ]
40001c44:	82 08 40 04 	and  %g1, %g4, %g1
40001c48:	90 10 20 00 	clr  %o0
40001c4c:	82 10 60 ff 	or  %g1, 0xff, %g1
40001c50:	81 c3 e0 08 	retl 
40001c54:	c2 22 a0 2c 	st  %g1, [ %o2 + 0x2c ]
40001c58:	85 30 a0 0c 	srl  %g2, 0xc, %g2
40001c5c:	82 38 00 01 	xnor  %g0, %g1, %g1
40001c60:	09 00 03 ff 	sethi  %hi(0xffc00), %g4
40001c64:	83 28 60 04 	sll  %g1, 4, %g1
40001c68:	88 11 23 00 	or  %g4, 0x300, %g4
40001c6c:	84 12 00 02 	or  %o0, %g2, %g2
40001c70:	82 08 40 04 	and  %g1, %g4, %g1
40001c74:	10 bf ff ad 	b  40001b28 <ambapp_get_ahbinfo+0x110>
40001c78:	82 10 60 ff 	or  %g1, 0xff, %g1
40001c7c:	85 30 a0 0c 	srl  %g2, 0xc, %g2
40001c80:	82 38 00 01 	xnor  %g0, %g1, %g1
40001c84:	09 00 03 ff 	sethi  %hi(0xffc00), %g4
40001c88:	83 28 60 04 	sll  %g1, 4, %g1
40001c8c:	88 11 23 00 	or  %g4, 0x300, %g4
40001c90:	84 12 00 02 	or  %o0, %g2, %g2
40001c94:	82 08 40 04 	and  %g1, %g4, %g1
40001c98:	10 bf ff 91 	b  40001adc <ambapp_get_ahbinfo+0xc4>
40001c9c:	82 10 60 ff 	or  %g1, 0xff, %g1
40001ca0:	85 30 a0 0c 	srl  %g2, 0xc, %g2
40001ca4:	82 38 00 01 	xnor  %g0, %g1, %g1
40001ca8:	09 00 03 ff 	sethi  %hi(0xffc00), %g4
40001cac:	83 28 60 04 	sll  %g1, 4, %g1
40001cb0:	88 11 23 00 	or  %g4, 0x300, %g4
40001cb4:	84 12 00 02 	or  %o0, %g2, %g2
40001cb8:	82 08 40 04 	and  %g1, %g4, %g1
40001cbc:	10 bf ff 75 	b  40001a90 <ambapp_get_ahbinfo+0x78>
40001cc0:	82 10 60 ff 	or  %g1, 0xff, %g1
40001cc4:	81 c3 e0 08 	retl 
40001cc8:	90 10 20 02 	mov  2, %o0

40001ccc <ambapp_visit_ahbctrl>:
40001ccc:	9d e3 bf 50 	save  %sp, -176, %sp
40001cd0:	f6 27 bf bc 	st  %i3, [ %fp + -68 ]
40001cd4:	f0 27 bf b8 	st  %i0, [ %fp + -72 ]
40001cd8:	ec 07 a0 5c 	ld  [ %fp + 0x5c ], %l6
40001cdc:	80 8e e0 01 	btst  1, %i3
40001ce0:	02 80 00 35 	be  40001db4 <ambapp_visit_ahbctrl+0xe8>
40001ce4:	ea 07 a0 60 	ld  [ %fp + 0x60 ], %l5
40001ce8:	80 a0 00 19 	cmp  %g0, %i1
40001cec:	a4 60 3f ff 	subx  %g0, -1, %l2
40001cf0:	80 a0 00 1a 	cmp  %g0, %i2
40001cf4:	21 00 03 fc 	sethi  %hi(0xff000), %l0
40001cf8:	a6 60 3f ff 	subx  %g0, -1, %l3
40001cfc:	a0 16 00 10 	or  %i0, %l0, %l0
40001d00:	80 a0 00 16 	cmp  %g0, %l6
40001d04:	ae 10 00 18 	mov  %i0, %l7
40001d08:	a2 04 28 00 	add  %l0, 0x800, %l1
40001d0c:	10 80 00 06 	b  40001d24 <ambapp_visit_ahbctrl+0x58>
40001d10:	a8 40 20 00 	addx  %g0, 0, %l4
40001d14:	a0 04 20 20 	add  %l0, 0x20, %l0
40001d18:	80 a4 00 11 	cmp  %l0, %l1
40001d1c:	02 80 00 27 	be  40001db8 <ambapp_visit_ahbctrl+0xec>
40001d20:	c2 07 bf b8 	ld  [ %fp + -72 ], %g1
40001d24:	c2 04 00 00 	ld  [ %l0 ], %g1
40001d28:	b1 30 60 18 	srl  %g1, 0x18, %i0
40001d2c:	83 30 60 0c 	srl  %g1, 0xc, %g1
40001d30:	b6 08 6f ff 	and  %g1, 0xfff, %i3
40001d34:	80 96 00 1b 	orcc  %i0, %i3, %g0
40001d38:	22 bf ff f8 	be,a   40001d18 <ambapp_visit_ahbctrl+0x4c>
40001d3c:	a0 04 20 20 	add  %l0, 0x20, %l0
40001d40:	80 a4 a0 00 	cmp  %l2, 0
40001d44:	12 80 00 05 	bne  40001d58 <ambapp_visit_ahbctrl+0x8c>
40001d48:	82 1e c0 1a 	xor  %i3, %i2, %g1
40001d4c:	80 a6 00 19 	cmp  %i0, %i1
40001d50:	32 bf ff f2 	bne,a   40001d18 <ambapp_visit_ahbctrl+0x4c>
40001d54:	a0 04 20 20 	add  %l0, 0x20, %l0
40001d58:	80 a0 00 01 	cmp  %g0, %g1
40001d5c:	82 60 3f ff 	subx  %g0, -1, %g1
40001d60:	80 94 c0 01 	orcc  %l3, %g1, %g0
40001d64:	02 bf ff ec 	be  40001d14 <ambapp_visit_ahbctrl+0x48>
40001d68:	92 10 00 10 	mov  %l0, %o1
40001d6c:	94 07 bf c8 	add  %fp, -56, %o2
40001d70:	80 a5 20 00 	cmp  %l4, 0
40001d74:	02 bf ff e8 	be  40001d14 <ambapp_visit_ahbctrl+0x48>
40001d78:	90 10 00 17 	mov  %l7, %o0
40001d7c:	7f ff ff 27 	call  40001a18 <ambapp_get_ahbinfo>
40001d80:	01 00 00 00 	nop 
40001d84:	9a 10 00 15 	mov  %l5, %o5
40001d88:	98 10 00 1c 	mov  %i4, %o4
40001d8c:	96 10 20 01 	mov  1, %o3
40001d90:	94 10 00 1b 	mov  %i3, %o2
40001d94:	92 10 00 18 	mov  %i0, %o1
40001d98:	9f c5 80 00 	call  %l6
40001d9c:	90 07 bf c8 	add  %fp, -56, %o0
40001da0:	80 a2 20 00 	cmp  %o0, 0
40001da4:	02 bf ff dd 	be  40001d18 <ambapp_visit_ahbctrl+0x4c>
40001da8:	a0 04 20 20 	add  %l0, 0x20, %l0
40001dac:	81 c7 e0 08 	ret 
40001db0:	91 e8 00 08 	restore  %g0, %o0, %o0
40001db4:	c2 07 bf b8 	ld  [ %fp + -72 ], %g1
40001db8:	80 a0 00 19 	cmp  %g0, %i1
40001dbc:	21 00 03 fe 	sethi  %hi(0xff800), %l0
40001dc0:	a0 10 40 10 	or  %g1, %l0, %l0
40001dc4:	c2 07 bf bc 	ld  [ %fp + -68 ], %g1
40001dc8:	a6 08 60 02 	and  %g1, 2, %l3
40001dcc:	82 08 60 04 	and  %g1, 4, %g1
40001dd0:	a4 60 3f ff 	subx  %g0, -1, %l2
40001dd4:	c2 27 bf c4 	st  %g1, [ %fp + -60 ]
40001dd8:	80 a0 00 16 	cmp  %g0, %l6
40001ddc:	86 07 20 01 	add  %i4, 1, %g3
40001de0:	82 40 20 00 	addx  %g0, 0, %g1
40001de4:	ec 27 a0 5c 	st  %l6, [ %fp + 0x5c ]
40001de8:	a8 04 28 00 	add  %l0, 0x800, %l4
40001dec:	c2 27 bf c0 	st  %g1, [ %fp + -64 ]
40001df0:	a2 10 00 15 	mov  %l5, %l1
40001df4:	ac 10 00 03 	mov  %g3, %l6
40001df8:	f6 04 00 00 	ld  [ %l0 ], %i3
40001dfc:	80 a4 e0 00 	cmp  %l3, 0
40001e00:	b1 36 e0 0c 	srl  %i3, 0xc, %i0
40001e04:	b7 36 e0 18 	srl  %i3, 0x18, %i3
40001e08:	02 80 00 0a 	be  40001e30 <ambapp_visit_ahbctrl+0x164>
40001e0c:	aa 0e 2f ff 	and  %i0, 0xfff, %l5
40001e10:	80 96 c0 15 	orcc  %i3, %l5, %g0
40001e14:	22 80 00 6d 	be,a   40001fc8 <ambapp_visit_ahbctrl+0x2fc>
40001e18:	a0 04 20 20 	add  %l0, 0x20, %l0
40001e1c:	80 a4 a0 00 	cmp  %l2, 0
40001e20:	12 80 00 70 	bne  40001fe0 <ambapp_visit_ahbctrl+0x314>
40001e24:	80 a6 40 1b 	cmp  %i1, %i3
40001e28:	02 80 00 6f 	be  40001fe4 <ambapp_visit_ahbctrl+0x318>
40001e2c:	80 a0 00 1a 	cmp  %g0, %i2
40001e30:	80 a7 00 1d 	cmp  %i4, %i5
40001e34:	1a 80 00 64 	bcc  40001fc4 <ambapp_visit_ahbctrl+0x2f8>
40001e38:	82 1e e0 01 	xor  %i3, 1, %g1
40001e3c:	80 a0 00 01 	cmp  %g0, %g1
40001e40:	b0 0e 2f fb 	and  %i0, 0xffb, %i0
40001e44:	9e 60 3f ff 	subx  %g0, -1, %o7
40001e48:	b0 1e 20 4b 	xor  %i0, 0x4b, %i0
40001e4c:	80 a0 00 18 	cmp  %g0, %i0
40001e50:	84 1d 60 20 	xor  %l5, 0x20, %g2
40001e54:	82 60 3f ff 	subx  %g0, -1, %g1
40001e58:	80 a0 00 02 	cmp  %g0, %g2
40001e5c:	84 60 3f ff 	subx  %g0, -1, %g2
40001e60:	82 10 40 02 	or  %g1, %g2, %g1
40001e64:	80 a0 60 00 	cmp  %g1, 0
40001e68:	02 80 00 86 	be  40002080 <ambapp_visit_ahbctrl+0x3b4>
40001e6c:	b0 10 00 01 	mov  %g1, %i0
40001e70:	80 a6 e0 01 	cmp  %i3, 1
40001e74:	32 80 00 55 	bne,a   40001fc8 <ambapp_visit_ahbctrl+0x2fc>
40001e78:	a0 04 20 20 	add  %l0, 0x20, %l0
40001e7c:	d0 04 20 08 	ld  [ %l0 + 8 ], %o0
40001e80:	80 a2 20 00 	cmp  %o0, 0
40001e84:	12 80 00 72 	bne  4000204c <ambapp_visit_ahbctrl+0x380>
40001e88:	c2 07 a0 5c 	ld  [ %fp + 0x5c ], %g1
40001e8c:	c2 07 bf c4 	ld  [ %fp + -60 ], %g1
40001e90:	80 a0 60 00 	cmp  %g1, 0
40001e94:	22 80 00 4d 	be,a   40001fc8 <ambapp_visit_ahbctrl+0x2fc>
40001e98:	a0 04 20 20 	add  %l0, 0x20, %l0
40001e9c:	80 a5 60 06 	cmp  %l5, 6
40001ea0:	12 80 00 49 	bne  40001fc4 <ambapp_visit_ahbctrl+0x2f8>
40001ea4:	80 8e 20 ff 	btst  0xff, %i0
40001ea8:	02 80 00 47 	be  40001fc4 <ambapp_visit_ahbctrl+0x2f8>
40001eac:	80 a0 00 1a 	cmp  %g0, %i2
40001eb0:	c2 04 20 10 	ld  [ %l0 + 0x10 ], %g1
40001eb4:	af 28 60 10 	sll  %g1, 0x10, %l7
40001eb8:	37 00 03 fc 	sethi  %hi(0xff000), %i3
40001ebc:	ae 0d c0 01 	and  %l7, %g1, %l7
40001ec0:	aa 60 3f ff 	subx  %g0, -1, %l5
40001ec4:	03 3f fc 00 	sethi  %hi(0xfff00000), %g1
40001ec8:	ae 0d c0 01 	and  %l7, %g1, %l7
40001ecc:	b6 15 c0 1b 	or  %l7, %i3, %i3
40001ed0:	10 80 00 06 	b  40001ee8 <ambapp_visit_ahbctrl+0x21c>
40001ed4:	b0 06 e0 80 	add  %i3, 0x80, %i0
40001ed8:	b6 06 e0 08 	add  %i3, 8, %i3
40001edc:	80 a6 00 1b 	cmp  %i0, %i3
40001ee0:	22 80 00 3a 	be,a   40001fc8 <ambapp_visit_ahbctrl+0x2fc>
40001ee4:	a0 04 20 20 	add  %l0, 0x20, %l0
40001ee8:	c2 06 c0 00 	ld  [ %i3 ], %g1
40001eec:	93 30 60 18 	srl  %g1, 0x18, %o1
40001ef0:	95 30 60 0c 	srl  %g1, 0xc, %o2
40001ef4:	94 0a af ff 	and  %o2, 0xfff, %o2
40001ef8:	80 92 40 0a 	orcc  %o1, %o2, %g0
40001efc:	22 bf ff f8 	be,a   40001edc <ambapp_visit_ahbctrl+0x210>
40001f00:	b6 06 e0 08 	add  %i3, 8, %i3
40001f04:	80 a4 a0 00 	cmp  %l2, 0
40001f08:	12 80 00 05 	bne  40001f1c <ambapp_visit_ahbctrl+0x250>
40001f0c:	84 1e 80 0a 	xor  %i2, %o2, %g2
40001f10:	80 a6 40 09 	cmp  %i1, %o1
40001f14:	32 bf ff f2 	bne,a   40001edc <ambapp_visit_ahbctrl+0x210>
40001f18:	b6 06 e0 08 	add  %i3, 8, %i3
40001f1c:	80 a0 00 02 	cmp  %g0, %g2
40001f20:	84 60 3f ff 	subx  %g0, -1, %g2
40001f24:	80 95 40 02 	orcc  %l5, %g2, %g0
40001f28:	02 bf ff ec 	be  40001ed8 <ambapp_visit_ahbctrl+0x20c>
40001f2c:	87 30 60 05 	srl  %g1, 5, %g3
40001f30:	84 08 e0 1f 	and  %g3, 0x1f, %g2
40001f34:	86 08 e0 60 	and  %g3, 0x60, %g3
40001f38:	82 08 60 1f 	and  %g1, 0x1f, %g1
40001f3c:	9a 10 00 11 	mov  %l1, %o5
40001f40:	82 10 c0 01 	or  %g3, %g1, %g1
40001f44:	98 10 00 16 	mov  %l6, %o4
40001f48:	c6 07 bf c0 	ld  [ %fp + -64 ], %g3
40001f4c:	96 10 20 04 	mov  4, %o3
40001f50:	80 a0 e0 00 	cmp  %g3, 0
40001f54:	02 bf ff e1 	be  40001ed8 <ambapp_visit_ahbctrl+0x20c>
40001f58:	90 07 bf c8 	add  %fp, -56, %o0
40001f5c:	c2 2f bf c9 	stb  %g1, [ %fp + -55 ]
40001f60:	c4 2f bf c8 	stb  %g2, [ %fp + -56 ]
40001f64:	c4 06 e0 04 	ld  [ %i3 + 4 ], %g2
40001f68:	87 28 a0 04 	sll  %g2, 4, %g3
40001f6c:	83 30 a0 0c 	srl  %g2, 0xc, %g1
40001f70:	84 10 00 03 	mov  %g3, %g2
40001f74:	82 08 40 03 	and  %g1, %g3, %g1
40001f78:	07 00 03 ff 	sethi  %hi(0xffc00), %g3
40001f7c:	88 10 e3 00 	or  %g3, 0x300, %g4	! fff00 <__data_size+0xff8f0>
40001f80:	86 10 e3 ff 	or  %g3, 0x3ff, %g3
40001f84:	84 08 80 04 	and  %g2, %g4, %g2
40001f88:	82 08 40 04 	and  %g1, %g4, %g1
40001f8c:	84 18 80 03 	xor  %g2, %g3, %g2
40001f90:	82 10 40 17 	or  %g1, %l7, %g1
40001f94:	f6 27 bf d4 	st  %i3, [ %fp + -44 ]
40001f98:	c2 27 bf cc 	st  %g1, [ %fp + -52 ]
40001f9c:	c4 27 bf d0 	st  %g2, [ %fp + -48 ]
40001fa0:	c2 07 a0 5c 	ld  [ %fp + 0x5c ], %g1
40001fa4:	9f c0 40 00 	call  %g1
40001fa8:	01 00 00 00 	nop 
40001fac:	80 a2 20 00 	cmp  %o0, 0
40001fb0:	12 bf ff 7f 	bne  40001dac <ambapp_visit_ahbctrl+0xe0>
40001fb4:	b6 06 e0 08 	add  %i3, 8, %i3
40001fb8:	80 a6 00 1b 	cmp  %i0, %i3
40001fbc:	32 bf ff cc 	bne,a   40001eec <ambapp_visit_ahbctrl+0x220>
40001fc0:	c2 06 c0 00 	ld  [ %i3 ], %g1
40001fc4:	a0 04 20 20 	add  %l0, 0x20, %l0
40001fc8:	80 a4 00 14 	cmp  %l0, %l4
40001fcc:	32 bf ff 8c 	bne,a   40001dfc <ambapp_visit_ahbctrl+0x130>
40001fd0:	f6 04 00 00 	ld  [ %l0 ], %i3
40001fd4:	90 10 20 00 	clr  %o0
40001fd8:	81 c7 e0 08 	ret 
40001fdc:	91 e8 00 08 	restore  %g0, %o0, %o0
40001fe0:	80 a0 00 1a 	cmp  %g0, %i2
40001fe4:	82 1e 80 15 	xor  %i2, %l5, %g1
40001fe8:	84 60 3f ff 	subx  %g0, -1, %g2
40001fec:	80 a0 00 01 	cmp  %g0, %g1
40001ff0:	82 60 3f ff 	subx  %g0, -1, %g1
40001ff4:	80 90 80 01 	orcc  %g2, %g1, %g0
40001ff8:	02 bf ff 8e 	be  40001e30 <ambapp_visit_ahbctrl+0x164>
40001ffc:	c2 07 bf c0 	ld  [ %fp + -64 ], %g1
40002000:	80 a0 60 00 	cmp  %g1, 0
40002004:	02 bf ff 8c 	be  40001e34 <ambapp_visit_ahbctrl+0x168>
40002008:	80 a7 00 1d 	cmp  %i4, %i5
4000200c:	92 10 00 10 	mov  %l0, %o1
40002010:	94 07 bf c8 	add  %fp, -56, %o2
40002014:	7f ff fe 81 	call  40001a18 <ambapp_get_ahbinfo>
40002018:	d0 07 bf b8 	ld  [ %fp + -72 ], %o0
4000201c:	9a 10 00 11 	mov  %l1, %o5
40002020:	98 10 00 1c 	mov  %i4, %o4
40002024:	96 10 20 02 	mov  2, %o3
40002028:	94 10 00 15 	mov  %l5, %o2
4000202c:	92 10 00 1b 	mov  %i3, %o1
40002030:	c2 07 a0 5c 	ld  [ %fp + 0x5c ], %g1
40002034:	9f c0 40 00 	call  %g1
40002038:	90 07 bf c8 	add  %fp, -56, %o0
4000203c:	80 a2 20 00 	cmp  %o0, 0
40002040:	02 bf ff 7d 	be  40001e34 <ambapp_visit_ahbctrl+0x168>
40002044:	80 a7 00 1d 	cmp  %i4, %i5
40002048:	30 bf ff 59 	b,a   40001dac <ambapp_visit_ahbctrl+0xe0>
4000204c:	e2 23 a0 60 	st  %l1, [ %sp + 0x60 ]
40002050:	c2 23 a0 5c 	st  %g1, [ %sp + 0x5c ]
40002054:	9a 10 00 1d 	mov  %i5, %o5
40002058:	98 10 00 16 	mov  %l6, %o4
4000205c:	d6 07 bf bc 	ld  [ %fp + -68 ], %o3
40002060:	94 10 00 1a 	mov  %i2, %o2
40002064:	7f ff ff 1a 	call  40001ccc <ambapp_visit_ahbctrl>
40002068:	92 10 00 19 	mov  %i1, %o1
4000206c:	80 a2 20 00 	cmp  %o0, 0
40002070:	02 bf ff 88 	be  40001e90 <ambapp_visit_ahbctrl+0x1c4>
40002074:	c2 07 bf c4 	ld  [ %fp + -60 ], %g1
40002078:	81 c7 e0 08 	ret 
4000207c:	91 e8 00 08 	restore  %g0, %o0, %o0
40002080:	10 bf ff 83 	b  40001e8c <ambapp_visit_ahbctrl+0x1c0>
40002084:	b0 10 00 0f 	mov  %o7, %i0

40002088 <ambapp_get_apbinfo>:
40002088:	80 a2 60 00 	cmp  %o1, 0
4000208c:	02 80 00 1c 	be  400020fc <ambapp_get_apbinfo+0x74>
40002090:	80 a2 a0 00 	cmp  %o2, 0
40002094:	02 80 00 1d 	be  40002108 <ambapp_get_apbinfo+0x80>
40002098:	03 00 03 ff 	sethi  %hi(0xffc00), %g1
4000209c:	c8 02 40 00 	ld  [ %o1 ], %g4
400020a0:	87 31 20 05 	srl  %g4, 5, %g3
400020a4:	98 10 63 00 	or  %g1, 0x300, %o4
400020a8:	84 08 e0 1f 	and  %g3, 0x1f, %g2
400020ac:	9a 09 20 1f 	and  %g4, 0x1f, %o5
400020b0:	c4 2a 80 00 	stb  %g2, [ %o2 ]
400020b4:	88 10 63 ff 	or  %g1, 0x3ff, %g4
400020b8:	86 08 e0 60 	and  %g3, 0x60, %g3
400020bc:	86 10 c0 0d 	or  %g3, %o5, %g3
400020c0:	c6 2a a0 01 	stb  %g3, [ %o2 + 1 ]
400020c4:	c2 02 60 04 	ld  [ %o1 + 4 ], %g1
400020c8:	d2 22 a0 0c 	st  %o1, [ %o2 + 0xc ]
400020cc:	85 30 60 0c 	srl  %g1, 0xc, %g2
400020d0:	9b 28 60 04 	sll  %g1, 4, %o5
400020d4:	86 10 20 00 	clr  %g3
400020d8:	84 08 80 0d 	and  %g2, %o5, %g2
400020dc:	82 0b 40 0c 	and  %o5, %o4, %g1
400020e0:	84 08 80 0c 	and  %g2, %o4, %g2
400020e4:	82 18 40 04 	xor  %g1, %g4, %g1
400020e8:	84 10 80 08 	or  %g2, %o0, %g2
400020ec:	c2 22 a0 08 	st  %g1, [ %o2 + 8 ]
400020f0:	c4 22 a0 04 	st  %g2, [ %o2 + 4 ]
400020f4:	81 c3 e0 08 	retl 
400020f8:	90 10 00 03 	mov  %g3, %o0
400020fc:	86 10 20 01 	mov  1, %g3
40002100:	81 c3 e0 08 	retl 
40002104:	90 10 00 03 	mov  %g3, %o0
40002108:	10 bf ff fb 	b  400020f4 <ambapp_get_apbinfo+0x6c>
4000210c:	86 10 20 02 	mov  2, %g3

40002110 <ambapp_visit>:
40002110:	9d e3 bf 98 	save  %sp, -104, %sp
40002114:	c2 07 a0 5c 	ld  [ %fp + 0x5c ], %g1
40002118:	fa 23 a0 5c 	st  %i5, [ %sp + 0x5c ]
4000211c:	c2 23 a0 60 	st  %g1, [ %sp + 0x60 ]
40002120:	9a 10 00 1c 	mov  %i4, %o5
40002124:	98 10 20 00 	clr  %o4
40002128:	96 10 00 1b 	mov  %i3, %o3
4000212c:	94 10 00 1a 	mov  %i2, %o2
40002130:	92 10 00 19 	mov  %i1, %o1
40002134:	7f ff fe e6 	call  40001ccc <ambapp_visit_ahbctrl>
40002138:	90 10 00 18 	mov  %i0, %o0
4000213c:	81 c7 e0 08 	ret 
40002140:	91 e8 00 08 	restore  %g0, %o0, %o0

40002144 <ambapp_findfirst_fn>:
40002144:	9d e3 bf a0 	save  %sp, -96, %sp
40002148:	80 a7 60 00 	cmp  %i5, 0
4000214c:	02 80 00 07 	be  40002168 <ambapp_findfirst_fn+0x24>
40002150:	80 a6 e0 04 	cmp  %i3, 4
40002154:	02 80 00 08 	be  40002174 <ambapp_findfirst_fn+0x30>
40002158:	b6 06 ff ff 	add  %i3, -1, %i3
4000215c:	80 a6 e0 01 	cmp  %i3, 1
40002160:	08 80 00 10 	bleu  400021a0 <ambapp_findfirst_fn+0x5c>
40002164:	92 10 00 18 	mov  %i0, %o1
40002168:	f0 06 20 04 	ld  [ %i0 + 4 ], %i0
4000216c:	81 c7 e0 08 	ret 
40002170:	81 e8 00 00 	restore 
40002174:	c2 06 00 00 	ld  [ %i0 ], %g1
40002178:	c2 27 40 00 	st  %g1, [ %i5 ]
4000217c:	c2 06 20 04 	ld  [ %i0 + 4 ], %g1
40002180:	c2 27 60 04 	st  %g1, [ %i5 + 4 ]
40002184:	c2 06 20 08 	ld  [ %i0 + 8 ], %g1
40002188:	c2 27 60 08 	st  %g1, [ %i5 + 8 ]
4000218c:	c2 06 20 0c 	ld  [ %i0 + 0xc ], %g1
40002190:	f0 06 20 04 	ld  [ %i0 + 4 ], %i0
40002194:	c2 27 60 0c 	st  %g1, [ %i5 + 0xc ]
40002198:	81 c7 e0 08 	ret 
4000219c:	81 e8 00 00 	restore 
400021a0:	94 10 20 38 	mov  0x38, %o2
400021a4:	40 00 00 1b 	call  40002210 <memcpy>
400021a8:	90 10 00 1d 	mov  %i5, %o0
400021ac:	f0 06 20 04 	ld  [ %i0 + 4 ], %i0
400021b0:	81 c7 e0 08 	ret 
400021b4:	81 e8 00 00 	restore 

400021b8 <atexit>:
400021b8:	92 10 00 08 	mov  %o0, %o1
400021bc:	96 10 20 00 	clr  %o3
400021c0:	94 10 20 00 	clr  %o2
400021c4:	90 10 20 00 	clr  %o0
400021c8:	82 13 c0 00 	mov  %o7, %g1
400021cc:	40 00 0c 6c 	call  4000537c <__register_exitproc>
400021d0:	9e 10 40 00 	mov  %g1, %o7

400021d4 <exit>:
400021d4:	9d e3 bf a0 	save  %sp, -96, %sp
400021d8:	92 10 20 00 	clr  %o1
400021dc:	40 00 0c be 	call  400054d4 <__call_exitprocs>
400021e0:	90 10 00 18 	mov  %i0, %o0
400021e4:	03 10 00 3b 	sethi  %hi(0x4000ec00), %g1
400021e8:	d0 00 60 d4 	ld  [ %g1 + 0xd4 ], %o0	! 4000ecd4 <_global_impure_ptr>
400021ec:	c2 02 20 28 	ld  [ %o0 + 0x28 ], %g1
400021f0:	80 a0 60 00 	cmp  %g1, 0
400021f4:	02 80 00 04 	be  40002204 <exit+0x30>
400021f8:	01 00 00 00 	nop 
400021fc:	9f c0 40 00 	call  %g1
40002200:	01 00 00 00 	nop 
40002204:	40 00 2e 93 	call  4000dc50 <_exit>
40002208:	90 10 00 18 	mov  %i0, %o0
4000220c:	01 00 00 00 	nop 

40002210 <memcpy>:
40002210:	9d e3 bf a0 	save  %sp, -96, %sp
40002214:	80 a6 a0 0f 	cmp  %i2, 0xf
40002218:	08 80 00 32 	bleu  400022e0 <memcpy+0xd0>
4000221c:	82 10 00 18 	mov  %i0, %g1
40002220:	82 16 40 18 	or  %i1, %i0, %g1
40002224:	80 88 60 03 	btst  3, %g1
40002228:	12 80 00 59 	bne  4000238c <memcpy+0x17c>
4000222c:	b8 06 bf ff 	add  %i2, -1, %i4
40002230:	9e 06 bf f0 	add  %i2, -16, %o7
40002234:	84 10 00 19 	mov  %i1, %g2
40002238:	9e 0b ff f0 	and  %o7, -16, %o7
4000223c:	82 10 00 18 	mov  %i0, %g1
40002240:	9e 03 e0 10 	add  %o7, 0x10, %o7
40002244:	b6 06 00 0f 	add  %i0, %o7, %i3
40002248:	82 00 60 10 	add  %g1, 0x10, %g1
4000224c:	f8 00 a0 04 	ld  [ %g2 + 4 ], %i4
40002250:	c8 00 a0 08 	ld  [ %g2 + 8 ], %g4
40002254:	c6 00 a0 0c 	ld  [ %g2 + 0xc ], %g3
40002258:	fa 00 80 00 	ld  [ %g2 ], %i5
4000225c:	f8 20 7f f4 	st  %i4, [ %g1 + -12 ]
40002260:	fa 20 7f f0 	st  %i5, [ %g1 + -16 ]
40002264:	c8 20 7f f8 	st  %g4, [ %g1 + -8 ]
40002268:	c6 20 7f fc 	st  %g3, [ %g1 + -4 ]
4000226c:	80 a6 c0 01 	cmp  %i3, %g1
40002270:	12 bf ff f6 	bne  40002248 <memcpy+0x38>
40002274:	84 00 a0 10 	add  %g2, 0x10, %g2
40002278:	b2 06 40 0f 	add  %i1, %o7, %i1
4000227c:	80 8e a0 0c 	btst  0xc, %i2
40002280:	02 80 00 45 	be  40002394 <memcpy+0x184>
40002284:	86 0e a0 0f 	and  %i2, 0xf, %g3
40002288:	c4 06 40 00 	ld  [ %i1 ], %g2
4000228c:	c4 20 40 00 	st  %g2, [ %g1 ]
40002290:	84 00 ff fc 	add  %g3, -4, %g2
40002294:	80 a0 a0 03 	cmp  %g2, 3
40002298:	08 80 00 08 	bleu  400022b8 <memcpy+0xa8>
4000229c:	86 00 ff f8 	add  %g3, -8, %g3
400022a0:	c8 06 60 04 	ld  [ %i1 + 4 ], %g4
400022a4:	80 a0 e0 03 	cmp  %g3, 3
400022a8:	08 80 00 04 	bleu  400022b8 <memcpy+0xa8>
400022ac:	c8 20 60 04 	st  %g4, [ %g1 + 4 ]
400022b0:	c6 06 60 08 	ld  [ %i1 + 8 ], %g3
400022b4:	c6 20 60 08 	st  %g3, [ %g1 + 8 ]
400022b8:	b4 0e a0 03 	and  %i2, 3, %i2
400022bc:	84 08 bf fc 	and  %g2, -4, %g2
400022c0:	b8 06 bf ff 	add  %i2, -1, %i4
400022c4:	84 00 a0 04 	add  %g2, 4, %g2
400022c8:	80 a6 a0 00 	cmp  %i2, 0
400022cc:	82 00 40 02 	add  %g1, %g2, %g1
400022d0:	12 80 00 07 	bne  400022ec <memcpy+0xdc>
400022d4:	b2 06 40 02 	add  %i1, %g2, %i1
400022d8:	81 c7 e0 08 	ret 
400022dc:	81 e8 00 00 	restore 
400022e0:	80 a6 a0 00 	cmp  %i2, 0
400022e4:	02 bf ff fd 	be  400022d8 <memcpy+0xc8>
400022e8:	b8 06 bf ff 	add  %i2, -1, %i4
400022ec:	84 16 40 01 	or  %i1, %g1, %g2
400022f0:	80 88 a0 03 	btst  3, %g2
400022f4:	12 80 00 2a 	bne  4000239c <memcpy+0x18c>
400022f8:	80 a7 20 07 	cmp  %i4, 7
400022fc:	08 80 00 22 	bleu  40002384 <memcpy+0x174>
40002300:	84 10 20 01 	mov  1, %g2
40002304:	80 88 a0 ff 	btst  0xff, %g2
40002308:	02 80 00 25 	be  4000239c <memcpy+0x18c>
4000230c:	86 07 3f fd 	add  %i4, -3, %g3
40002310:	b6 07 20 01 	add  %i4, 1, %i3
40002314:	87 30 e0 02 	srl  %g3, 2, %g3
40002318:	84 10 20 00 	clr  %g2
4000231c:	86 00 e0 01 	inc  %g3
40002320:	88 10 20 00 	clr  %g4
40002324:	fa 06 40 02 	ld  [ %i1 + %g2 ], %i5
40002328:	fa 20 40 02 	st  %i5, [ %g1 + %g2 ]
4000232c:	88 01 20 01 	inc  %g4
40002330:	80 a0 c0 04 	cmp  %g3, %g4
40002334:	18 bf ff fc 	bgu  40002324 <memcpy+0x114>
40002338:	84 00 a0 04 	add  %g2, 4, %g2
4000233c:	87 28 e0 02 	sll  %g3, 2, %g3
40002340:	84 00 40 03 	add  %g1, %g3, %g2
40002344:	88 06 40 03 	add  %i1, %g3, %g4
40002348:	80 a6 c0 03 	cmp  %i3, %g3
4000234c:	02 bf ff e3 	be  400022d8 <memcpy+0xc8>
40002350:	b8 27 00 03 	sub  %i4, %g3, %i4
40002354:	fa 0e 40 03 	ldub  [ %i1 + %g3 ], %i5
40002358:	80 a7 20 00 	cmp  %i4, 0
4000235c:	02 bf ff df 	be  400022d8 <memcpy+0xc8>
40002360:	fa 28 40 03 	stb  %i5, [ %g1 + %g3 ]
40002364:	c2 09 20 01 	ldub  [ %g4 + 1 ], %g1
40002368:	80 a7 20 01 	cmp  %i4, 1
4000236c:	02 bf ff db 	be  400022d8 <memcpy+0xc8>
40002370:	c2 28 a0 01 	stb  %g1, [ %g2 + 1 ]
40002374:	c2 09 20 02 	ldub  [ %g4 + 2 ], %g1
40002378:	c2 28 a0 02 	stb  %g1, [ %g2 + 2 ]
4000237c:	81 c7 e0 08 	ret 
40002380:	81 e8 00 00 	restore 
40002384:	10 bf ff e0 	b  40002304 <memcpy+0xf4>
40002388:	84 10 20 00 	clr  %g2
4000238c:	10 bf ff d8 	b  400022ec <memcpy+0xdc>
40002390:	82 10 00 18 	mov  %i0, %g1
40002394:	10 bf ff d3 	b  400022e0 <memcpy+0xd0>
40002398:	b4 10 00 03 	mov  %g3, %i2
4000239c:	84 10 20 00 	clr  %g2
400023a0:	c6 0e 40 02 	ldub  [ %i1 + %g2 ], %g3
400023a4:	c6 28 40 02 	stb  %g3, [ %g1 + %g2 ]
400023a8:	80 a7 00 02 	cmp  %i4, %g2
400023ac:	12 bf ff fd 	bne  400023a0 <memcpy+0x190>
400023b0:	84 00 a0 01 	inc  %g2
400023b4:	81 c7 e0 08 	ret 
400023b8:	81 e8 00 00 	restore 

400023bc <_printf_r>:
400023bc:	9d e3 bf 98 	save  %sp, -104, %sp
400023c0:	f4 27 a0 4c 	st  %i2, [ %fp + 0x4c ]
400023c4:	f6 27 a0 50 	st  %i3, [ %fp + 0x50 ]
400023c8:	f8 27 a0 54 	st  %i4, [ %fp + 0x54 ]
400023cc:	80 a6 20 00 	cmp  %i0, 0
400023d0:	02 80 00 06 	be  400023e8 <_printf_r+0x2c>
400023d4:	fa 27 a0 58 	st  %i5, [ %fp + 0x58 ]
400023d8:	c2 06 20 18 	ld  [ %i0 + 0x18 ], %g1
400023dc:	80 a0 60 00 	cmp  %g1, 0
400023e0:	02 80 00 0a 	be  40002408 <_printf_r+0x4c>
400023e4:	01 00 00 00 	nop 
400023e8:	96 07 a0 4c 	add  %fp, 0x4c, %o3
400023ec:	d2 06 20 08 	ld  [ %i0 + 8 ], %o1
400023f0:	94 10 00 19 	mov  %i1, %o2
400023f4:	d6 27 bf fc 	st  %o3, [ %fp + -4 ]
400023f8:	40 00 00 88 	call  40002618 <_vfprintf_r>
400023fc:	90 10 00 18 	mov  %i0, %o0
40002400:	81 c7 e0 08 	ret 
40002404:	91 e8 00 08 	restore  %g0, %o0, %o0
40002408:	40 00 13 e4 	call  40007398 <__sinit>
4000240c:	90 10 00 18 	mov  %i0, %o0
40002410:	96 07 a0 4c 	add  %fp, 0x4c, %o3
40002414:	d2 06 20 08 	ld  [ %i0 + 8 ], %o1
40002418:	94 10 00 19 	mov  %i1, %o2
4000241c:	d6 27 bf fc 	st  %o3, [ %fp + -4 ]
40002420:	40 00 00 7e 	call  40002618 <_vfprintf_r>
40002424:	90 10 00 18 	mov  %i0, %o0
40002428:	81 c7 e0 08 	ret 
4000242c:	91 e8 00 08 	restore  %g0, %o0, %o0

40002430 <printf>:
40002430:	9d e3 bf 90 	save  %sp, -112, %sp
40002434:	f2 27 a0 48 	st  %i1, [ %fp + 0x48 ]
40002438:	f4 27 a0 4c 	st  %i2, [ %fp + 0x4c ]
4000243c:	f6 27 a0 50 	st  %i3, [ %fp + 0x50 ]
40002440:	f8 27 a0 54 	st  %i4, [ %fp + 0x54 ]
40002444:	fa 27 a0 58 	st  %i5, [ %fp + 0x58 ]
40002448:	03 10 00 3c 	sethi  %hi(0x4000f000), %g1
4000244c:	d0 00 63 5c 	ld  [ %g1 + 0x35c ], %o0	! 4000f35c <_impure_ptr>
40002450:	80 a2 20 00 	cmp  %o0, 0
40002454:	02 80 00 06 	be  4000246c <printf+0x3c>
40002458:	96 07 a0 48 	add  %fp, 0x48, %o3
4000245c:	c2 02 20 18 	ld  [ %o0 + 0x18 ], %g1
40002460:	80 a0 60 00 	cmp  %g1, 0
40002464:	02 80 00 08 	be  40002484 <printf+0x54>
40002468:	01 00 00 00 	nop 
4000246c:	94 10 00 18 	mov  %i0, %o2
40002470:	d6 27 bf fc 	st  %o3, [ %fp + -4 ]
40002474:	40 00 00 69 	call  40002618 <_vfprintf_r>
40002478:	d2 02 20 08 	ld  [ %o0 + 8 ], %o1
4000247c:	81 c7 e0 08 	ret 
40002480:	91 e8 00 08 	restore  %g0, %o0, %o0
40002484:	40 00 13 c5 	call  40007398 <__sinit>
40002488:	d0 27 bf f4 	st  %o0, [ %fp + -12 ]
4000248c:	d0 07 bf f4 	ld  [ %fp + -12 ], %o0
40002490:	96 07 a0 48 	add  %fp, 0x48, %o3
40002494:	94 10 00 18 	mov  %i0, %o2
40002498:	d6 27 bf fc 	st  %o3, [ %fp + -4 ]
4000249c:	40 00 00 5f 	call  40002618 <_vfprintf_r>
400024a0:	d2 02 20 08 	ld  [ %o0 + 8 ], %o1
400024a4:	81 c7 e0 08 	ret 
400024a8:	91 e8 00 08 	restore  %g0, %o0, %o0
400024ac:	40 00 2f 78 	call  4000e28c <divide+0x24>
400024b0:	40 00 28 10 	call  4000c4f0 <__sfvwrite_r+0x70>
400024b4:	40 00 28 10 	call  4000c4f4 <__sfvwrite_r+0x74>
400024b8:	40 00 2f 68 	call  4000e258 <.rem+0x14>
400024bc:	40 00 28 10 	call  4000c4fc <__sfvwrite_r+0x7c>
400024c0:	40 00 28 10 	call  4000c500 <__sfvwrite_r+0x80>
400024c4:	40 00 28 10 	call  4000c504 <__sfvwrite_r+0x84>
400024c8:	40 00 2b c8 	call  4000d3e8 <_reclaim_reent+0x30>
400024cc:	40 00 28 10 	call  4000c50c <__sfvwrite_r+0x8c>
400024d0:	40 00 28 10 	call  4000c510 <__sfvwrite_r+0x90>
400024d4:	40 00 2f 3c 	call  4000e1c4 <L2.15+0x4>
400024d8:	40 00 2f 2c 	call  4000e188 <L1.16+0x28>
400024dc:	40 00 28 10 	call  4000c51c <__sfvwrite_r+0x9c>
400024e0:	40 00 2f 1c 	call  4000e150 <L3.17+0x14>
400024e4:	40 00 2e c8 	call  4000e004 <ready_to_divide+0x4c>
400024e8:	40 00 28 10 	call  4000c528 <__sfvwrite_r+0xa8>
400024ec:	40 00 2e b8 	call  4000dfcc <ready_to_divide+0x14>
400024f0:	40 00 29 bc 	call  4000cbe0 <__ascii_mbtowc+0x3c>
400024f4:	40 00 29 bc 	call  4000cbe4 <__ascii_mbtowc+0x40>
400024f8:	40 00 29 bc 	call  4000cbe8 <__ascii_mbtowc+0x44>
400024fc:	40 00 29 bc 	call  4000cbec <__ascii_mbtowc+0x48>
40002500:	40 00 29 bc 	call  4000cbf0 <__ascii_mbtowc+0x4c>
40002504:	40 00 29 bc 	call  4000cbf4 <__ascii_mbtowc+0x50>
40002508:	40 00 29 bc 	call  4000cbf8 <__ascii_mbtowc+0x54>
4000250c:	40 00 29 bc 	call  4000cbfc <memmove>
40002510:	40 00 29 bc 	call  4000cc00 <memmove+0x4>
40002514:	40 00 28 10 	call  4000c554 <__sfvwrite_r+0xd4>
40002518:	40 00 28 10 	call  4000c558 <__sfvwrite_r+0xd8>
4000251c:	40 00 28 10 	call  4000c55c <__sfvwrite_r+0xdc>
40002520:	40 00 28 10 	call  4000c560 <__sfvwrite_r+0xe0>
40002524:	40 00 28 10 	call  4000c564 <__sfvwrite_r+0xe4>
40002528:	40 00 28 10 	call  4000c568 <__sfvwrite_r+0xe8>
4000252c:	40 00 28 10 	call  4000c56c <__sfvwrite_r+0xec>
40002530:	40 00 29 f4 	call  4000cd00 <memmove+0x104>
40002534:	40 00 28 10 	call  4000c574 <__sfvwrite_r+0xf4>
40002538:	40 00 2c 8c 	call  4000d768 <__swbuf_r+0x4c>
4000253c:	40 00 2c 20 	call  4000d5bc <_reclaim_reent+0x204>
40002540:	40 00 29 f4 	call  4000cd10 <memmove+0x114>
40002544:	40 00 29 f4 	call  4000cd14 <memmove+0x118>
40002548:	40 00 29 f4 	call  4000cd18 <memmove+0x11c>
4000254c:	40 00 28 10 	call  4000c58c <__sfvwrite_r+0x10c>
40002550:	40 00 28 10 	call  4000c590 <__sfvwrite_r+0x110>
40002554:	40 00 28 10 	call  4000c594 <__sfvwrite_r+0x114>
40002558:	40 00 28 10 	call  4000c598 <__sfvwrite_r+0x118>
4000255c:	40 00 2f 94 	call  4000e3ac <L3.19+0x14>
40002560:	40 00 28 10 	call  4000c5a0 <__sfvwrite_r+0x120>
40002564:	40 00 28 10 	call  4000c5a4 <__sfvwrite_r+0x124>
40002568:	40 00 2d 18 	call  4000d9c8 <__swbuf+0x108>
4000256c:	40 00 28 10 	call  4000c5ac <__sfvwrite_r+0x12c>
40002570:	40 00 28 10 	call  4000c5b0 <__sfvwrite_r+0x130>
40002574:	40 00 28 10 	call  4000c5b4 <__sfvwrite_r+0x134>
40002578:	40 00 2c a8 	call  4000d818 <__swbuf_r+0xfc>
4000257c:	40 00 28 10 	call  4000c5bc <__sfvwrite_r+0x13c>
40002580:	40 00 2e 84 	call  4000df90 <.udiv+0x4>
40002584:	40 00 28 10 	call  4000c5c4 <__sfvwrite_r+0x144>
40002588:	40 00 28 10 	call  4000c5c8 <__sfvwrite_r+0x148>
4000258c:	40 00 3d 94 	call  40011bdc <__bss_end+0x20dc>
40002590:	40 00 28 10 	call  4000c5d0 <__sfvwrite_r+0x150>
40002594:	40 00 28 10 	call  4000c5d4 <__sfvwrite_r+0x154>
40002598:	40 00 28 10 	call  4000c5d8 <__sfvwrite_r+0x158>
4000259c:	40 00 28 10 	call  4000c5dc <__sfvwrite_r+0x15c>
400025a0:	40 00 28 10 	call  4000c5e0 <__sfvwrite_r+0x160>
400025a4:	40 00 28 10 	call  4000c5e4 <__sfvwrite_r+0x164>
400025a8:	40 00 28 10 	call  4000c5e8 <__sfvwrite_r+0x168>
400025ac:	40 00 28 10 	call  4000c5ec <__sfvwrite_r+0x16c>
400025b0:	40 00 29 f4 	call  4000cd80 <memmove+0x184>
400025b4:	40 00 28 10 	call  4000c5f4 <__sfvwrite_r+0x174>
400025b8:	40 00 2c 8c 	call  4000d7e8 <__swbuf_r+0xcc>
400025bc:	40 00 2c 24 	call  4000d64c <_reclaim_reent+0x294>
400025c0:	40 00 29 f4 	call  4000cd90 <memmove+0x194>
400025c4:	40 00 29 f4 	call  4000cd94 <memmove+0x198>
400025c8:	40 00 29 f4 	call  4000cd98 <memmove+0x19c>
400025cc:	40 00 2e 64 	call  4000df5c <mul_shortway+0x18>
400025d0:	40 00 2c 24 	call  4000d660 <strcmp+0x4>
400025d4:	40 00 2c 10 	call  4000d614 <_reclaim_reent+0x25c>
400025d8:	40 00 28 10 	call  4000c618 <__sfvwrite_r+0x198>
400025dc:	40 00 2e 44 	call  4000deec <.umul+0x48>
400025e0:	40 00 28 10 	call  4000c620 <__sfvwrite_r+0x1a0>
400025e4:	40 00 2d bc 	call  4000dcd4 <sbrk+0x28>
400025e8:	40 00 2d 1c 	call  4000da58 <__swbuf+0x198>
400025ec:	40 00 2e 04 	call  4000ddfc <__bcc_con_outbyte+0x1c>
400025f0:	40 00 2c 10 	call  4000d630 <_reclaim_reent+0x278>
400025f4:	40 00 28 10 	call  4000c634 <__sfvwrite_r+0x1b4>
400025f8:	40 00 2c a8 	call  4000d898 <__swbuf_r+0x17c>
400025fc:	40 00 2c 04 	call  4000d60c <_reclaim_reent+0x254>
40002600:	40 00 3d 8c 	call  40011c30 <__bss_end+0x2130>
40002604:	40 00 28 10 	call  4000c644 <__sfvwrite_r+0x1c4>
40002608:	40 00 28 10 	call  4000c648 <__sfvwrite_r+0x1c8>
4000260c:	40 00 3d 1c 	call  40011a7c <__bss_end+0x1f7c>
40002610:	40 00 28 10 	call  4000c650 <__sfvwrite_r+0x1d0>
40002614:	40 00 2c 04 	call  4000d624 <_reclaim_reent+0x26c>

40002618 <_vfprintf_r>:
40002618:	9d e3 be 20 	save  %sp, -480, %sp
4000261c:	40 00 14 a1 	call  400078a0 <_localeconv_r>
40002620:	90 10 00 18 	mov  %i0, %o0
40002624:	c2 02 00 00 	ld  [ %o0 ], %g1
40002628:	c2 27 be ac 	st  %g1, [ %fp + -340 ]
4000262c:	40 00 1d f2 	call  40009df4 <strlen>
40002630:	90 10 00 01 	mov  %g1, %o0
40002634:	f6 27 be dc 	st  %i3, [ %fp + -292 ]
40002638:	80 a6 20 00 	cmp  %i0, 0
4000263c:	02 80 00 06 	be  40002654 <_vfprintf_r+0x3c>
40002640:	d0 27 be b8 	st  %o0, [ %fp + -328 ]
40002644:	c2 06 20 18 	ld  [ %i0 + 0x18 ], %g1
40002648:	80 a0 60 00 	cmp  %g1, 0
4000264c:	02 80 01 54 	be  40002b9c <_vfprintf_r+0x584>
40002650:	01 00 00 00 	nop 
40002654:	03 10 00 3b 	sethi  %hi(0x4000ec00), %g1
40002658:	82 10 62 20 	or  %g1, 0x220, %g1	! 4000ee20 <__sf_fake_stdin>
4000265c:	80 a6 40 01 	cmp  %i1, %g1
40002660:	22 80 00 0b 	be,a   4000268c <_vfprintf_r+0x74>
40002664:	f2 06 20 04 	ld  [ %i0 + 4 ], %i1
40002668:	03 10 00 3b 	sethi  %hi(0x4000ec00), %g1
4000266c:	82 10 62 00 	or  %g1, 0x200, %g1	! 4000ee00 <__sf_fake_stdout>
40002670:	80 a6 40 01 	cmp  %i1, %g1
40002674:	02 80 01 53 	be  40002bc0 <_vfprintf_r+0x5a8>
40002678:	03 10 00 3b 	sethi  %hi(0x4000ec00), %g1
4000267c:	82 10 61 e0 	or  %g1, 0x1e0, %g1	! 4000ede0 <__sf_fake_stderr>
40002680:	80 a6 40 01 	cmp  %i1, %g1
40002684:	22 80 00 02 	be,a   4000268c <_vfprintf_r+0x74>
40002688:	f2 06 20 0c 	ld  [ %i0 + 0xc ], %i1
4000268c:	c2 16 60 0c 	lduh  [ %i1 + 0xc ], %g1
40002690:	05 00 00 08 	sethi  %hi(0x2000), %g2
40002694:	80 88 80 01 	btst  %g2, %g1
40002698:	12 80 00 08 	bne  400026b8 <_vfprintf_r+0xa0>
4000269c:	80 88 60 08 	btst  8, %g1
400026a0:	82 10 80 01 	or  %g2, %g1, %g1
400026a4:	c6 06 60 60 	ld  [ %i1 + 0x60 ], %g3
400026a8:	c2 36 60 0c 	sth  %g1, [ %i1 + 0xc ]
400026ac:	84 28 c0 02 	andn  %g3, %g2, %g2
400026b0:	c4 26 60 60 	st  %g2, [ %i1 + 0x60 ]
400026b4:	80 88 60 08 	btst  8, %g1
400026b8:	02 80 03 84 	be  400034c8 <_vfprintf_r+0xeb0>
400026bc:	92 10 00 19 	mov  %i1, %o1
400026c0:	c4 06 60 10 	ld  [ %i1 + 0x10 ], %g2
400026c4:	80 a0 a0 00 	cmp  %g2, 0
400026c8:	02 80 03 80 	be  400034c8 <_vfprintf_r+0xeb0>
400026cc:	82 08 60 1a 	and  %g1, 0x1a, %g1
400026d0:	80 a0 60 0a 	cmp  %g1, 0xa
400026d4:	22 80 03 88 	be,a   400034f4 <_vfprintf_r+0xedc>
400026d8:	c2 56 60 0e 	ldsh  [ %i1 + 0xe ], %g1
400026dc:	82 07 bf 58 	add  %fp, -168, %g1
400026e0:	21 10 00 3b 	sethi  %hi(0x4000ec00), %l0
400026e4:	c2 27 bf 4c 	st  %g1, [ %fp + -180 ]
400026e8:	ba 10 00 01 	mov  %g1, %i5
400026ec:	c0 27 be b0 	clr  [ %fp + -336 ]
400026f0:	03 10 00 09 	sethi  %hi(0x40002400), %g1
400026f4:	c0 27 be b4 	clr  [ %fp + -332 ]
400026f8:	82 10 60 ac 	or  %g1, 0xac, %g1
400026fc:	c0 27 bf 54 	clr  [ %fp + -172 ]
40002700:	c0 27 bf 50 	clr  [ %fp + -176 ]
40002704:	c0 27 be c4 	clr  [ %fp + -316 ]
40002708:	c0 27 be a8 	clr  [ %fp + -344 ]
4000270c:	c0 27 be a4 	clr  [ %fp + -348 ]
40002710:	c0 27 be a0 	clr  [ %fp + -352 ]
40002714:	c0 27 be 9c 	clr  [ %fp + -356 ]
40002718:	c0 27 be 98 	clr  [ %fp + -360 ]
4000271c:	c0 27 be ec 	clr  [ %fp + -276 ]
40002720:	c2 27 be d8 	st  %g1, [ %fp + -296 ]
40002724:	a0 14 21 60 	or  %l0, 0x160, %l0
40002728:	c2 0e 80 00 	ldub  [ %i2 ], %g1
4000272c:	83 28 60 18 	sll  %g1, 0x18, %g1
40002730:	85 38 60 18 	sra  %g1, 0x18, %g2
40002734:	80 a0 a0 25 	cmp  %g2, 0x25
40002738:	02 80 00 21 	be  400027bc <_vfprintf_r+0x1a4>
4000273c:	b8 10 00 1a 	mov  %i2, %i4
40002740:	80 a0 a0 00 	cmp  %g2, 0
40002744:	02 80 00 1f 	be  400027c0 <_vfprintf_r+0x1a8>
40002748:	80 a0 60 00 	cmp  %g1, 0
4000274c:	b6 10 00 1c 	mov  %i4, %i3
40002750:	b8 07 20 01 	inc  %i4
40002754:	c2 0f 00 00 	ldub  [ %i4 ], %g1
40002758:	83 28 60 18 	sll  %g1, 0x18, %g1
4000275c:	80 a0 60 00 	cmp  %g1, 0
40002760:	02 80 00 05 	be  40002774 <_vfprintf_r+0x15c>
40002764:	85 38 60 18 	sra  %g1, 0x18, %g2
40002768:	80 a0 a0 25 	cmp  %g2, 0x25
4000276c:	32 bf ff f9 	bne,a   40002750 <_vfprintf_r+0x138>
40002770:	b6 10 00 1c 	mov  %i4, %i3
40002774:	a2 a7 00 1a 	subcc  %i4, %i2, %l1
40002778:	02 80 00 11 	be  400027bc <_vfprintf_r+0x1a4>
4000277c:	c4 07 bf 54 	ld  [ %fp + -172 ], %g2
40002780:	c2 07 bf 50 	ld  [ %fp + -176 ], %g1
40002784:	84 00 80 11 	add  %g2, %l1, %g2
40002788:	82 00 60 01 	inc  %g1
4000278c:	f4 27 40 00 	st  %i2, [ %i5 ]
40002790:	e2 27 60 04 	st  %l1, [ %i5 + 4 ]
40002794:	c4 27 bf 54 	st  %g2, [ %fp + -172 ]
40002798:	c2 27 bf 50 	st  %g1, [ %fp + -176 ]
4000279c:	80 a0 60 07 	cmp  %g1, 7
400027a0:	14 80 02 f2 	bg  40003368 <_vfprintf_r+0xd50>
400027a4:	ba 07 60 08 	add  %i5, 8, %i5
400027a8:	c4 07 be ec 	ld  [ %fp + -276 ], %g2
400027ac:	c2 0e e0 01 	ldub  [ %i3 + 1 ], %g1
400027b0:	84 00 80 11 	add  %g2, %l1, %g2
400027b4:	83 28 60 18 	sll  %g1, 0x18, %g1
400027b8:	c4 27 be ec 	st  %g2, [ %fp + -276 ]
400027bc:	80 a0 60 00 	cmp  %g1, 0
400027c0:	02 80 06 33 	be  4000408c <_vfprintf_r+0x1a74>
400027c4:	b4 07 20 01 	add  %i4, 1, %i2
400027c8:	c2 0f 20 01 	ldub  [ %i4 + 1 ], %g1
400027cc:	c0 2f be f7 	clrb  [ %fp + -265 ]
400027d0:	b8 10 3f ff 	mov  -1, %i4
400027d4:	b6 10 20 00 	clr  %i3
400027d8:	a4 10 20 00 	clr  %l2
400027dc:	83 28 60 18 	sll  %g1, 0x18, %g1
400027e0:	a2 10 20 2b 	mov  0x2b, %l1
400027e4:	a6 10 20 20 	mov  0x20, %l3
400027e8:	b4 06 a0 01 	inc  %i2
400027ec:	ad 38 60 18 	sra  %g1, 0x18, %l6
400027f0:	82 05 bf e0 	add  %l6, -32, %g1
400027f4:	80 a0 60 5a 	cmp  %g1, 0x5a
400027f8:	18 80 00 06 	bgu  40002810 <_vfprintf_r+0x1f8>
400027fc:	83 28 60 02 	sll  %g1, 2, %g1
40002800:	c4 07 be d8 	ld  [ %fp + -296 ], %g2
40002804:	c2 00 80 01 	ld  [ %g2 + %g1 ], %g1
40002808:	81 c0 40 00 	jmp  %g1
4000280c:	01 00 00 00 	nop 
40002810:	80 a5 a0 00 	cmp  %l6, 0
40002814:	02 80 06 1f 	be  40004090 <_vfprintf_r+0x1a78>
40002818:	c2 07 bf 54 	ld  [ %fp + -172 ], %g1
4000281c:	ec 2f bf 98 	stb  %l6, [ %fp + -104 ]
40002820:	c0 2f be f7 	clrb  [ %fp + -265 ]
40002824:	82 10 20 01 	mov  1, %g1
40002828:	a2 10 20 01 	mov  1, %l1
4000282c:	9a 10 20 00 	clr  %o5
40002830:	c0 27 be e8 	clr  [ %fp + -280 ]
40002834:	c2 27 be e0 	st  %g1, [ %fp + -288 ]
40002838:	b8 10 20 00 	clr  %i4
4000283c:	c0 27 be bc 	clr  [ %fp + -324 ]
40002840:	c0 27 be c0 	clr  [ %fp + -320 ]
40002844:	c0 27 be c8 	clr  [ %fp + -312 ]
40002848:	a6 07 bf 98 	add  %fp, -104, %l3
4000284c:	9b 2b 60 18 	sll  %o5, 0x18, %o5
40002850:	80 a0 00 0d 	cmp  %g0, %o5
40002854:	a2 40 00 11 	addx  %g0, %l1, %l1
40002858:	96 8c a0 02 	andcc  %l2, 2, %o3
4000285c:	32 80 00 02 	bne,a   40002864 <_vfprintf_r+0x24c>
40002860:	a2 04 60 02 	add  %l1, 2, %l1
40002864:	82 8c a0 84 	andcc  %l2, 0x84, %g1
40002868:	c2 27 be d0 	st  %g1, [ %fp + -304 ]
4000286c:	12 80 00 06 	bne  40002884 <_vfprintf_r+0x26c>
40002870:	de 07 bf 54 	ld  [ %fp + -172 ], %o7
40002874:	88 26 c0 11 	sub  %i3, %l1, %g4
40002878:	80 a1 20 00 	cmp  %g4, 0
4000287c:	34 80 02 c4 	bg,a   4000338c <_vfprintf_r+0xd74>
40002880:	1b 10 00 3b 	sethi  %hi(0x4000ec00), %o5
40002884:	80 a3 60 00 	cmp  %o5, 0
40002888:	02 80 00 0f 	be  400028c4 <_vfprintf_r+0x2ac>
4000288c:	80 a2 e0 00 	cmp  %o3, 0
40002890:	9a 07 be f7 	add  %fp, -265, %o5
40002894:	c8 07 bf 50 	ld  [ %fp + -176 ], %g4
40002898:	da 27 40 00 	st  %o5, [ %i5 ]
4000289c:	88 01 20 01 	inc  %g4
400028a0:	9e 03 e0 01 	inc  %o7
400028a4:	9a 10 20 01 	mov  1, %o5
400028a8:	de 27 bf 54 	st  %o7, [ %fp + -172 ]
400028ac:	da 27 60 04 	st  %o5, [ %i5 + 4 ]
400028b0:	c8 27 bf 50 	st  %g4, [ %fp + -176 ]
400028b4:	80 a1 20 07 	cmp  %g4, 7
400028b8:	14 80 02 f9 	bg  4000349c <_vfprintf_r+0xe84>
400028bc:	ba 07 60 08 	add  %i5, 8, %i5
400028c0:	80 a2 e0 00 	cmp  %o3, 0
400028c4:	02 80 00 0f 	be  40002900 <_vfprintf_r+0x2e8>
400028c8:	c2 07 be d0 	ld  [ %fp + -304 ], %g1
400028cc:	9a 07 be f8 	add  %fp, -264, %o5
400028d0:	c8 07 bf 50 	ld  [ %fp + -176 ], %g4
400028d4:	da 27 40 00 	st  %o5, [ %i5 ]
400028d8:	88 01 20 01 	inc  %g4
400028dc:	9e 03 e0 02 	add  %o7, 2, %o7
400028e0:	9a 10 20 02 	mov  2, %o5
400028e4:	de 27 bf 54 	st  %o7, [ %fp + -172 ]
400028e8:	da 27 60 04 	st  %o5, [ %i5 + 4 ]
400028ec:	c8 27 bf 50 	st  %g4, [ %fp + -176 ]
400028f0:	80 a1 20 07 	cmp  %g4, 7
400028f4:	14 80 02 e1 	bg  40003478 <_vfprintf_r+0xe60>
400028f8:	ba 07 60 08 	add  %i5, 8, %i5
400028fc:	c2 07 be d0 	ld  [ %fp + -304 ], %g1
40002900:	80 a0 60 80 	cmp  %g1, 0x80
40002904:	02 80 01 f0 	be  400030c4 <_vfprintf_r+0xaac>
40002908:	ae 26 c0 11 	sub  %i3, %l1, %l7
4000290c:	c2 07 be e0 	ld  [ %fp + -288 ], %g1
40002910:	b8 27 00 01 	sub  %i4, %g1, %i4
40002914:	80 a7 20 00 	cmp  %i4, 0
40002918:	14 80 02 1f 	bg  40003194 <_vfprintf_r+0xb7c>
4000291c:	80 a7 20 10 	cmp  %i4, 0x10
40002920:	80 8c a1 00 	btst  0x100, %l2
40002924:	12 80 01 a0 	bne  40002fa4 <_vfprintf_r+0x98c>
40002928:	80 a5 a0 65 	cmp  %l6, 0x65
4000292c:	c4 07 be e0 	ld  [ %fp + -288 ], %g2
40002930:	c2 07 bf 50 	ld  [ %fp + -176 ], %g1
40002934:	9e 03 c0 02 	add  %o7, %g2, %o7
40002938:	82 00 60 01 	inc  %g1
4000293c:	e6 27 40 00 	st  %l3, [ %i5 ]
40002940:	c4 27 60 04 	st  %g2, [ %i5 + 4 ]
40002944:	de 27 bf 54 	st  %o7, [ %fp + -172 ]
40002948:	80 a0 60 07 	cmp  %g1, 7
4000294c:	14 80 00 8b 	bg  40002b78 <_vfprintf_r+0x560>
40002950:	c2 27 bf 50 	st  %g1, [ %fp + -176 ]
40002954:	ba 07 60 08 	add  %i5, 8, %i5
40002958:	80 8c a0 04 	btst  4, %l2
4000295c:	02 80 00 07 	be  40002978 <_vfprintf_r+0x360>
40002960:	80 a6 c0 11 	cmp  %i3, %l1
40002964:	b8 26 c0 11 	sub  %i3, %l1, %i4
40002968:	80 a7 20 00 	cmp  %i4, 0
4000296c:	14 80 02 e8 	bg  4000350c <_vfprintf_r+0xef4>
40002970:	1b 10 00 3b 	sethi  %hi(0x4000ec00), %o5
40002974:	80 a6 c0 11 	cmp  %i3, %l1
40002978:	26 80 00 02 	bl,a   40002980 <_vfprintf_r+0x368>
4000297c:	b6 10 00 11 	mov  %l1, %i3
40002980:	c2 07 be ec 	ld  [ %fp + -276 ], %g1
40002984:	82 00 40 1b 	add  %g1, %i3, %g1
40002988:	80 a3 e0 00 	cmp  %o7, 0
4000298c:	12 80 02 63 	bne  40003318 <_vfprintf_r+0xd00>
40002990:	c2 27 be ec 	st  %g1, [ %fp + -276 ]
40002994:	c0 27 bf 50 	clr  [ %fp + -176 ]
40002998:	c2 07 be e8 	ld  [ %fp + -280 ], %g1
4000299c:	80 a0 60 00 	cmp  %g1, 0
400029a0:	02 bf ff 62 	be  40002728 <_vfprintf_r+0x110>
400029a4:	ba 07 bf 58 	add  %fp, -168, %i5
400029a8:	92 10 00 01 	mov  %g1, %o1
400029ac:	40 00 12 c0 	call  400074ac <_free_r>
400029b0:	90 10 00 18 	mov  %i0, %o0
400029b4:	10 bf ff 5e 	b  4000272c <_vfprintf_r+0x114>
400029b8:	c2 0e 80 00 	ldub  [ %i2 ], %g1
400029bc:	b6 10 20 00 	clr  %i3
400029c0:	82 05 bf d0 	add  %l6, -48, %g1
400029c4:	85 2e e0 02 	sll  %i3, 2, %g2
400029c8:	b4 06 a0 01 	inc  %i2
400029cc:	b6 00 80 1b 	add  %g2, %i3, %i3
400029d0:	ec 4e bf ff 	ldsb  [ %i2 + -1 ], %l6
400029d4:	b7 2e e0 01 	sll  %i3, 1, %i3
400029d8:	b6 00 40 1b 	add  %g1, %i3, %i3
400029dc:	82 05 bf d0 	add  %l6, -48, %g1
400029e0:	80 a0 60 09 	cmp  %g1, 9
400029e4:	08 bf ff f9 	bleu  400029c8 <_vfprintf_r+0x3b0>
400029e8:	85 2e e0 02 	sll  %i3, 2, %g2
400029ec:	10 bf ff 82 	b  400027f4 <_vfprintf_r+0x1dc>
400029f0:	82 05 bf e0 	add  %l6, -32, %g1
400029f4:	d2 07 be dc 	ld  [ %fp + -292 ], %o1
400029f8:	94 10 20 08 	mov  8, %o2
400029fc:	80 8c a0 08 	btst  8, %l2
40002a00:	12 80 03 f0 	bne  400039c0 <_vfprintf_r+0x13a8>
40002a04:	ae 02 60 08 	add  %o1, 8, %l7
40002a08:	7f ff fe 02 	call  40002210 <memcpy>
40002a0c:	90 07 bf 28 	add  %fp, -216, %o0
40002a10:	d1 1f bf 28 	ldd  [ %fp + -216 ], %f8
40002a14:	d1 3f be b0 	std  %f8, [ %fp + -336 ]
40002a18:	95 a0 00 28 	fmovs  %f8, %f10
40002a1c:	97 a0 00 29 	fmovs  %f9, %f11
40002a20:	91 a0 01 2a 	fabss  %f10, %f8
40002a24:	93 a0 00 2b 	fmovs  %f11, %f9
40002a28:	03 10 00 3b 	sethi  %hi(0x4000ec00), %g1
40002a2c:	d9 18 61 40 	ldd  [ %g1 + 0x140 ], %f12	! 4000ed40 <_global_impure_ptr+0x6c>
40002a30:	81 aa 0a 4c 	fcmpd  %f8, %f12
40002a34:	01 00 00 00 	nop 
40002a38:	1d 80 03 f1 	fbule  400039fc <_vfprintf_r+0x13e4>
40002a3c:	91 a0 00 2a 	fmovs  %f10, %f8
40002a40:	03 10 00 3b 	sethi  %hi(0x4000ec00), %g1
40002a44:	d1 18 61 38 	ldd  [ %g1 + 0x138 ], %f8	! 4000ed38 <_global_impure_ptr+0x64>
40002a48:	81 aa 8a c8 	fcmped  %f10, %f8
40002a4c:	01 00 00 00 	nop 
40002a50:	09 80 06 58 	fbl  400043b0 <_vfprintf_r+0x1d98>
40002a54:	84 10 20 2d 	mov  0x2d, %g2	! 2d <fpu_state_f11+0x1>
40002a58:	da 0f be f7 	ldub  [ %fp + -265 ], %o5
40002a5c:	80 a5 a0 47 	cmp  %l6, 0x47
40002a60:	04 80 05 a2 	ble  400040e8 <_vfprintf_r+0x1ad0>
40002a64:	05 10 00 3b 	sethi  %hi(0x4000ec00), %g2
40002a68:	05 10 00 3b 	sethi  %hi(0x4000ec00), %g2
40002a6c:	a6 10 a0 e0 	or  %g2, 0xe0, %l3	! 4000ece0 <_global_impure_ptr+0xc>
40002a70:	a4 0c bf 7f 	and  %l2, -129, %l2
40002a74:	82 10 20 03 	mov  3, %g1
40002a78:	ee 27 be dc 	st  %l7, [ %fp + -292 ]
40002a7c:	a2 10 20 03 	mov  3, %l1
40002a80:	c0 27 be e8 	clr  [ %fp + -280 ]
40002a84:	c2 27 be e0 	st  %g1, [ %fp + -288 ]
40002a88:	b8 10 20 00 	clr  %i4
40002a8c:	c0 27 be bc 	clr  [ %fp + -324 ]
40002a90:	c0 27 be c0 	clr  [ %fp + -320 ]
40002a94:	10 bf ff 6e 	b  4000284c <_vfprintf_r+0x234>
40002a98:	c0 27 be c8 	clr  [ %fp + -312 ]
40002a9c:	f8 07 bf 50 	ld  [ %fp + -176 ], %i4
40002aa0:	c4 07 be c4 	ld  [ %fp + -316 ], %g2
40002aa4:	9e 03 e0 01 	inc  %o7
40002aa8:	82 07 20 01 	add  %i4, 1, %g1
40002aac:	80 a0 a0 01 	cmp  %g2, 1
40002ab0:	04 80 03 3e 	ble  400037a8 <_vfprintf_r+0x1190>
40002ab4:	88 07 60 08 	add  %i5, 8, %g4
40002ab8:	b8 10 20 01 	mov  1, %i4
40002abc:	de 27 bf 54 	st  %o7, [ %fp + -172 ]
40002ac0:	f8 27 60 04 	st  %i4, [ %i5 + 4 ]
40002ac4:	80 a0 60 07 	cmp  %g1, 7
40002ac8:	14 80 05 11 	bg  40003f0c <_vfprintf_r+0x18f4>
40002acc:	c2 27 bf 50 	st  %g1, [ %fp + -176 ]
40002ad0:	82 00 60 01 	inc  %g1
40002ad4:	c4 07 be b8 	ld  [ %fp + -328 ], %g2
40002ad8:	c6 07 be ac 	ld  [ %fp + -340 ], %g3
40002adc:	9e 03 c0 02 	add  %o7, %g2, %o7
40002ae0:	c6 21 00 00 	st  %g3, [ %g4 ]
40002ae4:	c4 21 20 04 	st  %g2, [ %g4 + 4 ]
40002ae8:	de 27 bf 54 	st  %o7, [ %fp + -172 ]
40002aec:	c2 27 bf 50 	st  %g1, [ %fp + -176 ]
40002af0:	80 a0 60 07 	cmp  %g1, 7
40002af4:	14 80 05 1a 	bg  40003f5c <_vfprintf_r+0x1944>
40002af8:	88 01 20 08 	add  %g4, 8, %g4
40002afc:	c4 07 be c4 	ld  [ %fp + -316 ], %g2
40002b00:	d1 1f be b0 	ldd  [ %fp + -336 ], %f8
40002b04:	ac 00 bf ff 	add  %g2, -1, %l6
40002b08:	b8 00 60 01 	add  %g1, 1, %i4
40002b0c:	05 10 00 3b 	sethi  %hi(0x4000ec00), %g2
40002b10:	d5 18 a1 38 	ldd  [ %g2 + 0x138 ], %f10	! 4000ed38 <_global_impure_ptr+0x64>
40002b14:	81 aa 0a 4a 	fcmpd  %f8, %f10
40002b18:	01 00 00 00 	nop 
40002b1c:	13 80 03 2f 	fbe  400037d8 <_vfprintf_r+0x11c0>
40002b20:	ba 01 20 08 	add  %g4, 8, %i5
40002b24:	84 04 e0 01 	add  %l3, 1, %g2
40002b28:	9e 03 c0 16 	add  %o7, %l6, %o7
40002b2c:	c4 21 00 00 	st  %g2, [ %g4 ]
40002b30:	ec 21 20 04 	st  %l6, [ %g4 + 4 ]
40002b34:	de 27 bf 54 	st  %o7, [ %fp + -172 ]
40002b38:	80 a7 20 07 	cmp  %i4, 7
40002b3c:	14 80 04 51 	bg  40003c80 <_vfprintf_r+0x1668>
40002b40:	f8 27 bf 50 	st  %i4, [ %fp + -176 ]
40002b44:	84 01 20 10 	add  %g4, 0x10, %g2
40002b48:	b8 00 60 02 	add  %g1, 2, %i4
40002b4c:	88 10 00 1d 	mov  %i5, %g4
40002b50:	ba 10 00 02 	mov  %g2, %i5
40002b54:	c4 07 be a4 	ld  [ %fp + -348 ], %g2
40002b58:	82 07 bf 08 	add  %fp, -248, %g1
40002b5c:	9e 00 80 0f 	add  %g2, %o7, %o7
40002b60:	c2 21 00 00 	st  %g1, [ %g4 ]
40002b64:	c4 21 20 04 	st  %g2, [ %g4 + 4 ]
40002b68:	de 27 bf 54 	st  %o7, [ %fp + -172 ]
40002b6c:	80 a7 20 07 	cmp  %i4, 7
40002b70:	04 bf ff 7a 	ble  40002958 <_vfprintf_r+0x340>
40002b74:	f8 27 bf 50 	st  %i4, [ %fp + -176 ]
40002b78:	94 07 bf 4c 	add  %fp, -180, %o2
40002b7c:	92 10 00 19 	mov  %i1, %o1
40002b80:	40 00 1d 8e 	call  4000a1b8 <__sprint_r>
40002b84:	90 10 00 18 	mov  %i0, %o0
40002b88:	80 a2 20 00 	cmp  %o0, 0
40002b8c:	12 80 01 ea 	bne  40003334 <_vfprintf_r+0xd1c>
40002b90:	de 07 bf 54 	ld  [ %fp + -172 ], %o7
40002b94:	10 bf ff 71 	b  40002958 <_vfprintf_r+0x340>
40002b98:	ba 07 bf 58 	add  %fp, -168, %i5
40002b9c:	40 00 11 ff 	call  40007398 <__sinit>
40002ba0:	90 10 00 18 	mov  %i0, %o0
40002ba4:	03 10 00 3b 	sethi  %hi(0x4000ec00), %g1
40002ba8:	82 10 62 20 	or  %g1, 0x220, %g1	! 4000ee20 <__sf_fake_stdin>
40002bac:	80 a6 40 01 	cmp  %i1, %g1
40002bb0:	12 bf fe af 	bne  4000266c <_vfprintf_r+0x54>
40002bb4:	03 10 00 3b 	sethi  %hi(0x4000ec00), %g1
40002bb8:	10 bf fe b5 	b  4000268c <_vfprintf_r+0x74>
40002bbc:	f2 06 20 04 	ld  [ %i0 + 4 ], %i1
40002bc0:	10 bf fe b3 	b  4000268c <_vfprintf_r+0x74>
40002bc4:	f2 06 20 08 	ld  [ %i0 + 8 ], %i1
40002bc8:	40 00 13 36 	call  400078a0 <_localeconv_r>
40002bcc:	90 10 00 18 	mov  %i0, %o0
40002bd0:	c2 02 20 04 	ld  [ %o0 + 4 ], %g1
40002bd4:	c2 27 be 98 	st  %g1, [ %fp + -360 ]
40002bd8:	40 00 1c 87 	call  40009df4 <strlen>
40002bdc:	90 10 00 01 	mov  %g1, %o0
40002be0:	82 10 00 08 	mov  %o0, %g1
40002be4:	90 10 00 18 	mov  %i0, %o0
40002be8:	ac 10 00 01 	mov  %g1, %l6
40002bec:	40 00 13 2d 	call  400078a0 <_localeconv_r>
40002bf0:	c2 27 be 9c 	st  %g1, [ %fp + -356 ]
40002bf4:	82 95 a0 00 	orcc  %l6, 0, %g1
40002bf8:	c2 02 20 08 	ld  [ %o0 + 8 ], %g1
40002bfc:	12 80 03 45 	bne  40003910 <_vfprintf_r+0x12f8>
40002c00:	c2 27 be a0 	st  %g1, [ %fp + -352 ]
40002c04:	c4 0e 80 00 	ldub  [ %i2 ], %g2
40002c08:	10 bf fe f8 	b  400027e8 <_vfprintf_r+0x1d0>
40002c0c:	83 28 a0 18 	sll  %g2, 0x18, %g1
40002c10:	c4 0e 80 00 	ldub  [ %i2 ], %g2
40002c14:	a4 14 a0 20 	or  %l2, 0x20, %l2
40002c18:	10 bf fe f4 	b  400027e8 <_vfprintf_r+0x1d0>
40002c1c:	83 28 a0 18 	sll  %g2, 0x18, %g1
40002c20:	a4 14 a0 10 	or  %l2, 0x10, %l2
40002c24:	80 8c a0 20 	btst  0x20, %l2
40002c28:	02 80 03 25 	be  400038bc <_vfprintf_r+0x12a4>
40002c2c:	c2 07 be dc 	ld  [ %fp + -292 ], %g1
40002c30:	92 10 00 01 	mov  %g1, %o1
40002c34:	82 00 60 08 	add  %g1, 8, %g1
40002c38:	94 10 20 08 	mov  8, %o2
40002c3c:	90 07 bf 18 	add  %fp, -232, %o0
40002c40:	7f ff fd 74 	call  40002210 <memcpy>
40002c44:	c2 27 be dc 	st  %g1, [ %fp + -292 ]
40002c48:	c4 07 bf 18 	ld  [ %fp + -232 ], %g2
40002c4c:	ea 07 bf 1c 	ld  [ %fp + -228 ], %l5
40002c50:	a8 10 00 02 	mov  %g2, %l4
40002c54:	80 a0 a0 00 	cmp  %g2, 0
40002c58:	06 80 03 27 	bl  400038f4 <_vfprintf_r+0x12dc>
40002c5c:	80 a7 3f ff 	cmp  %i4, -1
40002c60:	02 80 02 5b 	be  400035cc <_vfprintf_r+0xfb4>
40002c64:	80 a7 20 00 	cmp  %i4, 0
40002c68:	12 80 02 59 	bne  400035cc <_vfprintf_r+0xfb4>
40002c6c:	a4 0c bf 7f 	and  %l2, -129, %l2
40002c70:	80 95 00 15 	orcc  %l4, %l5, %g0
40002c74:	32 80 02 57 	bne,a   400035d0 <_vfprintf_r+0xfb8>
40002c78:	a2 10 00 12 	mov  %l2, %l1
40002c7c:	c0 27 be e0 	clr  [ %fp + -288 ]
40002c80:	a6 07 bf fc 	add  %fp, -4, %l3
40002c84:	10 80 00 44 	b  40002d94 <_vfprintf_r+0x77c>
40002c88:	c2 07 be e0 	ld  [ %fp + -288 ], %g1
40002c8c:	c2 07 be dc 	ld  [ %fp + -292 ], %g1
40002c90:	c0 2f be f7 	clrb  [ %fp + -265 ]
40002c94:	c4 00 40 00 	ld  [ %g1 ], %g2
40002c98:	82 00 60 04 	add  %g1, 4, %g1
40002c9c:	c4 2f bf 98 	stb  %g2, [ %fp + -104 ]
40002ca0:	10 bf fe e1 	b  40002824 <_vfprintf_r+0x20c>
40002ca4:	c2 27 be dc 	st  %g1, [ %fp + -292 ]
40002ca8:	c2 07 be dc 	ld  [ %fp + -292 ], %g1
40002cac:	c0 2f be f7 	clrb  [ %fp + -265 ]
40002cb0:	e6 00 40 00 	ld  [ %g1 ], %l3
40002cb4:	82 00 60 04 	add  %g1, 4, %g1
40002cb8:	80 a4 e0 00 	cmp  %l3, 0
40002cbc:	02 80 04 3b 	be  40003da8 <_vfprintf_r+0x1790>
40002cc0:	c2 27 be dc 	st  %g1, [ %fp + -292 ]
40002cc4:	80 a7 3f ff 	cmp  %i4, -1
40002cc8:	02 80 04 fb 	be  400040b4 <_vfprintf_r+0x1a9c>
40002ccc:	94 10 00 1c 	mov  %i4, %o2
40002cd0:	92 10 20 00 	clr  %o1
40002cd4:	40 00 15 84 	call  400082e4 <memchr>
40002cd8:	90 10 00 13 	mov  %l3, %o0
40002cdc:	80 a2 20 00 	cmp  %o0, 0
40002ce0:	02 80 08 02 	be  40004ce8 <_vfprintf_r+0x26d0>
40002ce4:	d0 27 be e8 	st  %o0, [ %fp + -280 ]
40002ce8:	82 22 00 13 	sub  %o0, %l3, %g1
40002cec:	da 0f be f7 	ldub  [ %fp + -265 ], %o5
40002cf0:	a2 38 00 01 	xnor  %g0, %g1, %l1
40002cf4:	c2 27 be e0 	st  %g1, [ %fp + -288 ]
40002cf8:	a3 3c 60 1f 	sra  %l1, 0x1f, %l1
40002cfc:	c0 27 be e8 	clr  [ %fp + -280 ]
40002d00:	b8 10 20 00 	clr  %i4
40002d04:	a2 08 40 11 	and  %g1, %l1, %l1
40002d08:	c0 27 be bc 	clr  [ %fp + -324 ]
40002d0c:	c0 27 be c0 	clr  [ %fp + -320 ]
40002d10:	10 bf fe cf 	b  4000284c <_vfprintf_r+0x234>
40002d14:	c0 27 be c8 	clr  [ %fp + -312 ]
40002d18:	a4 14 a0 10 	or  %l2, 0x10, %l2
40002d1c:	80 8c a0 20 	btst  0x20, %l2
40002d20:	02 80 02 ce 	be  40003858 <_vfprintf_r+0x1240>
40002d24:	c2 07 be dc 	ld  [ %fp + -292 ], %g1
40002d28:	92 10 00 01 	mov  %g1, %o1
40002d2c:	82 00 60 08 	add  %g1, 8, %g1
40002d30:	94 10 20 08 	mov  8, %o2
40002d34:	90 07 bf 30 	add  %fp, -208, %o0
40002d38:	7f ff fd 36 	call  40002210 <memcpy>
40002d3c:	c2 27 be dc 	st  %g1, [ %fp + -292 ]
40002d40:	a2 0c bb ff 	and  %l2, -1025, %l1
40002d44:	e8 1f bf 30 	ldd  [ %fp + -208 ], %l4
40002d48:	84 10 20 00 	clr  %g2
40002d4c:	c0 2f be f7 	clrb  [ %fp + -265 ]
40002d50:	80 a7 3f ff 	cmp  %i4, -1
40002d54:	02 80 01 40 	be  40003254 <_vfprintf_r+0xc3c>
40002d58:	80 95 00 15 	orcc  %l4, %l5, %g0
40002d5c:	12 80 01 3d 	bne  40003250 <_vfprintf_r+0xc38>
40002d60:	a4 0c 7f 7f 	and  %l1, -129, %l2
40002d64:	80 a7 20 00 	cmp  %i4, 0
40002d68:	12 80 01 3a 	bne  40003250 <_vfprintf_r+0xc38>
40002d6c:	80 88 a0 ff 	btst  0xff, %g2
40002d70:	12 bf ff c3 	bne  40002c7c <_vfprintf_r+0x664>
40002d74:	b8 10 20 00 	clr  %i4
40002d78:	82 8c 60 01 	andcc  %l1, 1, %g1
40002d7c:	c2 27 be e0 	st  %g1, [ %fp + -288 ]
40002d80:	02 80 00 05 	be  40002d94 <_vfprintf_r+0x77c>
40002d84:	a6 07 bf fc 	add  %fp, -4, %l3
40002d88:	84 10 20 30 	mov  0x30, %g2
40002d8c:	a6 07 bf fb 	add  %fp, -5, %l3
40002d90:	c4 2f bf fb 	stb  %g2, [ %fp + -5 ]
40002d94:	da 0f be f7 	ldub  [ %fp + -265 ], %o5
40002d98:	80 a7 00 01 	cmp  %i4, %g1
40002d9c:	16 80 00 03 	bge  40002da8 <_vfprintf_r+0x790>
40002da0:	a2 10 00 1c 	mov  %i4, %l1
40002da4:	a2 10 00 01 	mov  %g1, %l1
40002da8:	c0 27 be e8 	clr  [ %fp + -280 ]
40002dac:	c0 27 be bc 	clr  [ %fp + -324 ]
40002db0:	c0 27 be c0 	clr  [ %fp + -320 ]
40002db4:	10 bf fe a6 	b  4000284c <_vfprintf_r+0x234>
40002db8:	c0 27 be c8 	clr  [ %fp + -312 ]
40002dbc:	c4 07 be dc 	ld  [ %fp + -292 ], %g2
40002dc0:	c2 00 80 00 	ld  [ %g2 ], %g1
40002dc4:	84 00 a0 04 	add  %g2, 4, %g2
40002dc8:	80 8c a0 20 	btst  0x20, %l2
40002dcc:	12 80 02 f8 	bne  400039ac <_vfprintf_r+0x1394>
40002dd0:	c4 27 be dc 	st  %g2, [ %fp + -292 ]
40002dd4:	80 8c a0 10 	btst  0x10, %l2
40002dd8:	12 80 04 ab 	bne  40004084 <_vfprintf_r+0x1a6c>
40002ddc:	c4 07 be ec 	ld  [ %fp + -276 ], %g2
40002de0:	80 8c a0 40 	btst  0x40, %l2
40002de4:	32 bf fe 51 	bne,a   40002728 <_vfprintf_r+0x110>
40002de8:	c4 30 40 00 	sth  %g2, [ %g1 ]
40002dec:	80 8c a2 00 	btst  0x200, %l2
40002df0:	22 bf fe 4e 	be,a   40002728 <_vfprintf_r+0x110>
40002df4:	c4 20 40 00 	st  %g2, [ %g1 ]
40002df8:	c4 07 be ec 	ld  [ %fp + -276 ], %g2
40002dfc:	10 bf fe 4b 	b  40002728 <_vfprintf_r+0x110>
40002e00:	c4 28 40 00 	stb  %g2, [ %g1 ]
40002e04:	c2 07 be dc 	ld  [ %fp + -292 ], %g1
40002e08:	e8 00 40 00 	ld  [ %g1 ], %l4
40002e0c:	82 00 60 04 	add  %g1, 4, %g1
40002e10:	c2 27 be dc 	st  %g1, [ %fp + -292 ]
40002e14:	03 00 00 0c 	sethi  %hi(0x3000), %g1
40002e18:	82 10 60 78 	or  %g1, 0x78, %g1	! 3078 <__data_size+0x2a68>
40002e1c:	aa 10 00 14 	mov  %l4, %l5
40002e20:	c2 37 be f8 	sth  %g1, [ %fp + -264 ]
40002e24:	a8 10 20 00 	clr  %l4
40002e28:	03 10 00 3b 	sethi  %hi(0x4000ec00), %g1
40002e2c:	a2 14 a0 02 	or  %l2, 2, %l1
40002e30:	82 10 60 f8 	or  %g1, 0xf8, %g1
40002e34:	84 10 20 02 	mov  2, %g2
40002e38:	c2 27 be a8 	st  %g1, [ %fp + -344 ]
40002e3c:	10 bf ff c4 	b  40002d4c <_vfprintf_r+0x734>
40002e40:	ac 10 20 78 	mov  0x78, %l6
40002e44:	c4 0e 80 00 	ldub  [ %i2 ], %g2
40002e48:	83 28 a0 18 	sll  %g2, 0x18, %g1
40002e4c:	85 38 60 18 	sra  %g1, 0x18, %g2
40002e50:	80 a0 a0 6c 	cmp  %g2, 0x6c
40002e54:	22 80 03 a1 	be,a   40003cd8 <_vfprintf_r+0x16c0>
40002e58:	c4 0e a0 01 	ldub  [ %i2 + 1 ], %g2
40002e5c:	10 bf fe 63 	b  400027e8 <_vfprintf_r+0x1d0>
40002e60:	a4 14 a0 10 	or  %l2, 0x10, %l2
40002e64:	c4 0e 80 00 	ldub  [ %i2 ], %g2
40002e68:	83 28 a0 18 	sll  %g2, 0x18, %g1
40002e6c:	85 38 60 18 	sra  %g1, 0x18, %g2
40002e70:	80 a0 a0 68 	cmp  %g2, 0x68
40002e74:	22 80 03 9d 	be,a   40003ce8 <_vfprintf_r+0x16d0>
40002e78:	c4 0e a0 01 	ldub  [ %i2 + 1 ], %g2
40002e7c:	10 bf fe 5b 	b  400027e8 <_vfprintf_r+0x1d0>
40002e80:	a4 14 a0 40 	or  %l2, 0x40, %l2
40002e84:	a2 14 a0 10 	or  %l2, 0x10, %l1
40002e88:	80 8c 60 20 	btst  0x20, %l1
40002e8c:	02 80 02 80 	be  4000388c <_vfprintf_r+0x1274>
40002e90:	c2 07 be dc 	ld  [ %fp + -292 ], %g1
40002e94:	92 10 00 01 	mov  %g1, %o1
40002e98:	82 00 60 08 	add  %g1, 8, %g1
40002e9c:	94 10 20 08 	mov  8, %o2
40002ea0:	90 07 bf 38 	add  %fp, -200, %o0
40002ea4:	7f ff fc db 	call  40002210 <memcpy>
40002ea8:	c2 27 be dc 	st  %g1, [ %fp + -292 ]
40002eac:	84 10 20 01 	mov  1, %g2
40002eb0:	10 bf ff a7 	b  40002d4c <_vfprintf_r+0x734>
40002eb4:	e8 1f bf 38 	ldd  [ %fp + -200 ], %l4
40002eb8:	c4 0e 80 00 	ldub  [ %i2 ], %g2
40002ebc:	a4 14 a0 80 	or  %l2, 0x80, %l2
40002ec0:	10 bf fe 4a 	b  400027e8 <_vfprintf_r+0x1d0>
40002ec4:	83 28 a0 18 	sll  %g2, 0x18, %g1
40002ec8:	ec 4e 80 00 	ldsb  [ %i2 ], %l6
40002ecc:	80 a5 a0 2a 	cmp  %l6, 0x2a
40002ed0:	02 80 08 5a 	be  40005038 <_vfprintf_r+0x2a20>
40002ed4:	86 06 a0 01 	add  %i2, 1, %g3
40002ed8:	82 05 bf d0 	add  %l6, -48, %g1
40002edc:	b4 10 00 03 	mov  %g3, %i2
40002ee0:	80 a0 60 09 	cmp  %g1, 9
40002ee4:	18 bf fe 43 	bgu  400027f0 <_vfprintf_r+0x1d8>
40002ee8:	b8 10 20 00 	clr  %i4
40002eec:	85 2f 20 02 	sll  %i4, 2, %g2
40002ef0:	b4 06 a0 01 	inc  %i2
40002ef4:	b8 00 80 1c 	add  %g2, %i4, %i4
40002ef8:	ec 4e bf ff 	ldsb  [ %i2 + -1 ], %l6
40002efc:	b9 2f 20 01 	sll  %i4, 1, %i4
40002f00:	b8 07 00 01 	add  %i4, %g1, %i4
40002f04:	82 05 bf d0 	add  %l6, -48, %g1
40002f08:	80 a0 60 09 	cmp  %g1, 9
40002f0c:	08 bf ff f9 	bleu  40002ef0 <_vfprintf_r+0x8d8>
40002f10:	85 2f 20 02 	sll  %i4, 2, %g2
40002f14:	10 bf fe 38 	b  400027f4 <_vfprintf_r+0x1dc>
40002f18:	82 05 bf e0 	add  %l6, -32, %g1
40002f1c:	c4 0e 80 00 	ldub  [ %i2 ], %g2
40002f20:	a4 14 a0 04 	or  %l2, 4, %l2
40002f24:	10 bf fe 31 	b  400027e8 <_vfprintf_r+0x1d0>
40002f28:	83 28 a0 18 	sll  %g2, 0x18, %g1
40002f2c:	c4 0e 80 00 	ldub  [ %i2 ], %g2
40002f30:	e2 2f be f7 	stb  %l1, [ %fp + -265 ]
40002f34:	10 bf fe 2d 	b  400027e8 <_vfprintf_r+0x1d0>
40002f38:	83 28 a0 18 	sll  %g2, 0x18, %g1
40002f3c:	c2 07 be dc 	ld  [ %fp + -292 ], %g1
40002f40:	f6 00 40 00 	ld  [ %g1 ], %i3
40002f44:	82 00 60 04 	add  %g1, 4, %g1
40002f48:	c2 27 be dc 	st  %g1, [ %fp + -292 ]
40002f4c:	c4 0e 80 00 	ldub  [ %i2 ], %g2
40002f50:	80 a6 e0 00 	cmp  %i3, 0
40002f54:	16 bf fe 25 	bge  400027e8 <_vfprintf_r+0x1d0>
40002f58:	83 28 a0 18 	sll  %g2, 0x18, %g1
40002f5c:	b6 20 00 1b 	neg  %i3
40002f60:	10 bf fe 22 	b  400027e8 <_vfprintf_r+0x1d0>
40002f64:	a4 14 a0 04 	or  %l2, 4, %l2
40002f68:	c4 0e 80 00 	ldub  [ %i2 ], %g2
40002f6c:	a4 14 a0 01 	or  %l2, 1, %l2
40002f70:	10 bf fe 1e 	b  400027e8 <_vfprintf_r+0x1d0>
40002f74:	83 28 a0 18 	sll  %g2, 0x18, %g1
40002f78:	c4 0e 80 00 	ldub  [ %i2 ], %g2
40002f7c:	c6 4f be f7 	ldsb  [ %fp + -265 ], %g3
40002f80:	80 a0 e0 00 	cmp  %g3, 0
40002f84:	12 bf fe 19 	bne  400027e8 <_vfprintf_r+0x1d0>
40002f88:	83 28 a0 18 	sll  %g2, 0x18, %g1
40002f8c:	10 bf fe 17 	b  400027e8 <_vfprintf_r+0x1d0>
40002f90:	e6 2f be f7 	stb  %l3, [ %fp + -265 ]
40002f94:	c4 0e 80 00 	ldub  [ %i2 ], %g2
40002f98:	a4 14 a0 08 	or  %l2, 8, %l2
40002f9c:	10 bf fe 13 	b  400027e8 <_vfprintf_r+0x1d0>
40002fa0:	83 28 a0 18 	sll  %g2, 0x18, %g1
40002fa4:	24 bf fe be 	ble,a   40002a9c <_vfprintf_r+0x484>
40002fa8:	e6 27 40 00 	st  %l3, [ %i5 ]
40002fac:	03 10 00 3b 	sethi  %hi(0x4000ec00), %g1
40002fb0:	d1 1f be b0 	ldd  [ %fp + -336 ], %f8
40002fb4:	d5 18 61 38 	ldd  [ %g1 + 0x138 ], %f10
40002fb8:	81 aa 0a 4a 	fcmpd  %f8, %f10
40002fbc:	01 00 00 00 	nop 
40002fc0:	03 80 01 8f 	fbne  400035fc <_vfprintf_r+0xfe4>
40002fc4:	c8 07 bf 00 	ld  [ %fp + -256 ], %g4
40002fc8:	05 10 00 3b 	sethi  %hi(0x4000ec00), %g2
40002fcc:	84 10 a1 30 	or  %g2, 0x130, %g2	! 4000ed30 <_global_impure_ptr+0x5c>
40002fd0:	c2 07 bf 50 	ld  [ %fp + -176 ], %g1
40002fd4:	c4 27 40 00 	st  %g2, [ %i5 ]
40002fd8:	82 00 60 01 	inc  %g1
40002fdc:	9e 03 e0 01 	inc  %o7
40002fe0:	84 10 20 01 	mov  1, %g2
40002fe4:	de 27 bf 54 	st  %o7, [ %fp + -172 ]
40002fe8:	c4 27 60 04 	st  %g2, [ %i5 + 4 ]
40002fec:	c2 27 bf 50 	st  %g1, [ %fp + -176 ]
40002ff0:	80 a0 60 07 	cmp  %g1, 7
40002ff4:	14 80 04 1b 	bg  40004060 <_vfprintf_r+0x1a48>
40002ff8:	ba 07 60 08 	add  %i5, 8, %i5
40002ffc:	c2 07 bf 00 	ld  [ %fp + -256 ], %g1
40003000:	c4 07 be c4 	ld  [ %fp + -316 ], %g2
40003004:	80 a0 40 02 	cmp  %g1, %g2
40003008:	16 80 02 4b 	bge  40003934 <_vfprintf_r+0x131c>
4000300c:	80 8c a0 01 	btst  1, %l2
40003010:	c4 07 be b8 	ld  [ %fp + -328 ], %g2
40003014:	c2 07 bf 50 	ld  [ %fp + -176 ], %g1
40003018:	9e 03 c0 02 	add  %o7, %g2, %o7
4000301c:	82 00 60 01 	inc  %g1
40003020:	c6 07 be ac 	ld  [ %fp + -340 ], %g3
40003024:	c4 27 60 04 	st  %g2, [ %i5 + 4 ]
40003028:	c6 27 40 00 	st  %g3, [ %i5 ]
4000302c:	de 27 bf 54 	st  %o7, [ %fp + -172 ]
40003030:	c2 27 bf 50 	st  %g1, [ %fp + -176 ]
40003034:	80 a0 60 07 	cmp  %g1, 7
40003038:	14 80 03 30 	bg  40003cf8 <_vfprintf_r+0x16e0>
4000303c:	ba 07 60 08 	add  %i5, 8, %i5
40003040:	c2 07 be c4 	ld  [ %fp + -316 ], %g1
40003044:	b8 00 7f ff 	add  %g1, -1, %i4
40003048:	80 a7 20 00 	cmp  %i4, 0
4000304c:	04 bf fe 44 	ble  4000295c <_vfprintf_r+0x344>
40003050:	80 8c a0 04 	btst  4, %l2
40003054:	80 a7 20 10 	cmp  %i4, 0x10
40003058:	04 80 03 98 	ble  40003eb8 <_vfprintf_r+0x18a0>
4000305c:	c2 07 bf 50 	ld  [ %fp + -176 ], %g1
40003060:	10 80 00 06 	b  40003078 <_vfprintf_r+0xa60>
40003064:	a6 10 20 10 	mov  0x10, %l3
40003068:	b8 07 3f f0 	add  %i4, -16, %i4
4000306c:	80 a7 20 10 	cmp  %i4, 0x10
40003070:	24 80 03 93 	ble,a   40003ebc <_vfprintf_r+0x18a4>
40003074:	e0 27 40 00 	st  %l0, [ %i5 ]
40003078:	82 00 60 01 	inc  %g1
4000307c:	9e 03 e0 10 	add  %o7, 0x10, %o7
40003080:	e0 27 40 00 	st  %l0, [ %i5 ]
40003084:	e6 27 60 04 	st  %l3, [ %i5 + 4 ]
40003088:	de 27 bf 54 	st  %o7, [ %fp + -172 ]
4000308c:	c2 27 bf 50 	st  %g1, [ %fp + -176 ]
40003090:	80 a0 60 07 	cmp  %g1, 7
40003094:	04 bf ff f5 	ble  40003068 <_vfprintf_r+0xa50>
40003098:	ba 07 60 08 	add  %i5, 8, %i5
4000309c:	94 07 bf 4c 	add  %fp, -180, %o2
400030a0:	92 10 00 19 	mov  %i1, %o1
400030a4:	40 00 1c 45 	call  4000a1b8 <__sprint_r>
400030a8:	90 10 00 18 	mov  %i0, %o0
400030ac:	80 a2 20 00 	cmp  %o0, 0
400030b0:	12 80 00 a1 	bne  40003334 <_vfprintf_r+0xd1c>
400030b4:	de 07 bf 54 	ld  [ %fp + -172 ], %o7
400030b8:	c2 07 bf 50 	ld  [ %fp + -176 ], %g1
400030bc:	10 bf ff eb 	b  40003068 <_vfprintf_r+0xa50>
400030c0:	ba 07 bf 58 	add  %fp, -168, %i5
400030c4:	80 a5 e0 00 	cmp  %l7, 0
400030c8:	04 bf fe 12 	ble  40002910 <_vfprintf_r+0x2f8>
400030cc:	c2 07 be e0 	ld  [ %fp + -288 ], %g1
400030d0:	80 a5 e0 10 	cmp  %l7, 0x10
400030d4:	04 80 00 1e 	ble  4000314c <_vfprintf_r+0xb34>
400030d8:	da 07 bf 50 	ld  [ %fp + -176 ], %o5
400030dc:	10 80 00 06 	b  400030f4 <_vfprintf_r+0xadc>
400030e0:	88 10 20 10 	mov  0x10, %g4
400030e4:	ae 05 ff f0 	add  %l7, -16, %l7
400030e8:	80 a5 e0 10 	cmp  %l7, 0x10
400030ec:	24 80 00 19 	ble,a   40003150 <_vfprintf_r+0xb38>
400030f0:	9a 03 60 01 	inc  %o5
400030f4:	9a 03 60 01 	inc  %o5
400030f8:	9e 03 e0 10 	add  %o7, 0x10, %o7
400030fc:	e0 27 40 00 	st  %l0, [ %i5 ]
40003100:	c8 27 60 04 	st  %g4, [ %i5 + 4 ]
40003104:	de 27 bf 54 	st  %o7, [ %fp + -172 ]
40003108:	da 27 bf 50 	st  %o5, [ %fp + -176 ]
4000310c:	80 a3 60 07 	cmp  %o5, 7
40003110:	04 bf ff f5 	ble  400030e4 <_vfprintf_r+0xacc>
40003114:	ba 07 60 08 	add  %i5, 8, %i5
40003118:	94 07 bf 4c 	add  %fp, -180, %o2
4000311c:	92 10 00 19 	mov  %i1, %o1
40003120:	40 00 1c 26 	call  4000a1b8 <__sprint_r>
40003124:	90 10 00 18 	mov  %i0, %o0
40003128:	80 a2 20 00 	cmp  %o0, 0
4000312c:	12 80 00 82 	bne  40003334 <_vfprintf_r+0xd1c>
40003130:	ae 05 ff f0 	add  %l7, -16, %l7
40003134:	de 07 bf 54 	ld  [ %fp + -172 ], %o7
40003138:	da 07 bf 50 	ld  [ %fp + -176 ], %o5
4000313c:	ba 07 bf 58 	add  %fp, -168, %i5
40003140:	80 a5 e0 10 	cmp  %l7, 0x10
40003144:	14 bf ff ec 	bg  400030f4 <_vfprintf_r+0xadc>
40003148:	88 10 20 10 	mov  0x10, %g4
4000314c:	9a 03 60 01 	inc  %o5
40003150:	9e 03 c0 17 	add  %o7, %l7, %o7
40003154:	e0 27 40 00 	st  %l0, [ %i5 ]
40003158:	ee 27 60 04 	st  %l7, [ %i5 + 4 ]
4000315c:	de 27 bf 54 	st  %o7, [ %fp + -172 ]
40003160:	da 27 bf 50 	st  %o5, [ %fp + -176 ]
40003164:	80 a3 60 07 	cmp  %o5, 7
40003168:	04 bf fd e9 	ble  4000290c <_vfprintf_r+0x2f4>
4000316c:	ba 07 60 08 	add  %i5, 8, %i5
40003170:	94 07 bf 4c 	add  %fp, -180, %o2
40003174:	92 10 00 19 	mov  %i1, %o1
40003178:	40 00 1c 10 	call  4000a1b8 <__sprint_r>
4000317c:	90 10 00 18 	mov  %i0, %o0
40003180:	80 a2 20 00 	cmp  %o0, 0
40003184:	12 80 00 6c 	bne  40003334 <_vfprintf_r+0xd1c>
40003188:	de 07 bf 54 	ld  [ %fp + -172 ], %o7
4000318c:	10 bf fd e0 	b  4000290c <_vfprintf_r+0x2f4>
40003190:	ba 07 bf 58 	add  %fp, -168, %i5
40003194:	04 80 00 1d 	ble  40003208 <_vfprintf_r+0xbf0>
40003198:	c8 07 bf 50 	ld  [ %fp + -176 ], %g4
4000319c:	10 80 00 06 	b  400031b4 <_vfprintf_r+0xb9c>
400031a0:	ae 10 20 10 	mov  0x10, %l7
400031a4:	b8 07 3f f0 	add  %i4, -16, %i4
400031a8:	80 a7 20 10 	cmp  %i4, 0x10
400031ac:	24 80 00 18 	ble,a   4000320c <_vfprintf_r+0xbf4>
400031b0:	88 01 20 01 	inc  %g4
400031b4:	88 01 20 01 	inc  %g4
400031b8:	9e 03 e0 10 	add  %o7, 0x10, %o7
400031bc:	e0 27 40 00 	st  %l0, [ %i5 ]
400031c0:	ee 27 60 04 	st  %l7, [ %i5 + 4 ]
400031c4:	de 27 bf 54 	st  %o7, [ %fp + -172 ]
400031c8:	c8 27 bf 50 	st  %g4, [ %fp + -176 ]
400031cc:	80 a1 20 07 	cmp  %g4, 7
400031d0:	04 bf ff f5 	ble  400031a4 <_vfprintf_r+0xb8c>
400031d4:	ba 07 60 08 	add  %i5, 8, %i5
400031d8:	94 07 bf 4c 	add  %fp, -180, %o2
400031dc:	92 10 00 19 	mov  %i1, %o1
400031e0:	40 00 1b f6 	call  4000a1b8 <__sprint_r>
400031e4:	90 10 00 18 	mov  %i0, %o0
400031e8:	80 a2 20 00 	cmp  %o0, 0
400031ec:	12 80 00 52 	bne  40003334 <_vfprintf_r+0xd1c>
400031f0:	b8 07 3f f0 	add  %i4, -16, %i4
400031f4:	de 07 bf 54 	ld  [ %fp + -172 ], %o7
400031f8:	c8 07 bf 50 	ld  [ %fp + -176 ], %g4
400031fc:	80 a7 20 10 	cmp  %i4, 0x10
40003200:	14 bf ff ed 	bg  400031b4 <_vfprintf_r+0xb9c>
40003204:	ba 07 bf 58 	add  %fp, -168, %i5
40003208:	88 01 20 01 	inc  %g4
4000320c:	9e 03 c0 1c 	add  %o7, %i4, %o7
40003210:	e0 27 40 00 	st  %l0, [ %i5 ]
40003214:	f8 27 60 04 	st  %i4, [ %i5 + 4 ]
40003218:	de 27 bf 54 	st  %o7, [ %fp + -172 ]
4000321c:	c8 27 bf 50 	st  %g4, [ %fp + -176 ]
40003220:	80 a1 20 07 	cmp  %g4, 7
40003224:	04 bf fd bf 	ble  40002920 <_vfprintf_r+0x308>
40003228:	ba 07 60 08 	add  %i5, 8, %i5
4000322c:	94 07 bf 4c 	add  %fp, -180, %o2
40003230:	92 10 00 19 	mov  %i1, %o1
40003234:	40 00 1b e1 	call  4000a1b8 <__sprint_r>
40003238:	90 10 00 18 	mov  %i0, %o0
4000323c:	80 a2 20 00 	cmp  %o0, 0
40003240:	12 80 00 3d 	bne  40003334 <_vfprintf_r+0xd1c>
40003244:	de 07 bf 54 	ld  [ %fp + -172 ], %o7
40003248:	10 bf fd b6 	b  40002920 <_vfprintf_r+0x308>
4000324c:	ba 07 bf 58 	add  %fp, -168, %i5
40003250:	a2 10 00 12 	mov  %l2, %l1
40003254:	84 08 a0 ff 	and  %g2, 0xff, %g2
40003258:	80 a0 a0 01 	cmp  %g2, 1
4000325c:	02 80 00 dd 	be  400035d0 <_vfprintf_r+0xfb8>
40003260:	a4 07 bf fc 	add  %fp, -4, %l2
40003264:	80 a0 a0 02 	cmp  %g2, 2
40003268:	12 80 00 12 	bne  400032b0 <_vfprintf_r+0xc98>
4000326c:	a6 10 00 12 	mov  %l2, %l3
40003270:	c8 07 be a8 	ld  [ %fp + -344 ], %g4
40003274:	82 0d 60 0f 	and  %l5, 0xf, %g1
40003278:	a6 04 ff ff 	add  %l3, -1, %l3
4000327c:	c2 09 00 01 	ldub  [ %g4 + %g1 ], %g1
40003280:	c2 2c c0 00 	stb  %g1, [ %l3 ]
40003284:	85 2d 20 1c 	sll  %l4, 0x1c, %g2
40003288:	87 35 20 04 	srl  %l4, 4, %g3
4000328c:	83 35 60 04 	srl  %l5, 4, %g1
40003290:	aa 10 80 01 	or  %g2, %g1, %l5
40003294:	80 90 c0 15 	orcc  %g3, %l5, %g0
40003298:	12 bf ff f7 	bne  40003274 <_vfprintf_r+0xc5c>
4000329c:	a8 10 00 03 	mov  %g3, %l4
400032a0:	82 24 80 13 	sub  %l2, %l3, %g1
400032a4:	a4 10 00 11 	mov  %l1, %l2
400032a8:	10 bf fe bb 	b  40002d94 <_vfprintf_r+0x77c>
400032ac:	c2 27 be e0 	st  %g1, [ %fp + -288 ]
400032b0:	98 10 00 13 	mov  %l3, %o4
400032b4:	86 0d 60 07 	and  %l5, 7, %g3
400032b8:	a6 04 ff ff 	add  %l3, -1, %l3
400032bc:	86 00 e0 30 	add  %g3, 0x30, %g3
400032c0:	c6 2c c0 00 	stb  %g3, [ %l3 ]
400032c4:	85 2d 20 1d 	sll  %l4, 0x1d, %g2
400032c8:	89 35 20 03 	srl  %l4, 3, %g4
400032cc:	83 35 60 03 	srl  %l5, 3, %g1
400032d0:	aa 10 80 01 	or  %g2, %g1, %l5
400032d4:	80 91 00 15 	orcc  %g4, %l5, %g0
400032d8:	12 bf ff f6 	bne  400032b0 <_vfprintf_r+0xc98>
400032dc:	a8 10 00 04 	mov  %g4, %l4
400032e0:	86 08 e0 7f 	and  %g3, 0x7f, %g3
400032e4:	80 a0 e0 30 	cmp  %g3, 0x30
400032e8:	02 bf ff ee 	be  400032a0 <_vfprintf_r+0xc88>
400032ec:	80 8c 60 01 	btst  1, %l1
400032f0:	22 bf ff ed 	be,a   400032a4 <_vfprintf_r+0xc8c>
400032f4:	82 24 80 13 	sub  %l2, %l3, %g1
400032f8:	98 03 3f fe 	add  %o4, -2, %o4
400032fc:	86 10 20 30 	mov  0x30, %g3
40003300:	82 24 80 0c 	sub  %l2, %o4, %g1
40003304:	c6 2c ff ff 	stb  %g3, [ %l3 + -1 ]
40003308:	c2 27 be e0 	st  %g1, [ %fp + -288 ]
4000330c:	a4 10 00 11 	mov  %l1, %l2
40003310:	10 bf fe a1 	b  40002d94 <_vfprintf_r+0x77c>
40003314:	a6 10 00 0c 	mov  %o4, %l3
40003318:	94 07 bf 4c 	add  %fp, -180, %o2
4000331c:	92 10 00 19 	mov  %i1, %o1
40003320:	40 00 1b a6 	call  4000a1b8 <__sprint_r>
40003324:	90 10 00 18 	mov  %i0, %o0
40003328:	80 a2 20 00 	cmp  %o0, 0
4000332c:	22 bf fd 9b 	be,a   40002998 <_vfprintf_r+0x380>
40003330:	c0 27 bf 50 	clr  [ %fp + -176 ]
40003334:	c2 07 be e8 	ld  [ %fp + -280 ], %g1
40003338:	80 a0 60 00 	cmp  %g1, 0
4000333c:	02 80 00 04 	be  4000334c <_vfprintf_r+0xd34>
40003340:	92 10 00 01 	mov  %g1, %o1
40003344:	40 00 10 5a 	call  400074ac <_free_r>
40003348:	90 10 00 18 	mov  %i0, %o0
4000334c:	c2 16 60 0c 	lduh  [ %i1 + 0xc ], %g1
40003350:	80 88 60 40 	btst  0x40, %g1
40003354:	12 80 06 ac 	bne  40004e04 <_vfprintf_r+0x27ec>
40003358:	82 10 3f ff 	mov  -1, %g1
4000335c:	f0 07 be ec 	ld  [ %fp + -276 ], %i0
40003360:	81 c7 e0 08 	ret 
40003364:	81 e8 00 00 	restore 
40003368:	94 07 bf 4c 	add  %fp, -180, %o2
4000336c:	92 10 00 19 	mov  %i1, %o1
40003370:	40 00 1b 92 	call  4000a1b8 <__sprint_r>
40003374:	90 10 00 18 	mov  %i0, %o0
40003378:	80 a2 20 00 	cmp  %o0, 0
4000337c:	12 bf ff f4 	bne  4000334c <_vfprintf_r+0xd34>
40003380:	ba 07 bf 58 	add  %fp, -168, %i5
40003384:	10 bf fd 0a 	b  400027ac <_vfprintf_r+0x194>
40003388:	c4 07 be ec 	ld  [ %fp + -276 ], %g2
4000338c:	d4 07 bf 50 	ld  [ %fp + -176 ], %o2
40003390:	80 a1 20 10 	cmp  %g4, 0x10
40003394:	04 80 00 2d 	ble  40003448 <_vfprintf_r+0xe30>
40003398:	ae 13 61 70 	or  %o5, 0x170, %l7
4000339c:	ae 13 61 70 	or  %o5, 0x170, %l7
400033a0:	e8 3f be 88 	std  %l4, [ %fp + -376 ]
400033a4:	82 10 00 17 	mov  %l7, %g1
400033a8:	98 10 20 10 	mov  0x10, %o4
400033ac:	ae 10 00 1a 	mov  %i2, %l7
400033b0:	d6 27 be 94 	st  %o3, [ %fp + -364 ]
400033b4:	b4 10 00 1c 	mov  %i4, %i2
400033b8:	a8 10 00 04 	mov  %g4, %l4
400033bc:	10 80 00 06 	b  400033d4 <_vfprintf_r+0xdbc>
400033c0:	b8 10 00 01 	mov  %g1, %i4
400033c4:	a8 05 3f f0 	add  %l4, -16, %l4
400033c8:	80 a5 20 10 	cmp  %l4, 0x10
400033cc:	04 80 00 19 	ble  40003430 <_vfprintf_r+0xe18>
400033d0:	82 10 00 1c 	mov  %i4, %g1
400033d4:	94 02 a0 01 	inc  %o2
400033d8:	9e 03 e0 10 	add  %o7, 0x10, %o7
400033dc:	f8 27 40 00 	st  %i4, [ %i5 ]
400033e0:	d8 27 60 04 	st  %o4, [ %i5 + 4 ]
400033e4:	de 27 bf 54 	st  %o7, [ %fp + -172 ]
400033e8:	d4 27 bf 50 	st  %o2, [ %fp + -176 ]
400033ec:	80 a2 a0 07 	cmp  %o2, 7
400033f0:	04 bf ff f5 	ble  400033c4 <_vfprintf_r+0xdac>
400033f4:	ba 07 60 08 	add  %i5, 8, %i5
400033f8:	94 07 bf 4c 	add  %fp, -180, %o2
400033fc:	92 10 00 19 	mov  %i1, %o1
40003400:	40 00 1b 6e 	call  4000a1b8 <__sprint_r>
40003404:	90 10 00 18 	mov  %i0, %o0
40003408:	80 a2 20 00 	cmp  %o0, 0
4000340c:	12 bf ff ca 	bne  40003334 <_vfprintf_r+0xd1c>
40003410:	de 07 bf 54 	ld  [ %fp + -172 ], %o7
40003414:	a8 05 3f f0 	add  %l4, -16, %l4
40003418:	d4 07 bf 50 	ld  [ %fp + -176 ], %o2
4000341c:	ba 07 bf 58 	add  %fp, -168, %i5
40003420:	80 a5 20 10 	cmp  %l4, 0x10
40003424:	14 bf ff ec 	bg  400033d4 <_vfprintf_r+0xdbc>
40003428:	98 10 20 10 	mov  0x10, %o4
4000342c:	82 10 00 1c 	mov  %i4, %g1
40003430:	88 10 00 14 	mov  %l4, %g4
40003434:	b8 10 00 1a 	mov  %i2, %i4
40003438:	d6 07 be 94 	ld  [ %fp + -364 ], %o3
4000343c:	b4 10 00 17 	mov  %l7, %i2
40003440:	e8 1f be 88 	ldd  [ %fp + -376 ], %l4
40003444:	ae 10 00 01 	mov  %g1, %l7
40003448:	94 02 a0 01 	inc  %o2
4000344c:	9e 03 c0 04 	add  %o7, %g4, %o7
40003450:	ee 27 40 00 	st  %l7, [ %i5 ]
40003454:	c8 27 60 04 	st  %g4, [ %i5 + 4 ]
40003458:	de 27 bf 54 	st  %o7, [ %fp + -172 ]
4000345c:	80 a2 a0 07 	cmp  %o2, 7
40003460:	14 80 02 d0 	bg  40003fa0 <_vfprintf_r+0x1988>
40003464:	d4 27 bf 50 	st  %o2, [ %fp + -176 ]
40003468:	da 0f be f7 	ldub  [ %fp + -265 ], %o5
4000346c:	ba 07 60 08 	add  %i5, 8, %i5
40003470:	10 bf fd 05 	b  40002884 <_vfprintf_r+0x26c>
40003474:	9b 2b 60 18 	sll  %o5, 0x18, %o5
40003478:	94 07 bf 4c 	add  %fp, -180, %o2
4000347c:	92 10 00 19 	mov  %i1, %o1
40003480:	40 00 1b 4e 	call  4000a1b8 <__sprint_r>
40003484:	90 10 00 18 	mov  %i0, %o0
40003488:	80 a2 20 00 	cmp  %o0, 0
4000348c:	12 bf ff aa 	bne  40003334 <_vfprintf_r+0xd1c>
40003490:	de 07 bf 54 	ld  [ %fp + -172 ], %o7
40003494:	10 bf fd 1a 	b  400028fc <_vfprintf_r+0x2e4>
40003498:	ba 07 bf 58 	add  %fp, -168, %i5
4000349c:	d6 27 be 94 	st  %o3, [ %fp + -364 ]
400034a0:	94 07 bf 4c 	add  %fp, -180, %o2
400034a4:	92 10 00 19 	mov  %i1, %o1
400034a8:	40 00 1b 44 	call  4000a1b8 <__sprint_r>
400034ac:	90 10 00 18 	mov  %i0, %o0
400034b0:	80 a2 20 00 	cmp  %o0, 0
400034b4:	12 bf ff a0 	bne  40003334 <_vfprintf_r+0xd1c>
400034b8:	de 07 bf 54 	ld  [ %fp + -172 ], %o7
400034bc:	ba 07 bf 58 	add  %fp, -168, %i5
400034c0:	10 bf fd 00 	b  400028c0 <_vfprintf_r+0x2a8>
400034c4:	d6 07 be 94 	ld  [ %fp + -364 ], %o3
400034c8:	40 00 07 3c 	call  400051b8 <__swsetup_r>
400034cc:	90 10 00 18 	mov  %i0, %o0
400034d0:	80 a2 20 00 	cmp  %o0, 0
400034d4:	12 80 06 4c 	bne  40004e04 <_vfprintf_r+0x27ec>
400034d8:	82 10 3f ff 	mov  -1, %g1
400034dc:	c2 16 60 0c 	lduh  [ %i1 + 0xc ], %g1
400034e0:	82 08 60 1a 	and  %g1, 0x1a, %g1
400034e4:	80 a0 60 0a 	cmp  %g1, 0xa
400034e8:	12 bf fc 7e 	bne  400026e0 <_vfprintf_r+0xc8>
400034ec:	82 07 bf 58 	add  %fp, -168, %g1
400034f0:	c2 56 60 0e 	ldsh  [ %i1 + 0xe ], %g1
400034f4:	80 a0 60 00 	cmp  %g1, 0
400034f8:	06 bf fc 7a 	bl  400026e0 <_vfprintf_r+0xc8>
400034fc:	82 07 bf 58 	add  %fp, -168, %g1
40003500:	f6 07 be dc 	ld  [ %fp + -292 ], %i3
40003504:	40 00 07 02 	call  4000510c <__sbprintf>
40003508:	81 e8 00 00 	restore 
4000350c:	c2 07 bf 50 	ld  [ %fp + -176 ], %g1
40003510:	80 a7 20 10 	cmp  %i4, 0x10
40003514:	04 80 00 1d 	ble  40003588 <_vfprintf_r+0xf70>
40003518:	ae 13 61 70 	or  %o5, 0x170, %l7
4000351c:	10 80 00 06 	b  40003534 <_vfprintf_r+0xf1c>
40003520:	a4 10 20 10 	mov  0x10, %l2
40003524:	b8 07 3f f0 	add  %i4, -16, %i4
40003528:	80 a7 20 10 	cmp  %i4, 0x10
4000352c:	24 80 00 18 	ble,a   4000358c <_vfprintf_r+0xf74>
40003530:	82 00 60 01 	inc  %g1
40003534:	82 00 60 01 	inc  %g1
40003538:	9e 03 e0 10 	add  %o7, 0x10, %o7
4000353c:	ee 27 40 00 	st  %l7, [ %i5 ]
40003540:	e4 27 60 04 	st  %l2, [ %i5 + 4 ]
40003544:	de 27 bf 54 	st  %o7, [ %fp + -172 ]
40003548:	c2 27 bf 50 	st  %g1, [ %fp + -176 ]
4000354c:	80 a0 60 07 	cmp  %g1, 7
40003550:	04 bf ff f5 	ble  40003524 <_vfprintf_r+0xf0c>
40003554:	ba 07 60 08 	add  %i5, 8, %i5
40003558:	94 07 bf 4c 	add  %fp, -180, %o2
4000355c:	92 10 00 19 	mov  %i1, %o1
40003560:	40 00 1b 16 	call  4000a1b8 <__sprint_r>
40003564:	90 10 00 18 	mov  %i0, %o0
40003568:	80 a2 20 00 	cmp  %o0, 0
4000356c:	12 bf ff 72 	bne  40003334 <_vfprintf_r+0xd1c>
40003570:	b8 07 3f f0 	add  %i4, -16, %i4
40003574:	de 07 bf 54 	ld  [ %fp + -172 ], %o7
40003578:	c2 07 bf 50 	ld  [ %fp + -176 ], %g1
4000357c:	80 a7 20 10 	cmp  %i4, 0x10
40003580:	14 bf ff ed 	bg  40003534 <_vfprintf_r+0xf1c>
40003584:	ba 07 bf 58 	add  %fp, -168, %i5
40003588:	82 00 60 01 	inc  %g1
4000358c:	9e 03 c0 1c 	add  %o7, %i4, %o7
40003590:	ee 27 40 00 	st  %l7, [ %i5 ]
40003594:	f8 27 60 04 	st  %i4, [ %i5 + 4 ]
40003598:	de 27 bf 54 	st  %o7, [ %fp + -172 ]
4000359c:	80 a0 60 07 	cmp  %g1, 7
400035a0:	04 bf fc f5 	ble  40002974 <_vfprintf_r+0x35c>
400035a4:	c2 27 bf 50 	st  %g1, [ %fp + -176 ]
400035a8:	94 07 bf 4c 	add  %fp, -180, %o2
400035ac:	92 10 00 19 	mov  %i1, %o1
400035b0:	40 00 1b 02 	call  4000a1b8 <__sprint_r>
400035b4:	90 10 00 18 	mov  %i0, %o0
400035b8:	80 a2 20 00 	cmp  %o0, 0
400035bc:	12 bf ff 5e 	bne  40003334 <_vfprintf_r+0xd1c>
400035c0:	de 07 bf 54 	ld  [ %fp + -172 ], %o7
400035c4:	10 bf fc ed 	b  40002978 <_vfprintf_r+0x360>
400035c8:	80 a6 c0 11 	cmp  %i3, %l1
400035cc:	a2 10 00 12 	mov  %l2, %l1
400035d0:	80 a5 20 00 	cmp  %l4, 0
400035d4:	12 80 02 1d 	bne  40003e48 <_vfprintf_r+0x1830>
400035d8:	80 a5 60 09 	cmp  %l5, 9
400035dc:	18 80 02 1b 	bgu  40003e48 <_vfprintf_r+0x1830>
400035e0:	84 05 60 30 	add  %l5, 0x30, %g2
400035e4:	82 10 20 01 	mov  1, %g1
400035e8:	a4 10 00 11 	mov  %l1, %l2
400035ec:	c4 2f bf fb 	stb  %g2, [ %fp + -5 ]
400035f0:	c2 27 be e0 	st  %g1, [ %fp + -288 ]
400035f4:	10 bf fd e8 	b  40002d94 <_vfprintf_r+0x77c>
400035f8:	a6 07 bf fb 	add  %fp, -5, %l3
400035fc:	80 a1 20 00 	cmp  %g4, 0
40003600:	04 80 02 75 	ble  40003fd4 <_vfprintf_r+0x19bc>
40003604:	c2 07 be c8 	ld  [ %fp + -312 ], %g1
40003608:	c4 07 be c4 	ld  [ %fp + -316 ], %g2
4000360c:	80 a0 40 02 	cmp  %g1, %g2
40003610:	14 80 01 8e 	bg  40003c48 <_vfprintf_r+0x1630>
40003614:	b8 10 00 01 	mov  %g1, %i4
40003618:	80 a7 20 00 	cmp  %i4, 0
4000361c:	04 80 00 0d 	ble  40003650 <_vfprintf_r+0x1038>
40003620:	82 38 00 1c 	xnor  %g0, %i4, %g1
40003624:	c2 07 bf 50 	ld  [ %fp + -176 ], %g1
40003628:	9e 03 c0 1c 	add  %o7, %i4, %o7
4000362c:	82 00 60 01 	inc  %g1
40003630:	e6 27 40 00 	st  %l3, [ %i5 ]
40003634:	f8 27 60 04 	st  %i4, [ %i5 + 4 ]
40003638:	de 27 bf 54 	st  %o7, [ %fp + -172 ]
4000363c:	c2 27 bf 50 	st  %g1, [ %fp + -176 ]
40003640:	80 a0 60 07 	cmp  %g1, 7
40003644:	14 80 04 5b 	bg  400047b0 <_vfprintf_r+0x2198>
40003648:	ba 07 60 08 	add  %i5, 8, %i5
4000364c:	82 38 00 1c 	xnor  %g0, %i4, %g1
40003650:	83 38 60 1f 	sra  %g1, 0x1f, %g1
40003654:	b8 0f 00 01 	and  %i4, %g1, %i4
40003658:	c2 07 be c8 	ld  [ %fp + -312 ], %g1
4000365c:	b8 20 40 1c 	sub  %g1, %i4, %i4
40003660:	80 a7 20 00 	cmp  %i4, 0
40003664:	14 80 01 de 	bg  40003ddc <_vfprintf_r+0x17c4>
40003668:	80 a7 20 10 	cmp  %i4, 0x10
4000366c:	c2 07 be c8 	ld  [ %fp + -312 ], %g1
40003670:	80 8c a4 00 	btst  0x400, %l2
40003674:	12 80 03 70 	bne  40004434 <_vfprintf_r+0x1e1c>
40003678:	ae 04 c0 01 	add  %l3, %g1, %l7
4000367c:	f8 07 bf 00 	ld  [ %fp + -256 ], %i4
40003680:	c2 07 be c4 	ld  [ %fp + -316 ], %g1
40003684:	80 a7 00 01 	cmp  %i4, %g1
40003688:	26 80 00 06 	bl,a   400036a0 <_vfprintf_r+0x1088>
4000368c:	c2 07 be b8 	ld  [ %fp + -328 ], %g1
40003690:	80 8c a0 01 	btst  1, %l2
40003694:	02 80 04 50 	be  400047d4 <_vfprintf_r+0x21bc>
40003698:	88 20 40 1c 	sub  %g1, %i4, %g4
4000369c:	c2 07 be b8 	ld  [ %fp + -328 ], %g1
400036a0:	da 07 bf 50 	ld  [ %fp + -176 ], %o5
400036a4:	9e 03 c0 01 	add  %o7, %g1, %o7
400036a8:	9a 03 60 01 	inc  %o5
400036ac:	c4 07 be ac 	ld  [ %fp + -340 ], %g2
400036b0:	c2 27 60 04 	st  %g1, [ %i5 + 4 ]
400036b4:	c4 27 40 00 	st  %g2, [ %i5 ]
400036b8:	de 27 bf 54 	st  %o7, [ %fp + -172 ]
400036bc:	da 27 bf 50 	st  %o5, [ %fp + -176 ]
400036c0:	80 a3 60 07 	cmp  %o5, 7
400036c4:	14 80 05 4a 	bg  40004bec <_vfprintf_r+0x25d4>
400036c8:	ba 07 60 08 	add  %i5, 8, %i5
400036cc:	c2 07 be c4 	ld  [ %fp + -316 ], %g1
400036d0:	88 20 40 1c 	sub  %g1, %i4, %g4
400036d4:	84 04 c0 01 	add  %l3, %g1, %g2
400036d8:	84 20 80 17 	sub  %g2, %l7, %g2
400036dc:	80 a1 00 02 	cmp  %g4, %g2
400036e0:	04 80 00 03 	ble  400036ec <_vfprintf_r+0x10d4>
400036e4:	a6 10 00 04 	mov  %g4, %l3
400036e8:	a6 10 00 02 	mov  %g2, %l3
400036ec:	80 a4 e0 00 	cmp  %l3, 0
400036f0:	04 80 00 0b 	ble  4000371c <_vfprintf_r+0x1104>
400036f4:	c4 07 bf 50 	ld  [ %fp + -176 ], %g2
400036f8:	9e 03 c0 13 	add  %o7, %l3, %o7
400036fc:	84 00 a0 01 	inc  %g2
40003700:	ee 27 40 00 	st  %l7, [ %i5 ]
40003704:	e6 27 60 04 	st  %l3, [ %i5 + 4 ]
40003708:	de 27 bf 54 	st  %o7, [ %fp + -172 ]
4000370c:	c4 27 bf 50 	st  %g2, [ %fp + -176 ]
40003710:	80 a0 a0 07 	cmp  %g2, 7
40003714:	14 80 05 95 	bg  40004d68 <_vfprintf_r+0x2750>
40003718:	ba 07 60 08 	add  %i5, 8, %i5
4000371c:	b8 38 00 13 	xnor  %g0, %l3, %i4
40003720:	b9 3f 20 1f 	sra  %i4, 0x1f, %i4
40003724:	b8 0c c0 1c 	and  %l3, %i4, %i4
40003728:	b8 21 00 1c 	sub  %g4, %i4, %i4
4000372c:	80 a7 20 00 	cmp  %i4, 0
40003730:	04 bf fc 8b 	ble  4000295c <_vfprintf_r+0x344>
40003734:	80 8c a0 04 	btst  4, %l2
40003738:	80 a7 20 10 	cmp  %i4, 0x10
4000373c:	04 80 01 df 	ble  40003eb8 <_vfprintf_r+0x18a0>
40003740:	c2 07 bf 50 	ld  [ %fp + -176 ], %g1
40003744:	10 80 00 06 	b  4000375c <_vfprintf_r+0x1144>
40003748:	a6 10 20 10 	mov  0x10, %l3
4000374c:	b8 07 3f f0 	add  %i4, -16, %i4
40003750:	80 a7 20 10 	cmp  %i4, 0x10
40003754:	24 80 01 da 	ble,a   40003ebc <_vfprintf_r+0x18a4>
40003758:	e0 27 40 00 	st  %l0, [ %i5 ]
4000375c:	82 00 60 01 	inc  %g1
40003760:	9e 03 e0 10 	add  %o7, 0x10, %o7
40003764:	e0 27 40 00 	st  %l0, [ %i5 ]
40003768:	e6 27 60 04 	st  %l3, [ %i5 + 4 ]
4000376c:	de 27 bf 54 	st  %o7, [ %fp + -172 ]
40003770:	c2 27 bf 50 	st  %g1, [ %fp + -176 ]
40003774:	80 a0 60 07 	cmp  %g1, 7
40003778:	04 bf ff f5 	ble  4000374c <_vfprintf_r+0x1134>
4000377c:	ba 07 60 08 	add  %i5, 8, %i5
40003780:	94 07 bf 4c 	add  %fp, -180, %o2
40003784:	92 10 00 19 	mov  %i1, %o1
40003788:	40 00 1a 8c 	call  4000a1b8 <__sprint_r>
4000378c:	90 10 00 18 	mov  %i0, %o0
40003790:	80 a2 20 00 	cmp  %o0, 0
40003794:	12 bf fe e8 	bne  40003334 <_vfprintf_r+0xd1c>
40003798:	de 07 bf 54 	ld  [ %fp + -172 ], %o7
4000379c:	c2 07 bf 50 	ld  [ %fp + -176 ], %g1
400037a0:	10 bf ff eb 	b  4000374c <_vfprintf_r+0x1134>
400037a4:	ba 07 bf 58 	add  %fp, -168, %i5
400037a8:	80 8c a0 01 	btst  1, %l2
400037ac:	32 bf fc c4 	bne,a   40002abc <_vfprintf_r+0x4a4>
400037b0:	b8 10 20 01 	mov  1, %i4
400037b4:	84 10 20 01 	mov  1, %g2
400037b8:	de 27 bf 54 	st  %o7, [ %fp + -172 ]
400037bc:	c4 27 60 04 	st  %g2, [ %i5 + 4 ]
400037c0:	80 a0 60 07 	cmp  %g1, 7
400037c4:	14 80 01 2f 	bg  40003c80 <_vfprintf_r+0x1668>
400037c8:	c2 27 bf 50 	st  %g1, [ %fp + -176 ]
400037cc:	b8 07 20 02 	add  %i4, 2, %i4
400037d0:	10 bf fc e1 	b  40002b54 <_vfprintf_r+0x53c>
400037d4:	ba 07 60 10 	add  %i5, 0x10, %i5
400037d8:	80 a5 a0 00 	cmp  %l6, 0
400037dc:	04 bf fc df 	ble  40002b58 <_vfprintf_r+0x540>
400037e0:	c4 07 be a4 	ld  [ %fp + -348 ], %g2
400037e4:	80 a5 a0 10 	cmp  %l6, 0x10
400037e8:	24 80 01 1f 	ble,a   40003c64 <_vfprintf_r+0x164c>
400037ec:	82 10 00 1d 	mov  %i5, %g1
400037f0:	ba 10 20 10 	mov  0x10, %i5
400037f4:	10 80 00 07 	b  40003810 <_vfprintf_r+0x11f8>
400037f8:	82 10 00 1c 	mov  %i4, %g1
400037fc:	ac 05 bf f0 	add  %l6, -16, %l6
40003800:	80 a5 a0 10 	cmp  %l6, 0x10
40003804:	04 80 01 17 	ble  40003c60 <_vfprintf_r+0x1648>
40003808:	b8 00 60 01 	add  %g1, 1, %i4
4000380c:	82 00 60 01 	inc  %g1
40003810:	9e 03 e0 10 	add  %o7, 0x10, %o7
40003814:	e0 21 00 00 	st  %l0, [ %g4 ]
40003818:	fa 21 20 04 	st  %i5, [ %g4 + 4 ]
4000381c:	de 27 bf 54 	st  %o7, [ %fp + -172 ]
40003820:	c2 27 bf 50 	st  %g1, [ %fp + -176 ]
40003824:	80 a0 60 07 	cmp  %g1, 7
40003828:	04 bf ff f5 	ble  400037fc <_vfprintf_r+0x11e4>
4000382c:	88 01 20 08 	add  %g4, 8, %g4
40003830:	94 07 bf 4c 	add  %fp, -180, %o2
40003834:	92 10 00 19 	mov  %i1, %o1
40003838:	40 00 1a 60 	call  4000a1b8 <__sprint_r>
4000383c:	90 10 00 18 	mov  %i0, %o0
40003840:	80 a2 20 00 	cmp  %o0, 0
40003844:	12 bf fe bc 	bne  40003334 <_vfprintf_r+0xd1c>
40003848:	de 07 bf 54 	ld  [ %fp + -172 ], %o7
4000384c:	c2 07 bf 50 	ld  [ %fp + -176 ], %g1
40003850:	10 bf ff eb 	b  400037fc <_vfprintf_r+0x11e4>
40003854:	88 07 bf 58 	add  %fp, -168, %g4
40003858:	80 8c a0 10 	btst  0x10, %l2
4000385c:	12 80 00 3c 	bne  4000394c <_vfprintf_r+0x1334>
40003860:	84 00 60 04 	add  %g1, 4, %g2
40003864:	80 8c a0 40 	btst  0x40, %l2
40003868:	02 80 00 37 	be  40003944 <_vfprintf_r+0x132c>
4000386c:	80 8c a2 00 	btst  0x200, %l2
40003870:	e8 10 60 02 	lduh  [ %g1 + 2 ], %l4
40003874:	c4 27 be dc 	st  %g2, [ %fp + -292 ]
40003878:	aa 10 00 14 	mov  %l4, %l5
4000387c:	a2 0c bb ff 	and  %l2, -1025, %l1
40003880:	a8 10 20 00 	clr  %l4
40003884:	10 bf fd 32 	b  40002d4c <_vfprintf_r+0x734>
40003888:	84 10 20 00 	clr  %g2
4000388c:	80 8c 60 10 	btst  0x10, %l1
40003890:	12 80 00 41 	bne  40003994 <_vfprintf_r+0x137c>
40003894:	86 00 60 04 	add  %g1, 4, %g3
40003898:	80 8c 60 40 	btst  0x40, %l1
4000389c:	02 80 00 3c 	be  4000398c <_vfprintf_r+0x1374>
400038a0:	80 8c 62 00 	btst  0x200, %l1
400038a4:	e8 10 60 02 	lduh  [ %g1 + 2 ], %l4
400038a8:	84 10 20 01 	mov  1, %g2
400038ac:	aa 10 00 14 	mov  %l4, %l5
400038b0:	c6 27 be dc 	st  %g3, [ %fp + -292 ]
400038b4:	10 bf fd 26 	b  40002d4c <_vfprintf_r+0x734>
400038b8:	a8 10 20 00 	clr  %l4
400038bc:	80 8c a0 10 	btst  0x10, %l2
400038c0:	12 80 00 2c 	bne  40003970 <_vfprintf_r+0x1358>
400038c4:	84 00 60 04 	add  %g1, 4, %g2
400038c8:	80 8c a0 40 	btst  0x40, %l2
400038cc:	02 80 00 27 	be  40003968 <_vfprintf_r+0x1350>
400038d0:	80 8c a2 00 	btst  0x200, %l2
400038d4:	c8 00 40 00 	ld  [ %g1 ], %g4
400038d8:	c4 27 be dc 	st  %g2, [ %fp + -292 ]
400038dc:	85 29 20 10 	sll  %g4, 0x10, %g2
400038e0:	89 38 a0 1f 	sra  %g2, 0x1f, %g4
400038e4:	ab 38 a0 10 	sra  %g2, 0x10, %l5
400038e8:	a8 10 00 04 	mov  %g4, %l4
400038ec:	10 bf fc da 	b  40002c54 <_vfprintf_r+0x63c>
400038f0:	84 10 00 04 	mov  %g4, %g2
400038f4:	84 10 20 2d 	mov  0x2d, %g2
400038f8:	aa a0 00 15 	subcc  %g0, %l5, %l5
400038fc:	c4 2f be f7 	stb  %g2, [ %fp + -265 ]
40003900:	a8 60 00 14 	subx  %g0, %l4, %l4
40003904:	a2 10 00 12 	mov  %l2, %l1
40003908:	10 bf fd 12 	b  40002d50 <_vfprintf_r+0x738>
4000390c:	84 10 20 01 	mov  1, %g2
40003910:	80 a0 60 00 	cmp  %g1, 0
40003914:	02 bf fc bd 	be  40002c08 <_vfprintf_r+0x5f0>
40003918:	c4 0e 80 00 	ldub  [ %i2 ], %g2
4000391c:	c6 48 40 00 	ldsb  [ %g1 ], %g3
40003920:	80 a0 e0 00 	cmp  %g3, 0
40003924:	02 bf fb b1 	be  400027e8 <_vfprintf_r+0x1d0>
40003928:	83 28 a0 18 	sll  %g2, 0x18, %g1
4000392c:	10 bf fb af 	b  400027e8 <_vfprintf_r+0x1d0>
40003930:	a4 14 a4 00 	or  %l2, 0x400, %l2
40003934:	02 bf fc 0a 	be  4000295c <_vfprintf_r+0x344>
40003938:	80 8c a0 04 	btst  4, %l2
4000393c:	10 bf fd b6 	b  40003014 <_vfprintf_r+0x9fc>
40003940:	c4 07 be b8 	ld  [ %fp + -328 ], %g2
40003944:	32 80 03 b7 	bne,a   40004820 <_vfprintf_r+0x2208>
40003948:	e8 08 60 03 	ldub  [ %g1 + 3 ], %l4
4000394c:	e8 00 40 00 	ld  [ %g1 ], %l4
40003950:	a2 0c bb ff 	and  %l2, -1025, %l1
40003954:	c4 27 be dc 	st  %g2, [ %fp + -292 ]
40003958:	aa 10 00 14 	mov  %l4, %l5
4000395c:	84 10 20 00 	clr  %g2
40003960:	10 bf fc fb 	b  40002d4c <_vfprintf_r+0x734>
40003964:	a8 10 20 00 	clr  %l4
40003968:	32 80 03 a7 	bne,a   40004804 <_vfprintf_r+0x21ec>
4000396c:	c8 00 40 00 	ld  [ %g1 ], %g4
40003970:	de 00 40 00 	ld  [ %g1 ], %o7
40003974:	c4 27 be dc 	st  %g2, [ %fp + -292 ]
40003978:	89 3b e0 1f 	sra  %o7, 0x1f, %g4
4000397c:	aa 10 00 0f 	mov  %o7, %l5
40003980:	84 10 00 04 	mov  %g4, %g2
40003984:	10 bf fc b4 	b  40002c54 <_vfprintf_r+0x63c>
40003988:	a8 10 00 04 	mov  %g4, %l4
4000398c:	32 80 03 99 	bne,a   400047f0 <_vfprintf_r+0x21d8>
40003990:	e8 08 60 03 	ldub  [ %g1 + 3 ], %l4
40003994:	e8 00 40 00 	ld  [ %g1 ], %l4
40003998:	84 10 20 01 	mov  1, %g2
4000399c:	aa 10 00 14 	mov  %l4, %l5
400039a0:	c6 27 be dc 	st  %g3, [ %fp + -292 ]
400039a4:	10 bf fc ea 	b  40002d4c <_vfprintf_r+0x734>
400039a8:	a8 10 20 00 	clr  %l4
400039ac:	c6 07 be ec 	ld  [ %fp + -276 ], %g3
400039b0:	85 38 e0 1f 	sra  %g3, 0x1f, %g2
400039b4:	c6 20 60 04 	st  %g3, [ %g1 + 4 ]
400039b8:	10 bf fb 5c 	b  40002728 <_vfprintf_r+0x110>
400039bc:	c4 20 40 00 	st  %g2, [ %g1 ]
400039c0:	7f ff fa 14 	call  40002210 <memcpy>
400039c4:	90 07 bf 20 	add  %fp, -224, %o0
400039c8:	d1 1f bf 20 	ldd  [ %fp + -224 ], %f8
400039cc:	d1 3f be b0 	std  %f8, [ %fp + -336 ]
400039d0:	95 a0 00 28 	fmovs  %f8, %f10
400039d4:	97 a0 00 29 	fmovs  %f9, %f11
400039d8:	91 a0 01 2a 	fabss  %f10, %f8
400039dc:	93 a0 00 2b 	fmovs  %f11, %f9
400039e0:	03 10 00 3b 	sethi  %hi(0x4000ec00), %g1
400039e4:	d9 18 61 40 	ldd  [ %g1 + 0x140 ], %f12	! 4000ed40 <_global_impure_ptr+0x6c>
400039e8:	81 aa 0a 4c 	fcmpd  %f8, %f12
400039ec:	01 00 00 00 	nop 
400039f0:	0d bf fc 14 	fbg  40002a40 <_vfprintf_r+0x428>
400039f4:	01 00 00 00 	nop 
400039f8:	91 a0 00 2a 	fmovs  %f10, %f8
400039fc:	81 aa 0a 48 	fcmpd  %f8, %f8
40003a00:	01 00 00 00 	nop 
40003a04:	0f 80 05 49 	fbu  40004f28 <_vfprintf_r+0x2910>
40003a08:	a2 0d bf df 	and  %l6, -33, %l1
40003a0c:	80 a4 60 41 	cmp  %l1, 0x41
40003a10:	12 80 01 b8 	bne  400040f0 <_vfprintf_r+0x1ad8>
40003a14:	80 a7 3f ff 	cmp  %i4, -1
40003a18:	84 10 20 30 	mov  0x30, %g2
40003a1c:	c4 2f be f8 	stb  %g2, [ %fp + -264 ]
40003a20:	80 a5 a0 61 	cmp  %l6, 0x61
40003a24:	02 80 00 03 	be  40003a30 <_vfprintf_r+0x1418>
40003a28:	84 10 20 78 	mov  0x78, %g2
40003a2c:	84 10 20 58 	mov  0x58, %g2
40003a30:	c4 2f be f9 	stb  %g2, [ %fp + -263 ]
40003a34:	c0 27 be e8 	clr  [ %fp + -280 ]
40003a38:	80 a7 20 63 	cmp  %i4, 0x63
40003a3c:	14 80 03 cd 	bg  40004970 <_vfprintf_r+0x2358>
40003a40:	a6 07 bf 98 	add  %fp, -104, %l3
40003a44:	d1 1f be b0 	ldd  [ %fp + -336 ], %f8
40003a48:	d1 27 be e0 	st  %f8, [ %fp + -288 ]
40003a4c:	c8 07 be e0 	ld  [ %fp + -288 ], %g4
40003a50:	80 a1 20 00 	cmp  %g4, 0
40003a54:	16 80 03 87 	bge  40004870 <_vfprintf_r+0x2258>
40003a58:	82 10 20 2d 	mov  0x2d, %g1
40003a5c:	d1 1f be b0 	ldd  [ %fp + -336 ], %f8
40003a60:	91 a0 00 a8 	fnegs  %f8, %f8
40003a64:	c2 2f be dc 	stb  %g1, [ %fp + -292 ]
40003a68:	d1 3f be e0 	std  %f8, [ %fp + -288 ]
40003a6c:	94 07 bf 00 	add  %fp, -256, %o2
40003a70:	40 00 18 66 	call  40009c08 <frexp>
40003a74:	d0 1f be e0 	ldd  [ %fp + -288 ], %o0
40003a78:	03 10 00 3b 	sethi  %hi(0x4000ec00), %g1
40003a7c:	d1 18 61 48 	ldd  [ %g1 + 0x148 ], %f8	! 4000ed48 <_global_impure_ptr+0x74>
40003a80:	03 10 00 3b 	sethi  %hi(0x4000ec00), %g1
40003a84:	81 a0 09 48 	fmuld  %f0, %f8, %f0
40003a88:	d1 18 61 38 	ldd  [ %g1 + 0x138 ], %f8
40003a8c:	81 a8 0a 48 	fcmpd  %f0, %f8
40003a90:	01 00 00 00 	nop 
40003a94:	03 80 00 04 	fbne  40003aa4 <_vfprintf_r+0x148c>
40003a98:	80 a5 a0 61 	cmp  %l6, 0x61
40003a9c:	88 10 20 01 	mov  1, %g4
40003aa0:	c8 27 bf 00 	st  %g4, [ %fp + -256 ]
40003aa4:	22 80 05 63 	be,a   40005030 <_vfprintf_r+0x2a18>
40003aa8:	1b 10 00 3b 	sethi  %hi(0x4000ec00), %o5
40003aac:	1b 10 00 3b 	sethi  %hi(0x4000ec00), %o5
40003ab0:	9a 13 61 10 	or  %o5, 0x110, %o5	! 4000ed10 <_global_impure_ptr+0x3c>
40003ab4:	03 10 00 3b 	sethi  %hi(0x4000ec00), %g1
40003ab8:	b8 07 3f ff 	add  %i4, -1, %i4
40003abc:	88 10 00 13 	mov  %l3, %g4
40003ac0:	10 80 00 08 	b  40003ae0 <_vfprintf_r+0x14c8>
40003ac4:	d5 18 61 50 	ldd  [ %g1 + 0x150 ], %f10
40003ac8:	03 10 00 3b 	sethi  %hi(0x4000ec00), %g1
40003acc:	d1 18 61 38 	ldd  [ %g1 + 0x138 ], %f8	! 4000ed38 <_global_impure_ptr+0x64>
40003ad0:	81 a8 0a 48 	fcmpd  %f0, %f8
40003ad4:	01 00 00 00 	nop 
40003ad8:	13 80 00 0f 	fbe  40003b14 <_vfprintf_r+0x14fc>
40003adc:	b8 07 3f ff 	add  %i4, -1, %i4
40003ae0:	81 a0 09 4a 	fmuld  %f0, %f10, %f0
40003ae4:	96 10 00 04 	mov  %g4, %o3
40003ae8:	91 a0 1a 40 	fdtoi  %f0, %f8
40003aec:	88 01 20 01 	inc  %g4
40003af0:	d1 27 be e0 	st  %f8, [ %fp + -288 ]
40003af4:	de 07 be e0 	ld  [ %fp + -288 ], %o7
40003af8:	c2 0b 40 0f 	ldub  [ %o5 + %o7 ], %g1
40003afc:	c2 29 3f ff 	stb  %g1, [ %g4 + -1 ]
40003b00:	91 a0 19 08 	fitod  %f8, %f8
40003b04:	98 10 00 1c 	mov  %i4, %o4
40003b08:	80 a7 3f ff 	cmp  %i4, -1
40003b0c:	12 bf ff ef 	bne  40003ac8 <_vfprintf_r+0x14b0>
40003b10:	81 a0 08 c8 	fsubd  %f0, %f8, %f0
40003b14:	03 10 00 3b 	sethi  %hi(0x4000ec00), %g1
40003b18:	d1 18 61 58 	ldd  [ %g1 + 0x158 ], %f8	! 4000ed58 <_global_impure_ptr+0x84>
40003b1c:	81 a8 0a c8 	fcmped  %f0, %f8
40003b20:	01 00 00 00 	nop 
40003b24:	2d 80 05 21 	fbg,a   40004fa8 <_vfprintf_r+0x2990>
40003b28:	d8 4b 60 0f 	ldsb  [ %o5 + 0xf ], %o4
40003b2c:	81 a8 0a 48 	fcmpd  %f0, %f8
40003b30:	01 00 00 00 	nop 
40003b34:	03 80 00 06 	fbne  40003b4c <_vfprintf_r+0x1534>
40003b38:	80 a3 20 00 	cmp  %o4, 0
40003b3c:	80 8b e0 01 	btst  1, %o7
40003b40:	32 80 05 1a 	bne,a   40004fa8 <_vfprintf_r+0x2990>
40003b44:	d8 4b 60 0f 	ldsb  [ %o5 + 0xf ], %o4
40003b48:	80 a3 20 00 	cmp  %o4, 0
40003b4c:	06 80 00 39 	bl  40003c30 <_vfprintf_r+0x1618>
40003b50:	9e 03 3f ff 	add  %o4, -1, %o7
40003b54:	b8 20 00 04 	neg  %g4, %i4
40003b58:	9a 03 20 01 	add  %o4, 1, %o5
40003b5c:	80 a3 20 05 	cmp  %o4, 5
40003b60:	04 80 05 61 	ble  400050e4 <_vfprintf_r+0x2acc>
40003b64:	b8 0f 20 03 	and  %i4, 3, %i4
40003b68:	80 a7 20 00 	cmp  %i4, 0
40003b6c:	02 80 00 10 	be  40003bac <_vfprintf_r+0x1594>
40003b70:	94 10 00 04 	mov  %g4, %o2
40003b74:	92 10 20 30 	mov  0x30, %o1
40003b78:	d2 29 00 00 	stb  %o1, [ %g4 ]
40003b7c:	94 02 e0 02 	add  %o3, 2, %o2
40003b80:	80 a7 20 01 	cmp  %i4, 1
40003b84:	02 80 00 0a 	be  40003bac <_vfprintf_r+0x1594>
40003b88:	9e 03 3f fe 	add  %o4, -2, %o7
40003b8c:	d2 29 20 01 	stb  %o1, [ %g4 + 1 ]
40003b90:	94 01 20 02 	add  %g4, 2, %o2
40003b94:	80 a7 20 03 	cmp  %i4, 3
40003b98:	12 80 00 05 	bne  40003bac <_vfprintf_r+0x1594>
40003b9c:	9e 03 3f fd 	add  %o4, -3, %o7
40003ba0:	94 01 20 03 	add  %g4, 3, %o2
40003ba4:	d2 29 20 02 	stb  %o1, [ %g4 + 2 ]
40003ba8:	9e 03 3f fc 	add  %o4, -4, %o7
40003bac:	98 23 40 1c 	sub  %o5, %i4, %o4
40003bb0:	17 0c 0c 0c 	sethi  %hi(0x30303000), %o3
40003bb4:	b8 01 00 1c 	add  %g4, %i4, %i4
40003bb8:	92 0b 3f fc 	and  %o4, -4, %o1
40003bbc:	96 12 e0 30 	or  %o3, 0x30, %o3
40003bc0:	92 02 40 1c 	add  %o1, %i4, %o1
40003bc4:	d6 27 00 00 	st  %o3, [ %i4 ]
40003bc8:	b8 07 20 04 	add  %i4, 4, %i4
40003bcc:	80 a2 40 1c 	cmp  %o1, %i4
40003bd0:	32 bf ff fe 	bne,a   40003bc8 <_vfprintf_r+0x15b0>
40003bd4:	d6 27 00 00 	st  %o3, [ %i4 ]
40003bd8:	96 0b 3f fc 	and  %o4, -4, %o3
40003bdc:	b8 02 80 0b 	add  %o2, %o3, %i4
40003be0:	80 a2 c0 0c 	cmp  %o3, %o4
40003be4:	02 80 00 12 	be  40003c2c <_vfprintf_r+0x1614>
40003be8:	9e 23 c0 0b 	sub  %o7, %o3, %o7
40003bec:	98 10 20 30 	mov  0x30, %o4
40003bf0:	80 a3 e0 00 	cmp  %o7, 0
40003bf4:	06 80 00 0e 	bl  40003c2c <_vfprintf_r+0x1614>
40003bf8:	d8 2f 00 00 	stb  %o4, [ %i4 ]
40003bfc:	04 80 00 0c 	ble  40003c2c <_vfprintf_r+0x1614>
40003c00:	d8 2f 20 01 	stb  %o4, [ %i4 + 1 ]
40003c04:	80 a3 e0 01 	cmp  %o7, 1
40003c08:	04 80 00 09 	ble  40003c2c <_vfprintf_r+0x1614>
40003c0c:	d8 2f 20 02 	stb  %o4, [ %i4 + 2 ]
40003c10:	80 a3 e0 02 	cmp  %o7, 2
40003c14:	04 80 00 06 	ble  40003c2c <_vfprintf_r+0x1614>
40003c18:	d8 2f 20 03 	stb  %o4, [ %i4 + 3 ]
40003c1c:	80 a3 e0 03 	cmp  %o7, 3
40003c20:	04 80 00 03 	ble  40003c2c <_vfprintf_r+0x1614>
40003c24:	d8 2f 20 04 	stb  %o4, [ %i4 + 4 ]
40003c28:	d8 2f 20 05 	stb  %o4, [ %i4 + 5 ]
40003c2c:	88 01 00 0d 	add  %g4, %o5, %g4
40003c30:	82 21 00 13 	sub  %g4, %l3, %g1
40003c34:	a4 14 a0 02 	or  %l2, 2, %l2
40003c38:	c2 27 be c4 	st  %g1, [ %fp + -316 ]
40003c3c:	c2 07 bf 00 	ld  [ %fp + -256 ], %g1
40003c40:	10 80 01 67 	b  400041dc <_vfprintf_r+0x1bc4>
40003c44:	c2 27 be c8 	st  %g1, [ %fp + -312 ]
40003c48:	b8 10 00 02 	mov  %g2, %i4
40003c4c:	80 a7 20 00 	cmp  %i4, 0
40003c50:	34 bf fe 76 	bg,a   40003628 <_vfprintf_r+0x1010>
40003c54:	c2 07 bf 50 	ld  [ %fp + -176 ], %g1
40003c58:	10 bf fe 7e 	b  40003650 <_vfprintf_r+0x1038>
40003c5c:	82 38 00 1c 	xnor  %g0, %i4, %g1
40003c60:	82 01 20 08 	add  %g4, 8, %g1
40003c64:	9e 03 c0 16 	add  %o7, %l6, %o7
40003c68:	e0 21 00 00 	st  %l0, [ %g4 ]
40003c6c:	ec 21 20 04 	st  %l6, [ %g4 + 4 ]
40003c70:	de 27 bf 54 	st  %o7, [ %fp + -172 ]
40003c74:	80 a7 20 07 	cmp  %i4, 7
40003c78:	04 80 02 c8 	ble  40004798 <_vfprintf_r+0x2180>
40003c7c:	f8 27 bf 50 	st  %i4, [ %fp + -176 ]
40003c80:	94 07 bf 4c 	add  %fp, -180, %o2
40003c84:	92 10 00 19 	mov  %i1, %o1
40003c88:	40 00 19 4c 	call  4000a1b8 <__sprint_r>
40003c8c:	90 10 00 18 	mov  %i0, %o0
40003c90:	80 a2 20 00 	cmp  %o0, 0
40003c94:	12 bf fd a8 	bne  40003334 <_vfprintf_r+0xd1c>
40003c98:	de 07 bf 54 	ld  [ %fp + -172 ], %o7
40003c9c:	f8 07 bf 50 	ld  [ %fp + -176 ], %i4
40003ca0:	88 07 bf 58 	add  %fp, -168, %g4
40003ca4:	b8 07 20 01 	inc  %i4
40003ca8:	c4 07 be a4 	ld  [ %fp + -348 ], %g2
40003cac:	82 07 bf 08 	add  %fp, -248, %g1
40003cb0:	9e 00 80 0f 	add  %g2, %o7, %o7
40003cb4:	c2 21 00 00 	st  %g1, [ %g4 ]
40003cb8:	c4 21 20 04 	st  %g2, [ %g4 + 4 ]
40003cbc:	de 27 bf 54 	st  %o7, [ %fp + -172 ]
40003cc0:	f8 27 bf 50 	st  %i4, [ %fp + -176 ]
40003cc4:	80 a7 20 07 	cmp  %i4, 7
40003cc8:	04 bf fb 24 	ble  40002958 <_vfprintf_r+0x340>
40003ccc:	ba 07 bf 60 	add  %fp, -160, %i5
40003cd0:	10 bf fb ab 	b  40002b7c <_vfprintf_r+0x564>
40003cd4:	94 07 bf 4c 	add  %fp, -180, %o2
40003cd8:	a4 14 a0 20 	or  %l2, 0x20, %l2
40003cdc:	b4 06 a0 01 	inc  %i2
40003ce0:	10 bf fa c2 	b  400027e8 <_vfprintf_r+0x1d0>
40003ce4:	83 28 a0 18 	sll  %g2, 0x18, %g1
40003ce8:	a4 14 a2 00 	or  %l2, 0x200, %l2
40003cec:	b4 06 a0 01 	inc  %i2
40003cf0:	10 bf fa be 	b  400027e8 <_vfprintf_r+0x1d0>
40003cf4:	83 28 a0 18 	sll  %g2, 0x18, %g1
40003cf8:	94 07 bf 4c 	add  %fp, -180, %o2
40003cfc:	92 10 00 19 	mov  %i1, %o1
40003d00:	40 00 19 2e 	call  4000a1b8 <__sprint_r>
40003d04:	90 10 00 18 	mov  %i0, %o0
40003d08:	80 a2 20 00 	cmp  %o0, 0
40003d0c:	12 bf fd 8a 	bne  40003334 <_vfprintf_r+0xd1c>
40003d10:	de 07 bf 54 	ld  [ %fp + -172 ], %o7
40003d14:	10 bf fc cb 	b  40003040 <_vfprintf_r+0xa28>
40003d18:	ba 07 bf 58 	add  %fp, -168, %i5
40003d1c:	05 10 00 3b 	sethi  %hi(0x4000ec00), %g2
40003d20:	a2 10 20 78 	mov  0x78, %l1
40003d24:	82 10 a0 f8 	or  %g2, 0xf8, %g1
40003d28:	c2 27 be a8 	st  %g1, [ %fp + -344 ]
40003d2c:	80 8c a0 20 	btst  0x20, %l2
40003d30:	02 80 00 6c 	be  40003ee0 <_vfprintf_r+0x18c8>
40003d34:	c2 07 be dc 	ld  [ %fp + -292 ], %g1
40003d38:	92 10 00 01 	mov  %g1, %o1
40003d3c:	82 00 60 08 	add  %g1, 8, %g1
40003d40:	94 10 20 08 	mov  8, %o2
40003d44:	90 07 bf 40 	add  %fp, -192, %o0
40003d48:	7f ff f9 32 	call  40002210 <memcpy>
40003d4c:	c2 27 be dc 	st  %g1, [ %fp + -292 ]
40003d50:	e8 1f bf 40 	ldd  [ %fp + -192 ], %l4
40003d54:	80 95 00 15 	orcc  %l4, %l5, %g0
40003d58:	02 80 00 04 	be  40003d68 <_vfprintf_r+0x1750>
40003d5c:	80 8c a0 01 	btst  1, %l2
40003d60:	32 80 00 05 	bne,a   40003d74 <_vfprintf_r+0x175c>
40003d64:	84 10 20 30 	mov  0x30, %g2
40003d68:	a2 0c bb ff 	and  %l2, -1025, %l1
40003d6c:	10 bf fb f8 	b  40002d4c <_vfprintf_r+0x734>
40003d70:	84 10 20 02 	mov  2, %g2
40003d74:	e2 2f be f9 	stb  %l1, [ %fp + -263 ]
40003d78:	c4 2f be f8 	stb  %g2, [ %fp + -264 ]
40003d7c:	a4 14 a0 02 	or  %l2, 2, %l2
40003d80:	84 10 20 02 	mov  2, %g2
40003d84:	10 bf fb f2 	b  40002d4c <_vfprintf_r+0x734>
40003d88:	a2 0c bb ff 	and  %l2, -1025, %l1
40003d8c:	10 bf fc 3f 	b  40002e88 <_vfprintf_r+0x870>
40003d90:	a2 10 00 12 	mov  %l2, %l1
40003d94:	05 10 00 3b 	sethi  %hi(0x4000ec00), %g2
40003d98:	a2 10 20 58 	mov  0x58, %l1
40003d9c:	82 10 a1 10 	or  %g2, 0x110, %g1
40003da0:	10 bf ff e3 	b  40003d2c <_vfprintf_r+0x1714>
40003da4:	c2 27 be a8 	st  %g1, [ %fp + -344 ]
40003da8:	80 a7 20 06 	cmp  %i4, 6
40003dac:	18 80 02 7f 	bgu  400047a8 <_vfprintf_r+0x2190>
40003db0:	a2 10 00 1c 	mov  %i4, %l1
40003db4:	05 10 00 3b 	sethi  %hi(0x4000ec00), %g2
40003db8:	c0 27 be e8 	clr  [ %fp + -280 ]
40003dbc:	e2 27 be e0 	st  %l1, [ %fp + -288 ]
40003dc0:	9a 10 20 00 	clr  %o5
40003dc4:	b8 10 20 00 	clr  %i4
40003dc8:	c0 27 be bc 	clr  [ %fp + -324 ]
40003dcc:	c0 27 be c0 	clr  [ %fp + -320 ]
40003dd0:	c0 27 be c8 	clr  [ %fp + -312 ]
40003dd4:	10 bf fa 9e 	b  4000284c <_vfprintf_r+0x234>
40003dd8:	a6 10 a1 28 	or  %g2, 0x128, %l3
40003ddc:	04 80 01 84 	ble  400043ec <_vfprintf_r+0x1dd4>
40003de0:	c2 07 bf 50 	ld  [ %fp + -176 ], %g1
40003de4:	10 80 00 06 	b  40003dfc <_vfprintf_r+0x17e4>
40003de8:	ac 10 20 10 	mov  0x10, %l6
40003dec:	b8 07 3f f0 	add  %i4, -16, %i4
40003df0:	80 a7 20 10 	cmp  %i4, 0x10
40003df4:	24 80 01 7f 	ble,a   400043f0 <_vfprintf_r+0x1dd8>
40003df8:	82 00 60 01 	inc  %g1
40003dfc:	82 00 60 01 	inc  %g1
40003e00:	9e 03 e0 10 	add  %o7, 0x10, %o7
40003e04:	e0 27 40 00 	st  %l0, [ %i5 ]
40003e08:	ec 27 60 04 	st  %l6, [ %i5 + 4 ]
40003e0c:	de 27 bf 54 	st  %o7, [ %fp + -172 ]
40003e10:	c2 27 bf 50 	st  %g1, [ %fp + -176 ]
40003e14:	80 a0 60 07 	cmp  %g1, 7
40003e18:	04 bf ff f5 	ble  40003dec <_vfprintf_r+0x17d4>
40003e1c:	ba 07 60 08 	add  %i5, 8, %i5
40003e20:	94 07 bf 4c 	add  %fp, -180, %o2
40003e24:	92 10 00 19 	mov  %i1, %o1
40003e28:	40 00 18 e4 	call  4000a1b8 <__sprint_r>
40003e2c:	90 10 00 18 	mov  %i0, %o0
40003e30:	80 a2 20 00 	cmp  %o0, 0
40003e34:	12 bf fd 40 	bne  40003334 <_vfprintf_r+0xd1c>
40003e38:	de 07 bf 54 	ld  [ %fp + -172 ], %o7
40003e3c:	c2 07 bf 50 	ld  [ %fp + -176 ], %g1
40003e40:	10 bf ff eb 	b  40003dec <_vfprintf_r+0x17d4>
40003e44:	ba 07 bf 58 	add  %fp, -168, %i5
40003e48:	80 8c 64 00 	btst  0x400, %l1
40003e4c:	12 80 01 38 	bne  4000432c <_vfprintf_r+0x1d14>
40003e50:	a4 07 bf fc 	add  %fp, -4, %l2
40003e54:	a6 10 00 12 	mov  %l2, %l3
40003e58:	94 10 20 00 	clr  %o2
40003e5c:	96 10 20 0a 	mov  0xa, %o3
40003e60:	90 10 00 14 	mov  %l4, %o0
40003e64:	40 00 2a 77 	call  4000e840 <__umoddi3>
40003e68:	92 10 00 15 	mov  %l5, %o1
40003e6c:	82 02 60 30 	add  %o1, 0x30, %g1
40003e70:	90 10 00 14 	mov  %l4, %o0
40003e74:	92 10 00 15 	mov  %l5, %o1
40003e78:	94 10 20 00 	clr  %o2
40003e7c:	96 10 20 0a 	mov  0xa, %o3
40003e80:	40 00 29 9b 	call  4000e4ec <__udivdi3>
40003e84:	c2 2c ff ff 	stb  %g1, [ %l3 + -1 ]
40003e88:	a6 04 ff ff 	add  %l3, -1, %l3
40003e8c:	84 10 00 15 	mov  %l5, %g2
40003e90:	80 a5 20 00 	cmp  %l4, 0
40003e94:	86 24 80 13 	sub  %l2, %l3, %g3
40003e98:	a8 10 00 08 	mov  %o0, %l4
40003e9c:	12 bf ff ef 	bne  40003e58 <_vfprintf_r+0x1840>
40003ea0:	aa 10 00 09 	mov  %o1, %l5
40003ea4:	80 a0 a0 09 	cmp  %g2, 9
40003ea8:	18 bf ff ed 	bgu  40003e5c <_vfprintf_r+0x1844>
40003eac:	94 10 20 00 	clr  %o2
40003eb0:	10 bf fc fc 	b  400032a0 <_vfprintf_r+0xc88>
40003eb4:	c6 27 be c4 	st  %g3, [ %fp + -316 ]
40003eb8:	e0 27 40 00 	st  %l0, [ %i5 ]
40003ebc:	f8 27 60 04 	st  %i4, [ %i5 + 4 ]
40003ec0:	82 00 60 01 	inc  %g1
40003ec4:	9e 03 c0 1c 	add  %o7, %i4, %o7
40003ec8:	c2 27 bf 50 	st  %g1, [ %fp + -176 ]
40003ecc:	80 a0 60 07 	cmp  %g1, 7
40003ed0:	04 bf fa a1 	ble  40002954 <_vfprintf_r+0x33c>
40003ed4:	de 27 bf 54 	st  %o7, [ %fp + -172 ]
40003ed8:	10 bf fb 29 	b  40002b7c <_vfprintf_r+0x564>
40003edc:	94 07 bf 4c 	add  %fp, -180, %o2
40003ee0:	80 8c a0 10 	btst  0x10, %l2
40003ee4:	12 80 00 2a 	bne  40003f8c <_vfprintf_r+0x1974>
40003ee8:	84 00 60 04 	add  %g1, 4, %g2
40003eec:	80 8c a0 40 	btst  0x40, %l2
40003ef0:	02 80 00 25 	be  40003f84 <_vfprintf_r+0x196c>
40003ef4:	80 8c a2 00 	btst  0x200, %l2
40003ef8:	e8 10 60 02 	lduh  [ %g1 + 2 ], %l4
40003efc:	c4 27 be dc 	st  %g2, [ %fp + -292 ]
40003f00:	aa 10 00 14 	mov  %l4, %l5
40003f04:	10 bf ff 94 	b  40003d54 <_vfprintf_r+0x173c>
40003f08:	a8 10 20 00 	clr  %l4
40003f0c:	94 07 bf 4c 	add  %fp, -180, %o2
40003f10:	92 10 00 19 	mov  %i1, %o1
40003f14:	40 00 18 a9 	call  4000a1b8 <__sprint_r>
40003f18:	90 10 00 18 	mov  %i0, %o0
40003f1c:	80 a2 20 00 	cmp  %o0, 0
40003f20:	12 bf fd 05 	bne  40003334 <_vfprintf_r+0xd1c>
40003f24:	88 07 bf 58 	add  %fp, -168, %g4
40003f28:	de 07 bf 54 	ld  [ %fp + -172 ], %o7
40003f2c:	c2 07 bf 50 	ld  [ %fp + -176 ], %g1
40003f30:	c4 07 be b8 	ld  [ %fp + -328 ], %g2
40003f34:	82 00 60 01 	inc  %g1
40003f38:	9e 03 c0 02 	add  %o7, %g2, %o7
40003f3c:	c6 07 be ac 	ld  [ %fp + -340 ], %g3
40003f40:	c4 21 20 04 	st  %g2, [ %g4 + 4 ]
40003f44:	c6 21 00 00 	st  %g3, [ %g4 ]
40003f48:	de 27 bf 54 	st  %o7, [ %fp + -172 ]
40003f4c:	c2 27 bf 50 	st  %g1, [ %fp + -176 ]
40003f50:	80 a0 60 07 	cmp  %g1, 7
40003f54:	04 bf fa ea 	ble  40002afc <_vfprintf_r+0x4e4>
40003f58:	88 01 20 08 	add  %g4, 8, %g4
40003f5c:	94 07 bf 4c 	add  %fp, -180, %o2
40003f60:	92 10 00 19 	mov  %i1, %o1
40003f64:	40 00 18 95 	call  4000a1b8 <__sprint_r>
40003f68:	90 10 00 18 	mov  %i0, %o0
40003f6c:	80 a2 20 00 	cmp  %o0, 0
40003f70:	12 bf fc f1 	bne  40003334 <_vfprintf_r+0xd1c>
40003f74:	de 07 bf 54 	ld  [ %fp + -172 ], %o7
40003f78:	c2 07 bf 50 	ld  [ %fp + -176 ], %g1
40003f7c:	10 bf fa e0 	b  40002afc <_vfprintf_r+0x4e4>
40003f80:	88 07 bf 58 	add  %fp, -168, %g4
40003f84:	32 80 02 2d 	bne,a   40004838 <_vfprintf_r+0x2220>
40003f88:	e8 08 60 03 	ldub  [ %g1 + 3 ], %l4
40003f8c:	e8 00 40 00 	ld  [ %g1 ], %l4
40003f90:	c4 27 be dc 	st  %g2, [ %fp + -292 ]
40003f94:	aa 10 00 14 	mov  %l4, %l5
40003f98:	10 bf ff 6f 	b  40003d54 <_vfprintf_r+0x173c>
40003f9c:	a8 10 20 00 	clr  %l4
40003fa0:	d6 27 be 94 	st  %o3, [ %fp + -364 ]
40003fa4:	94 07 bf 4c 	add  %fp, -180, %o2
40003fa8:	92 10 00 19 	mov  %i1, %o1
40003fac:	40 00 18 83 	call  4000a1b8 <__sprint_r>
40003fb0:	90 10 00 18 	mov  %i0, %o0
40003fb4:	80 a2 20 00 	cmp  %o0, 0
40003fb8:	12 bf fc df 	bne  40003334 <_vfprintf_r+0xd1c>
40003fbc:	da 0f be f7 	ldub  [ %fp + -265 ], %o5
40003fc0:	de 07 bf 54 	ld  [ %fp + -172 ], %o7
40003fc4:	ba 07 bf 58 	add  %fp, -168, %i5
40003fc8:	9b 2b 60 18 	sll  %o5, 0x18, %o5
40003fcc:	10 bf fa 2e 	b  40002884 <_vfprintf_r+0x26c>
40003fd0:	d6 07 be 94 	ld  [ %fp + -364 ], %o3
40003fd4:	39 10 00 3b 	sethi  %hi(0x4000ec00), %i4
40003fd8:	b8 17 21 30 	or  %i4, 0x130, %i4	! 4000ed30 <_global_impure_ptr+0x5c>
40003fdc:	c2 07 bf 50 	ld  [ %fp + -176 ], %g1
40003fe0:	f8 27 40 00 	st  %i4, [ %i5 ]
40003fe4:	82 00 60 01 	inc  %g1
40003fe8:	9e 03 e0 01 	inc  %o7
40003fec:	b8 10 20 01 	mov  1, %i4
40003ff0:	de 27 bf 54 	st  %o7, [ %fp + -172 ]
40003ff4:	f8 27 60 04 	st  %i4, [ %i5 + 4 ]
40003ff8:	c2 27 bf 50 	st  %g1, [ %fp + -176 ]
40003ffc:	80 a0 60 07 	cmp  %g1, 7
40004000:	14 80 02 ba 	bg  40004ae8 <_vfprintf_r+0x24d0>
40004004:	ba 07 60 08 	add  %i5, 8, %i5
40004008:	c2 07 be c4 	ld  [ %fp + -316 ], %g1
4000400c:	80 90 40 04 	orcc  %g1, %g4, %g0
40004010:	02 80 02 de 	be  40004b88 <_vfprintf_r+0x2570>
40004014:	c4 07 be b8 	ld  [ %fp + -328 ], %g2
40004018:	c2 07 bf 50 	ld  [ %fp + -176 ], %g1
4000401c:	9e 00 80 0f 	add  %g2, %o7, %o7
40004020:	82 00 60 01 	inc  %g1
40004024:	c6 07 be ac 	ld  [ %fp + -340 ], %g3
40004028:	c4 27 60 04 	st  %g2, [ %i5 + 4 ]
4000402c:	c6 27 40 00 	st  %g3, [ %i5 ]
40004030:	de 27 bf 54 	st  %o7, [ %fp + -172 ]
40004034:	c2 27 bf 50 	st  %g1, [ %fp + -176 ]
40004038:	80 a0 60 07 	cmp  %g1, 7
4000403c:	14 80 02 e1 	bg  40004bc0 <_vfprintf_r+0x25a8>
40004040:	ba 07 60 08 	add  %i5, 8, %i5
40004044:	80 a1 20 00 	cmp  %g4, 0
40004048:	06 80 03 54 	bl  40004d98 <_vfprintf_r+0x2780>
4000404c:	80 a1 3f f0 	cmp  %g4, -16
40004050:	c4 07 be c4 	ld  [ %fp + -316 ], %g2
40004054:	82 00 60 01 	inc  %g1
40004058:	10 bf fa 39 	b  4000293c <_vfprintf_r+0x324>
4000405c:	9e 00 80 0f 	add  %g2, %o7, %o7
40004060:	94 07 bf 4c 	add  %fp, -180, %o2
40004064:	92 10 00 19 	mov  %i1, %o1
40004068:	40 00 18 54 	call  4000a1b8 <__sprint_r>
4000406c:	90 10 00 18 	mov  %i0, %o0
40004070:	80 a2 20 00 	cmp  %o0, 0
40004074:	12 bf fc b0 	bne  40003334 <_vfprintf_r+0xd1c>
40004078:	de 07 bf 54 	ld  [ %fp + -172 ], %o7
4000407c:	10 bf fb e0 	b  40002ffc <_vfprintf_r+0x9e4>
40004080:	ba 07 bf 58 	add  %fp, -168, %i5
40004084:	10 bf f9 a9 	b  40002728 <_vfprintf_r+0x110>
40004088:	c4 20 40 00 	st  %g2, [ %g1 ]
4000408c:	c2 07 bf 54 	ld  [ %fp + -172 ], %g1
40004090:	80 a0 60 00 	cmp  %g1, 0
40004094:	22 bf fc af 	be,a   40003350 <_vfprintf_r+0xd38>
40004098:	c2 16 60 0c 	lduh  [ %i1 + 0xc ], %g1
4000409c:	94 07 bf 4c 	add  %fp, -180, %o2
400040a0:	92 10 00 19 	mov  %i1, %o1
400040a4:	40 00 18 45 	call  4000a1b8 <__sprint_r>
400040a8:	90 10 00 18 	mov  %i0, %o0
400040ac:	10 bf fc a9 	b  40003350 <_vfprintf_r+0xd38>
400040b0:	c2 16 60 0c 	lduh  [ %i1 + 0xc ], %g1
400040b4:	90 10 00 13 	mov  %l3, %o0
400040b8:	40 00 17 4f 	call  40009df4 <strlen>
400040bc:	c0 27 be e8 	clr  [ %fp + -280 ]
400040c0:	da 0f be f7 	ldub  [ %fp + -265 ], %o5
400040c4:	a2 38 00 08 	xnor  %g0, %o0, %l1
400040c8:	d0 27 be e0 	st  %o0, [ %fp + -288 ]
400040cc:	a3 3c 60 1f 	sra  %l1, 0x1f, %l1
400040d0:	b8 10 20 00 	clr  %i4
400040d4:	c0 27 be bc 	clr  [ %fp + -324 ]
400040d8:	c0 27 be c0 	clr  [ %fp + -320 ]
400040dc:	a2 0a 00 11 	and  %o0, %l1, %l1
400040e0:	10 bf f9 db 	b  4000284c <_vfprintf_r+0x234>
400040e4:	c0 27 be c8 	clr  [ %fp + -312 ]
400040e8:	10 bf fa 62 	b  40002a70 <_vfprintf_r+0x458>
400040ec:	a6 10 a0 d8 	or  %g2, 0xd8, %l3
400040f0:	02 80 01 e2 	be  40004878 <_vfprintf_r+0x2260>
400040f4:	80 a7 20 00 	cmp  %i4, 0
400040f8:	12 80 01 e1 	bne  4000487c <_vfprintf_r+0x2264>
400040fc:	80 a4 60 47 	cmp  %l1, 0x47
40004100:	12 80 01 df 	bne  4000487c <_vfprintf_r+0x2264>
40004104:	82 14 a1 00 	or  %l2, 0x100, %g1
40004108:	d5 27 be e0 	st  %f10, [ %fp + -288 ]
4000410c:	c2 27 be e8 	st  %g1, [ %fp + -280 ]
40004110:	c4 07 be e0 	ld  [ %fp + -288 ], %g2
40004114:	80 a0 a0 00 	cmp  %g2, 0
40004118:	06 80 03 9e 	bl  40004f90 <_vfprintf_r+0x2978>
4000411c:	98 10 20 01 	mov  1, %o4
40004120:	c0 2f be dc 	clrb  [ %fp + -292 ]
40004124:	b8 10 20 01 	mov  1, %i4
40004128:	84 07 bf 10 	add  %fp, -240, %g2
4000412c:	c4 23 a0 60 	st  %g2, [ %sp + 0x60 ]
40004130:	84 07 bf 04 	add  %fp, -252, %g2
40004134:	d1 3f be e0 	std  %f8, [ %fp + -288 ]
40004138:	d8 27 be c8 	st  %o4, [ %fp + -312 ]
4000413c:	d1 3f be d0 	std  %f8, [ %fp + -304 ]
40004140:	c4 23 a0 5c 	st  %g2, [ %sp + 0x5c ]
40004144:	9a 07 bf 00 	add  %fp, -256, %o5
40004148:	96 10 20 02 	mov  2, %o3
4000414c:	d2 07 be e0 	ld  [ %fp + -288 ], %o1
40004150:	d4 07 be e4 	ld  [ %fp + -284 ], %o2
40004154:	40 00 06 10 	call  40005994 <_dtoa_r>
40004158:	90 10 00 18 	mov  %i0, %o0
4000415c:	80 a4 60 47 	cmp  %l1, 0x47
40004160:	a6 10 00 08 	mov  %o0, %l3
40004164:	d1 1f be d0 	ldd  [ %fp + -304 ], %f8
40004168:	12 80 02 d4 	bne  40004cb8 <_vfprintf_r+0x26a0>
4000416c:	d8 07 be c8 	ld  [ %fp + -312 ], %o4
40004170:	80 8c a0 01 	btst  1, %l2
40004174:	32 80 01 ec 	bne,a   40004924 <_vfprintf_r+0x230c>
40004178:	98 04 c0 0c 	add  %l3, %o4, %o4
4000417c:	c8 07 bf 10 	ld  [ %fp + -240 ], %g4
40004180:	82 21 00 13 	sub  %g4, %l3, %g1
40004184:	c2 27 be c4 	st  %g1, [ %fp + -316 ]
40004188:	c2 07 bf 00 	ld  [ %fp + -256 ], %g1
4000418c:	80 a4 60 47 	cmp  %l1, 0x47
40004190:	12 80 02 3e 	bne  40004a88 <_vfprintf_r+0x2470>
40004194:	c2 27 be c8 	st  %g1, [ %fp + -312 ]
40004198:	80 a7 00 01 	cmp  %i4, %g1
4000419c:	06 80 00 03 	bl  400041a8 <_vfprintf_r+0x1b90>
400041a0:	88 10 20 01 	mov  1, %g4
400041a4:	88 10 20 00 	clr  %g4
400041a8:	80 89 20 ff 	btst  0xff, %g4
400041ac:	12 80 00 09 	bne  400041d0 <_vfprintf_r+0x1bb8>
400041b0:	c2 07 be c8 	ld  [ %fp + -312 ], %g1
400041b4:	80 a0 7f fd 	cmp  %g1, -3
400041b8:	06 80 00 03 	bl  400041c4 <_vfprintf_r+0x1bac>
400041bc:	88 10 20 01 	mov  1, %g4
400041c0:	88 10 20 00 	clr  %g4
400041c4:	80 89 20 ff 	btst  0xff, %g4
400041c8:	02 80 02 16 	be  40004a20 <_vfprintf_r+0x2408>
400041cc:	c4 07 be c4 	ld  [ %fp + -316 ], %g2
400041d0:	ac 05 bf fe 	add  %l6, -2, %l6
400041d4:	c0 27 be e8 	clr  [ %fp + -280 ]
400041d8:	a2 0d bf df 	and  %l6, -33, %l1
400041dc:	c2 07 be c8 	ld  [ %fp + -312 ], %g1
400041e0:	b8 00 7f ff 	add  %g1, -1, %i4
400041e4:	f8 27 bf 00 	st  %i4, [ %fp + -256 ]
400041e8:	80 a4 60 41 	cmp  %l1, 0x41
400041ec:	12 80 00 03 	bne  400041f8 <_vfprintf_r+0x1be0>
400041f0:	88 10 00 16 	mov  %l6, %g4
400041f4:	88 05 a0 0f 	add  %l6, 0xf, %g4
400041f8:	c8 2f bf 08 	stb  %g4, [ %fp + -248 ]
400041fc:	80 a7 20 00 	cmp  %i4, 0
40004200:	16 80 00 06 	bge  40004218 <_vfprintf_r+0x1c00>
40004204:	88 10 20 2b 	mov  0x2b, %g4
40004208:	b8 10 20 01 	mov  1, %i4
4000420c:	c2 07 be c8 	ld  [ %fp + -312 ], %g1
40004210:	88 10 20 2d 	mov  0x2d, %g4
40004214:	b8 27 00 01 	sub  %i4, %g1, %i4
40004218:	80 a7 20 09 	cmp  %i4, 9
4000421c:	04 80 03 4b 	ble  40004f48 <_vfprintf_r+0x2930>
40004220:	c8 2f bf 09 	stb  %g4, [ %fp + -247 ]
40004224:	84 07 bf 17 	add  %fp, -233, %g2
40004228:	e8 3f be e0 	std  %l4, [ %fp + -288 ]
4000422c:	a8 10 00 02 	mov  %g2, %l4
40004230:	92 10 20 0a 	mov  0xa, %o1
40004234:	40 00 28 04 	call  4000e244 <.rem>
40004238:	90 10 00 1c 	mov  %i4, %o0
4000423c:	82 02 20 30 	add  %o0, 0x30, %g1
40004240:	92 10 20 0a 	mov  0xa, %o1
40004244:	90 10 00 1c 	mov  %i4, %o0
40004248:	40 00 27 53 	call  4000df94 <.div>
4000424c:	c2 2d 3f ff 	stb  %g1, [ %l4 + -1 ]
40004250:	86 10 00 1c 	mov  %i4, %g3
40004254:	a2 10 00 14 	mov  %l4, %l1
40004258:	b8 10 00 08 	mov  %o0, %i4
4000425c:	a8 05 3f ff 	add  %l4, -1, %l4
40004260:	80 a0 e0 63 	cmp  %g3, 0x63
40004264:	14 bf ff f3 	bg  40004230 <_vfprintf_r+0x1c18>
40004268:	84 07 bf 17 	add  %fp, -233, %g2
4000426c:	82 10 00 14 	mov  %l4, %g1
40004270:	b8 02 20 30 	add  %o0, 0x30, %i4
40004274:	f8 28 7f ff 	stb  %i4, [ %g1 + -1 ]
40004278:	88 04 7f fe 	add  %l1, -2, %g4
4000427c:	80 a1 00 02 	cmp  %g4, %g2
40004280:	1a 80 03 8f 	bcc  400050bc <_vfprintf_r+0x2aa4>
40004284:	e8 1f be e0 	ldd  [ %fp + -288 ], %l4
40004288:	b8 07 bf 0a 	add  %fp, -246, %i4
4000428c:	c2 09 00 00 	ldub  [ %g4 ], %g1
40004290:	c2 2f 00 00 	stb  %g1, [ %i4 ]
40004294:	88 01 20 01 	inc  %g4
40004298:	80 a1 00 02 	cmp  %g4, %g2
4000429c:	12 bf ff fc 	bne  4000428c <_vfprintf_r+0x1c74>
400042a0:	b8 07 20 01 	inc  %i4
400042a4:	82 07 bf 0a 	add  %fp, -246, %g1
400042a8:	88 07 bf 19 	add  %fp, -231, %g4
400042ac:	b8 07 bf 08 	add  %fp, -248, %i4
400042b0:	88 21 00 11 	sub  %g4, %l1, %g4
400042b4:	88 00 40 04 	add  %g1, %g4, %g4
400042b8:	82 21 00 1c 	sub  %g4, %i4, %g1
400042bc:	c2 27 be a4 	st  %g1, [ %fp + -348 ]
400042c0:	84 10 00 01 	mov  %g1, %g2
400042c4:	c2 07 be c4 	ld  [ %fp + -316 ], %g1
400042c8:	84 00 80 01 	add  %g2, %g1, %g2
400042cc:	80 a0 60 01 	cmp  %g1, 1
400042d0:	04 80 03 51 	ble  40005014 <_vfprintf_r+0x29fc>
400042d4:	c4 27 be e0 	st  %g2, [ %fp + -288 ]
400042d8:	c2 07 be e0 	ld  [ %fp + -288 ], %g1
400042dc:	c4 07 be b8 	ld  [ %fp + -328 ], %g2
400042e0:	82 00 40 02 	add  %g1, %g2, %g1
400042e4:	c2 27 be e0 	st  %g1, [ %fp + -288 ]
400042e8:	c2 07 be e0 	ld  [ %fp + -288 ], %g1
400042ec:	86 0c bb ff 	and  %l2, -1025, %g3
400042f0:	a2 38 00 01 	xnor  %g0, %g1, %l1
400042f4:	a4 10 e1 00 	or  %g3, 0x100, %l2
400042f8:	a3 3c 60 1f 	sra  %l1, 0x1f, %l1
400042fc:	c0 27 be bc 	clr  [ %fp + -324 ]
40004300:	a2 08 40 11 	and  %g1, %l1, %l1
40004304:	c0 27 be c0 	clr  [ %fp + -320 ]
40004308:	c0 27 be c8 	clr  [ %fp + -312 ]
4000430c:	c2 0f be dc 	ldub  [ %fp + -292 ], %g1
40004310:	80 88 60 ff 	btst  0xff, %g1
40004314:	12 80 01 f0 	bne  40004ad4 <_vfprintf_r+0x24bc>
40004318:	88 10 20 2d 	mov  0x2d, %g4
4000431c:	da 0f be f7 	ldub  [ %fp + -265 ], %o5
40004320:	ee 27 be dc 	st  %l7, [ %fp + -292 ]
40004324:	10 bf f9 4a 	b  4000284c <_vfprintf_r+0x234>
40004328:	b8 10 20 00 	clr  %i4
4000432c:	a6 10 00 12 	mov  %l2, %l3
40004330:	f8 27 be e0 	st  %i4, [ %fp + -288 ]
40004334:	ae 10 20 00 	clr  %l7
40004338:	b8 10 00 12 	mov  %l2, %i4
4000433c:	a4 10 00 1a 	mov  %i2, %l2
40004340:	b4 10 00 1d 	mov  %i5, %i2
40004344:	fa 07 be a0 	ld  [ %fp + -352 ], %i5
40004348:	94 10 20 00 	clr  %o2
4000434c:	96 10 20 0a 	mov  0xa, %o3
40004350:	90 10 00 14 	mov  %l4, %o0
40004354:	40 00 29 3b 	call  4000e840 <__umoddi3>
40004358:	92 10 00 15 	mov  %l5, %o1
4000435c:	92 02 60 30 	add  %o1, 0x30, %o1
40004360:	d2 2f 3f ff 	stb  %o1, [ %i4 + -1 ]
40004364:	ae 05 e0 01 	inc  %l7
40004368:	c4 4f 40 00 	ldsb  [ %i5 ], %g2
4000436c:	80 a0 a0 7f 	cmp  %g2, 0x7f
40004370:	02 80 00 05 	be  40004384 <_vfprintf_r+0x1d6c>
40004374:	b8 07 3f ff 	add  %i4, -1, %i4
40004378:	80 a0 80 17 	cmp  %g2, %l7
4000437c:	02 80 00 10 	be  400043bc <_vfprintf_r+0x1da4>
40004380:	80 a5 20 00 	cmp  %l4, 0
40004384:	94 10 20 00 	clr  %o2
40004388:	96 10 20 0a 	mov  0xa, %o3
4000438c:	90 10 00 14 	mov  %l4, %o0
40004390:	40 00 28 57 	call  4000e4ec <__udivdi3>
40004394:	92 10 00 15 	mov  %l5, %o1
40004398:	80 a5 20 00 	cmp  %l4, 0
4000439c:	02 80 01 8f 	be  400049d8 <_vfprintf_r+0x23c0>
400043a0:	80 a5 60 09 	cmp  %l5, 9
400043a4:	a8 10 00 08 	mov  %o0, %l4
400043a8:	10 bf ff e8 	b  40004348 <_vfprintf_r+0x1d30>
400043ac:	aa 10 00 09 	mov  %o1, %l5
400043b0:	9a 10 20 2d 	mov  0x2d, %o5
400043b4:	10 bf f9 aa 	b  40002a5c <_vfprintf_r+0x444>
400043b8:	c4 2f be f7 	stb  %g2, [ %fp + -265 ]
400043bc:	12 80 01 75 	bne  40004990 <_vfprintf_r+0x2378>
400043c0:	80 a5 60 09 	cmp  %l5, 9
400043c4:	38 80 01 74 	bgu,a   40004994 <_vfprintf_r+0x237c>
400043c8:	c2 07 be 9c 	ld  [ %fp + -356 ], %g1
400043cc:	fa 27 be a0 	st  %i5, [ %fp + -352 ]
400043d0:	ee 27 be c4 	st  %l7, [ %fp + -316 ]
400043d4:	ba 10 00 1a 	mov  %i2, %i5
400043d8:	b4 10 00 12 	mov  %l2, %i2
400043dc:	a4 10 00 13 	mov  %l3, %l2
400043e0:	a6 10 00 1c 	mov  %i4, %l3
400043e4:	10 bf fb af 	b  400032a0 <_vfprintf_r+0xc88>
400043e8:	f8 07 be e0 	ld  [ %fp + -288 ], %i4
400043ec:	82 00 60 01 	inc  %g1
400043f0:	9e 03 c0 1c 	add  %o7, %i4, %o7
400043f4:	e0 27 40 00 	st  %l0, [ %i5 ]
400043f8:	f8 27 60 04 	st  %i4, [ %i5 + 4 ]
400043fc:	de 27 bf 54 	st  %o7, [ %fp + -172 ]
40004400:	c2 27 bf 50 	st  %g1, [ %fp + -176 ]
40004404:	80 a0 60 07 	cmp  %g1, 7
40004408:	04 bf fc 99 	ble  4000366c <_vfprintf_r+0x1054>
4000440c:	ba 07 60 08 	add  %i5, 8, %i5
40004410:	94 07 bf 4c 	add  %fp, -180, %o2
40004414:	92 10 00 19 	mov  %i1, %o1
40004418:	40 00 17 68 	call  4000a1b8 <__sprint_r>
4000441c:	90 10 00 18 	mov  %i0, %o0
40004420:	80 a2 20 00 	cmp  %o0, 0
40004424:	12 bf fb c4 	bne  40003334 <_vfprintf_r+0xd1c>
40004428:	de 07 bf 54 	ld  [ %fp + -172 ], %o7
4000442c:	10 bf fc 90 	b  4000366c <_vfprintf_r+0x1054>
40004430:	ba 07 bf 58 	add  %fp, -168, %i5
40004434:	c2 07 be bc 	ld  [ %fp + -324 ], %g1
40004438:	80 a0 60 00 	cmp  %g1, 0
4000443c:	14 80 00 0c 	bg  4000446c <_vfprintf_r+0x1e54>
40004440:	c2 07 be c0 	ld  [ %fp + -320 ], %g1
40004444:	80 a0 60 00 	cmp  %g1, 0
40004448:	14 80 00 0a 	bg  40004470 <_vfprintf_r+0x1e58>
4000444c:	c2 07 be c4 	ld  [ %fp + -316 ], %g1
40004450:	82 04 c0 01 	add  %l3, %g1, %g1
40004454:	84 10 00 01 	mov  %g1, %g2
40004458:	80 a5 c0 02 	cmp  %l7, %g2
4000445c:	38 bf fc 88 	bgu,a   4000367c <_vfprintf_r+0x1064>
40004460:	ae 10 00 02 	mov  %g2, %l7
40004464:	10 bf fc 87 	b  40003680 <_vfprintf_r+0x1068>
40004468:	f8 07 bf 00 	ld  [ %fp + -256 ], %i4
4000446c:	c2 07 be c4 	ld  [ %fp + -316 ], %g1
40004470:	e4 27 be d0 	st  %l2, [ %fp + -304 ]
40004474:	b8 04 c0 01 	add  %l3, %g1, %i4
40004478:	ec 07 be bc 	ld  [ %fp + -324 ], %l6
4000447c:	e8 3f be c8 	std  %l4, [ %fp + -312 ]
40004480:	82 10 00 1d 	mov  %i5, %g1
40004484:	a4 10 00 17 	mov  %l7, %l2
40004488:	e6 27 be e0 	st  %l3, [ %fp + -288 ]
4000448c:	ae 10 00 1b 	mov  %i3, %l7
40004490:	e8 07 be a0 	ld  [ %fp + -352 ], %l4
40004494:	f6 07 be c0 	ld  [ %fp + -320 ], %i3
40004498:	e2 27 be bc 	st  %l1, [ %fp + -324 ]
4000449c:	f4 27 be c0 	st  %i2, [ %fp + -320 ]
400044a0:	fa 07 be 9c 	ld  [ %fp + -356 ], %i5
400044a4:	f4 07 be 98 	ld  [ %fp + -360 ], %i2
400044a8:	80 a5 a0 00 	cmp  %l6, 0
400044ac:	12 80 00 34 	bne  4000457c <_vfprintf_r+0x1f64>
400044b0:	c4 07 bf 50 	ld  [ %fp + -176 ], %g2
400044b4:	9e 03 c0 1d 	add  %o7, %i5, %o7
400044b8:	84 00 a0 01 	inc  %g2
400044bc:	f4 20 40 00 	st  %i2, [ %g1 ]
400044c0:	fa 20 60 04 	st  %i5, [ %g1 + 4 ]
400044c4:	de 27 bf 54 	st  %o7, [ %fp + -172 ]
400044c8:	c4 27 bf 50 	st  %g2, [ %fp + -176 ]
400044cc:	a8 05 3f ff 	add  %l4, -1, %l4
400044d0:	b6 06 ff ff 	add  %i3, -1, %i3
400044d4:	80 a0 a0 07 	cmp  %g2, 7
400044d8:	14 80 00 34 	bg  400045a8 <_vfprintf_r+0x1f90>
400044dc:	82 00 60 08 	add  %g1, 8, %g1
400044e0:	96 27 00 12 	sub  %i4, %l2, %o3
400044e4:	c4 0d 00 00 	ldub  [ %l4 ], %g2
400044e8:	a2 10 00 1c 	mov  %i4, %l1
400044ec:	85 28 a0 18 	sll  %g2, 0x18, %g2
400044f0:	99 38 a0 18 	sra  %g2, 0x18, %o4
400044f4:	80 a3 00 0b 	cmp  %o4, %o3
400044f8:	04 80 00 03 	ble  40004504 <_vfprintf_r+0x1eec>
400044fc:	a6 10 00 0c 	mov  %o4, %l3
40004500:	a6 10 00 0b 	mov  %o3, %l3
40004504:	80 a4 e0 00 	cmp  %l3, 0
40004508:	04 80 00 10 	ble  40004548 <_vfprintf_r+0x1f30>
4000450c:	96 38 00 13 	xnor  %g0, %l3, %o3
40004510:	c4 07 bf 50 	ld  [ %fp + -176 ], %g2
40004514:	9e 03 c0 13 	add  %o7, %l3, %o7
40004518:	84 00 a0 01 	inc  %g2
4000451c:	e4 20 40 00 	st  %l2, [ %g1 ]
40004520:	e6 20 60 04 	st  %l3, [ %g1 + 4 ]
40004524:	de 27 bf 54 	st  %o7, [ %fp + -172 ]
40004528:	80 a0 a0 07 	cmp  %g2, 7
4000452c:	14 80 00 8f 	bg  40004768 <_vfprintf_r+0x2150>
40004530:	c4 27 bf 50 	st  %g2, [ %fp + -176 ]
40004534:	c4 0d 00 00 	ldub  [ %l4 ], %g2
40004538:	82 00 60 08 	add  %g1, 8, %g1
4000453c:	85 28 a0 18 	sll  %g2, 0x18, %g2
40004540:	99 38 a0 18 	sra  %g2, 0x18, %o4
40004544:	96 38 00 13 	xnor  %g0, %l3, %o3
40004548:	97 3a e0 1f 	sra  %o3, 0x1f, %o3
4000454c:	86 0c c0 0b 	and  %l3, %o3, %g3
40004550:	a6 23 00 03 	sub  %o4, %g3, %l3
40004554:	80 a4 e0 00 	cmp  %l3, 0
40004558:	14 80 00 1d 	bg  400045cc <_vfprintf_r+0x1fb4>
4000455c:	80 a4 e0 10 	cmp  %l3, 0x10
40004560:	85 38 a0 18 	sra  %g2, 0x18, %g2
40004564:	80 a6 e0 00 	cmp  %i3, 0
40004568:	14 bf ff d0 	bg  400044a8 <_vfprintf_r+0x1e90>
4000456c:	a4 04 80 02 	add  %l2, %g2, %l2
40004570:	80 a5 a0 00 	cmp  %l6, 0
40004574:	24 80 01 1e 	ble,a   400049ec <_vfprintf_r+0x23d4>
40004578:	e8 27 be a0 	st  %l4, [ %fp + -352 ]
4000457c:	c4 07 bf 50 	ld  [ %fp + -176 ], %g2
40004580:	9e 03 c0 1d 	add  %o7, %i5, %o7
40004584:	84 00 a0 01 	inc  %g2
40004588:	f4 20 40 00 	st  %i2, [ %g1 ]
4000458c:	fa 20 60 04 	st  %i5, [ %g1 + 4 ]
40004590:	de 27 bf 54 	st  %o7, [ %fp + -172 ]
40004594:	c4 27 bf 50 	st  %g2, [ %fp + -176 ]
40004598:	ac 05 bf ff 	add  %l6, -1, %l6
4000459c:	80 a0 a0 07 	cmp  %g2, 7
400045a0:	04 bf ff d0 	ble  400044e0 <_vfprintf_r+0x1ec8>
400045a4:	82 00 60 08 	add  %g1, 8, %g1
400045a8:	94 07 bf 4c 	add  %fp, -180, %o2
400045ac:	92 10 00 19 	mov  %i1, %o1
400045b0:	40 00 17 02 	call  4000a1b8 <__sprint_r>
400045b4:	90 10 00 18 	mov  %i0, %o0
400045b8:	80 a2 20 00 	cmp  %o0, 0
400045bc:	12 bf fb 5e 	bne  40003334 <_vfprintf_r+0xd1c>
400045c0:	de 07 bf 54 	ld  [ %fp + -172 ], %o7
400045c4:	10 bf ff c7 	b  400044e0 <_vfprintf_r+0x1ec8>
400045c8:	82 07 bf 58 	add  %fp, -168, %g1
400045cc:	04 80 02 97 	ble  40005028 <_vfprintf_r+0x2a10>
400045d0:	c4 07 bf 50 	ld  [ %fp + -176 ], %g2
400045d4:	84 00 a0 01 	inc  %g2
400045d8:	e0 20 40 00 	st  %l0, [ %g1 ]
400045dc:	86 10 20 10 	mov  0x10, %g3
400045e0:	9e 03 e0 10 	add  %o7, 0x10, %o7
400045e4:	c6 20 60 04 	st  %g3, [ %g1 + 4 ]
400045e8:	c4 27 bf 50 	st  %g2, [ %fp + -176 ]
400045ec:	de 27 bf 54 	st  %o7, [ %fp + -172 ]
400045f0:	80 a0 a0 07 	cmp  %g2, 7
400045f4:	14 80 01 47 	bg  40004b10 <_vfprintf_r+0x24f8>
400045f8:	82 00 60 08 	add  %g1, 8, %g1
400045fc:	98 04 ff f0 	add  %l3, -16, %o4
40004600:	80 a3 20 10 	cmp  %o4, 0x10
40004604:	04 80 00 4d 	ble  40004738 <_vfprintf_r+0x2120>
40004608:	86 10 20 10 	mov  0x10, %g3
4000460c:	84 00 a0 01 	inc  %g2
40004610:	e0 20 40 00 	st  %l0, [ %g1 ]
40004614:	9e 03 e0 10 	add  %o7, 0x10, %o7
40004618:	c6 20 60 04 	st  %g3, [ %g1 + 4 ]
4000461c:	c4 27 bf 50 	st  %g2, [ %fp + -176 ]
40004620:	de 27 bf 54 	st  %o7, [ %fp + -172 ]
40004624:	80 a0 a0 07 	cmp  %g2, 7
40004628:	14 80 01 44 	bg  40004b38 <_vfprintf_r+0x2520>
4000462c:	82 00 60 08 	add  %g1, 8, %g1
40004630:	98 04 ff e0 	add  %l3, -32, %o4
40004634:	80 a3 20 10 	cmp  %o4, 0x10
40004638:	04 80 00 40 	ble  40004738 <_vfprintf_r+0x2120>
4000463c:	86 10 20 10 	mov  0x10, %g3
40004640:	84 00 a0 01 	inc  %g2
40004644:	e0 20 40 00 	st  %l0, [ %g1 ]
40004648:	9e 03 e0 10 	add  %o7, 0x10, %o7
4000464c:	c6 20 60 04 	st  %g3, [ %g1 + 4 ]
40004650:	c4 27 bf 50 	st  %g2, [ %fp + -176 ]
40004654:	de 27 bf 54 	st  %o7, [ %fp + -172 ]
40004658:	80 a0 a0 07 	cmp  %g2, 7
4000465c:	14 80 01 41 	bg  40004b60 <_vfprintf_r+0x2548>
40004660:	82 00 60 08 	add  %g1, 8, %g1
40004664:	98 04 ff d0 	add  %l3, -48, %o4
40004668:	80 a3 20 10 	cmp  %o4, 0x10
4000466c:	04 80 00 33 	ble  40004738 <_vfprintf_r+0x2120>
40004670:	86 10 20 10 	mov  0x10, %g3
40004674:	84 00 a0 01 	inc  %g2
40004678:	e0 20 40 00 	st  %l0, [ %g1 ]
4000467c:	9e 03 e0 10 	add  %o7, 0x10, %o7
40004680:	c6 20 60 04 	st  %g3, [ %g1 + 4 ]
40004684:	c4 27 bf 50 	st  %g2, [ %fp + -176 ]
40004688:	de 27 bf 54 	st  %o7, [ %fp + -172 ]
4000468c:	80 a0 a0 07 	cmp  %g2, 7
40004690:	14 80 01 61 	bg  40004c14 <_vfprintf_r+0x25fc>
40004694:	82 00 60 08 	add  %g1, 8, %g1
40004698:	98 04 ff c0 	add  %l3, -64, %o4
4000469c:	80 a3 20 10 	cmp  %o4, 0x10
400046a0:	04 80 00 26 	ble  40004738 <_vfprintf_r+0x2120>
400046a4:	86 10 20 10 	mov  0x10, %g3
400046a8:	84 00 a0 01 	inc  %g2
400046ac:	e0 20 40 00 	st  %l0, [ %g1 ]
400046b0:	9e 03 e0 10 	add  %o7, 0x10, %o7
400046b4:	c6 20 60 04 	st  %g3, [ %g1 + 4 ]
400046b8:	c4 27 bf 50 	st  %g2, [ %fp + -176 ]
400046bc:	de 27 bf 54 	st  %o7, [ %fp + -172 ]
400046c0:	80 a0 a0 07 	cmp  %g2, 7
400046c4:	14 80 01 7f 	bg  40004cc0 <_vfprintf_r+0x26a8>
400046c8:	82 00 60 08 	add  %g1, 8, %g1
400046cc:	98 04 ff b0 	add  %l3, -80, %o4
400046d0:	80 a3 20 10 	cmp  %o4, 0x10
400046d4:	04 80 00 19 	ble  40004738 <_vfprintf_r+0x2120>
400046d8:	86 10 20 10 	mov  0x10, %g3
400046dc:	84 00 a0 01 	inc  %g2
400046e0:	e0 20 40 00 	st  %l0, [ %g1 ]
400046e4:	9e 03 e0 10 	add  %o7, 0x10, %o7
400046e8:	c6 20 60 04 	st  %g3, [ %g1 + 4 ]
400046ec:	c4 27 bf 50 	st  %g2, [ %fp + -176 ]
400046f0:	de 27 bf 54 	st  %o7, [ %fp + -172 ]
400046f4:	80 a0 a0 07 	cmp  %g2, 7
400046f8:	14 80 01 84 	bg  40004d08 <_vfprintf_r+0x26f0>
400046fc:	82 00 60 08 	add  %g1, 8, %g1
40004700:	98 04 ff a0 	add  %l3, -96, %o4
40004704:	80 a3 20 10 	cmp  %o4, 0x10
40004708:	04 80 00 0c 	ble  40004738 <_vfprintf_r+0x2120>
4000470c:	86 10 20 10 	mov  0x10, %g3
40004710:	84 00 a0 01 	inc  %g2
40004714:	9e 03 e0 10 	add  %o7, 0x10, %o7
40004718:	e0 20 40 00 	st  %l0, [ %g1 ]
4000471c:	de 27 bf 54 	st  %o7, [ %fp + -172 ]
40004720:	c6 20 60 04 	st  %g3, [ %g1 + 4 ]
40004724:	c4 27 bf 50 	st  %g2, [ %fp + -176 ]
40004728:	80 a0 a0 07 	cmp  %g2, 7
4000472c:	14 80 00 47 	bg  40004848 <_vfprintf_r+0x2230>
40004730:	82 00 60 08 	add  %g1, 8, %g1
40004734:	98 04 ff 90 	add  %l3, -112, %o4
40004738:	84 00 a0 01 	inc  %g2
4000473c:	9e 03 c0 0c 	add  %o7, %o4, %o7
40004740:	e0 20 40 00 	st  %l0, [ %g1 ]
40004744:	d8 20 60 04 	st  %o4, [ %g1 + 4 ]
40004748:	de 27 bf 54 	st  %o7, [ %fp + -172 ]
4000474c:	80 a0 a0 07 	cmp  %g2, 7
40004750:	14 80 01 3b 	bg  40004c3c <_vfprintf_r+0x2624>
40004754:	c4 27 bf 50 	st  %g2, [ %fp + -176 ]
40004758:	c4 0d 00 00 	ldub  [ %l4 ], %g2
4000475c:	82 00 60 08 	add  %g1, 8, %g1
40004760:	10 bf ff 80 	b  40004560 <_vfprintf_r+0x1f48>
40004764:	85 28 a0 18 	sll  %g2, 0x18, %g2
40004768:	94 07 bf 4c 	add  %fp, -180, %o2
4000476c:	92 10 00 19 	mov  %i1, %o1
40004770:	40 00 16 92 	call  4000a1b8 <__sprint_r>
40004774:	90 10 00 18 	mov  %i0, %o0
40004778:	80 a2 20 00 	cmp  %o0, 0
4000477c:	12 bf fa ee 	bne  40003334 <_vfprintf_r+0xd1c>
40004780:	de 07 bf 54 	ld  [ %fp + -172 ], %o7
40004784:	c4 0d 00 00 	ldub  [ %l4 ], %g2
40004788:	85 28 a0 18 	sll  %g2, 0x18, %g2
4000478c:	82 07 bf 58 	add  %fp, -168, %g1
40004790:	10 bf ff 6d 	b  40004544 <_vfprintf_r+0x1f2c>
40004794:	99 38 a0 18 	sra  %g2, 0x18, %o4
40004798:	b8 07 20 01 	inc  %i4
4000479c:	ba 00 60 08 	add  %g1, 8, %i5
400047a0:	10 bf f8 ed 	b  40002b54 <_vfprintf_r+0x53c>
400047a4:	88 10 00 01 	mov  %g1, %g4
400047a8:	10 bf fd 83 	b  40003db4 <_vfprintf_r+0x179c>
400047ac:	a2 10 20 06 	mov  6, %l1
400047b0:	94 07 bf 4c 	add  %fp, -180, %o2
400047b4:	92 10 00 19 	mov  %i1, %o1
400047b8:	40 00 16 80 	call  4000a1b8 <__sprint_r>
400047bc:	90 10 00 18 	mov  %i0, %o0
400047c0:	80 a2 20 00 	cmp  %o0, 0
400047c4:	12 bf fa dc 	bne  40003334 <_vfprintf_r+0xd1c>
400047c8:	de 07 bf 54 	ld  [ %fp + -172 ], %o7
400047cc:	10 bf fb a0 	b  4000364c <_vfprintf_r+0x1034>
400047d0:	ba 07 bf 58 	add  %fp, -168, %i5
400047d4:	84 04 c0 01 	add  %l3, %g1, %g2
400047d8:	82 20 80 17 	sub  %g2, %l7, %g1
400047dc:	80 a1 00 01 	cmp  %g4, %g1
400047e0:	04 bf fb cf 	ble  4000371c <_vfprintf_r+0x1104>
400047e4:	a6 10 00 04 	mov  %g4, %l3
400047e8:	10 bf fb cd 	b  4000371c <_vfprintf_r+0x1104>
400047ec:	a6 10 00 01 	mov  %g1, %l3
400047f0:	84 10 20 01 	mov  1, %g2
400047f4:	aa 10 00 14 	mov  %l4, %l5
400047f8:	c6 27 be dc 	st  %g3, [ %fp + -292 ]
400047fc:	10 bf f9 54 	b  40002d4c <_vfprintf_r+0x734>
40004800:	a8 10 20 00 	clr  %l4
40004804:	c4 27 be dc 	st  %g2, [ %fp + -292 ]
40004808:	85 29 20 18 	sll  %g4, 0x18, %g2
4000480c:	89 38 a0 1f 	sra  %g2, 0x1f, %g4
40004810:	ab 38 a0 18 	sra  %g2, 0x18, %l5
40004814:	a8 10 00 04 	mov  %g4, %l4
40004818:	10 bf f9 0f 	b  40002c54 <_vfprintf_r+0x63c>
4000481c:	84 10 00 04 	mov  %g4, %g2
40004820:	c4 27 be dc 	st  %g2, [ %fp + -292 ]
40004824:	aa 10 00 14 	mov  %l4, %l5
40004828:	a2 0c bb ff 	and  %l2, -1025, %l1
4000482c:	a8 10 20 00 	clr  %l4
40004830:	10 bf f9 47 	b  40002d4c <_vfprintf_r+0x734>
40004834:	84 10 20 00 	clr  %g2
40004838:	c4 27 be dc 	st  %g2, [ %fp + -292 ]
4000483c:	aa 10 00 14 	mov  %l4, %l5
40004840:	10 bf fd 45 	b  40003d54 <_vfprintf_r+0x173c>
40004844:	a8 10 20 00 	clr  %l4
40004848:	94 07 bf 4c 	add  %fp, -180, %o2
4000484c:	92 10 00 19 	mov  %i1, %o1
40004850:	40 00 16 5a 	call  4000a1b8 <__sprint_r>
40004854:	90 10 00 18 	mov  %i0, %o0
40004858:	80 a2 20 00 	cmp  %o0, 0
4000485c:	12 bf fa b6 	bne  40003334 <_vfprintf_r+0xd1c>
40004860:	de 07 bf 54 	ld  [ %fp + -172 ], %o7
40004864:	c4 07 bf 50 	ld  [ %fp + -176 ], %g2
40004868:	10 bf ff b3 	b  40004734 <_vfprintf_r+0x211c>
4000486c:	82 07 bf 58 	add  %fp, -168, %g1
40004870:	10 bf fc 7e 	b  40003a68 <_vfprintf_r+0x1450>
40004874:	c0 2f be dc 	clrb  [ %fp + -292 ]
40004878:	b8 10 20 06 	mov  6, %i4
4000487c:	82 14 a1 00 	or  %l2, 0x100, %g1
40004880:	d1 1f be b0 	ldd  [ %fp + -336 ], %f8
40004884:	c2 27 be e8 	st  %g1, [ %fp + -280 ]
40004888:	d1 27 be e0 	st  %f8, [ %fp + -288 ]
4000488c:	c4 07 be e0 	ld  [ %fp + -288 ], %g2
40004890:	80 a0 a0 00 	cmp  %g2, 0
40004894:	26 80 01 c1 	bl,a   40004f98 <_vfprintf_r+0x2980>
40004898:	d1 1f be b0 	ldd  [ %fp + -336 ], %f8
4000489c:	c0 2f be dc 	clrb  [ %fp + -292 ]
400048a0:	80 a4 60 46 	cmp  %l1, 0x46
400048a4:	12 80 00 f3 	bne  40004c70 <_vfprintf_r+0x2658>
400048a8:	84 07 bf 10 	add  %fp, -240, %g2
400048ac:	c4 23 a0 60 	st  %g2, [ %sp + 0x60 ]
400048b0:	84 07 bf 04 	add  %fp, -252, %g2
400048b4:	d1 3f be e0 	std  %f8, [ %fp + -288 ]
400048b8:	d1 3f be d0 	std  %f8, [ %fp + -304 ]
400048bc:	c4 23 a0 5c 	st  %g2, [ %sp + 0x5c ]
400048c0:	9a 07 bf 00 	add  %fp, -256, %o5
400048c4:	98 10 00 1c 	mov  %i4, %o4
400048c8:	96 10 20 03 	mov  3, %o3
400048cc:	d2 07 be e0 	ld  [ %fp + -288 ], %o1
400048d0:	d4 07 be e4 	ld  [ %fp + -284 ], %o2
400048d4:	40 00 04 30 	call  40005994 <_dtoa_r>
400048d8:	90 10 00 18 	mov  %i0, %o0
400048dc:	d1 1f be d0 	ldd  [ %fp + -304 ], %f8
400048e0:	c8 4a 00 00 	ldsb  [ %o0 ], %g4
400048e4:	80 a1 20 30 	cmp  %g4, 0x30
400048e8:	12 80 00 0c 	bne  40004918 <_vfprintf_r+0x2300>
400048ec:	a6 10 00 08 	mov  %o0, %l3
400048f0:	03 10 00 3b 	sethi  %hi(0x4000ec00), %g1
400048f4:	d5 18 61 38 	ldd  [ %g1 + 0x138 ], %f10	! 4000ed38 <_global_impure_ptr+0x64>
400048f8:	81 aa 0a 4a 	fcmpd  %f8, %f10
400048fc:	01 00 00 00 	nop 
40004900:	03 80 00 03 	fbne  4000490c <_vfprintf_r+0x22f4>
40004904:	88 10 20 01 	mov  1, %g4	! 1 <_CONTEXT_I_>
40004908:	88 10 20 00 	clr  %g4
4000490c:	80 89 20 ff 	btst  0xff, %g4
40004910:	32 80 00 41 	bne,a   40004a14 <_vfprintf_r+0x23fc>
40004914:	88 10 20 01 	mov  1, %g4
40004918:	c8 07 bf 00 	ld  [ %fp + -256 ], %g4
4000491c:	88 01 00 1c 	add  %g4, %i4, %g4
40004920:	98 04 c0 04 	add  %l3, %g4, %o4
40004924:	03 10 00 3b 	sethi  %hi(0x4000ec00), %g1
40004928:	d5 18 61 38 	ldd  [ %g1 + 0x138 ], %f10	! 4000ed38 <_global_impure_ptr+0x64>
4000492c:	81 aa 0a 4a 	fcmpd  %f8, %f10
40004930:	01 00 00 00 	nop 
40004934:	13 bf fe 13 	fbe  40004180 <_vfprintf_r+0x1b68>
40004938:	88 10 00 0c 	mov  %o4, %g4
4000493c:	c8 07 bf 10 	ld  [ %fp + -240 ], %g4
40004940:	80 a1 00 0c 	cmp  %g4, %o4
40004944:	1a bf fe 0f 	bcc  40004180 <_vfprintf_r+0x1b68>
40004948:	9a 10 20 30 	mov  0x30, %o5
4000494c:	82 01 20 01 	add  %g4, 1, %g1
40004950:	c2 27 bf 10 	st  %g1, [ %fp + -240 ]
40004954:	da 29 00 00 	stb  %o5, [ %g4 ]
40004958:	c8 07 bf 10 	ld  [ %fp + -240 ], %g4
4000495c:	80 a3 00 04 	cmp  %o4, %g4
40004960:	38 bf ff fc 	bgu,a   40004950 <_vfprintf_r+0x2338>
40004964:	82 01 20 01 	add  %g4, 1, %g1
40004968:	10 bf fe 07 	b  40004184 <_vfprintf_r+0x1b6c>
4000496c:	82 21 00 13 	sub  %g4, %l3, %g1
40004970:	92 07 20 01 	add  %i4, 1, %o1
40004974:	40 00 0c 67 	call  40007b10 <_malloc_r>
40004978:	90 10 00 18 	mov  %i0, %o0
4000497c:	a6 92 20 00 	orcc  %o0, 0, %l3
40004980:	22 80 01 d5 	be,a   400050d4 <_vfprintf_r+0x2abc>
40004984:	c2 16 60 0c 	lduh  [ %i1 + 0xc ], %g1
40004988:	10 bf fc 2f 	b  40003a44 <_vfprintf_r+0x142c>
4000498c:	e6 27 be e8 	st  %l3, [ %fp + -280 ]
40004990:	c2 07 be 9c 	ld  [ %fp + -356 ], %g1
40004994:	d2 07 be 98 	ld  [ %fp + -360 ], %o1
40004998:	94 10 00 01 	mov  %g1, %o2
4000499c:	b8 27 00 01 	sub  %i4, %g1, %i4
400049a0:	40 00 15 40 	call  40009ea0 <strncpy>
400049a4:	90 10 00 1c 	mov  %i4, %o0
400049a8:	c4 4f 60 01 	ldsb  [ %i5 + 1 ], %g2
400049ac:	80 a0 00 02 	cmp  %g0, %g2
400049b0:	90 10 00 14 	mov  %l4, %o0
400049b4:	92 10 00 15 	mov  %l5, %o1
400049b8:	94 10 20 00 	clr  %o2
400049bc:	96 10 20 0a 	mov  0xa, %o3
400049c0:	ba 40 00 1d 	addx  %g0, %i5, %i5
400049c4:	40 00 26 ca 	call  4000e4ec <__udivdi3>
400049c8:	ae 10 20 00 	clr  %l7
400049cc:	a8 10 00 08 	mov  %o0, %l4
400049d0:	10 bf fe 5e 	b  40004348 <_vfprintf_r+0x1d30>
400049d4:	aa 10 00 09 	mov  %o1, %l5
400049d8:	28 bf fe 7e 	bleu,a   400043d0 <_vfprintf_r+0x1db8>
400049dc:	fa 27 be a0 	st  %i5, [ %fp + -352 ]
400049e0:	a8 10 00 08 	mov  %o0, %l4
400049e4:	10 bf fe 59 	b  40004348 <_vfprintf_r+0x1d30>
400049e8:	aa 10 00 09 	mov  %o1, %l5
400049ec:	84 10 00 11 	mov  %l1, %g2
400049f0:	b6 10 00 17 	mov  %l7, %i3
400049f4:	e6 07 be e0 	ld  [ %fp + -288 ], %l3
400049f8:	ae 10 00 12 	mov  %l2, %l7
400049fc:	e8 1f be c8 	ldd  [ %fp + -312 ], %l4
40004a00:	e2 07 be bc 	ld  [ %fp + -324 ], %l1
40004a04:	ba 10 00 01 	mov  %g1, %i5
40004a08:	e4 07 be d0 	ld  [ %fp + -304 ], %l2
40004a0c:	10 bf fe 93 	b  40004458 <_vfprintf_r+0x1e40>
40004a10:	f4 07 be c0 	ld  [ %fp + -320 ], %i2
40004a14:	88 21 00 1c 	sub  %g4, %i4, %g4
40004a18:	10 bf ff c1 	b  4000491c <_vfprintf_r+0x2304>
40004a1c:	c8 27 bf 00 	st  %g4, [ %fp + -256 ]
40004a20:	c2 07 be c8 	ld  [ %fp + -312 ], %g1
40004a24:	80 a0 80 01 	cmp  %g2, %g1
40004a28:	34 80 00 c2 	bg,a   40004d30 <_vfprintf_r+0x2718>
40004a2c:	82 10 00 02 	mov  %g2, %g1
40004a30:	80 8c a0 01 	btst  1, %l2
40004a34:	02 80 00 05 	be  40004a48 <_vfprintf_r+0x2430>
40004a38:	c2 27 be e0 	st  %g1, [ %fp + -288 ]
40004a3c:	c4 07 be b8 	ld  [ %fp + -328 ], %g2
40004a40:	82 00 40 02 	add  %g1, %g2, %g1
40004a44:	c2 27 be e0 	st  %g1, [ %fp + -288 ]
40004a48:	80 8c a4 00 	btst  0x400, %l2
40004a4c:	02 80 00 05 	be  40004a60 <_vfprintf_r+0x2448>
40004a50:	c2 07 be c8 	ld  [ %fp + -312 ], %g1
40004a54:	80 a0 60 00 	cmp  %g1, 0
40004a58:	34 80 00 ff 	bg,a   40004e54 <_vfprintf_r+0x283c>
40004a5c:	ac 10 20 67 	mov  0x67, %l6
40004a60:	c2 07 be e0 	ld  [ %fp + -288 ], %g1
40004a64:	ac 10 20 67 	mov  0x67, %l6
40004a68:	a2 38 00 01 	xnor  %g0, %g1, %l1
40004a6c:	a3 3c 60 1f 	sra  %l1, 0x1f, %l1
40004a70:	a2 08 40 11 	and  %g1, %l1, %l1
40004a74:	e4 07 be e8 	ld  [ %fp + -280 ], %l2
40004a78:	c0 27 be bc 	clr  [ %fp + -324 ]
40004a7c:	c0 27 be e8 	clr  [ %fp + -280 ]
40004a80:	10 bf fe 23 	b  4000430c <_vfprintf_r+0x1cf4>
40004a84:	c0 27 be c0 	clr  [ %fp + -320 ]
40004a88:	80 a4 60 46 	cmp  %l1, 0x46
40004a8c:	12 80 01 90 	bne  400050cc <_vfprintf_r+0x2ab4>
40004a90:	84 10 00 01 	mov  %g1, %g2
40004a94:	82 0c a0 01 	and  %l2, 1, %g1
40004a98:	80 a0 a0 00 	cmp  %g2, 0
40004a9c:	04 80 01 76 	ble  40005074 <_vfprintf_r+0x2a5c>
40004aa0:	82 10 40 1c 	or  %g1, %i4, %g1
40004aa4:	80 a0 60 00 	cmp  %g1, 0
40004aa8:	12 80 01 35 	bne  40004f7c <_vfprintf_r+0x2964>
40004aac:	c2 07 be b8 	ld  [ %fp + -328 ], %g1
40004ab0:	c4 27 be e0 	st  %g2, [ %fp + -288 ]
40004ab4:	ac 10 20 66 	mov  0x66, %l6
40004ab8:	80 8c a4 00 	btst  0x400, %l2
40004abc:	12 80 00 e6 	bne  40004e54 <_vfprintf_r+0x283c>
40004ac0:	c2 07 be e0 	ld  [ %fp + -288 ], %g1
40004ac4:	a2 38 00 01 	xnor  %g0, %g1, %l1
40004ac8:	a3 3c 60 1f 	sra  %l1, 0x1f, %l1
40004acc:	10 bf ff ea 	b  40004a74 <_vfprintf_r+0x245c>
40004ad0:	a2 08 40 11 	and  %g1, %l1, %l1
40004ad4:	ee 27 be dc 	st  %l7, [ %fp + -292 ]
40004ad8:	c8 2f be f7 	stb  %g4, [ %fp + -265 ]
40004adc:	9a 10 20 2d 	mov  0x2d, %o5
40004ae0:	10 bf f7 5b 	b  4000284c <_vfprintf_r+0x234>
40004ae4:	b8 10 20 00 	clr  %i4
40004ae8:	94 07 bf 4c 	add  %fp, -180, %o2
40004aec:	92 10 00 19 	mov  %i1, %o1
40004af0:	40 00 15 b2 	call  4000a1b8 <__sprint_r>
40004af4:	90 10 00 18 	mov  %i0, %o0
40004af8:	80 a2 20 00 	cmp  %o0, 0
40004afc:	12 bf fa 0e 	bne  40003334 <_vfprintf_r+0xd1c>
40004b00:	c8 07 bf 00 	ld  [ %fp + -256 ], %g4
40004b04:	de 07 bf 54 	ld  [ %fp + -172 ], %o7
40004b08:	10 bf fd 40 	b  40004008 <_vfprintf_r+0x19f0>
40004b0c:	ba 07 bf 58 	add  %fp, -168, %i5
40004b10:	94 07 bf 4c 	add  %fp, -180, %o2
40004b14:	92 10 00 19 	mov  %i1, %o1
40004b18:	40 00 15 a8 	call  4000a1b8 <__sprint_r>
40004b1c:	90 10 00 18 	mov  %i0, %o0
40004b20:	80 a2 20 00 	cmp  %o0, 0
40004b24:	12 bf fa 04 	bne  40003334 <_vfprintf_r+0xd1c>
40004b28:	de 07 bf 54 	ld  [ %fp + -172 ], %o7
40004b2c:	c4 07 bf 50 	ld  [ %fp + -176 ], %g2
40004b30:	10 bf fe b3 	b  400045fc <_vfprintf_r+0x1fe4>
40004b34:	82 07 bf 58 	add  %fp, -168, %g1
40004b38:	94 07 bf 4c 	add  %fp, -180, %o2
40004b3c:	92 10 00 19 	mov  %i1, %o1
40004b40:	40 00 15 9e 	call  4000a1b8 <__sprint_r>
40004b44:	90 10 00 18 	mov  %i0, %o0
40004b48:	80 a2 20 00 	cmp  %o0, 0
40004b4c:	12 bf f9 fa 	bne  40003334 <_vfprintf_r+0xd1c>
40004b50:	de 07 bf 54 	ld  [ %fp + -172 ], %o7
40004b54:	c4 07 bf 50 	ld  [ %fp + -176 ], %g2
40004b58:	10 bf fe b6 	b  40004630 <_vfprintf_r+0x2018>
40004b5c:	82 07 bf 58 	add  %fp, -168, %g1
40004b60:	94 07 bf 4c 	add  %fp, -180, %o2
40004b64:	92 10 00 19 	mov  %i1, %o1
40004b68:	40 00 15 94 	call  4000a1b8 <__sprint_r>
40004b6c:	90 10 00 18 	mov  %i0, %o0
40004b70:	80 a2 20 00 	cmp  %o0, 0
40004b74:	12 bf f9 f0 	bne  40003334 <_vfprintf_r+0xd1c>
40004b78:	de 07 bf 54 	ld  [ %fp + -172 ], %o7
40004b7c:	c4 07 bf 50 	ld  [ %fp + -176 ], %g2
40004b80:	10 bf fe b9 	b  40004664 <_vfprintf_r+0x204c>
40004b84:	82 07 bf 58 	add  %fp, -168, %g1
40004b88:	80 8c a0 01 	btst  1, %l2
40004b8c:	02 bf f7 74 	be  4000295c <_vfprintf_r+0x344>
40004b90:	80 8c a0 04 	btst  4, %l2
40004b94:	c4 07 be b8 	ld  [ %fp + -328 ], %g2
40004b98:	c2 07 bf 50 	ld  [ %fp + -176 ], %g1
40004b9c:	9e 00 80 0f 	add  %g2, %o7, %o7
40004ba0:	82 00 60 01 	inc  %g1
40004ba4:	c6 07 be ac 	ld  [ %fp + -340 ], %g3
40004ba8:	c4 27 60 04 	st  %g2, [ %i5 + 4 ]
40004bac:	c6 27 40 00 	st  %g3, [ %i5 ]
40004bb0:	de 27 bf 54 	st  %o7, [ %fp + -172 ]
40004bb4:	80 a0 60 07 	cmp  %g1, 7
40004bb8:	04 80 00 2c 	ble  40004c68 <_vfprintf_r+0x2650>
40004bbc:	c2 27 bf 50 	st  %g1, [ %fp + -176 ]
40004bc0:	94 07 bf 4c 	add  %fp, -180, %o2
40004bc4:	92 10 00 19 	mov  %i1, %o1
40004bc8:	40 00 15 7c 	call  4000a1b8 <__sprint_r>
40004bcc:	90 10 00 18 	mov  %i0, %o0
40004bd0:	80 a2 20 00 	cmp  %o0, 0
40004bd4:	12 bf f9 d8 	bne  40003334 <_vfprintf_r+0xd1c>
40004bd8:	c8 07 bf 00 	ld  [ %fp + -256 ], %g4
40004bdc:	de 07 bf 54 	ld  [ %fp + -172 ], %o7
40004be0:	c2 07 bf 50 	ld  [ %fp + -176 ], %g1
40004be4:	10 bf fd 18 	b  40004044 <_vfprintf_r+0x1a2c>
40004be8:	ba 07 bf 58 	add  %fp, -168, %i5
40004bec:	94 07 bf 4c 	add  %fp, -180, %o2
40004bf0:	92 10 00 19 	mov  %i1, %o1
40004bf4:	40 00 15 71 	call  4000a1b8 <__sprint_r>
40004bf8:	90 10 00 18 	mov  %i0, %o0
40004bfc:	80 a2 20 00 	cmp  %o0, 0
40004c00:	12 bf f9 cd 	bne  40003334 <_vfprintf_r+0xd1c>
40004c04:	f8 07 bf 00 	ld  [ %fp + -256 ], %i4
40004c08:	de 07 bf 54 	ld  [ %fp + -172 ], %o7
40004c0c:	10 bf fa b0 	b  400036cc <_vfprintf_r+0x10b4>
40004c10:	ba 07 bf 58 	add  %fp, -168, %i5
40004c14:	94 07 bf 4c 	add  %fp, -180, %o2
40004c18:	92 10 00 19 	mov  %i1, %o1
40004c1c:	40 00 15 67 	call  4000a1b8 <__sprint_r>
40004c20:	90 10 00 18 	mov  %i0, %o0
40004c24:	80 a2 20 00 	cmp  %o0, 0
40004c28:	12 bf f9 c3 	bne  40003334 <_vfprintf_r+0xd1c>
40004c2c:	de 07 bf 54 	ld  [ %fp + -172 ], %o7
40004c30:	c4 07 bf 50 	ld  [ %fp + -176 ], %g2
40004c34:	10 bf fe 99 	b  40004698 <_vfprintf_r+0x2080>
40004c38:	82 07 bf 58 	add  %fp, -168, %g1
40004c3c:	94 07 bf 4c 	add  %fp, -180, %o2
40004c40:	92 10 00 19 	mov  %i1, %o1
40004c44:	40 00 15 5d 	call  4000a1b8 <__sprint_r>
40004c48:	90 10 00 18 	mov  %i0, %o0
40004c4c:	80 a2 20 00 	cmp  %o0, 0
40004c50:	12 bf f9 b9 	bne  40003334 <_vfprintf_r+0xd1c>
40004c54:	de 07 bf 54 	ld  [ %fp + -172 ], %o7
40004c58:	c4 0d 00 00 	ldub  [ %l4 ], %g2
40004c5c:	82 07 bf 58 	add  %fp, -168, %g1
40004c60:	10 bf fe 40 	b  40004560 <_vfprintf_r+0x1f48>
40004c64:	85 28 a0 18 	sll  %g2, 0x18, %g2
40004c68:	10 bf fc fa 	b  40004050 <_vfprintf_r+0x1a38>
40004c6c:	ba 07 60 08 	add  %i5, 8, %i5
40004c70:	80 a4 60 45 	cmp  %l1, 0x45
40004c74:	12 80 01 10 	bne  400050b4 <_vfprintf_r+0x2a9c>
40004c78:	9a 07 bf 00 	add  %fp, -256, %o5
40004c7c:	c4 23 a0 60 	st  %g2, [ %sp + 0x60 ]
40004c80:	84 07 bf 04 	add  %fp, -252, %g2
40004c84:	d1 3f be e0 	std  %f8, [ %fp + -288 ]
40004c88:	98 07 20 01 	add  %i4, 1, %o4
40004c8c:	d1 3f be d0 	std  %f8, [ %fp + -304 ]
40004c90:	d8 27 be c8 	st  %o4, [ %fp + -312 ]
40004c94:	c4 23 a0 5c 	st  %g2, [ %sp + 0x5c ]
40004c98:	96 10 20 02 	mov  2, %o3
40004c9c:	d2 07 be e0 	ld  [ %fp + -288 ], %o1
40004ca0:	d4 07 be e4 	ld  [ %fp + -284 ], %o2
40004ca4:	40 00 03 3c 	call  40005994 <_dtoa_r>
40004ca8:	90 10 00 18 	mov  %i0, %o0
40004cac:	d1 1f be d0 	ldd  [ %fp + -304 ], %f8
40004cb0:	a6 10 00 08 	mov  %o0, %l3
40004cb4:	d8 07 be c8 	ld  [ %fp + -312 ], %o4
40004cb8:	10 bf ff 1b 	b  40004924 <_vfprintf_r+0x230c>
40004cbc:	98 04 c0 0c 	add  %l3, %o4, %o4
40004cc0:	94 07 bf 4c 	add  %fp, -180, %o2
40004cc4:	92 10 00 19 	mov  %i1, %o1
40004cc8:	40 00 15 3c 	call  4000a1b8 <__sprint_r>
40004ccc:	90 10 00 18 	mov  %i0, %o0
40004cd0:	80 a2 20 00 	cmp  %o0, 0
40004cd4:	12 bf f9 98 	bne  40003334 <_vfprintf_r+0xd1c>
40004cd8:	de 07 bf 54 	ld  [ %fp + -172 ], %o7
40004cdc:	c4 07 bf 50 	ld  [ %fp + -176 ], %g2
40004ce0:	10 bf fe 7b 	b  400046cc <_vfprintf_r+0x20b4>
40004ce4:	82 07 bf 58 	add  %fp, -168, %g1
40004ce8:	a2 10 00 1c 	mov  %i4, %l1
40004cec:	f8 27 be e0 	st  %i4, [ %fp + -288 ]
40004cf0:	da 0f be f7 	ldub  [ %fp + -265 ], %o5
40004cf4:	b8 10 20 00 	clr  %i4
40004cf8:	c0 27 be bc 	clr  [ %fp + -324 ]
40004cfc:	c0 27 be c0 	clr  [ %fp + -320 ]
40004d00:	10 bf f6 d3 	b  4000284c <_vfprintf_r+0x234>
40004d04:	c0 27 be c8 	clr  [ %fp + -312 ]
40004d08:	94 07 bf 4c 	add  %fp, -180, %o2
40004d0c:	92 10 00 19 	mov  %i1, %o1
40004d10:	40 00 15 2a 	call  4000a1b8 <__sprint_r>
40004d14:	90 10 00 18 	mov  %i0, %o0
40004d18:	80 a2 20 00 	cmp  %o0, 0
40004d1c:	12 bf f9 86 	bne  40003334 <_vfprintf_r+0xd1c>
40004d20:	de 07 bf 54 	ld  [ %fp + -172 ], %o7
40004d24:	c4 07 bf 50 	ld  [ %fp + -176 ], %g2
40004d28:	10 bf fe 76 	b  40004700 <_vfprintf_r+0x20e8>
40004d2c:	82 07 bf 58 	add  %fp, -168, %g1
40004d30:	c4 07 be b8 	ld  [ %fp + -328 ], %g2
40004d34:	82 00 40 02 	add  %g1, %g2, %g1
40004d38:	c2 27 be e0 	st  %g1, [ %fp + -288 ]
40004d3c:	c4 07 be c8 	ld  [ %fp + -312 ], %g2
40004d40:	80 a0 a0 00 	cmp  %g2, 0
40004d44:	14 bf ff 5d 	bg  40004ab8 <_vfprintf_r+0x24a0>
40004d48:	ac 10 20 67 	mov  0x67, %l6
40004d4c:	a4 20 40 02 	sub  %g1, %g2, %l2
40004d50:	82 04 a0 01 	add  %l2, 1, %g1
40004d54:	a2 38 00 01 	xnor  %g0, %g1, %l1
40004d58:	c2 27 be e0 	st  %g1, [ %fp + -288 ]
40004d5c:	a3 3c 60 1f 	sra  %l1, 0x1f, %l1
40004d60:	10 bf ff 45 	b  40004a74 <_vfprintf_r+0x245c>
40004d64:	a2 08 40 11 	and  %g1, %l1, %l1
40004d68:	94 07 bf 4c 	add  %fp, -180, %o2
40004d6c:	92 10 00 19 	mov  %i1, %o1
40004d70:	40 00 15 12 	call  4000a1b8 <__sprint_r>
40004d74:	90 10 00 18 	mov  %i0, %o0
40004d78:	80 a2 20 00 	cmp  %o0, 0
40004d7c:	12 bf f9 6e 	bne  40003334 <_vfprintf_r+0xd1c>
40004d80:	c8 07 bf 00 	ld  [ %fp + -256 ], %g4
40004d84:	c2 07 be c4 	ld  [ %fp + -316 ], %g1
40004d88:	de 07 bf 54 	ld  [ %fp + -172 ], %o7
40004d8c:	88 20 40 04 	sub  %g1, %g4, %g4
40004d90:	10 bf fa 63 	b  4000371c <_vfprintf_r+0x1104>
40004d94:	ba 07 bf 58 	add  %fp, -168, %i5
40004d98:	16 80 00 1d 	bge  40004e0c <_vfprintf_r+0x27f4>
40004d9c:	b8 20 00 04 	neg  %g4, %i4
40004da0:	10 80 00 06 	b  40004db8 <_vfprintf_r+0x27a0>
40004da4:	ac 10 20 10 	mov  0x10, %l6
40004da8:	b8 07 3f f0 	add  %i4, -16, %i4
40004dac:	80 a7 20 10 	cmp  %i4, 0x10
40004db0:	24 80 00 18 	ble,a   40004e10 <_vfprintf_r+0x27f8>
40004db4:	82 00 60 01 	inc  %g1
40004db8:	82 00 60 01 	inc  %g1
40004dbc:	9e 03 e0 10 	add  %o7, 0x10, %o7
40004dc0:	e0 27 40 00 	st  %l0, [ %i5 ]
40004dc4:	ec 27 60 04 	st  %l6, [ %i5 + 4 ]
40004dc8:	de 27 bf 54 	st  %o7, [ %fp + -172 ]
40004dcc:	c2 27 bf 50 	st  %g1, [ %fp + -176 ]
40004dd0:	80 a0 60 07 	cmp  %g1, 7
40004dd4:	04 bf ff f5 	ble  40004da8 <_vfprintf_r+0x2790>
40004dd8:	ba 07 60 08 	add  %i5, 8, %i5
40004ddc:	94 07 bf 4c 	add  %fp, -180, %o2
40004de0:	92 10 00 19 	mov  %i1, %o1
40004de4:	40 00 14 f5 	call  4000a1b8 <__sprint_r>
40004de8:	90 10 00 18 	mov  %i0, %o0
40004dec:	80 a2 20 00 	cmp  %o0, 0
40004df0:	12 bf f9 51 	bne  40003334 <_vfprintf_r+0xd1c>
40004df4:	de 07 bf 54 	ld  [ %fp + -172 ], %o7
40004df8:	c2 07 bf 50 	ld  [ %fp + -176 ], %g1
40004dfc:	10 bf ff eb 	b  40004da8 <_vfprintf_r+0x2790>
40004e00:	ba 07 bf 58 	add  %fp, -168, %i5
40004e04:	10 bf f9 56 	b  4000335c <_vfprintf_r+0xd44>
40004e08:	c2 27 be ec 	st  %g1, [ %fp + -276 ]
40004e0c:	82 00 60 01 	inc  %g1
40004e10:	9e 03 c0 1c 	add  %o7, %i4, %o7
40004e14:	e0 27 40 00 	st  %l0, [ %i5 ]
40004e18:	f8 27 60 04 	st  %i4, [ %i5 + 4 ]
40004e1c:	de 27 bf 54 	st  %o7, [ %fp + -172 ]
40004e20:	80 a0 60 07 	cmp  %g1, 7
40004e24:	04 bf ff 91 	ble  40004c68 <_vfprintf_r+0x2650>
40004e28:	c2 27 bf 50 	st  %g1, [ %fp + -176 ]
40004e2c:	94 07 bf 4c 	add  %fp, -180, %o2
40004e30:	92 10 00 19 	mov  %i1, %o1
40004e34:	40 00 14 e1 	call  4000a1b8 <__sprint_r>
40004e38:	90 10 00 18 	mov  %i0, %o0
40004e3c:	80 a2 20 00 	cmp  %o0, 0
40004e40:	12 bf f9 3d 	bne  40003334 <_vfprintf_r+0xd1c>
40004e44:	de 07 bf 54 	ld  [ %fp + -172 ], %o7
40004e48:	c2 07 bf 50 	ld  [ %fp + -176 ], %g1
40004e4c:	10 bf fc 81 	b  40004050 <_vfprintf_r+0x1a38>
40004e50:	ba 07 bf 58 	add  %fp, -168, %i5
40004e54:	c0 27 be bc 	clr  [ %fp + -324 ]
40004e58:	c0 27 be c0 	clr  [ %fp + -320 ]
40004e5c:	c2 07 be a0 	ld  [ %fp + -352 ], %g1
40004e60:	c6 08 40 00 	ldub  [ %g1 ], %g3
40004e64:	87 28 e0 18 	sll  %g3, 0x18, %g3
40004e68:	89 38 e0 18 	sra  %g3, 0x18, %g4
40004e6c:	80 a1 20 7f 	cmp  %g4, 0x7f
40004e70:	02 80 00 16 	be  40004ec8 <_vfprintf_r+0x28b0>
40004e74:	88 10 00 01 	mov  %g1, %g4
40004e78:	c4 07 be c8 	ld  [ %fp + -312 ], %g2
40004e7c:	83 38 e0 18 	sra  %g3, 0x18, %g1
40004e80:	80 a0 40 02 	cmp  %g1, %g2
40004e84:	36 80 00 10 	bge,a   40004ec4 <_vfprintf_r+0x28ac>
40004e88:	c8 27 be a0 	st  %g4, [ %fp + -352 ]
40004e8c:	c6 09 20 01 	ldub  [ %g4 + 1 ], %g3
40004e90:	84 20 80 01 	sub  %g2, %g1, %g2
40004e94:	87 28 e0 18 	sll  %g3, 0x18, %g3
40004e98:	83 38 e0 18 	sra  %g3, 0x18, %g1
40004e9c:	80 a0 60 00 	cmp  %g1, 0
40004ea0:	22 80 00 18 	be,a   40004f00 <_vfprintf_r+0x28e8>
40004ea4:	c2 07 be bc 	ld  [ %fp + -324 ], %g1
40004ea8:	f8 07 be c0 	ld  [ %fp + -320 ], %i4
40004eac:	b8 07 20 01 	inc  %i4
40004eb0:	f8 27 be c0 	st  %i4, [ %fp + -320 ]
40004eb4:	80 a0 60 7f 	cmp  %g1, 0x7f
40004eb8:	12 bf ff f2 	bne  40004e80 <_vfprintf_r+0x2868>
40004ebc:	88 01 20 01 	inc  %g4
40004ec0:	c8 27 be a0 	st  %g4, [ %fp + -352 ]
40004ec4:	c4 27 be c8 	st  %g2, [ %fp + -312 ]
40004ec8:	c2 07 be c0 	ld  [ %fp + -320 ], %g1
40004ecc:	c4 07 be bc 	ld  [ %fp + -324 ], %g2
40004ed0:	d2 07 be 9c 	ld  [ %fp + -356 ], %o1
40004ed4:	40 00 23 f4 	call  4000dea4 <.umul>
40004ed8:	90 00 40 02 	add  %g1, %g2, %o0
40004edc:	c2 07 be e0 	ld  [ %fp + -288 ], %g1
40004ee0:	e4 07 be e8 	ld  [ %fp + -280 ], %l2
40004ee4:	82 02 00 01 	add  %o0, %g1, %g1
40004ee8:	c0 27 be e8 	clr  [ %fp + -280 ]
40004eec:	a2 38 00 01 	xnor  %g0, %g1, %l1
40004ef0:	c2 27 be e0 	st  %g1, [ %fp + -288 ]
40004ef4:	a3 3c 60 1f 	sra  %l1, 0x1f, %l1
40004ef8:	10 bf fd 05 	b  4000430c <_vfprintf_r+0x1cf4>
40004efc:	a2 08 40 11 	and  %g1, %l1, %l1
40004f00:	82 00 60 01 	inc  %g1
40004f04:	c2 27 be bc 	st  %g1, [ %fp + -324 ]
40004f08:	c6 09 00 00 	ldub  [ %g4 ], %g3
40004f0c:	87 28 e0 18 	sll  %g3, 0x18, %g3
40004f10:	83 38 e0 18 	sra  %g3, 0x18, %g1
40004f14:	80 a0 60 7f 	cmp  %g1, 0x7f
40004f18:	12 bf ff db 	bne  40004e84 <_vfprintf_r+0x286c>
40004f1c:	80 a0 40 02 	cmp  %g1, %g2
40004f20:	10 bf ff e9 	b  40004ec4 <_vfprintf_r+0x28ac>
40004f24:	c8 27 be a0 	st  %g4, [ %fp + -352 ]
40004f28:	80 a5 a0 47 	cmp  %l6, 0x47
40004f2c:	04 80 00 4e 	ble  40005064 <_vfprintf_r+0x2a4c>
40004f30:	05 10 00 3b 	sethi  %hi(0x4000ec00), %g2
40004f34:	05 10 00 3b 	sethi  %hi(0x4000ec00), %g2
40004f38:	a4 0c bf 7f 	and  %l2, -129, %l2
40004f3c:	a6 10 a0 f0 	or  %g2, 0xf0, %l3
40004f40:	10 bf f6 cd 	b  40002a74 <_vfprintf_r+0x45c>
40004f44:	da 0f be f7 	ldub  [ %fp + -265 ], %o5
40004f48:	80 a4 60 41 	cmp  %l1, 0x41
40004f4c:	02 80 00 05 	be  40004f60 <_vfprintf_r+0x2948>
40004f50:	88 07 bf 0a 	add  %fp, -246, %g4
40004f54:	9e 10 20 30 	mov  0x30, %o7
40004f58:	88 07 bf 0b 	add  %fp, -245, %g4
40004f5c:	de 2f bf 0a 	stb  %o7, [ %fp + -246 ]
40004f60:	b8 07 20 30 	add  %i4, 0x30, %i4
40004f64:	9e 21 00 1e 	sub  %g4, %fp, %o7
40004f68:	f8 29 00 00 	stb  %i4, [ %g4 ]
40004f6c:	82 03 e0 f9 	add  %o7, 0xf9, %g1
40004f70:	c2 27 be a4 	st  %g1, [ %fp + -348 ]
40004f74:	10 bf fc d4 	b  400042c4 <_vfprintf_r+0x1cac>
40004f78:	84 10 00 01 	mov  %g1, %g2
40004f7c:	ac 10 20 66 	mov  0x66, %l6
40004f80:	82 00 80 01 	add  %g2, %g1, %g1
40004f84:	82 00 40 1c 	add  %g1, %i4, %g1
40004f88:	10 bf fe cc 	b  40004ab8 <_vfprintf_r+0x24a0>
40004f8c:	c2 27 be e0 	st  %g1, [ %fp + -288 ]
40004f90:	b8 10 20 01 	mov  1, %i4
40004f94:	d1 1f be b0 	ldd  [ %fp + -336 ], %f8
40004f98:	82 10 20 2d 	mov  0x2d, %g1
40004f9c:	91 a0 00 a8 	fnegs  %f8, %f8
40004fa0:	10 bf fe 40 	b  400048a0 <_vfprintf_r+0x2288>
40004fa4:	c2 2f be dc 	stb  %g1, [ %fp + -292 ]
40004fa8:	d6 27 bf 10 	st  %o3, [ %fp + -240 ]
40004fac:	f8 09 3f ff 	ldub  [ %g4 + -1 ], %i4
40004fb0:	9f 2f 20 18 	sll  %i4, 0x18, %o7
40004fb4:	95 3b e0 18 	sra  %o7, 0x18, %o2
40004fb8:	80 a2 80 0c 	cmp  %o2, %o4
40004fbc:	12 80 00 0d 	bne  40004ff0 <_vfprintf_r+0x29d8>
40004fc0:	98 10 00 04 	mov  %g4, %o4
40004fc4:	92 10 20 30 	mov  0x30, %o1
40004fc8:	d2 2b 3f ff 	stb  %o1, [ %o4 + -1 ]
40004fcc:	d8 07 bf 10 	ld  [ %fp + -240 ], %o4
40004fd0:	82 03 3f ff 	add  %o4, -1, %g1
40004fd4:	c2 27 bf 10 	st  %g1, [ %fp + -240 ]
40004fd8:	f8 0b 3f ff 	ldub  [ %o4 + -1 ], %i4
40004fdc:	9f 2f 20 18 	sll  %i4, 0x18, %o7
40004fe0:	83 3b e0 18 	sra  %o7, 0x18, %g1
40004fe4:	80 a2 80 01 	cmp  %o2, %g1
40004fe8:	22 bf ff f9 	be,a   40004fcc <_vfprintf_r+0x29b4>
40004fec:	d2 2b 3f ff 	stb  %o1, [ %o4 + -1 ]
40004ff0:	9f 3b e0 18 	sra  %o7, 0x18, %o7
40004ff4:	80 a3 e0 39 	cmp  %o7, 0x39
40004ff8:	02 80 00 04 	be  40005008 <_vfprintf_r+0x29f0>
40004ffc:	b8 07 20 01 	inc  %i4
40005000:	10 bf fb 0c 	b  40003c30 <_vfprintf_r+0x1618>
40005004:	f8 2b 3f ff 	stb  %i4, [ %o4 + -1 ]
40005008:	f8 0b 60 0a 	ldub  [ %o5 + 0xa ], %i4
4000500c:	10 bf fb 09 	b  40003c30 <_vfprintf_r+0x1618>
40005010:	f8 2b 3f ff 	stb  %i4, [ %o4 + -1 ]
40005014:	80 8c a0 01 	btst  1, %l2
40005018:	02 bf fc b5 	be  400042ec <_vfprintf_r+0x1cd4>
4000501c:	c2 07 be e0 	ld  [ %fp + -288 ], %g1
40005020:	10 bf fc b0 	b  400042e0 <_vfprintf_r+0x1cc8>
40005024:	c4 07 be b8 	ld  [ %fp + -328 ], %g2
40005028:	10 bf fd c4 	b  40004738 <_vfprintf_r+0x2120>
4000502c:	98 10 00 13 	mov  %l3, %o4
40005030:	10 bf fa a1 	b  40003ab4 <_vfprintf_r+0x149c>
40005034:	9a 13 60 f8 	or  %o5, 0xf8, %o5
40005038:	c2 07 be dc 	ld  [ %fp + -292 ], %g1
4000503c:	f8 00 40 00 	ld  [ %g1 ], %i4
40005040:	82 00 60 04 	add  %g1, 4, %g1
40005044:	80 a7 20 00 	cmp  %i4, 0
40005048:	16 80 00 03 	bge  40005054 <_vfprintf_r+0x2a3c>
4000504c:	c2 27 be dc 	st  %g1, [ %fp + -292 ]
40005050:	b8 10 3f ff 	mov  -1, %i4
40005054:	c4 0e a0 01 	ldub  [ %i2 + 1 ], %g2
40005058:	b4 10 00 03 	mov  %g3, %i2
4000505c:	10 bf f5 e3 	b  400027e8 <_vfprintf_r+0x1d0>
40005060:	83 28 a0 18 	sll  %g2, 0x18, %g1
40005064:	a4 0c bf 7f 	and  %l2, -129, %l2
40005068:	a6 10 a0 e8 	or  %g2, 0xe8, %l3
4000506c:	10 bf f6 82 	b  40002a74 <_vfprintf_r+0x45c>
40005070:	da 0f be f7 	ldub  [ %fp + -265 ], %o5
40005074:	80 a0 60 00 	cmp  %g1, 0
40005078:	12 80 00 07 	bne  40005094 <_vfprintf_r+0x2a7c>
4000507c:	c2 07 be b8 	ld  [ %fp + -328 ], %g1
40005080:	82 10 20 01 	mov  1, %g1
40005084:	a2 10 20 01 	mov  1, %l1
40005088:	ac 10 20 66 	mov  0x66, %l6
4000508c:	10 bf fe 7a 	b  40004a74 <_vfprintf_r+0x245c>
40005090:	c2 27 be e0 	st  %g1, [ %fp + -288 ]
40005094:	ac 10 20 66 	mov  0x66, %l6
40005098:	a4 00 60 01 	add  %g1, 1, %l2
4000509c:	82 04 80 1c 	add  %l2, %i4, %g1
400050a0:	a2 38 00 01 	xnor  %g0, %g1, %l1
400050a4:	c2 27 be e0 	st  %g1, [ %fp + -288 ]
400050a8:	a3 3c 60 1f 	sra  %l1, 0x1f, %l1
400050ac:	10 bf fe 72 	b  40004a74 <_vfprintf_r+0x245c>
400050b0:	a2 08 40 11 	and  %g1, %l1, %l1
400050b4:	10 bf fc 1d 	b  40004128 <_vfprintf_r+0x1b10>
400050b8:	98 10 00 1c 	mov  %i4, %o4
400050bc:	82 10 20 02 	mov  2, %g1
400050c0:	c2 27 be a4 	st  %g1, [ %fp + -348 ]
400050c4:	10 bf fc 80 	b  400042c4 <_vfprintf_r+0x1cac>
400050c8:	84 10 00 01 	mov  %g1, %g2
400050cc:	10 bf fc 44 	b  400041dc <_vfprintf_r+0x1bc4>
400050d0:	c0 27 be e8 	clr  [ %fp + -280 ]
400050d4:	84 10 60 40 	or  %g1, 0x40, %g2
400050d8:	82 10 00 02 	mov  %g2, %g1
400050dc:	10 bf f8 9d 	b  40003350 <_vfprintf_r+0xd38>
400050e0:	c4 36 60 0c 	sth  %g2, [ %i1 + 0xc ]
400050e4:	10 bf fa c2 	b  40003bec <_vfprintf_r+0x15d4>
400050e8:	b8 10 00 04 	mov  %g4, %i4

400050ec <vfprintf>:
400050ec:	96 10 00 0a 	mov  %o2, %o3
400050f0:	03 10 00 3c 	sethi  %hi(0x4000f000), %g1
400050f4:	94 10 00 09 	mov  %o1, %o2
400050f8:	92 10 00 08 	mov  %o0, %o1
400050fc:	d0 00 63 5c 	ld  [ %g1 + 0x35c ], %o0
40005100:	82 13 c0 00 	mov  %o7, %g1
40005104:	7f ff f5 45 	call  40002618 <_vfprintf_r>
40005108:	9e 10 40 00 	mov  %g1, %o7

4000510c <__sbprintf>:
4000510c:	9d e3 bb 38 	save  %sp, -1224, %sp
40005110:	84 10 24 00 	mov  0x400, %g2
40005114:	86 07 bc 00 	add  %fp, -1024, %g3
40005118:	fa 06 60 20 	ld  [ %i1 + 0x20 ], %i5
4000511c:	c2 16 60 0c 	lduh  [ %i1 + 0xc ], %g1
40005120:	de 06 60 60 	ld  [ %i1 + 0x60 ], %o7
40005124:	82 08 7f fd 	and  %g1, -3, %g1
40005128:	c8 06 60 28 	ld  [ %i1 + 0x28 ], %g4
4000512c:	f8 16 60 0e 	lduh  [ %i1 + 0xe ], %i4
40005130:	fa 27 bb bc 	st  %i5, [ %fp + -1092 ]
40005134:	c2 37 bb a8 	sth  %g1, [ %fp + -1112 ]
40005138:	de 27 bb fc 	st  %o7, [ %fp + -1028 ]
4000513c:	f8 37 bb aa 	sth  %i4, [ %fp + -1110 ]
40005140:	c8 27 bb c4 	st  %g4, [ %fp + -1084 ]
40005144:	c6 27 bb 9c 	st  %g3, [ %fp + -1124 ]
40005148:	c6 27 bb ac 	st  %g3, [ %fp + -1108 ]
4000514c:	c4 27 bb a4 	st  %g2, [ %fp + -1116 ]
40005150:	c4 27 bb b0 	st  %g2, [ %fp + -1104 ]
40005154:	c0 27 bb b4 	clr  [ %fp + -1100 ]
40005158:	96 10 00 1b 	mov  %i3, %o3
4000515c:	94 10 00 1a 	mov  %i2, %o2
40005160:	92 07 bb 9c 	add  %fp, -1124, %o1
40005164:	7f ff f5 2d 	call  40002618 <_vfprintf_r>
40005168:	90 10 00 18 	mov  %i0, %o0
4000516c:	ba 92 20 00 	orcc  %o0, 0, %i5
40005170:	16 80 00 0b 	bge  4000519c <__sbprintf+0x90>
40005174:	92 07 bb 9c 	add  %fp, -1124, %o1
40005178:	c2 17 bb a8 	lduh  [ %fp + -1112 ], %g1
4000517c:	80 88 60 40 	btst  0x40, %g1
40005180:	02 80 00 05 	be  40005194 <__sbprintf+0x88>
40005184:	01 00 00 00 	nop 
40005188:	c2 16 60 0c 	lduh  [ %i1 + 0xc ], %g1
4000518c:	82 10 60 40 	or  %g1, 0x40, %g1
40005190:	c2 36 60 0c 	sth  %g1, [ %i1 + 0xc ]
40005194:	81 c7 e0 08 	ret 
40005198:	91 e8 00 1d 	restore  %g0, %i5, %o0
4000519c:	40 00 07 58 	call  40006efc <_fflush_r>
400051a0:	90 10 00 18 	mov  %i0, %o0
400051a4:	80 a2 20 00 	cmp  %o0, 0
400051a8:	32 bf ff f4 	bne,a   40005178 <__sbprintf+0x6c>
400051ac:	ba 10 3f ff 	mov  -1, %i5
400051b0:	10 bf ff f3 	b  4000517c <__sbprintf+0x70>
400051b4:	c2 17 bb a8 	lduh  [ %fp + -1112 ], %g1

400051b8 <__swsetup_r>:
400051b8:	9d e3 bf a0 	save  %sp, -96, %sp
400051bc:	03 10 00 3c 	sethi  %hi(0x4000f000), %g1
400051c0:	fa 00 63 5c 	ld  [ %g1 + 0x35c ], %i5	! 4000f35c <_impure_ptr>
400051c4:	80 a7 60 00 	cmp  %i5, 0
400051c8:	02 80 00 06 	be  400051e0 <__swsetup_r+0x28>
400051cc:	03 10 00 3b 	sethi  %hi(0x4000ec00), %g1
400051d0:	c2 07 60 18 	ld  [ %i5 + 0x18 ], %g1
400051d4:	80 a0 60 00 	cmp  %g1, 0
400051d8:	02 80 00 29 	be  4000527c <__swsetup_r+0xc4>
400051dc:	03 10 00 3b 	sethi  %hi(0x4000ec00), %g1
400051e0:	82 10 62 20 	or  %g1, 0x220, %g1	! 4000ee20 <__sf_fake_stdin>
400051e4:	80 a6 40 01 	cmp  %i1, %g1
400051e8:	22 80 00 2d 	be,a   4000529c <__swsetup_r+0xe4>
400051ec:	f2 07 60 04 	ld  [ %i5 + 4 ], %i1
400051f0:	03 10 00 3b 	sethi  %hi(0x4000ec00), %g1
400051f4:	82 10 62 00 	or  %g1, 0x200, %g1	! 4000ee00 <__sf_fake_stdout>
400051f8:	80 a6 40 01 	cmp  %i1, %g1
400051fc:	02 80 00 4a 	be  40005324 <__swsetup_r+0x16c>
40005200:	03 10 00 3b 	sethi  %hi(0x4000ec00), %g1
40005204:	82 10 61 e0 	or  %g1, 0x1e0, %g1	! 4000ede0 <__sf_fake_stderr>
40005208:	80 a6 40 01 	cmp  %i1, %g1
4000520c:	22 80 00 02 	be,a   40005214 <__swsetup_r+0x5c>
40005210:	f2 07 60 0c 	ld  [ %i5 + 0xc ], %i1
40005214:	c2 16 60 0c 	lduh  [ %i1 + 0xc ], %g1
40005218:	80 88 60 08 	btst  8, %g1
4000521c:	02 80 00 24 	be  400052ac <__swsetup_r+0xf4>
40005220:	84 10 00 01 	mov  %g1, %g2
40005224:	c6 06 60 10 	ld  [ %i1 + 0x10 ], %g3
40005228:	80 a0 e0 00 	cmp  %g3, 0
4000522c:	02 80 00 2d 	be  400052e0 <__swsetup_r+0x128>
40005230:	88 08 a2 80 	and  %g2, 0x280, %g4
40005234:	80 88 a0 01 	btst  1, %g2
40005238:	02 80 00 36 	be  40005310 <__swsetup_r+0x158>
4000523c:	80 88 a0 02 	btst  2, %g2
40005240:	c8 06 60 14 	ld  [ %i1 + 0x14 ], %g4
40005244:	c0 26 60 08 	clr  [ %i1 + 8 ]
40005248:	88 20 00 04 	neg  %g4
4000524c:	c8 26 60 18 	st  %g4, [ %i1 + 0x18 ]
40005250:	80 a0 e0 00 	cmp  %g3, 0
40005254:	02 80 00 04 	be  40005264 <__swsetup_r+0xac>
40005258:	b0 10 20 00 	clr  %i0
4000525c:	81 c7 e0 08 	ret 
40005260:	81 e8 00 00 	restore 
40005264:	80 88 a0 80 	btst  0x80, %g2
40005268:	02 bf ff fd 	be  4000525c <__swsetup_r+0xa4>
4000526c:	82 10 60 40 	or  %g1, 0x40, %g1
40005270:	c2 36 60 0c 	sth  %g1, [ %i1 + 0xc ]
40005274:	81 c7 e0 08 	ret 
40005278:	91 e8 3f ff 	restore  %g0, -1, %o0
4000527c:	40 00 08 47 	call  40007398 <__sinit>
40005280:	90 10 00 1d 	mov  %i5, %o0
40005284:	03 10 00 3b 	sethi  %hi(0x4000ec00), %g1
40005288:	82 10 62 20 	or  %g1, 0x220, %g1	! 4000ee20 <__sf_fake_stdin>
4000528c:	80 a6 40 01 	cmp  %i1, %g1
40005290:	12 bf ff d9 	bne  400051f4 <__swsetup_r+0x3c>
40005294:	03 10 00 3b 	sethi  %hi(0x4000ec00), %g1
40005298:	f2 07 60 04 	ld  [ %i5 + 4 ], %i1
4000529c:	c2 16 60 0c 	lduh  [ %i1 + 0xc ], %g1
400052a0:	80 88 60 08 	btst  8, %g1
400052a4:	12 bf ff e0 	bne  40005224 <__swsetup_r+0x6c>
400052a8:	84 10 00 01 	mov  %g1, %g2
400052ac:	80 88 60 10 	btst  0x10, %g1
400052b0:	22 80 00 2e 	be,a   40005368 <__swsetup_r+0x1b0>
400052b4:	84 10 20 09 	mov  9, %g2
400052b8:	80 88 60 04 	btst  4, %g1
400052bc:	32 80 00 1c 	bne,a   4000532c <__swsetup_r+0x174>
400052c0:	d2 06 60 34 	ld  [ %i1 + 0x34 ], %o1
400052c4:	c6 06 60 10 	ld  [ %i1 + 0x10 ], %g3
400052c8:	84 10 60 08 	or  %g1, 8, %g2
400052cc:	c4 36 60 0c 	sth  %g2, [ %i1 + 0xc ]
400052d0:	80 a0 e0 00 	cmp  %g3, 0
400052d4:	12 bf ff d8 	bne  40005234 <__swsetup_r+0x7c>
400052d8:	82 10 00 02 	mov  %g2, %g1
400052dc:	88 08 a2 80 	and  %g2, 0x280, %g4
400052e0:	80 a1 22 00 	cmp  %g4, 0x200
400052e4:	02 bf ff d5 	be  40005238 <__swsetup_r+0x80>
400052e8:	80 88 a0 01 	btst  1, %g2
400052ec:	92 10 00 19 	mov  %i1, %o1
400052f0:	40 00 09 82 	call  400078f8 <__smakebuf_r>
400052f4:	90 10 00 18 	mov  %i0, %o0
400052f8:	c2 16 60 0c 	lduh  [ %i1 + 0xc ], %g1
400052fc:	84 10 00 01 	mov  %g1, %g2
40005300:	80 88 a0 01 	btst  1, %g2
40005304:	12 bf ff cf 	bne  40005240 <__swsetup_r+0x88>
40005308:	c6 06 60 10 	ld  [ %i1 + 0x10 ], %g3
4000530c:	80 88 a0 02 	btst  2, %g2
40005310:	12 80 00 03 	bne  4000531c <__swsetup_r+0x164>
40005314:	88 10 20 00 	clr  %g4
40005318:	c8 06 60 14 	ld  [ %i1 + 0x14 ], %g4
4000531c:	10 bf ff cd 	b  40005250 <__swsetup_r+0x98>
40005320:	c8 26 60 08 	st  %g4, [ %i1 + 8 ]
40005324:	10 bf ff bc 	b  40005214 <__swsetup_r+0x5c>
40005328:	f2 07 60 08 	ld  [ %i5 + 8 ], %i1
4000532c:	80 a2 60 00 	cmp  %o1, 0
40005330:	02 80 00 09 	be  40005354 <__swsetup_r+0x19c>
40005334:	84 06 60 44 	add  %i1, 0x44, %g2
40005338:	80 a2 40 02 	cmp  %o1, %g2
4000533c:	22 80 00 06 	be,a   40005354 <__swsetup_r+0x19c>
40005340:	c0 26 60 34 	clr  [ %i1 + 0x34 ]
40005344:	40 00 08 5a 	call  400074ac <_free_r>
40005348:	90 10 00 18 	mov  %i0, %o0
4000534c:	c2 16 60 0c 	lduh  [ %i1 + 0xc ], %g1
40005350:	c0 26 60 34 	clr  [ %i1 + 0x34 ]
40005354:	c6 06 60 10 	ld  [ %i1 + 0x10 ], %g3
40005358:	82 08 7f db 	and  %g1, -37, %g1
4000535c:	c0 26 60 04 	clr  [ %i1 + 4 ]
40005360:	10 bf ff da 	b  400052c8 <__swsetup_r+0x110>
40005364:	c6 26 40 00 	st  %g3, [ %i1 ]
40005368:	c4 26 00 00 	st  %g2, [ %i0 ]
4000536c:	82 10 60 40 	or  %g1, 0x40, %g1
40005370:	c2 36 60 0c 	sth  %g1, [ %i1 + 0xc ]
40005374:	81 c7 e0 08 	ret 
40005378:	91 e8 3f ff 	restore  %g0, -1, %o0

4000537c <__register_exitproc>:
4000537c:	9d e3 bf a0 	save  %sp, -96, %sp
40005380:	39 10 00 3e 	sethi  %hi(0x4000f800), %i4
40005384:	fa 07 22 ac 	ld  [ %i4 + 0x2ac ], %i5	! 4000faac <_global_atexit>
40005388:	80 a7 60 00 	cmp  %i5, 0
4000538c:	22 80 00 3a 	be,a   40005474 <__register_exitproc+0xf8>
40005390:	3b 10 00 3e 	sethi  %hi(0x4000f800), %i5
40005394:	c2 07 60 04 	ld  [ %i5 + 4 ], %g1	! 4000f804 <__global_locale+0x34>
40005398:	80 a0 60 1f 	cmp  %g1, 0x1f
4000539c:	04 80 00 1a 	ble  40005404 <__register_exitproc+0x88>
400053a0:	80 a6 20 00 	cmp  %i0, 0
400053a4:	21 10 00 1e 	sethi  %hi(0x40007800), %l0
400053a8:	a0 14 22 e0 	or  %l0, 0x2e0, %l0	! 40007ae0 <malloc>
400053ac:	80 a4 20 00 	cmp  %l0, 0
400053b0:	02 80 00 3a 	be  40005498 <__register_exitproc+0x11c>
400053b4:	01 00 00 00 	nop 
400053b8:	40 00 09 ca 	call  40007ae0 <malloc>
400053bc:	90 10 20 8c 	mov  0x8c, %o0	! 8c <sizeof_fpu_state+0x4>
400053c0:	ba 92 20 00 	orcc  %o0, 0, %i5
400053c4:	02 80 00 35 	be  40005498 <__register_exitproc+0x11c>
400053c8:	c2 07 22 ac 	ld  [ %i4 + 0x2ac ], %g1
400053cc:	c2 27 40 00 	st  %g1, [ %i5 ]
400053d0:	c0 27 60 04 	clr  [ %i5 + 4 ]
400053d4:	fa 27 22 ac 	st  %i5, [ %i4 + 0x2ac ]
400053d8:	80 a6 20 00 	cmp  %i0, 0
400053dc:	12 80 00 31 	bne  400054a0 <__register_exitproc+0x124>
400053e0:	c0 27 60 88 	clr  [ %i5 + 0x88 ]
400053e4:	82 10 20 00 	clr  %g1
400053e8:	84 10 20 01 	mov  1, %g2
400053ec:	c4 27 60 04 	st  %g2, [ %i5 + 4 ]
400053f0:	82 00 60 02 	add  %g1, 2, %g1
400053f4:	83 28 60 02 	sll  %g1, 2, %g1
400053f8:	f2 27 40 01 	st  %i1, [ %i5 + %g1 ]
400053fc:	81 c7 e0 08 	ret 
40005400:	91 e8 20 00 	restore  %g0, 0, %o0
40005404:	02 bf ff fa 	be  400053ec <__register_exitproc+0x70>
40005408:	84 00 60 01 	add  %g1, 1, %g2
4000540c:	d0 07 60 88 	ld  [ %i5 + 0x88 ], %o0
40005410:	21 10 00 1e 	sethi  %hi(0x40007800), %l0
40005414:	80 a2 20 00 	cmp  %o0, 0
40005418:	02 80 00 22 	be  400054a0 <__register_exitproc+0x124>
4000541c:	a0 14 22 e0 	or  %l0, 0x2e0, %l0
40005420:	c8 02 21 00 	ld  [ %o0 + 0x100 ], %g4
40005424:	85 28 60 02 	sll  %g1, 2, %g2
40005428:	f4 22 00 02 	st  %i2, [ %o0 + %g2 ]
4000542c:	86 10 20 01 	mov  1, %g3
40005430:	87 28 c0 01 	sll  %g3, %g1, %g3
40005434:	88 10 c0 04 	or  %g3, %g4, %g4
40005438:	c8 22 21 00 	st  %g4, [ %o0 + 0x100 ]
4000543c:	84 02 00 02 	add  %o0, %g2, %g2
40005440:	f6 20 a0 80 	st  %i3, [ %g2 + 0x80 ]
40005444:	80 a6 20 02 	cmp  %i0, 2
40005448:	12 bf ff e9 	bne  400053ec <__register_exitproc+0x70>
4000544c:	84 00 60 01 	add  %g1, 1, %g2
40005450:	c8 02 21 04 	ld  [ %o0 + 0x104 ], %g4
40005454:	86 11 00 03 	or  %g4, %g3, %g3
40005458:	c6 22 21 04 	st  %g3, [ %o0 + 0x104 ]
4000545c:	c4 27 60 04 	st  %g2, [ %i5 + 4 ]
40005460:	82 00 60 02 	add  %g1, 2, %g1
40005464:	83 28 60 02 	sll  %g1, 2, %g1
40005468:	f2 27 40 01 	st  %i1, [ %i5 + %g1 ]
4000546c:	81 c7 e0 08 	ret 
40005470:	91 e8 20 00 	restore  %g0, 0, %o0
40005474:	ba 17 62 20 	or  %i5, 0x220, %i5
40005478:	03 00 00 00 	sethi  %hi(0), %g1
4000547c:	84 10 60 00 	mov  %g1, %g2	! 0 <__bcc_cfg_skip_clear_bss>
40005480:	80 a0 a0 00 	cmp  %g2, 0
40005484:	02 bf ff c4 	be  40005394 <__register_exitproc+0x18>
40005488:	fa 27 22 ac 	st  %i5, [ %i4 + 0x2ac ]
4000548c:	c2 00 60 00 	ld  [ %g1 ], %g1
40005490:	10 bf ff c1 	b  40005394 <__register_exitproc+0x18>
40005494:	c2 27 60 88 	st  %g1, [ %i5 + 0x88 ]
40005498:	81 c7 e0 08 	ret 
4000549c:	91 e8 3f ff 	restore  %g0, -1, %o0
400054a0:	80 a4 20 00 	cmp  %l0, 0
400054a4:	02 bf ff fd 	be  40005498 <__register_exitproc+0x11c>
400054a8:	01 00 00 00 	nop 
400054ac:	40 00 09 8d 	call  40007ae0 <malloc>
400054b0:	90 10 21 08 	mov  0x108, %o0	! 108 <sizeof_fpu_state+0x80>
400054b4:	80 a2 20 00 	cmp  %o0, 0
400054b8:	02 bf ff f8 	be  40005498 <__register_exitproc+0x11c>
400054bc:	88 10 20 00 	clr  %g4
400054c0:	c0 22 21 00 	clr  [ %o0 + 0x100 ]
400054c4:	c0 22 21 04 	clr  [ %o0 + 0x104 ]
400054c8:	d0 27 60 88 	st  %o0, [ %i5 + 0x88 ]
400054cc:	10 bf ff d6 	b  40005424 <__register_exitproc+0xa8>
400054d0:	c2 07 60 04 	ld  [ %i5 + 4 ], %g1

400054d4 <__call_exitprocs>:
400054d4:	9d e3 bf a0 	save  %sp, -96, %sp
400054d8:	23 10 00 3e 	sethi  %hi(0x4000f800), %l1
400054dc:	25 10 00 1e 	sethi  %hi(0x40007800), %l2
400054e0:	a2 14 62 ac 	or  %l1, 0x2ac, %l1
400054e4:	a0 10 20 01 	mov  1, %l0
400054e8:	a4 14 a2 f8 	or  %l2, 0x2f8, %l2
400054ec:	f6 04 40 00 	ld  [ %l1 ], %i3
400054f0:	80 a6 e0 00 	cmp  %i3, 0
400054f4:	02 80 00 4a 	be  4000561c <__call_exitprocs+0x148>
400054f8:	ae 10 00 11 	mov  %l1, %l7
400054fc:	f8 06 e0 04 	ld  [ %i3 + 4 ], %i4
40005500:	ba 87 3f ff 	addcc  %i4, -1, %i5
40005504:	0c 80 00 32 	bneg  400055cc <__call_exitprocs+0xf8>
40005508:	e6 06 e0 88 	ld  [ %i3 + 0x88 ], %l3
4000550c:	80 a6 60 00 	cmp  %i1, 0
40005510:	02 80 00 53 	be  4000565c <__call_exitprocs+0x188>
40005514:	80 a4 e0 00 	cmp  %l3, 0
40005518:	02 80 00 2e 	be  400055d0 <__call_exitprocs+0xfc>
4000551c:	80 a4 a0 00 	cmp  %l2, 0
40005520:	b9 2f 20 02 	sll  %i4, 2, %i4
40005524:	aa 04 e0 7c 	add  %l3, 0x7c, %l5
40005528:	ac 06 e0 04 	add  %i3, 4, %l6
4000552c:	10 80 00 06 	b  40005544 <__call_exitprocs+0x70>
40005530:	a8 04 ff fc 	add  %l3, -4, %l4
40005534:	ba 07 7f ff 	add  %i5, -1, %i5
40005538:	80 a7 7f ff 	cmp  %i5, -1
4000553c:	02 80 00 24 	be  400055cc <__call_exitprocs+0xf8>
40005540:	b8 07 3f fc 	add  %i4, -4, %i4
40005544:	c2 05 40 1c 	ld  [ %l5 + %i4 ], %g1
40005548:	80 a6 40 01 	cmp  %i1, %g1
4000554c:	32 bf ff fb 	bne,a   40005538 <__call_exitprocs+0x64>
40005550:	ba 07 7f ff 	add  %i5, -1, %i5
40005554:	f4 06 e0 04 	ld  [ %i3 + 4 ], %i2
40005558:	84 06 bf ff 	add  %i2, -1, %g2
4000555c:	80 a7 40 02 	cmp  %i5, %g2
40005560:	02 80 00 35 	be  40005634 <__call_exitprocs+0x160>
40005564:	c2 05 80 1c 	ld  [ %l6 + %i4 ], %g1
40005568:	c0 25 80 1c 	clr  [ %l6 + %i4 ]
4000556c:	80 a0 60 00 	cmp  %g1, 0
40005570:	02 bf ff f1 	be  40005534 <__call_exitprocs+0x60>
40005574:	85 2c 00 1d 	sll  %l0, %i5, %g2
40005578:	c6 04 e1 00 	ld  [ %l3 + 0x100 ], %g3
4000557c:	80 88 80 03 	btst  %g2, %g3
40005580:	02 80 00 29 	be  40005624 <__call_exitprocs+0x150>
40005584:	01 00 00 00 	nop 
40005588:	c6 04 e1 04 	ld  [ %l3 + 0x104 ], %g3
4000558c:	80 88 80 03 	btst  %g2, %g3
40005590:	02 80 00 2c 	be  40005640 <__call_exitprocs+0x16c>
40005594:	d2 05 00 1c 	ld  [ %l4 + %i4 ], %o1
40005598:	9f c0 40 00 	call  %g1
4000559c:	90 10 00 09 	mov  %o1, %o0
400055a0:	c2 06 e0 04 	ld  [ %i3 + 4 ], %g1
400055a4:	80 a6 80 01 	cmp  %i2, %g1
400055a8:	32 bf ff d2 	bne,a   400054f0 <__call_exitprocs+0x1c>
400055ac:	f6 04 40 00 	ld  [ %l1 ], %i3
400055b0:	c2 05 c0 00 	ld  [ %l7 ], %g1
400055b4:	80 a6 c0 01 	cmp  %i3, %g1
400055b8:	12 bf ff cd 	bne  400054ec <__call_exitprocs+0x18>
400055bc:	ba 07 7f ff 	add  %i5, -1, %i5
400055c0:	80 a7 7f ff 	cmp  %i5, -1
400055c4:	12 bf ff e0 	bne  40005544 <__call_exitprocs+0x70>
400055c8:	b8 07 3f fc 	add  %i4, -4, %i4
400055cc:	80 a4 a0 00 	cmp  %l2, 0
400055d0:	02 80 00 6d 	be  40005784 <__call_exitprocs+0x2b0>
400055d4:	01 00 00 00 	nop 
400055d8:	c4 06 e0 04 	ld  [ %i3 + 4 ], %g2
400055dc:	80 a0 a0 00 	cmp  %g2, 0
400055e0:	12 80 00 1c 	bne  40005650 <__call_exitprocs+0x17c>
400055e4:	c2 06 c0 00 	ld  [ %i3 ], %g1
400055e8:	80 a0 60 00 	cmp  %g1, 0
400055ec:	02 80 00 19 	be  40005650 <__call_exitprocs+0x17c>
400055f0:	80 a4 e0 00 	cmp  %l3, 0
400055f4:	02 80 00 04 	be  40005604 <__call_exitprocs+0x130>
400055f8:	c2 25 c0 00 	st  %g1, [ %l7 ]
400055fc:	40 00 09 3f 	call  40007af8 <free>
40005600:	90 10 00 13 	mov  %l3, %o0
40005604:	40 00 09 3d 	call  40007af8 <free>
40005608:	90 10 00 1b 	mov  %i3, %o0
4000560c:	f6 05 c0 00 	ld  [ %l7 ], %i3
40005610:	80 a6 e0 00 	cmp  %i3, 0
40005614:	32 bf ff bb 	bne,a   40005500 <__call_exitprocs+0x2c>
40005618:	f8 06 e0 04 	ld  [ %i3 + 4 ], %i4
4000561c:	81 c7 e0 08 	ret 
40005620:	81 e8 00 00 	restore 
40005624:	9f c0 40 00 	call  %g1
40005628:	01 00 00 00 	nop 
4000562c:	10 bf ff de 	b  400055a4 <__call_exitprocs+0xd0>
40005630:	c2 06 e0 04 	ld  [ %i3 + 4 ], %g1
40005634:	fa 26 e0 04 	st  %i5, [ %i3 + 4 ]
40005638:	10 bf ff cd 	b  4000556c <__call_exitprocs+0x98>
4000563c:	b4 10 00 1d 	mov  %i5, %i2
40005640:	9f c0 40 00 	call  %g1
40005644:	90 10 00 18 	mov  %i0, %o0
40005648:	10 bf ff d7 	b  400055a4 <__call_exitprocs+0xd0>
4000564c:	c2 06 e0 04 	ld  [ %i3 + 4 ], %g1
40005650:	ae 10 00 1b 	mov  %i3, %l7
40005654:	10 bf ff ef 	b  40005610 <__call_exitprocs+0x13c>
40005658:	b6 10 00 01 	mov  %g1, %i3
4000565c:	b5 2f 20 02 	sll  %i4, 2, %i2
40005660:	12 80 00 1f 	bne  400056dc <__call_exitprocs+0x208>
40005664:	b4 06 c0 1a 	add  %i3, %i2, %i2
40005668:	10 80 00 38 	b  40005748 <__call_exitprocs+0x274>
4000566c:	84 07 3f ff 	add  %i4, -1, %g2
40005670:	c0 26 a0 04 	clr  [ %i2 + 4 ]
40005674:	80 a0 60 00 	cmp  %g1, 0
40005678:	02 80 00 14 	be  400056c8 <__call_exitprocs+0x1f4>
4000567c:	85 2c 00 1d 	sll  %l0, %i5, %g2
40005680:	c6 04 e1 00 	ld  [ %l3 + 0x100 ], %g3
40005684:	80 88 80 03 	btst  %g2, %g3
40005688:	02 80 00 37 	be  40005764 <__call_exitprocs+0x290>
4000568c:	87 2f 60 02 	sll  %i5, 2, %g3
40005690:	c8 04 e1 04 	ld  [ %l3 + 0x104 ], %g4
40005694:	80 88 80 04 	btst  %g2, %g4
40005698:	12 80 00 37 	bne  40005774 <__call_exitprocs+0x2a0>
4000569c:	d2 04 c0 03 	ld  [ %l3 + %g3 ], %o1
400056a0:	9f c0 40 00 	call  %g1
400056a4:	90 10 00 18 	mov  %i0, %o0
400056a8:	f8 06 e0 04 	ld  [ %i3 + 4 ], %i4
400056ac:	80 a5 00 1c 	cmp  %l4, %i4
400056b0:	32 bf ff 90 	bne,a   400054f0 <__call_exitprocs+0x1c>
400056b4:	f6 04 40 00 	ld  [ %l1 ], %i3
400056b8:	c2 05 c0 00 	ld  [ %l7 ], %g1
400056bc:	80 a6 c0 01 	cmp  %i3, %g1
400056c0:	32 bf ff 8c 	bne,a   400054f0 <__call_exitprocs+0x1c>
400056c4:	f6 04 40 00 	ld  [ %l1 ], %i3
400056c8:	ba 07 7f ff 	add  %i5, -1, %i5
400056cc:	80 a7 7f ff 	cmp  %i5, -1
400056d0:	02 bf ff bf 	be  400055cc <__call_exitprocs+0xf8>
400056d4:	b4 06 bf fc 	add  %i2, -4, %i2
400056d8:	f8 06 e0 04 	ld  [ %i3 + 4 ], %i4
400056dc:	84 07 3f ff 	add  %i4, -1, %g2
400056e0:	a8 10 00 1c 	mov  %i4, %l4
400056e4:	80 a7 40 02 	cmp  %i5, %g2
400056e8:	12 bf ff e2 	bne  40005670 <__call_exitprocs+0x19c>
400056ec:	c2 06 a0 04 	ld  [ %i2 + 4 ], %g1
400056f0:	fa 26 e0 04 	st  %i5, [ %i3 + 4 ]
400056f4:	10 bf ff e0 	b  40005674 <__call_exitprocs+0x1a0>
400056f8:	a8 10 00 1d 	mov  %i5, %l4
400056fc:	c0 26 a0 04 	clr  [ %i2 + 4 ]
40005700:	80 a0 60 00 	cmp  %g1, 0
40005704:	22 80 00 0c 	be,a   40005734 <__call_exitprocs+0x260>
40005708:	ba 07 7f ff 	add  %i5, -1, %i5
4000570c:	9f c0 40 00 	call  %g1
40005710:	01 00 00 00 	nop 
40005714:	f8 06 e0 04 	ld  [ %i3 + 4 ], %i4
40005718:	80 a7 00 14 	cmp  %i4, %l4
4000571c:	32 bf ff 75 	bne,a   400054f0 <__call_exitprocs+0x1c>
40005720:	f6 04 40 00 	ld  [ %l1 ], %i3
40005724:	c2 05 c0 00 	ld  [ %l7 ], %g1
40005728:	80 a0 40 1b 	cmp  %g1, %i3
4000572c:	12 bf ff 70 	bne  400054ec <__call_exitprocs+0x18>
40005730:	ba 07 7f ff 	add  %i5, -1, %i5
40005734:	80 a7 7f ff 	cmp  %i5, -1
40005738:	02 bf ff a5 	be  400055cc <__call_exitprocs+0xf8>
4000573c:	b4 06 bf fc 	add  %i2, -4, %i2
40005740:	f8 06 e0 04 	ld  [ %i3 + 4 ], %i4
40005744:	84 07 3f ff 	add  %i4, -1, %g2
40005748:	a8 10 00 1c 	mov  %i4, %l4
4000574c:	80 a7 40 02 	cmp  %i5, %g2
40005750:	12 bf ff eb 	bne  400056fc <__call_exitprocs+0x228>
40005754:	c2 06 a0 04 	ld  [ %i2 + 4 ], %g1
40005758:	fa 26 e0 04 	st  %i5, [ %i3 + 4 ]
4000575c:	10 bf ff e9 	b  40005700 <__call_exitprocs+0x22c>
40005760:	a8 10 00 1d 	mov  %i5, %l4
40005764:	9f c0 40 00 	call  %g1
40005768:	01 00 00 00 	nop 
4000576c:	10 bf ff d0 	b  400056ac <__call_exitprocs+0x1d8>
40005770:	f8 06 e0 04 	ld  [ %i3 + 4 ], %i4
40005774:	9f c0 40 00 	call  %g1
40005778:	90 10 00 09 	mov  %o1, %o0
4000577c:	10 bf ff cc 	b  400056ac <__call_exitprocs+0x1d8>
40005780:	f8 06 e0 04 	ld  [ %i3 + 4 ], %i4
40005784:	81 c7 e0 08 	ret 
40005788:	81 e8 00 00 	restore 

4000578c <quorem>:
4000578c:	9d e3 bf 98 	save  %sp, -104, %sp
40005790:	c2 06 20 10 	ld  [ %i0 + 0x10 ], %g1
40005794:	a0 10 00 18 	mov  %i0, %l0
40005798:	f6 06 60 10 	ld  [ %i1 + 0x10 ], %i3
4000579c:	80 a0 40 1b 	cmp  %g1, %i3
400057a0:	06 80 00 7b 	bl  4000598c <quorem+0x200>
400057a4:	b0 10 20 00 	clr  %i0
400057a8:	a8 06 60 14 	add  %i1, 0x14, %l4
400057ac:	a2 04 20 14 	add  %l0, 0x14, %l1
400057b0:	b6 06 ff ff 	add  %i3, -1, %i3
400057b4:	a7 2e e0 02 	sll  %i3, 2, %l3
400057b8:	ea 04 40 13 	ld  [ %l1 + %l3 ], %l5
400057bc:	fa 05 00 13 	ld  [ %l4 + %l3 ], %i5
400057c0:	90 10 00 15 	mov  %l5, %o0
400057c4:	ba 07 60 01 	inc  %i5
400057c8:	40 00 21 f1 	call  4000df8c <.udiv>
400057cc:	92 10 00 1d 	mov  %i5, %o1
400057d0:	82 04 40 13 	add  %l1, %l3, %g1
400057d4:	c2 27 bf fc 	st  %g1, [ %fp + -4 ]
400057d8:	b4 05 00 13 	add  %l4, %l3, %i2
400057dc:	80 a5 40 1d 	cmp  %l5, %i5
400057e0:	0a 80 00 39 	bcs  400058c4 <quorem+0x138>
400057e4:	b8 10 00 08 	mov  %o0, %i4
400057e8:	31 00 00 3f 	sethi  %hi(0xfc00), %i0
400057ec:	ac 10 00 14 	mov  %l4, %l6
400057f0:	aa 10 00 11 	mov  %l1, %l5
400057f4:	ba 10 20 00 	clr  %i5
400057f8:	a4 10 20 00 	clr  %l2
400057fc:	b0 16 23 ff 	or  %i0, 0x3ff, %i0
40005800:	ee 05 80 00 	ld  [ %l6 ], %l7
40005804:	92 10 00 1c 	mov  %i4, %o1
40005808:	40 00 21 a7 	call  4000dea4 <.umul>
4000580c:	90 0d c0 18 	and  %l7, %i0, %o0
40005810:	92 10 00 1c 	mov  %i4, %o1
40005814:	ba 02 00 1d 	add  %o0, %i5, %i5
40005818:	40 00 21 a3 	call  4000dea4 <.umul>
4000581c:	91 35 e0 10 	srl  %l7, 0x10, %o0
40005820:	87 37 60 10 	srl  %i5, 0x10, %g3
40005824:	ba 0f 40 18 	and  %i5, %i0, %i5
40005828:	90 02 00 03 	add  %o0, %g3, %o0
4000582c:	ba 24 80 1d 	sub  %l2, %i5, %i5
40005830:	86 0a 00 18 	and  %o0, %i0, %g3
40005834:	c4 05 40 00 	ld  [ %l5 ], %g2
40005838:	82 08 80 18 	and  %g2, %i0, %g1
4000583c:	85 30 a0 10 	srl  %g2, 0x10, %g2
40005840:	82 07 40 01 	add  %i5, %g1, %g1
40005844:	84 20 80 03 	sub  %g2, %g3, %g2
40005848:	bb 38 60 10 	sra  %g1, 0x10, %i5
4000584c:	82 08 40 18 	and  %g1, %i0, %g1
40005850:	84 00 80 1d 	add  %g2, %i5, %g2
40005854:	87 28 a0 10 	sll  %g2, 0x10, %g3
40005858:	82 10 c0 01 	or  %g3, %g1, %g1
4000585c:	c2 25 40 00 	st  %g1, [ %l5 ]
40005860:	aa 05 60 04 	add  %l5, 4, %l5
40005864:	ac 05 a0 04 	add  %l6, 4, %l6
40005868:	bb 32 20 10 	srl  %o0, 0x10, %i5
4000586c:	80 a6 80 16 	cmp  %i2, %l6
40005870:	1a bf ff e4 	bcc  40005800 <quorem+0x74>
40005874:	a5 38 a0 10 	sra  %g2, 0x10, %l2
40005878:	c2 04 40 13 	ld  [ %l1 + %l3 ], %g1
4000587c:	80 a0 60 00 	cmp  %g1, 0
40005880:	12 80 00 12 	bne  400058c8 <quorem+0x13c>
40005884:	92 10 00 19 	mov  %i1, %o1
40005888:	c2 07 bf fc 	ld  [ %fp + -4 ], %g1
4000588c:	a4 00 7f fc 	add  %g1, -4, %l2
40005890:	80 a4 40 12 	cmp  %l1, %l2
40005894:	2a 80 00 08 	bcs,a   400058b4 <quorem+0x128>
40005898:	c2 04 80 00 	ld  [ %l2 ], %g1
4000589c:	10 80 00 0b 	b  400058c8 <quorem+0x13c>
400058a0:	f6 24 20 10 	st  %i3, [ %l0 + 0x10 ]
400058a4:	80 a4 40 12 	cmp  %l1, %l2
400058a8:	1a 80 00 06 	bcc  400058c0 <quorem+0x134>
400058ac:	b6 06 ff ff 	add  %i3, -1, %i3
400058b0:	c2 04 80 00 	ld  [ %l2 ], %g1
400058b4:	80 a0 60 00 	cmp  %g1, 0
400058b8:	22 bf ff fb 	be,a   400058a4 <quorem+0x118>
400058bc:	a4 04 bf fc 	add  %l2, -4, %l2
400058c0:	f6 24 20 10 	st  %i3, [ %l0 + 0x10 ]
400058c4:	92 10 00 19 	mov  %i1, %o1
400058c8:	40 00 0d d9 	call  4000902c <__mcmp>
400058cc:	90 10 00 10 	mov  %l0, %o0
400058d0:	80 a2 20 00 	cmp  %o0, 0
400058d4:	06 80 00 2d 	bl  40005988 <quorem+0x1fc>
400058d8:	33 00 00 3f 	sethi  %hi(0xfc00), %i1
400058dc:	b8 07 20 01 	inc  %i4
400058e0:	ba 10 00 11 	mov  %l1, %i5
400058e4:	82 10 20 00 	clr  %g1
400058e8:	b2 16 63 ff 	or  %i1, 0x3ff, %i1
400058ec:	c8 05 00 00 	ld  [ %l4 ], %g4
400058f0:	c4 07 40 00 	ld  [ %i5 ], %g2
400058f4:	b0 09 00 19 	and  %g4, %i1, %i0
400058f8:	86 08 80 19 	and  %g2, %i1, %g3
400058fc:	82 20 40 18 	sub  %g1, %i0, %g1
40005900:	85 30 a0 10 	srl  %g2, 0x10, %g2
40005904:	86 00 40 03 	add  %g1, %g3, %g3
40005908:	89 31 20 10 	srl  %g4, 0x10, %g4
4000590c:	82 20 80 04 	sub  %g2, %g4, %g1
40005910:	85 38 e0 10 	sra  %g3, 0x10, %g2
40005914:	ba 07 60 04 	add  %i5, 4, %i5
40005918:	82 00 40 02 	add  %g1, %g2, %g1
4000591c:	86 08 c0 19 	and  %g3, %i1, %g3
40005920:	85 28 60 10 	sll  %g1, 0x10, %g2
40005924:	86 10 80 03 	or  %g2, %g3, %g3
40005928:	c6 27 7f fc 	st  %g3, [ %i5 + -4 ]
4000592c:	a8 05 20 04 	add  %l4, 4, %l4
40005930:	80 a6 80 14 	cmp  %i2, %l4
40005934:	1a bf ff ee 	bcc  400058ec <quorem+0x160>
40005938:	83 38 60 10 	sra  %g1, 0x10, %g1
4000593c:	83 2e e0 02 	sll  %i3, 2, %g1
40005940:	c4 04 40 01 	ld  [ %l1 + %g1 ], %g2
40005944:	80 a0 a0 00 	cmp  %g2, 0
40005948:	12 80 00 10 	bne  40005988 <quorem+0x1fc>
4000594c:	82 04 40 01 	add  %l1, %g1, %g1
40005950:	82 00 7f fc 	add  %g1, -4, %g1
40005954:	80 a4 40 01 	cmp  %l1, %g1
40005958:	2a 80 00 08 	bcs,a   40005978 <quorem+0x1ec>
4000595c:	c4 00 40 00 	ld  [ %g1 ], %g2
40005960:	10 80 00 0a 	b  40005988 <quorem+0x1fc>
40005964:	f6 24 20 10 	st  %i3, [ %l0 + 0x10 ]
40005968:	80 a4 40 01 	cmp  %l1, %g1
4000596c:	1a 80 00 06 	bcc  40005984 <quorem+0x1f8>
40005970:	b6 06 ff ff 	add  %i3, -1, %i3
40005974:	c4 00 40 00 	ld  [ %g1 ], %g2
40005978:	80 a0 a0 00 	cmp  %g2, 0
4000597c:	22 bf ff fb 	be,a   40005968 <quorem+0x1dc>
40005980:	82 00 7f fc 	add  %g1, -4, %g1
40005984:	f6 24 20 10 	st  %i3, [ %l0 + 0x10 ]
40005988:	b0 10 00 1c 	mov  %i4, %i0
4000598c:	81 c7 e0 08 	ret 
40005990:	81 e8 00 00 	restore 

40005994 <_dtoa_r>:
40005994:	9d e3 bf 70 	save  %sp, -144, %sp
40005998:	f2 27 bf f0 	st  %i1, [ %fp + -16 ]
4000599c:	f4 27 bf f4 	st  %i2, [ %fp + -12 ]
400059a0:	c4 1f bf f0 	ldd  [ %fp + -16 ], %g2
400059a4:	c4 3f bf e8 	std  %g2, [ %fp + -24 ]
400059a8:	c2 06 20 24 	ld  [ %i0 + 0x24 ], %g1
400059ac:	80 a0 60 00 	cmp  %g1, 0
400059b0:	02 80 02 25 	be  40006244 <_dtoa_r+0x8b0>
400059b4:	01 00 00 00 	nop 
400059b8:	d2 00 40 00 	ld  [ %g1 ], %o1
400059bc:	80 a2 60 00 	cmp  %o1, 0
400059c0:	02 80 00 0c 	be  400059f0 <_dtoa_r+0x5c>
400059c4:	f2 07 bf f0 	ld  [ %fp + -16 ], %i1
400059c8:	c4 00 60 04 	ld  [ %g1 + 4 ], %g2
400059cc:	82 10 20 01 	mov  1, %g1
400059d0:	83 28 40 02 	sll  %g1, %g2, %g1
400059d4:	c4 22 60 04 	st  %g2, [ %o1 + 4 ]
400059d8:	c2 22 60 08 	st  %g1, [ %o1 + 8 ]
400059dc:	40 00 0b 01 	call  400085e0 <_Bfree>
400059e0:	90 10 00 18 	mov  %i0, %o0
400059e4:	c2 06 20 24 	ld  [ %i0 + 0x24 ], %g1
400059e8:	c0 20 40 00 	clr  [ %g1 ]
400059ec:	f2 07 bf f0 	ld  [ %fp + -16 ], %i1
400059f0:	80 a6 60 00 	cmp  %i1, 0
400059f4:	16 80 00 06 	bge  40005a0c <_dtoa_r+0x78>
400059f8:	84 10 20 00 	clr  %g2
400059fc:	03 20 00 00 	sethi  %hi(0x80000000), %g1
40005a00:	84 10 20 01 	mov  1, %g2
40005a04:	b2 2e 40 01 	andn  %i1, %g1, %i1
40005a08:	f2 27 bf e8 	st  %i1, [ %fp + -24 ]
40005a0c:	c6 07 a0 5c 	ld  [ %fp + 0x5c ], %g3
40005a10:	c4 20 c0 00 	st  %g2, [ %g3 ]
40005a14:	05 1f fc 00 	sethi  %hi(0x7ff00000), %g2
40005a18:	86 0e 40 02 	and  %i1, %g2, %g3
40005a1c:	80 a0 c0 02 	cmp  %g3, %g2
40005a20:	02 80 01 1b 	be  40005e8c <_dtoa_r+0x4f8>
40005a24:	03 00 00 09 	sethi  %hi(0x2400), %g1
40005a28:	c0 27 bf e0 	clr  [ %fp + -32 ]
40005a2c:	c0 27 bf e4 	clr  [ %fp + -28 ]
40005a30:	d5 1f bf e8 	ldd  [ %fp + -24 ], %f10
40005a34:	d1 1f bf e0 	ldd  [ %fp + -32 ], %f8
40005a38:	81 aa 8a 48 	fcmpd  %f10, %f8
40005a3c:	01 00 00 00 	nop 
40005a40:	03 80 00 0c 	fbne  40005a70 <_dtoa_r+0xdc>
40005a44:	82 10 20 01 	mov  1, %g1	! 1 <_CONTEXT_I_>
40005a48:	c2 27 40 00 	st  %g1, [ %i5 ]
40005a4c:	c2 07 a0 60 	ld  [ %fp + 0x60 ], %g1
40005a50:	80 a0 60 00 	cmp  %g1, 0
40005a54:	02 80 02 0c 	be  40006284 <_dtoa_r+0x8f0>
40005a58:	37 10 00 3b 	sethi  %hi(0x4000ec00), %i3
40005a5c:	b6 16 e1 31 	or  %i3, 0x131, %i3	! 4000ed31 <_global_impure_ptr+0x5d>
40005a60:	f6 20 40 00 	st  %i3, [ %g1 ]
40005a64:	b6 06 ff ff 	add  %i3, -1, %i3
40005a68:	81 c7 e0 08 	ret 
40005a6c:	91 e8 00 1b 	restore  %g0, %i3, %o0
40005a70:	d5 3f bf e0 	std  %f10, [ %fp + -32 ]
40005a74:	d5 3f bf d8 	std  %f10, [ %fp + -40 ]
40005a78:	98 07 bf f8 	add  %fp, -8, %o4
40005a7c:	96 07 bf fc 	add  %fp, -4, %o3
40005a80:	d2 07 bf e0 	ld  [ %fp + -32 ], %o1
40005a84:	d4 07 bf e4 	ld  [ %fp + -28 ], %o2
40005a88:	40 00 0e 98 	call  400094e8 <__d2b>
40005a8c:	90 10 00 18 	mov  %i0, %o0
40005a90:	83 36 60 14 	srl  %i1, 0x14, %g1
40005a94:	b4 10 00 08 	mov  %o0, %i2
40005a98:	80 a0 60 00 	cmp  %g1, 0
40005a9c:	12 80 01 0d 	bne  40005ed0 <_dtoa_r+0x53c>
40005aa0:	d5 1f bf d8 	ldd  [ %fp + -40 ], %f10
40005aa4:	de 07 bf f8 	ld  [ %fp + -8 ], %o7
40005aa8:	c8 07 bf fc 	ld  [ %fp + -4 ], %g4
40005aac:	c4 07 bf f4 	ld  [ %fp + -12 ], %g2
40005ab0:	88 03 c0 04 	add  %o7, %g4, %g4
40005ab4:	82 01 24 32 	add  %g4, 0x432, %g1
40005ab8:	80 a0 60 20 	cmp  %g1, 0x20
40005abc:	04 80 01 f6 	ble  40006294 <_dtoa_r+0x900>
40005ac0:	82 20 00 01 	neg  %g1
40005ac4:	86 01 24 12 	add  %g4, 0x412, %g3
40005ac8:	83 2e 40 01 	sll  %i1, %g1, %g1
40005acc:	85 30 80 03 	srl  %g2, %g3, %g2
40005ad0:	84 10 40 02 	or  %g1, %g2, %g2
40005ad4:	c4 27 bf f0 	st  %g2, [ %fp + -16 ]
40005ad8:	80 a0 a0 00 	cmp  %g2, 0
40005adc:	d1 07 bf f0 	ld  [ %fp + -16 ], %f8
40005ae0:	16 80 00 05 	bge  40005af4 <_dtoa_r+0x160>
40005ae4:	91 a0 19 08 	fitod  %f8, %f8
40005ae8:	03 10 00 3b 	sethi  %hi(0x4000ec00), %g1
40005aec:	d9 18 61 98 	ldd  [ %g1 + 0x198 ], %f12	! 4000ed98 <blanks.1+0x28>
40005af0:	91 a2 08 4c 	faddd  %f8, %f12, %f8
40005af4:	d1 3f bf f0 	std  %f8, [ %fp + -16 ]
40005af8:	c4 1f bf f0 	ldd  [ %fp + -16 ], %g2
40005afc:	d1 27 bf f0 	st  %f8, [ %fp + -16 ]
40005b00:	f2 07 bf f0 	ld  [ %fp + -16 ], %i1
40005b04:	82 01 3f ff 	add  %g4, -1, %g1
40005b08:	09 3f 84 00 	sethi  %hi(0xfe100000), %g4
40005b0c:	84 06 40 04 	add  %i1, %g4, %g2
40005b10:	b2 10 20 01 	mov  1, %i1
40005b14:	c4 3f bf f0 	std  %g2, [ %fp + -16 ]
40005b18:	05 10 00 3b 	sethi  %hi(0x4000ec00), %g2
40005b1c:	d9 1f bf f0 	ldd  [ %fp + -16 ], %f12
40005b20:	09 10 00 3b 	sethi  %hi(0x4000ec00), %g4
40005b24:	d1 19 21 a0 	ldd  [ %g4 + 0x1a0 ], %f8	! 4000eda0 <blanks.1+0x30>
40005b28:	91 a3 08 c8 	fsubd  %f12, %f8, %f8
40005b2c:	d9 18 a1 a8 	ldd  [ %g2 + 0x1a8 ], %f12
40005b30:	05 10 00 3b 	sethi  %hi(0x4000ec00), %g2
40005b34:	dd 18 a1 b0 	ldd  [ %g2 + 0x1b0 ], %f14	! 4000edb0 <blanks.1+0x40>
40005b38:	c2 27 bf f0 	st  %g1, [ %fp + -16 ]
40005b3c:	91 a2 09 4c 	fmuld  %f8, %f12, %f8
40005b40:	05 10 00 3b 	sethi  %hi(0x4000ec00), %g2
40005b44:	d9 07 bf f0 	ld  [ %fp + -16 ], %f12
40005b48:	91 a2 08 4e 	faddd  %f8, %f14, %f8
40005b4c:	99 a0 19 0c 	fitod  %f12, %f12
40005b50:	dd 18 a1 b8 	ldd  [ %g2 + 0x1b8 ], %f14
40005b54:	99 a3 09 4e 	fmuld  %f12, %f14, %f12
40005b58:	91 a2 08 4c 	faddd  %f8, %f12, %f8
40005b5c:	99 a0 1a 48 	fdtoi  %f8, %f12
40005b60:	d9 27 bf f0 	st  %f12, [ %fp + -16 ]
40005b64:	c0 27 bf f4 	clr  [ %fp + -12 ]
40005b68:	ec 07 bf f0 	ld  [ %fp + -16 ], %l6
40005b6c:	c0 27 bf f0 	clr  [ %fp + -16 ]
40005b70:	d9 1f bf f0 	ldd  [ %fp + -16 ], %f12
40005b74:	81 aa 0a cc 	fcmped  %f8, %f12
40005b78:	01 00 00 00 	nop 
40005b7c:	29 80 01 ba 	fbl,a   40006264 <_dtoa_r+0x8d0>
40005b80:	ec 27 bf f0 	st  %l6, [ %fp + -16 ]
40005b84:	82 23 c0 01 	sub  %o7, %g1, %g1
40005b88:	80 a5 a0 16 	cmp  %l6, 0x16
40005b8c:	18 80 01 a5 	bgu  40006220 <_dtoa_r+0x88c>
40005b90:	ae 00 7f ff 	add  %g1, -1, %l7
40005b94:	85 2d a0 03 	sll  %l6, 3, %g2
40005b98:	07 10 00 3b 	sethi  %hi(0x4000ec00), %g3
40005b9c:	86 10 e2 a0 	or  %g3, 0x2a0, %g3	! 4000eea0 <__mprec_tens>
40005ba0:	d1 18 c0 02 	ldd  [ %g3 + %g2 ], %f8
40005ba4:	81 aa 8a c8 	fcmped  %f10, %f8
40005ba8:	01 00 00 00 	nop 
40005bac:	19 80 01 7f 	fbuge  400061a8 <_dtoa_r+0x814>
40005bb0:	01 00 00 00 	nop 
40005bb4:	c0 27 bf d8 	clr  [ %fp + -40 ]
40005bb8:	ac 05 bf ff 	add  %l6, -1, %l6
40005bbc:	80 a5 e0 00 	cmp  %l7, 0
40005bc0:	06 80 01 9d 	bl  40006234 <_dtoa_r+0x8a0>
40005bc4:	a6 10 20 00 	clr  %l3
40005bc8:	80 a5 a0 00 	cmp  %l6, 0
40005bcc:	36 80 01 7c 	bge,a   400061bc <_dtoa_r+0x828>
40005bd0:	ae 05 c0 16 	add  %l7, %l6, %l7
40005bd4:	a6 24 c0 16 	sub  %l3, %l6, %l3
40005bd8:	a0 20 00 16 	neg  %l6, %l0
40005bdc:	a8 10 00 16 	mov  %l6, %l4
40005be0:	e2 06 20 24 	ld  [ %i0 + 0x24 ], %l1
40005be4:	80 a6 e0 09 	cmp  %i3, 9
40005be8:	18 80 01 7a 	bgu  400061d0 <_dtoa_r+0x83c>
40005bec:	ac 10 20 00 	clr  %l6
40005bf0:	80 a6 e0 05 	cmp  %i3, 5
40005bf4:	04 80 00 04 	ble  40005c04 <_dtoa_r+0x270>
40005bf8:	a4 10 20 01 	mov  1, %l2
40005bfc:	b6 06 ff fc 	add  %i3, -4, %i3
40005c00:	a4 10 20 00 	clr  %l2
40005c04:	80 a6 e0 04 	cmp  %i3, 4
40005c08:	02 80 03 18 	be  40006868 <_dtoa_r+0xed4>
40005c0c:	80 a6 e0 05 	cmp  %i3, 5
40005c10:	02 80 02 49 	be  40006534 <_dtoa_r+0xba0>
40005c14:	80 a6 e0 02 	cmp  %i3, 2
40005c18:	12 80 01 78 	bne  400061f8 <_dtoa_r+0x864>
40005c1c:	c0 27 bf f0 	clr  [ %fp + -16 ]
40005c20:	80 a7 20 00 	cmp  %i4, 0
40005c24:	04 80 02 9f 	ble  400066a0 <_dtoa_r+0xd0c>
40005c28:	9e 10 00 1c 	mov  %i4, %o7
40005c2c:	f8 27 bf d4 	st  %i4, [ %fp + -44 ]
40005c30:	aa 10 00 1c 	mov  %i4, %l5
40005c34:	80 a5 60 0f 	cmp  %l5, 0xf
40005c38:	c0 24 60 04 	clr  [ %l1 + 4 ]
40005c3c:	82 40 20 00 	addx  %g0, 0, %g1
40005c40:	80 a3 e0 17 	cmp  %o7, 0x17
40005c44:	04 80 03 fd 	ble  40006c38 <_dtoa_r+0x12a4>
40005c48:	a4 08 40 12 	and  %g1, %l2, %l2
40005c4c:	84 10 20 01 	mov  1, %g2
40005c50:	82 10 20 04 	mov  4, %g1
40005c54:	92 10 00 02 	mov  %g2, %o1
40005c58:	83 28 60 01 	sll  %g1, 1, %g1
40005c5c:	86 00 60 14 	add  %g1, 0x14, %g3
40005c60:	80 a3 c0 03 	cmp  %o7, %g3
40005c64:	1a bf ff fc 	bcc  40005c54 <_dtoa_r+0x2c0>
40005c68:	84 00 a0 01 	inc  %g2
40005c6c:	d2 24 60 04 	st  %o1, [ %l1 + 4 ]
40005c70:	d5 3f bf e0 	std  %f10, [ %fp + -32 ]
40005c74:	40 00 0a 27 	call  40008510 <_Balloc>
40005c78:	90 10 00 18 	mov  %i0, %o0
40005c7c:	d0 24 40 00 	st  %o0, [ %l1 ]
40005c80:	c2 06 20 24 	ld  [ %i0 + 0x24 ], %g1
40005c84:	80 8c a0 ff 	btst  0xff, %l2
40005c88:	e2 00 40 00 	ld  [ %g1 ], %l1
40005c8c:	02 80 00 bd 	be  40005f80 <_dtoa_r+0x5ec>
40005c90:	d5 1f bf e0 	ldd  [ %fp + -32 ], %f10
40005c94:	80 a5 20 00 	cmp  %l4, 0
40005c98:	04 80 01 e1 	ble  4000641c <_dtoa_r+0xa88>
40005c9c:	84 0d 20 0f 	and  %l4, 0xf, %g2
40005ca0:	07 10 00 3b 	sethi  %hi(0x4000ec00), %g3
40005ca4:	85 28 a0 03 	sll  %g2, 3, %g2
40005ca8:	86 10 e2 a0 	or  %g3, 0x2a0, %g3
40005cac:	83 3d 20 04 	sra  %l4, 4, %g1
40005cb0:	80 8d 21 00 	btst  0x100, %l4
40005cb4:	02 80 02 77 	be  40006690 <_dtoa_r+0xcfc>
40005cb8:	d9 18 c0 02 	ldd  [ %g3 + %g2 ], %f12
40005cbc:	05 10 00 3b 	sethi  %hi(0x4000ec00), %g2
40005cc0:	82 08 60 0f 	and  %g1, 0xf, %g1
40005cc4:	d1 18 a2 98 	ldd  [ %g2 + 0x298 ], %f8
40005cc8:	84 10 20 03 	mov  3, %g2
40005ccc:	91 a2 89 c8 	fdivd  %f10, %f8, %f8
40005cd0:	80 a0 60 00 	cmp  %g1, 0
40005cd4:	22 80 00 0e 	be,a   40005d0c <_dtoa_r+0x378>
40005cd8:	91 a2 09 cc 	fdivd  %f8, %f12, %f8
40005cdc:	07 10 00 3b 	sethi  %hi(0x4000ec00), %g3
40005ce0:	86 10 e2 78 	or  %g3, 0x278, %g3	! 4000ee78 <__mprec_bigtens>
40005ce4:	80 88 60 01 	btst  1, %g1
40005ce8:	02 80 00 05 	be  40005cfc <_dtoa_r+0x368>
40005cec:	83 38 60 01 	sra  %g1, 1, %g1
40005cf0:	dd 18 c0 00 	ldd  [ %g3 ], %f14
40005cf4:	84 00 a0 01 	inc  %g2
40005cf8:	99 a3 09 4e 	fmuld  %f12, %f14, %f12
40005cfc:	80 a0 60 00 	cmp  %g1, 0
40005d00:	12 bf ff f9 	bne  40005ce4 <_dtoa_r+0x350>
40005d04:	86 00 e0 08 	add  %g3, 8, %g3
40005d08:	91 a2 09 cc 	fdivd  %f8, %f12, %f8
40005d0c:	c2 07 bf d8 	ld  [ %fp + -40 ], %g1
40005d10:	80 a0 60 00 	cmp  %g1, 0
40005d14:	22 80 00 09 	be,a   40005d38 <_dtoa_r+0x3a4>
40005d18:	c4 27 bf e0 	st  %g2, [ %fp + -32 ]
40005d1c:	03 10 00 3b 	sethi  %hi(0x4000ec00), %g1
40005d20:	d9 18 61 c0 	ldd  [ %g1 + 0x1c0 ], %f12	! 4000edc0 <blanks.1+0x50>
40005d24:	81 aa 0a cc 	fcmped  %f8, %f12
40005d28:	01 00 00 00 	nop 
40005d2c:	09 80 02 dd 	fbl  400068a0 <_dtoa_r+0xf0c>
40005d30:	80 a5 60 00 	cmp  %l5, 0
40005d34:	c4 27 bf e0 	st  %g2, [ %fp + -32 ]
40005d38:	03 10 00 3b 	sethi  %hi(0x4000ec00), %g1
40005d3c:	d9 07 bf e0 	ld  [ %fp + -32 ], %f12
40005d40:	dd 18 61 d0 	ldd  [ %g1 + 0x1d0 ], %f14
40005d44:	99 a0 19 0c 	fitod  %f12, %f12
40005d48:	99 a3 09 48 	fmuld  %f12, %f8, %f12
40005d4c:	99 a3 08 4e 	faddd  %f12, %f14, %f12
40005d50:	d9 3f bf e0 	std  %f12, [ %fp + -32 ]
40005d54:	03 3f 30 00 	sethi  %hi(0xfcc00000), %g1
40005d58:	d4 1f bf e0 	ldd  [ %fp + -32 ], %o2
40005d5c:	80 a5 60 00 	cmp  %l5, 0
40005d60:	86 10 00 0b 	mov  %o3, %g3
40005d64:	02 80 00 7a 	be  40005f4c <_dtoa_r+0x5b8>
40005d68:	84 02 80 01 	add  %o2, %g1, %g2
40005d6c:	9e 10 00 14 	mov  %l4, %o7
40005d70:	92 10 00 15 	mov  %l5, %o1
40005d74:	99 a0 1a 48 	fdtoi  %f8, %f12
40005d78:	d9 27 bf e0 	st  %f12, [ %fp + -32 ]
40005d7c:	c2 07 bf e0 	ld  [ %fp + -32 ], %g1
40005d80:	c4 3f bf e0 	std  %g2, [ %fp + -32 ]
40005d84:	94 00 60 30 	add  %g1, 0x30, %o2
40005d88:	05 10 00 3b 	sethi  %hi(0x4000ec00), %g2
40005d8c:	d4 2c 40 00 	stb  %o2, [ %l1 ]
40005d90:	84 10 a2 a0 	or  %g2, 0x2a0, %g2
40005d94:	9d a0 19 0c 	fitod  %f12, %f14
40005d98:	90 02 7f ff 	add  %o1, -1, %o0
40005d9c:	91 a2 08 ce 	fsubd  %f8, %f14, %f8
40005da0:	91 2a 20 03 	sll  %o0, 3, %o0
40005da4:	96 04 60 01 	add  %l1, 1, %o3
40005da8:	e1 18 80 08 	ldd  [ %g2 + %o0 ], %f16
40005dac:	82 10 00 0a 	mov  %o2, %g1
40005db0:	c4 07 bf f0 	ld  [ %fp + -16 ], %g2
40005db4:	80 a0 a0 00 	cmp  %g2, 0
40005db8:	02 80 02 3d 	be  400066ac <_dtoa_r+0xd18>
40005dbc:	d9 1f bf e0 	ldd  [ %fp + -32 ], %f12
40005dc0:	05 10 00 3b 	sethi  %hi(0x4000ec00), %g2
40005dc4:	dd 18 a1 58 	ldd  [ %g2 + 0x158 ], %f14	! 4000ed58 <_global_impure_ptr+0x84>
40005dc8:	9d a3 89 d0 	fdivd  %f14, %f16, %f14
40005dcc:	9d a3 88 cc 	fsubd  %f14, %f12, %f14
40005dd0:	81 ab 8a c8 	fcmped  %f14, %f8
40005dd4:	01 00 00 00 	nop 
40005dd8:	0d 80 03 3d 	fbg  40006acc <_dtoa_r+0x1138>
40005ddc:	07 10 00 3b 	sethi  %hi(0x4000ec00), %g3
40005de0:	84 10 20 00 	clr  %g2
40005de4:	e5 18 e1 c0 	ldd  [ %g3 + 0x1c0 ], %f18
40005de8:	07 10 00 3b 	sethi  %hi(0x4000ec00), %g3
40005dec:	10 80 00 12 	b  40005e34 <_dtoa_r+0x4a0>
40005df0:	e1 18 e1 c8 	ldd  [ %g3 + 0x1c8 ], %f16	! 4000edc8 <blanks.1+0x58>
40005df4:	84 00 a0 01 	inc  %g2
40005df8:	80 a0 80 09 	cmp  %g2, %o1
40005dfc:	16 80 00 61 	bge  40005f80 <_dtoa_r+0x5ec>
40005e00:	96 02 e0 01 	inc  %o3
40005e04:	91 a2 09 50 	fmuld  %f8, %f16, %f8
40005e08:	99 a0 1a 48 	fdtoi  %f8, %f12
40005e0c:	d9 27 bf e0 	st  %f12, [ %fp + -32 ]
40005e10:	c2 07 bf e0 	ld  [ %fp + -32 ], %g1
40005e14:	82 00 60 30 	add  %g1, 0x30, %g1
40005e18:	9d a3 89 50 	fmuld  %f14, %f16, %f14
40005e1c:	99 a0 19 0c 	fitod  %f12, %f12
40005e20:	91 a2 08 cc 	fsubd  %f8, %f12, %f8
40005e24:	81 aa 0a ce 	fcmped  %f8, %f14
40005e28:	01 00 00 00 	nop 
40005e2c:	09 80 03 28 	fbl  40006acc <_dtoa_r+0x1138>
40005e30:	c2 2a ff ff 	stb  %g1, [ %o3 + -1 ]
40005e34:	99 a4 88 c8 	fsubd  %f18, %f8, %f12
40005e38:	81 ab 0a ce 	fcmped  %f12, %f14
40005e3c:	01 00 00 00 	nop 
40005e40:	19 bf ff ed 	fbuge  40005df4 <_dtoa_r+0x460>
40005e44:	01 00 00 00 	nop 
40005e48:	b6 10 00 11 	mov  %l1, %i3
40005e4c:	a8 03 e0 01 	add  %o7, 1, %l4
40005e50:	10 80 00 07 	b  40005e6c <_dtoa_r+0x4d8>
40005e54:	a2 10 00 0b 	mov  %o3, %l1
40005e58:	80 a0 c0 1b 	cmp  %g3, %i3
40005e5c:	02 80 02 f8 	be  40006a3c <_dtoa_r+0x10a8>
40005e60:	82 10 20 31 	mov  0x31, %g1
40005e64:	c2 08 ff ff 	ldub  [ %g3 + -1 ], %g1
40005e68:	a2 10 00 03 	mov  %g3, %l1
40005e6c:	85 28 60 18 	sll  %g1, 0x18, %g2
40005e70:	85 38 a0 18 	sra  %g2, 0x18, %g2
40005e74:	80 a0 a0 39 	cmp  %g2, 0x39
40005e78:	02 bf ff f8 	be  40005e58 <_dtoa_r+0x4c4>
40005e7c:	86 04 7f ff 	add  %l1, -1, %g3
40005e80:	82 00 60 01 	inc  %g1
40005e84:	10 80 00 bd 	b  40006178 <_dtoa_r+0x7e4>
40005e88:	c2 28 c0 00 	stb  %g1, [ %g3 ]
40005e8c:	82 10 63 0f 	or  %g1, 0x30f, %g1
40005e90:	c2 27 40 00 	st  %g1, [ %i5 ]
40005e94:	c4 07 bf f4 	ld  [ %fp + -12 ], %g2
40005e98:	03 3f fc 00 	sethi  %hi(0xfff00000), %g1
40005e9c:	82 2e 40 01 	andn  %i1, %g1, %g1
40005ea0:	80 90 40 02 	orcc  %g1, %g2, %g0
40005ea4:	12 80 00 17 	bne  40005f00 <_dtoa_r+0x56c>
40005ea8:	c2 07 a0 60 	ld  [ %fp + 0x60 ], %g1
40005eac:	37 10 00 3b 	sethi  %hi(0x4000ec00), %i3
40005eb0:	80 a0 60 00 	cmp  %g1, 0
40005eb4:	02 bf fe ed 	be  40005a68 <_dtoa_r+0xd4>
40005eb8:	b6 16 e1 80 	or  %i3, 0x180, %i3
40005ebc:	82 06 e0 08 	add  %i3, 8, %g1
40005ec0:	c4 07 a0 60 	ld  [ %fp + 0x60 ], %g2
40005ec4:	c2 20 80 00 	st  %g1, [ %g2 ]
40005ec8:	81 c7 e0 08 	ret 
40005ecc:	91 e8 00 1b 	restore  %g0, %i3, %o0
40005ed0:	d5 3f bf f0 	std  %f10, [ %fp + -16 ]
40005ed4:	c4 1f bf f0 	ldd  [ %fp + -16 ], %g2
40005ed8:	d5 27 bf f0 	st  %f10, [ %fp + -16 ]
40005edc:	f2 07 bf f0 	ld  [ %fp + -16 ], %i1
40005ee0:	09 3f fc 00 	sethi  %hi(0xfff00000), %g4
40005ee4:	88 2e 40 04 	andn  %i1, %g4, %g4
40005ee8:	33 0f fc 00 	sethi  %hi(0x3ff00000), %i1
40005eec:	82 00 7c 01 	add  %g1, -1023, %g1
40005ef0:	84 11 00 19 	or  %g4, %i1, %g2
40005ef4:	de 07 bf f8 	ld  [ %fp + -8 ], %o7
40005ef8:	10 bf ff 07 	b  40005b14 <_dtoa_r+0x180>
40005efc:	b2 10 20 00 	clr  %i1
40005f00:	37 10 00 3b 	sethi  %hi(0x4000ec00), %i3
40005f04:	80 a0 60 00 	cmp  %g1, 0
40005f08:	02 bf fe d8 	be  40005a68 <_dtoa_r+0xd4>
40005f0c:	b6 16 e1 90 	or  %i3, 0x190, %i3
40005f10:	82 06 e0 03 	add  %i3, 3, %g1
40005f14:	c4 07 a0 60 	ld  [ %fp + 0x60 ], %g2
40005f18:	10 bf ff ec 	b  40005ec8 <_dtoa_r+0x534>
40005f1c:	c2 20 80 00 	st  %g1, [ %g2 ]
40005f20:	03 10 00 3b 	sethi  %hi(0x4000ec00), %g1
40005f24:	d9 07 bf e0 	ld  [ %fp + -32 ], %f12
40005f28:	dd 18 61 d0 	ldd  [ %g1 + 0x1d0 ], %f14
40005f2c:	99 a0 19 0c 	fitod  %f12, %f12
40005f30:	03 3f 30 00 	sethi  %hi(0xfcc00000), %g1
40005f34:	99 a3 09 48 	fmuld  %f12, %f8, %f12
40005f38:	99 a3 08 4e 	faddd  %f12, %f14, %f12
40005f3c:	d9 3f bf e0 	std  %f12, [ %fp + -32 ]
40005f40:	d4 1f bf e0 	ldd  [ %fp + -32 ], %o2
40005f44:	86 10 00 0b 	mov  %o3, %g3
40005f48:	84 02 80 01 	add  %o2, %g1, %g2
40005f4c:	c4 3f bf e0 	std  %g2, [ %fp + -32 ]
40005f50:	03 10 00 3b 	sethi  %hi(0x4000ec00), %g1
40005f54:	dd 1f bf e0 	ldd  [ %fp + -32 ], %f14
40005f58:	d9 18 61 d8 	ldd  [ %g1 + 0x1d8 ], %f12
40005f5c:	91 a2 08 cc 	fsubd  %f8, %f12, %f8
40005f60:	81 aa 0a ce 	fcmped  %f8, %f14
40005f64:	01 00 00 00 	nop 
40005f68:	0d 80 02 73 	fbg  40006934 <_dtoa_r+0xfa0>
40005f6c:	9d a0 00 ae 	fnegs  %f14, %f14
40005f70:	81 aa 0a ce 	fcmped  %f8, %f14
40005f74:	01 00 00 00 	nop 
40005f78:	29 80 02 1c 	fbl,a   400067e8 <_dtoa_r+0xe54>
40005f7c:	a0 10 20 00 	clr  %l0	! 0 <__bcc_cfg_skip_clear_bss>
40005f80:	c2 07 bf fc 	ld  [ %fp + -4 ], %g1
40005f84:	80 a0 60 00 	cmp  %g1, 0
40005f88:	06 80 00 08 	bl  40005fa8 <_dtoa_r+0x614>
40005f8c:	80 a5 20 0e 	cmp  %l4, 0xe
40005f90:	04 80 00 03 	ble  40005f9c <_dtoa_r+0x608>
40005f94:	84 10 20 01 	mov  1, %g2
40005f98:	84 10 20 00 	clr  %g2
40005f9c:	80 88 a0 ff 	btst  0xff, %g2
40005fa0:	32 80 01 41 	bne,a   400064a4 <_dtoa_r+0xb10>
40005fa4:	83 2d 20 03 	sll  %l4, 3, %g1
40005fa8:	c4 07 bf f0 	ld  [ %fp + -16 ], %g2
40005fac:	80 a0 a0 00 	cmp  %g2, 0
40005fb0:	02 80 00 bf 	be  400062ac <_dtoa_r+0x918>
40005fb4:	84 10 00 10 	mov  %l0, %g2
40005fb8:	80 a6 e0 01 	cmp  %i3, 1
40005fbc:	04 80 02 50 	ble  400068fc <_dtoa_r+0xf68>
40005fc0:	80 a6 60 00 	cmp  %i1, 0
40005fc4:	82 05 7f ff 	add  %l5, -1, %g1
40005fc8:	80 a4 00 01 	cmp  %l0, %g1
40005fcc:	16 80 00 06 	bge  40005fe4 <_dtoa_r+0x650>
40005fd0:	84 24 00 01 	sub  %l0, %g1, %g2
40005fd4:	a0 20 40 10 	sub  %g1, %l0, %l0
40005fd8:	84 10 20 00 	clr  %g2
40005fdc:	ac 05 80 10 	add  %l6, %l0, %l6
40005fe0:	a0 10 00 01 	mov  %g1, %l0
40005fe4:	80 a5 60 00 	cmp  %l5, 0
40005fe8:	06 80 00 05 	bl  40005ffc <_dtoa_r+0x668>
40005fec:	a4 24 c0 15 	sub  %l3, %l5, %l2
40005ff0:	a4 10 00 13 	mov  %l3, %l2
40005ff4:	ae 05 c0 15 	add  %l7, %l5, %l7
40005ff8:	a6 04 c0 15 	add  %l3, %l5, %l3
40005ffc:	c4 27 bf e0 	st  %g2, [ %fp + -32 ]
40006000:	92 10 20 01 	mov  1, %o1
40006004:	40 00 0a 66 	call  4000899c <__i2b>
40006008:	90 10 00 18 	mov  %i0, %o0
4000600c:	c4 07 bf e0 	ld  [ %fp + -32 ], %g2
40006010:	b2 10 00 08 	mov  %o0, %i1
40006014:	80 a4 a0 00 	cmp  %l2, 0
40006018:	04 80 00 09 	ble  4000603c <_dtoa_r+0x6a8>
4000601c:	80 a5 e0 00 	cmp  %l7, 0
40006020:	04 80 00 07 	ble  4000603c <_dtoa_r+0x6a8>
40006024:	80 a4 80 17 	cmp  %l2, %l7
40006028:	14 80 01 c8 	bg  40006748 <_dtoa_r+0xdb4>
4000602c:	82 10 00 12 	mov  %l2, %g1
40006030:	a6 24 c0 01 	sub  %l3, %g1, %l3
40006034:	a4 24 80 01 	sub  %l2, %g1, %l2
40006038:	ae 25 c0 01 	sub  %l7, %g1, %l7
4000603c:	80 a4 20 00 	cmp  %l0, 0
40006040:	02 80 00 0a 	be  40006068 <_dtoa_r+0x6d4>
40006044:	c2 07 bf f0 	ld  [ %fp + -16 ], %g1
40006048:	80 a0 60 00 	cmp  %g1, 0
4000604c:	02 80 02 34 	be  4000691c <_dtoa_r+0xf88>
40006050:	80 a0 a0 00 	cmp  %g2, 0
40006054:	14 80 01 e7 	bg  400067f0 <_dtoa_r+0xe5c>
40006058:	94 10 00 02 	mov  %g2, %o2
4000605c:	94 a4 00 02 	subcc  %l0, %g2, %o2
40006060:	12 80 01 f3 	bne  4000682c <_dtoa_r+0xe98>
40006064:	92 10 00 1a 	mov  %i2, %o1
40006068:	92 10 20 01 	mov  1, %o1
4000606c:	40 00 0a 4c 	call  4000899c <__i2b>
40006070:	90 10 00 18 	mov  %i0, %o0
40006074:	80 a5 a0 00 	cmp  %l6, 0
40006078:	14 80 01 1e 	bg  400064f0 <_dtoa_r+0xb5c>
4000607c:	a0 10 00 08 	mov  %o0, %l0
40006080:	80 a6 e0 01 	cmp  %i3, 1
40006084:	04 80 01 fc 	ble  40006874 <_dtoa_r+0xee0>
40006088:	c0 27 bf e0 	clr  [ %fp + -32 ]
4000608c:	80 a5 a0 00 	cmp  %l6, 0
40006090:	12 80 01 20 	bne  40006510 <_dtoa_r+0xb7c>
40006094:	82 10 20 01 	mov  1, %g1
40006098:	82 00 40 17 	add  %g1, %l7, %g1
4000609c:	82 88 60 1f 	andcc  %g1, 0x1f, %g1
400060a0:	22 80 00 7f 	be,a   4000629c <_dtoa_r+0x908>
400060a4:	82 10 20 1c 	mov  0x1c, %g1
400060a8:	84 10 20 20 	mov  0x20, %g2
400060ac:	84 20 80 01 	sub  %g2, %g1, %g2
400060b0:	80 a0 a0 04 	cmp  %g2, 4
400060b4:	04 80 02 da 	ble  40006c1c <_dtoa_r+0x1288>
400060b8:	84 10 20 1c 	mov  0x1c, %g2
400060bc:	82 20 80 01 	sub  %g2, %g1, %g1
400060c0:	a6 04 c0 01 	add  %l3, %g1, %l3
400060c4:	a4 04 80 01 	add  %l2, %g1, %l2
400060c8:	ae 05 c0 01 	add  %l7, %g1, %l7
400060cc:	80 a4 e0 00 	cmp  %l3, 0
400060d0:	04 80 00 08 	ble  400060f0 <_dtoa_r+0x75c>
400060d4:	80 a5 e0 00 	cmp  %l7, 0
400060d8:	92 10 00 1a 	mov  %i2, %o1
400060dc:	94 10 00 13 	mov  %l3, %o2
400060e0:	40 00 0b 62 	call  40008e68 <__lshift>
400060e4:	90 10 00 18 	mov  %i0, %o0
400060e8:	b4 10 00 08 	mov  %o0, %i2
400060ec:	80 a5 e0 00 	cmp  %l7, 0
400060f0:	04 80 00 08 	ble  40006110 <_dtoa_r+0x77c>
400060f4:	80 a6 e0 02 	cmp  %i3, 2
400060f8:	92 10 00 10 	mov  %l0, %o1
400060fc:	94 10 00 17 	mov  %l7, %o2
40006100:	40 00 0b 5a 	call  40008e68 <__lshift>
40006104:	90 10 00 18 	mov  %i0, %o0
40006108:	a0 10 00 08 	mov  %o0, %l0
4000610c:	80 a6 e0 02 	cmp  %i3, 2
40006110:	14 80 00 03 	bg  4000611c <_dtoa_r+0x788>
40006114:	a6 10 20 01 	mov  1, %l3
40006118:	a6 10 20 00 	clr  %l3
4000611c:	c2 07 bf d8 	ld  [ %fp + -40 ], %g1
40006120:	80 a0 60 00 	cmp  %g1, 0
40006124:	12 80 01 07 	bne  40006540 <_dtoa_r+0xbac>
40006128:	92 10 00 10 	mov  %l0, %o1
4000612c:	80 a5 60 00 	cmp  %l5, 0
40006130:	14 80 00 62 	bg  400062b8 <_dtoa_r+0x924>
40006134:	80 8c e0 ff 	btst  0xff, %l3
40006138:	02 80 00 61 	be  400062bc <_dtoa_r+0x928>
4000613c:	c2 07 bf f0 	ld  [ %fp + -16 ], %g1
40006140:	80 a5 60 00 	cmp  %l5, 0
40006144:	02 80 01 83 	be  40006750 <_dtoa_r+0xdbc>
40006148:	92 10 00 10 	mov  %l0, %o1
4000614c:	a8 38 00 1c 	xnor  %g0, %i4, %l4
40006150:	b6 10 00 11 	mov  %l1, %i3
40006154:	92 10 00 10 	mov  %l0, %o1
40006158:	40 00 09 22 	call  400085e0 <_Bfree>
4000615c:	90 10 00 18 	mov  %i0, %o0
40006160:	80 a6 60 00 	cmp  %i1, 0
40006164:	02 80 00 05 	be  40006178 <_dtoa_r+0x7e4>
40006168:	a8 05 20 01 	inc  %l4
4000616c:	92 10 00 19 	mov  %i1, %o1
40006170:	40 00 09 1c 	call  400085e0 <_Bfree>
40006174:	90 10 00 18 	mov  %i0, %o0
40006178:	92 10 00 1a 	mov  %i2, %o1
4000617c:	40 00 09 19 	call  400085e0 <_Bfree>
40006180:	90 10 00 18 	mov  %i0, %o0
40006184:	c0 2c 40 00 	clrb  [ %l1 ]
40006188:	e8 27 40 00 	st  %l4, [ %i5 ]
4000618c:	c2 07 a0 60 	ld  [ %fp + 0x60 ], %g1
40006190:	80 a0 60 00 	cmp  %g1, 0
40006194:	02 bf fe 35 	be  40005a68 <_dtoa_r+0xd4>
40006198:	01 00 00 00 	nop 
4000619c:	e2 20 40 00 	st  %l1, [ %g1 ]
400061a0:	81 c7 e0 08 	ret 
400061a4:	91 e8 00 1b 	restore  %g0, %i3, %o0
400061a8:	c0 27 bf d8 	clr  [ %fp + -40 ]
400061ac:	80 a5 e0 00 	cmp  %l7, 0
400061b0:	06 80 00 21 	bl  40006234 <_dtoa_r+0x8a0>
400061b4:	a6 10 20 00 	clr  %l3
400061b8:	ae 05 c0 16 	add  %l7, %l6, %l7
400061bc:	a8 10 00 16 	mov  %l6, %l4
400061c0:	a0 10 20 00 	clr  %l0
400061c4:	80 a6 e0 09 	cmp  %i3, 9
400061c8:	08 bf fe 8a 	bleu  40005bf0 <_dtoa_r+0x25c>
400061cc:	e2 06 20 24 	ld  [ %i0 + 0x24 ], %l1
400061d0:	82 10 20 01 	mov  1, %g1
400061d4:	a4 10 20 00 	clr  %l2
400061d8:	b6 10 20 00 	clr  %i3
400061dc:	c2 27 bf f0 	st  %g1, [ %fp + -16 ]
400061e0:	aa 10 3f ff 	mov  -1, %l5
400061e4:	b8 10 20 00 	clr  %i4
400061e8:	c0 24 60 04 	clr  [ %l1 + 4 ]
400061ec:	ea 27 bf d4 	st  %l5, [ %fp + -44 ]
400061f0:	10 bf fe a0 	b  40005c70 <_dtoa_r+0x2dc>
400061f4:	92 10 20 00 	clr  %o1
400061f8:	80 a6 e0 03 	cmp  %i3, 3
400061fc:	32 80 02 91 	bne,a   40006c40 <_dtoa_r+0x12ac>
40006200:	c0 24 60 04 	clr  [ %l1 + 4 ]
40006204:	82 07 00 14 	add  %i4, %l4, %g1
40006208:	aa 00 60 01 	add  %g1, 1, %l5
4000620c:	9e 95 60 00 	orcc  %l5, 0, %o7
40006210:	14 bf fe 89 	bg  40005c34 <_dtoa_r+0x2a0>
40006214:	c2 27 bf d4 	st  %g1, [ %fp + -44 ]
40006218:	10 bf fe 87 	b  40005c34 <_dtoa_r+0x2a0>
4000621c:	9e 10 20 01 	mov  1, %o7
40006220:	84 10 20 01 	mov  1, %g2
40006224:	c4 27 bf d8 	st  %g2, [ %fp + -40 ]
40006228:	80 a5 e0 00 	cmp  %l7, 0
4000622c:	16 bf fe 67 	bge  40005bc8 <_dtoa_r+0x234>
40006230:	a6 10 20 00 	clr  %l3
40006234:	98 10 20 01 	mov  1, %o4
40006238:	ae 10 20 00 	clr  %l7
4000623c:	10 bf fe 63 	b  40005bc8 <_dtoa_r+0x234>
40006240:	a6 23 00 01 	sub  %o4, %g1, %l3
40006244:	40 00 06 27 	call  40007ae0 <malloc>
40006248:	90 10 20 10 	mov  0x10, %o0
4000624c:	d0 26 20 24 	st  %o0, [ %i0 + 0x24 ]
40006250:	c0 22 20 04 	clr  [ %o0 + 4 ]
40006254:	c0 22 20 08 	clr  [ %o0 + 8 ]
40006258:	c0 22 00 00 	clr  [ %o0 ]
4000625c:	10 bf fd e4 	b  400059ec <_dtoa_r+0x58>
40006260:	c0 22 20 0c 	clr  [ %o0 + 0xc ]
40006264:	d9 07 bf f0 	ld  [ %fp + -16 ], %f12
40006268:	99 a0 19 0c 	fitod  %f12, %f12
4000626c:	81 ab 0a 48 	fcmpd  %f12, %f8
40006270:	01 00 00 00 	nop 
40006274:	23 bf fe 44 	fbne,a   40005b84 <_dtoa_r+0x1f0>
40006278:	ac 05 bf ff 	add  %l6, -1, %l6
4000627c:	10 bf fe 43 	b  40005b88 <_dtoa_r+0x1f4>
40006280:	82 23 c0 01 	sub  %o7, %g1, %g1
40006284:	37 10 00 3b 	sethi  %hi(0x4000ec00), %i3
40006288:	b6 16 e1 30 	or  %i3, 0x130, %i3	! 4000ed30 <_global_impure_ptr+0x5c>
4000628c:	81 c7 e0 08 	ret 
40006290:	91 e8 00 1b 	restore  %g0, %i3, %o0
40006294:	10 bf fe 10 	b  40005ad4 <_dtoa_r+0x140>
40006298:	85 28 80 01 	sll  %g2, %g1, %g2
4000629c:	a6 04 c0 01 	add  %l3, %g1, %l3
400062a0:	a4 04 80 01 	add  %l2, %g1, %l2
400062a4:	10 bf ff 8a 	b  400060cc <_dtoa_r+0x738>
400062a8:	ae 05 c0 01 	add  %l7, %g1, %l7
400062ac:	a4 10 00 13 	mov  %l3, %l2
400062b0:	10 bf ff 59 	b  40006014 <_dtoa_r+0x680>
400062b4:	b2 10 20 00 	clr  %i1
400062b8:	c2 07 bf f0 	ld  [ %fp + -16 ], %g1
400062bc:	80 a0 60 00 	cmp  %g1, 0
400062c0:	02 80 00 b8 	be  400065a0 <_dtoa_r+0xc0c>
400062c4:	a8 05 20 01 	inc  %l4
400062c8:	80 a4 a0 00 	cmp  %l2, 0
400062cc:	04 80 00 08 	ble  400062ec <_dtoa_r+0x958>
400062d0:	c2 07 bf e0 	ld  [ %fp + -32 ], %g1
400062d4:	92 10 00 19 	mov  %i1, %o1
400062d8:	94 10 00 12 	mov  %l2, %o2
400062dc:	40 00 0a e3 	call  40008e68 <__lshift>
400062e0:	90 10 00 18 	mov  %i0, %o0
400062e4:	b2 10 00 08 	mov  %o0, %i1
400062e8:	c2 07 bf e0 	ld  [ %fp + -32 ], %g1
400062ec:	80 a0 60 00 	cmp  %g1, 0
400062f0:	12 80 01 fe 	bne  40006ae8 <_dtoa_r+0x1154>
400062f4:	a4 10 00 19 	mov  %i1, %l2
400062f8:	82 04 7f ff 	add  %l1, -1, %g1
400062fc:	82 00 40 15 	add  %g1, %l5, %g1
40006300:	ac 10 00 11 	mov  %l1, %l6
40006304:	c2 27 bf e0 	st  %g1, [ %fp + -32 ]
40006308:	c2 07 bf ec 	ld  [ %fp + -20 ], %g1
4000630c:	82 08 60 01 	and  %g1, 1, %g1
40006310:	c2 27 bf f0 	st  %g1, [ %fp + -16 ]
40006314:	92 10 00 10 	mov  %l0, %o1
40006318:	7f ff fd 1d 	call  4000578c <quorem>
4000631c:	90 10 00 1a 	mov  %i2, %o0
40006320:	92 10 00 19 	mov  %i1, %o1
40006324:	aa 10 00 08 	mov  %o0, %l5
40006328:	40 00 0b 41 	call  4000902c <__mcmp>
4000632c:	90 10 00 1a 	mov  %i2, %o0
40006330:	92 10 00 10 	mov  %l0, %o1
40006334:	94 10 00 12 	mov  %l2, %o2
40006338:	b8 10 00 08 	mov  %o0, %i4
4000633c:	40 00 0b 56 	call  40009094 <__mdiff>
40006340:	90 10 00 18 	mov  %i0, %o0
40006344:	ae 05 60 30 	add  %l5, 0x30, %l7
40006348:	c4 02 20 0c 	ld  [ %o0 + 0xc ], %g2
4000634c:	a6 10 00 08 	mov  %o0, %l3
40006350:	80 a0 a0 00 	cmp  %g2, 0
40006354:	12 80 01 3a 	bne  4000683c <_dtoa_r+0xea8>
40006358:	92 10 00 08 	mov  %o0, %o1
4000635c:	40 00 0b 34 	call  4000902c <__mcmp>
40006360:	90 10 00 1a 	mov  %i2, %o0
40006364:	92 10 00 13 	mov  %l3, %o1
40006368:	d0 27 bf e8 	st  %o0, [ %fp + -24 ]
4000636c:	40 00 08 9d 	call  400085e0 <_Bfree>
40006370:	90 10 00 18 	mov  %i0, %o0
40006374:	c4 07 bf e8 	ld  [ %fp + -24 ], %g2
40006378:	c2 07 bf f0 	ld  [ %fp + -16 ], %g1
4000637c:	86 10 80 1b 	or  %g2, %i3, %g3
40006380:	80 90 40 03 	orcc  %g1, %g3, %g0
40006384:	02 80 02 09 	be  40006ba8 <_dtoa_r+0x1214>
40006388:	80 a5 e0 39 	cmp  %l7, 0x39
4000638c:	80 a7 20 00 	cmp  %i4, 0
40006390:	06 80 01 b5 	bl  40006a64 <_dtoa_r+0x10d0>
40006394:	a6 05 a0 01 	add  %l6, 1, %l3
40006398:	b8 17 00 1b 	or  %i4, %i3, %i4
4000639c:	c2 07 bf f0 	ld  [ %fp + -16 ], %g1
400063a0:	80 90 40 1c 	orcc  %g1, %i4, %g0
400063a4:	02 80 01 b0 	be  40006a64 <_dtoa_r+0x10d0>
400063a8:	80 a0 a0 00 	cmp  %g2, 0
400063ac:	14 80 01 ef 	bg  40006b68 <_dtoa_r+0x11d4>
400063b0:	80 a5 e0 39 	cmp  %l7, 0x39
400063b4:	ee 2d 80 00 	stb  %l7, [ %l6 ]
400063b8:	c2 07 bf e0 	ld  [ %fp + -32 ], %g1
400063bc:	80 a0 40 16 	cmp  %g1, %l6
400063c0:	02 80 01 f0 	be  40006b80 <_dtoa_r+0x11ec>
400063c4:	92 10 00 1a 	mov  %i2, %o1
400063c8:	96 10 20 00 	clr  %o3
400063cc:	94 10 20 0a 	mov  0xa, %o2
400063d0:	40 00 08 9c 	call  40008640 <__multadd>
400063d4:	90 10 00 18 	mov  %i0, %o0
400063d8:	92 10 00 19 	mov  %i1, %o1
400063dc:	b4 10 00 08 	mov  %o0, %i2
400063e0:	96 10 20 00 	clr  %o3
400063e4:	94 10 20 0a 	mov  0xa, %o2
400063e8:	80 a6 40 12 	cmp  %i1, %l2
400063ec:	02 80 01 1a 	be  40006854 <_dtoa_r+0xec0>
400063f0:	90 10 00 18 	mov  %i0, %o0
400063f4:	40 00 08 93 	call  40008640 <__multadd>
400063f8:	ac 10 00 13 	mov  %l3, %l6
400063fc:	92 10 00 12 	mov  %l2, %o1
40006400:	b2 10 00 08 	mov  %o0, %i1
40006404:	96 10 20 00 	clr  %o3
40006408:	94 10 20 0a 	mov  0xa, %o2
4000640c:	40 00 08 8d 	call  40008640 <__multadd>
40006410:	90 10 00 18 	mov  %i0, %o0
40006414:	10 bf ff c0 	b  40006314 <_dtoa_r+0x980>
40006418:	a4 10 00 08 	mov  %o0, %l2
4000641c:	02 80 00 de 	be  40006794 <_dtoa_r+0xe00>
40006420:	91 a0 00 2a 	fmovs  %f10, %f8
40006424:	9e 20 00 14 	neg  %l4, %o7
40006428:	05 10 00 3b 	sethi  %hi(0x4000ec00), %g2
4000642c:	82 0b e0 0f 	and  %o7, 0xf, %g1
40006430:	84 10 a2 a0 	or  %g2, 0x2a0, %g2
40006434:	83 28 60 03 	sll  %g1, 3, %g1
40006438:	9f 3b e0 04 	sra  %o7, 4, %o7
4000643c:	dd 18 80 01 	ldd  [ %g2 + %g1 ], %f14
40006440:	80 a3 e0 00 	cmp  %o7, 0
40006444:	9d a2 89 4e 	fmuld  %f10, %f14, %f14
40006448:	91 a0 00 2e 	fmovs  %f14, %f8
4000644c:	02 80 01 f0 	be  40006c0c <_dtoa_r+0x1278>
40006450:	93 a0 00 2f 	fmovs  %f15, %f9
40006454:	03 10 00 3b 	sethi  %hi(0x4000ec00), %g1
40006458:	86 10 20 00 	clr  %g3
4000645c:	82 10 62 78 	or  %g1, 0x278, %g1
40006460:	84 10 20 02 	mov  2, %g2
40006464:	80 8b e0 01 	btst  1, %o7
40006468:	02 80 00 06 	be  40006480 <_dtoa_r+0xaec>
4000646c:	9f 3b e0 01 	sra  %o7, 1, %o7
40006470:	d9 18 40 00 	ldd  [ %g1 ], %f12
40006474:	84 00 a0 01 	inc  %g2
40006478:	91 a2 09 4c 	fmuld  %f8, %f12, %f8
4000647c:	86 10 00 12 	mov  %l2, %g3
40006480:	80 a3 e0 00 	cmp  %o7, 0
40006484:	12 bf ff f8 	bne  40006464 <_dtoa_r+0xad0>
40006488:	82 00 60 08 	add  %g1, 8, %g1
4000648c:	80 88 e0 ff 	btst  0xff, %g3
40006490:	12 bf fe 20 	bne  40005d10 <_dtoa_r+0x37c>
40006494:	c2 07 bf d8 	ld  [ %fp + -40 ], %g1
40006498:	91 a0 00 2e 	fmovs  %f14, %f8
4000649c:	10 bf fe 1d 	b  40005d10 <_dtoa_r+0x37c>
400064a0:	93 a0 00 2f 	fmovs  %f15, %f9
400064a4:	05 10 00 3b 	sethi  %hi(0x4000ec00), %g2
400064a8:	80 a7 20 00 	cmp  %i4, 0
400064ac:	84 10 a2 a0 	or  %g2, 0x2a0, %g2
400064b0:	16 80 01 28 	bge  40006950 <_dtoa_r+0xfbc>
400064b4:	dd 18 80 01 	ldd  [ %g2 + %g1 ], %f14
400064b8:	80 a5 60 00 	cmp  %l5, 0
400064bc:	34 80 01 26 	bg,a   40006954 <_dtoa_r+0xfc0>
400064c0:	99 a2 89 ce 	fdivd  %f10, %f14, %f12
400064c4:	12 80 00 c8 	bne  400067e4 <_dtoa_r+0xe50>
400064c8:	03 10 00 3b 	sethi  %hi(0x4000ec00), %g1
400064cc:	a0 10 20 00 	clr  %l0
400064d0:	d1 18 61 d8 	ldd  [ %g1 + 0x1d8 ], %f8
400064d4:	9d a3 89 48 	fmuld  %f14, %f8, %f14
400064d8:	81 aa 8a ce 	fcmped  %f10, %f14
400064dc:	01 00 00 00 	nop 
400064e0:	1b bf ff 1b 	fble  4000614c <_dtoa_r+0x7b8>
400064e4:	b2 10 20 00 	clr  %i1	! 0 <__bcc_cfg_skip_clear_bss>
400064e8:	10 80 00 a6 	b  40006780 <_dtoa_r+0xdec>
400064ec:	b6 10 00 11 	mov  %l1, %i3
400064f0:	92 10 00 08 	mov  %o0, %o1
400064f4:	94 10 00 16 	mov  %l6, %o2
400064f8:	40 00 09 f9 	call  40008cdc <__pow5mult>
400064fc:	90 10 00 18 	mov  %i0, %o0
40006500:	c0 27 bf e0 	clr  [ %fp + -32 ]
40006504:	80 a6 e0 01 	cmp  %i3, 1
40006508:	04 80 00 a6 	ble  400067a0 <_dtoa_r+0xe0c>
4000650c:	a0 10 00 08 	mov  %o0, %l0
40006510:	c2 04 20 10 	ld  [ %l0 + 0x10 ], %g1
40006514:	82 00 60 03 	add  %g1, 3, %g1
40006518:	83 28 60 02 	sll  %g1, 2, %g1
4000651c:	82 04 00 01 	add  %l0, %g1, %g1
40006520:	40 00 08 c4 	call  40008830 <__hi0bits>
40006524:	d0 00 60 04 	ld  [ %g1 + 4 ], %o0
40006528:	82 10 20 20 	mov  0x20, %g1
4000652c:	10 bf fe db 	b  40006098 <_dtoa_r+0x704>
40006530:	82 20 40 08 	sub  %g1, %o0, %g1
40006534:	82 10 20 01 	mov  1, %g1
40006538:	10 bf ff 33 	b  40006204 <_dtoa_r+0x870>
4000653c:	c2 27 bf f0 	st  %g1, [ %fp + -16 ]
40006540:	40 00 0a bb 	call  4000902c <__mcmp>
40006544:	90 10 00 1a 	mov  %i2, %o0
40006548:	80 a2 20 00 	cmp  %o0, 0
4000654c:	16 bf fe f9 	bge  40006130 <_dtoa_r+0x79c>
40006550:	80 a5 60 00 	cmp  %l5, 0
40006554:	92 10 00 1a 	mov  %i2, %o1
40006558:	96 10 20 00 	clr  %o3
4000655c:	94 10 20 0a 	mov  0xa, %o2
40006560:	40 00 08 38 	call  40008640 <__multadd>
40006564:	90 10 00 18 	mov  %i0, %o0
40006568:	c4 07 bf d4 	ld  [ %fp + -44 ], %g2
4000656c:	ae 05 3f ff 	add  %l4, -1, %l7
40006570:	82 00 bf ff 	add  %g2, -1, %g1
40006574:	b4 10 00 08 	mov  %o0, %i2
40006578:	82 10 80 01 	or  %g2, %g1, %g1
4000657c:	c4 07 bf f0 	ld  [ %fp + -16 ], %g2
40006580:	83 30 60 1f 	srl  %g1, 0x1f, %g1
40006584:	80 a0 a0 00 	cmp  %g2, 0
40006588:	12 80 01 8f 	bne  40006bc4 <_dtoa_r+0x1230>
4000658c:	aa 08 40 13 	and  %g1, %l3, %l5
40006590:	80 a5 60 00 	cmp  %l5, 0
40006594:	32 80 01 80 	bne,a   40006b94 <_dtoa_r+0x1200>
40006598:	a8 10 00 17 	mov  %l7, %l4
4000659c:	ea 07 bf d4 	ld  [ %fp + -44 ], %l5
400065a0:	b8 10 20 01 	mov  1, %i4
400065a4:	10 80 00 09 	b  400065c8 <_dtoa_r+0xc34>
400065a8:	b6 04 7f ff 	add  %l1, -1, %i3
400065ac:	92 10 00 1a 	mov  %i2, %o1
400065b0:	96 10 20 00 	clr  %o3
400065b4:	94 10 20 0a 	mov  0xa, %o2
400065b8:	90 10 00 18 	mov  %i0, %o0
400065bc:	40 00 08 21 	call  40008640 <__multadd>
400065c0:	b8 07 20 01 	inc  %i4
400065c4:	b4 10 00 08 	mov  %o0, %i2
400065c8:	92 10 00 10 	mov  %l0, %o1
400065cc:	7f ff fc 70 	call  4000578c <quorem>
400065d0:	90 10 00 1a 	mov  %i2, %o0
400065d4:	ae 02 20 30 	add  %o0, 0x30, %l7
400065d8:	80 a7 00 15 	cmp  %i4, %l5
400065dc:	06 bf ff f4 	bl  400065ac <_dtoa_r+0xc18>
400065e0:	ee 2e c0 1c 	stb  %l7, [ %i3 + %i4 ]
400065e4:	80 a5 60 00 	cmp  %l5, 0
400065e8:	04 80 00 03 	ble  400065f4 <_dtoa_r+0xc60>
400065ec:	b8 10 20 01 	mov  1, %i4
400065f0:	b8 10 00 15 	mov  %l5, %i4
400065f4:	b8 04 40 1c 	add  %l1, %i4, %i4
400065f8:	b6 10 20 00 	clr  %i3
400065fc:	92 10 00 1a 	mov  %i2, %o1
40006600:	94 10 20 01 	mov  1, %o2
40006604:	40 00 0a 19 	call  40008e68 <__lshift>
40006608:	90 10 00 18 	mov  %i0, %o0
4000660c:	92 10 00 10 	mov  %l0, %o1
40006610:	40 00 0a 87 	call  4000902c <__mcmp>
40006614:	b4 10 00 08 	mov  %o0, %i2
40006618:	80 a2 20 00 	cmp  %o0, 0
4000661c:	14 80 00 07 	bg  40006638 <_dtoa_r+0xca4>
40006620:	a6 10 00 1c 	mov  %i4, %l3
40006624:	30 80 00 f6 	b,a   400069fc <_dtoa_r+0x1068>
40006628:	80 a7 00 11 	cmp  %i4, %l1
4000662c:	02 80 01 01 	be  40006a30 <_dtoa_r+0x109c>
40006630:	82 10 20 31 	mov  0x31, %g1
40006634:	a6 10 00 1c 	mov  %i4, %l3
40006638:	b8 07 3f ff 	add  %i4, -1, %i4
4000663c:	c2 4c ff ff 	ldsb  [ %l3 + -1 ], %g1
40006640:	80 a0 60 39 	cmp  %g1, 0x39
40006644:	02 bf ff f9 	be  40006628 <_dtoa_r+0xc94>
40006648:	c4 0c ff ff 	ldub  [ %l3 + -1 ], %g2
4000664c:	84 00 a0 01 	inc  %g2
40006650:	c4 2f 00 00 	stb  %g2, [ %i4 ]
40006654:	92 10 00 10 	mov  %l0, %o1
40006658:	40 00 07 e2 	call  400085e0 <_Bfree>
4000665c:	90 10 00 18 	mov  %i0, %o0
40006660:	80 a6 60 00 	cmp  %i1, 0
40006664:	02 80 00 e3 	be  400069f0 <_dtoa_r+0x105c>
40006668:	80 a6 e0 00 	cmp  %i3, 0
4000666c:	02 80 01 70 	be  40006c2c <_dtoa_r+0x1298>
40006670:	80 a6 c0 19 	cmp  %i3, %i1
40006674:	02 80 01 6e 	be  40006c2c <_dtoa_r+0x1298>
40006678:	92 10 00 1b 	mov  %i3, %o1
4000667c:	90 10 00 18 	mov  %i0, %o0
40006680:	40 00 07 d8 	call  400085e0 <_Bfree>
40006684:	b6 10 00 11 	mov  %l1, %i3
40006688:	10 bf fe b9 	b  4000616c <_dtoa_r+0x7d8>
4000668c:	a2 10 00 13 	mov  %l3, %l1
40006690:	91 a0 00 2a 	fmovs  %f10, %f8
40006694:	93 a0 00 2b 	fmovs  %f11, %f9
40006698:	10 bf fd 8e 	b  40005cd0 <_dtoa_r+0x33c>
4000669c:	84 10 20 02 	mov  2, %g2
400066a0:	aa 10 20 01 	mov  1, %l5
400066a4:	10 bf fe d1 	b  400061e8 <_dtoa_r+0x854>
400066a8:	b8 10 20 01 	mov  1, %i4
400066ac:	07 10 00 3b 	sethi  %hi(0x4000ec00), %g3
400066b0:	a1 a3 09 50 	fmuld  %f12, %f16, %f16
400066b4:	84 04 40 09 	add  %l1, %o1, %g2
400066b8:	80 a2 60 01 	cmp  %o1, 1
400066bc:	02 80 01 4c 	be  40006bec <_dtoa_r+0x1258>
400066c0:	dd 18 e1 c8 	ldd  [ %g3 + 0x1c8 ], %f14
400066c4:	91 a2 09 4e 	fmuld  %f8, %f14, %f8
400066c8:	96 02 e0 01 	inc  %o3
400066cc:	99 a0 1a 48 	fdtoi  %f8, %f12
400066d0:	d9 27 bf e0 	st  %f12, [ %fp + -32 ]
400066d4:	c2 07 bf e0 	ld  [ %fp + -32 ], %g1
400066d8:	82 00 60 30 	add  %g1, 0x30, %g1
400066dc:	c2 2a ff ff 	stb  %g1, [ %o3 + -1 ]
400066e0:	99 a0 19 0c 	fitod  %f12, %f12
400066e4:	80 a2 c0 02 	cmp  %o3, %g2
400066e8:	12 bf ff f7 	bne  400066c4 <_dtoa_r+0xd30>
400066ec:	91 a2 08 cc 	fsubd  %f8, %f12, %f8
400066f0:	07 10 00 3b 	sethi  %hi(0x4000ec00), %g3
400066f4:	d9 18 e1 58 	ldd  [ %g3 + 0x158 ], %f12	! 4000ed58 <_global_impure_ptr+0x84>
400066f8:	9d a4 08 4c 	faddd  %f16, %f12, %f14
400066fc:	81 ab 8a c8 	fcmped  %f14, %f8
40006700:	01 00 00 00 	nop 
40006704:	29 80 00 f6 	fbl,a   40006adc <_dtoa_r+0x1148>
40006708:	b6 10 00 11 	mov  %l1, %i3
4000670c:	99 a3 08 d0 	fsubd  %f12, %f16, %f12
40006710:	81 ab 0a c8 	fcmped  %f12, %f8
40006714:	01 00 00 00 	nop 
40006718:	1d bf fe 1a 	fbule  40005f80 <_dtoa_r+0x5ec>
4000671c:	01 00 00 00 	nop 
40006720:	86 10 00 02 	mov  %g2, %g3
40006724:	84 00 bf ff 	add  %g2, -1, %g2
40006728:	c2 48 80 00 	ldsb  [ %g2 ], %g1
4000672c:	80 a0 60 30 	cmp  %g1, 0x30
40006730:	22 bf ff fd 	be,a   40006724 <_dtoa_r+0xd90>
40006734:	86 10 00 02 	mov  %g2, %g3
40006738:	b6 10 00 11 	mov  %l1, %i3
4000673c:	a8 03 e0 01 	add  %o7, 1, %l4
40006740:	10 bf fe 8e 	b  40006178 <_dtoa_r+0x7e4>
40006744:	a2 10 00 03 	mov  %g3, %l1
40006748:	10 bf fe 3a 	b  40006030 <_dtoa_r+0x69c>
4000674c:	82 10 00 17 	mov  %l7, %g1
40006750:	96 10 20 00 	clr  %o3
40006754:	94 10 20 05 	mov  5, %o2
40006758:	40 00 07 ba 	call  40008640 <__multadd>
4000675c:	90 10 00 18 	mov  %i0, %o0
40006760:	a0 10 00 08 	mov  %o0, %l0
40006764:	90 10 00 1a 	mov  %i2, %o0
40006768:	40 00 0a 31 	call  4000902c <__mcmp>
4000676c:	92 10 00 10 	mov  %l0, %o1
40006770:	80 a2 20 00 	cmp  %o0, 0
40006774:	24 bf fe 77 	ble,a   40006150 <_dtoa_r+0x7bc>
40006778:	a8 38 00 1c 	xnor  %g0, %i4, %l4
4000677c:	b6 10 00 11 	mov  %l1, %i3
40006780:	82 10 20 31 	mov  0x31, %g1
40006784:	a8 05 20 01 	inc  %l4
40006788:	c2 2c 40 00 	stb  %g1, [ %l1 ]
4000678c:	10 bf fe 72 	b  40006154 <_dtoa_r+0x7c0>
40006790:	a2 04 60 01 	inc  %l1
40006794:	93 a0 00 2b 	fmovs  %f11, %f9
40006798:	10 bf fd 5d 	b  40005d0c <_dtoa_r+0x378>
4000679c:	84 10 20 02 	mov  2, %g2
400067a0:	c2 07 bf ec 	ld  [ %fp + -20 ], %g1
400067a4:	80 a0 60 00 	cmp  %g1, 0
400067a8:	32 bf ff 5b 	bne,a   40006514 <_dtoa_r+0xb80>
400067ac:	c2 04 20 10 	ld  [ %l0 + 0x10 ], %g1
400067b0:	c2 07 bf e8 	ld  [ %fp + -24 ], %g1
400067b4:	05 3f fc 00 	sethi  %hi(0xfff00000), %g2
400067b8:	80 a8 40 02 	andncc  %g1, %g2, %g0
400067bc:	12 bf ff 55 	bne  40006510 <_dtoa_r+0xb7c>
400067c0:	05 1f fc 00 	sethi  %hi(0x7ff00000), %g2
400067c4:	80 88 40 02 	btst  %g1, %g2
400067c8:	02 bf fe 31 	be  4000608c <_dtoa_r+0x6f8>
400067cc:	c0 27 bf e0 	clr  [ %fp + -32 ]
400067d0:	82 10 20 01 	mov  1, %g1
400067d4:	a6 04 e0 01 	inc  %l3
400067d8:	ae 05 e0 01 	inc  %l7
400067dc:	10 bf fe 2c 	b  4000608c <_dtoa_r+0x6f8>
400067e0:	c2 27 bf e0 	st  %g1, [ %fp + -32 ]
400067e4:	a0 10 20 00 	clr  %l0
400067e8:	10 bf fe 59 	b  4000614c <_dtoa_r+0x7b8>
400067ec:	b2 10 20 00 	clr  %i1
400067f0:	c4 27 bf e0 	st  %g2, [ %fp + -32 ]
400067f4:	92 10 00 19 	mov  %i1, %o1
400067f8:	40 00 09 39 	call  40008cdc <__pow5mult>
400067fc:	90 10 00 18 	mov  %i0, %o0
40006800:	94 10 00 1a 	mov  %i2, %o2
40006804:	b2 10 00 08 	mov  %o0, %i1
40006808:	90 10 00 18 	mov  %i0, %o0
4000680c:	40 00 08 9c 	call  40008a7c <__multiply>
40006810:	92 10 00 19 	mov  %i1, %o1
40006814:	92 10 00 1a 	mov  %i2, %o1
40006818:	b4 10 00 08 	mov  %o0, %i2
4000681c:	40 00 07 71 	call  400085e0 <_Bfree>
40006820:	90 10 00 18 	mov  %i0, %o0
40006824:	10 bf fe 0e 	b  4000605c <_dtoa_r+0x6c8>
40006828:	c4 07 bf e0 	ld  [ %fp + -32 ], %g2
4000682c:	40 00 09 2c 	call  40008cdc <__pow5mult>
40006830:	90 10 00 18 	mov  %i0, %o0
40006834:	10 bf fe 0d 	b  40006068 <_dtoa_r+0x6d4>
40006838:	b4 10 00 08 	mov  %o0, %i2
4000683c:	84 10 20 01 	mov  1, %g2
40006840:	90 10 00 18 	mov  %i0, %o0
40006844:	40 00 07 67 	call  400085e0 <_Bfree>
40006848:	c4 27 bf e8 	st  %g2, [ %fp + -24 ]
4000684c:	10 bf fe d0 	b  4000638c <_dtoa_r+0x9f8>
40006850:	c4 07 bf e8 	ld  [ %fp + -24 ], %g2
40006854:	40 00 07 7b 	call  40008640 <__multadd>
40006858:	ac 10 00 13 	mov  %l3, %l6
4000685c:	b2 10 00 08 	mov  %o0, %i1
40006860:	10 bf fe ad 	b  40006314 <_dtoa_r+0x980>
40006864:	a4 10 00 08 	mov  %o0, %l2
40006868:	82 10 20 01 	mov  1, %g1
4000686c:	10 bf fc ed 	b  40005c20 <_dtoa_r+0x28c>
40006870:	c2 27 bf f0 	st  %g1, [ %fp + -16 ]
40006874:	c2 07 bf ec 	ld  [ %fp + -20 ], %g1
40006878:	80 a0 60 00 	cmp  %g1, 0
4000687c:	12 bf fe 05 	bne  40006090 <_dtoa_r+0x6fc>
40006880:	80 a5 a0 00 	cmp  %l6, 0
40006884:	c2 07 bf e8 	ld  [ %fp + -24 ], %g1
40006888:	05 3f fc 00 	sethi  %hi(0xfff00000), %g2
4000688c:	80 a8 40 02 	andncc  %g1, %g2, %g0
40006890:	12 bf fe 00 	bne  40006090 <_dtoa_r+0x6fc>
40006894:	80 a5 a0 00 	cmp  %l6, 0
40006898:	10 bf ff cb 	b  400067c4 <_dtoa_r+0xe30>
4000689c:	05 1f fc 00 	sethi  %hi(0x7ff00000), %g2
400068a0:	22 bf fd a0 	be,a   40005f20 <_dtoa_r+0x58c>
400068a4:	c4 27 bf e0 	st  %g2, [ %fp + -32 ]
400068a8:	d2 07 bf d4 	ld  [ %fp + -44 ], %o1
400068ac:	80 a2 60 00 	cmp  %o1, 0
400068b0:	04 bf fd b4 	ble  40005f80 <_dtoa_r+0x5ec>
400068b4:	82 00 a0 01 	add  %g2, 1, %g1
400068b8:	c2 27 bf e0 	st  %g1, [ %fp + -32 ]
400068bc:	03 10 00 3b 	sethi  %hi(0x4000ec00), %g1
400068c0:	dd 18 61 c8 	ldd  [ %g1 + 0x1c8 ], %f14	! 4000edc8 <blanks.1+0x58>
400068c4:	03 10 00 3b 	sethi  %hi(0x4000ec00), %g1
400068c8:	d9 07 bf e0 	ld  [ %fp + -32 ], %f12
400068cc:	91 a2 09 4e 	fmuld  %f8, %f14, %f8
400068d0:	99 a0 19 0c 	fitod  %f12, %f12
400068d4:	dd 18 61 d0 	ldd  [ %g1 + 0x1d0 ], %f14
400068d8:	99 a3 09 48 	fmuld  %f12, %f8, %f12
400068dc:	03 3f 30 00 	sethi  %hi(0xfcc00000), %g1
400068e0:	99 a3 08 4e 	faddd  %f12, %f14, %f12
400068e4:	9e 05 3f ff 	add  %l4, -1, %o7
400068e8:	d9 3f bf e0 	std  %f12, [ %fp + -32 ]
400068ec:	d4 1f bf e0 	ldd  [ %fp + -32 ], %o2
400068f0:	86 10 00 0b 	mov  %o3, %g3
400068f4:	10 bf fd 20 	b  40005d74 <_dtoa_r+0x3e0>
400068f8:	84 02 80 01 	add  %o2, %g1, %g2
400068fc:	22 80 00 53 	be,a   40006a48 <_dtoa_r+0x10b4>
40006900:	c4 07 bf f8 	ld  [ %fp + -8 ], %g2
40006904:	82 00 64 33 	add  %g1, 0x433, %g1
40006908:	a4 10 00 13 	mov  %l3, %l2
4000690c:	ae 05 c0 01 	add  %l7, %g1, %l7
40006910:	84 10 00 10 	mov  %l0, %g2
40006914:	10 bf fd ba 	b  40005ffc <_dtoa_r+0x668>
40006918:	a6 04 c0 01 	add  %l3, %g1, %l3
4000691c:	92 10 00 1a 	mov  %i2, %o1
40006920:	94 10 00 10 	mov  %l0, %o2
40006924:	40 00 08 ee 	call  40008cdc <__pow5mult>
40006928:	90 10 00 18 	mov  %i0, %o0
4000692c:	10 bf fd cf 	b  40006068 <_dtoa_r+0x6d4>
40006930:	b4 10 00 08 	mov  %o0, %i2
40006934:	a0 10 20 00 	clr  %l0
40006938:	10 bf ff 91 	b  4000677c <_dtoa_r+0xde8>
4000693c:	b2 10 20 00 	clr  %i1
40006940:	05 10 00 3b 	sethi  %hi(0x4000ec00), %g2
40006944:	aa 10 3f ff 	mov  -1, %l5
40006948:	84 10 a2 a0 	or  %g2, 0x2a0, %g2
4000694c:	dd 18 80 01 	ldd  [ %g2 + %g1 ], %f14
40006950:	99 a2 89 ce 	fdivd  %f10, %f14, %f12
40006954:	99 a0 1a 4c 	fdtoi  %f12, %f12
40006958:	d9 27 bf f0 	st  %f12, [ %fp + -16 ]
4000695c:	c2 07 bf f0 	ld  [ %fp + -16 ], %g1
40006960:	82 00 60 30 	add  %g1, 0x30, %g1
40006964:	c2 2c 40 00 	stb  %g1, [ %l1 ]
40006968:	91 a0 19 0c 	fitod  %f12, %f8
4000696c:	84 04 60 01 	add  %l1, 1, %g2
40006970:	91 a2 09 4e 	fmuld  %f8, %f14, %f8
40006974:	86 10 20 01 	mov  1, %g3
40006978:	80 a5 60 01 	cmp  %l5, 1
4000697c:	02 80 00 6b 	be  40006b28 <_dtoa_r+0x1194>
40006980:	95 a2 88 c8 	fsubd  %f10, %f8, %f10
40006984:	03 10 00 3b 	sethi  %hi(0x4000ec00), %g1
40006988:	c0 27 bf f0 	clr  [ %fp + -16 ]
4000698c:	c0 27 bf f4 	clr  [ %fp + -12 ]
40006990:	e5 18 61 c8 	ldd  [ %g1 + 0x1c8 ], %f18
40006994:	10 80 00 0e 	b  400069cc <_dtoa_r+0x1038>
40006998:	e1 1f bf f0 	ldd  [ %fp + -16 ], %f16
4000699c:	84 00 a0 01 	inc  %g2
400069a0:	99 a0 1a 4c 	fdtoi  %f12, %f12
400069a4:	d9 27 bf f0 	st  %f12, [ %fp + -16 ]
400069a8:	c2 07 bf f0 	ld  [ %fp + -16 ], %g1
400069ac:	82 00 60 30 	add  %g1, 0x30, %g1
400069b0:	c2 28 bf ff 	stb  %g1, [ %g2 + -1 ]
400069b4:	86 00 e0 01 	inc  %g3
400069b8:	91 a0 19 0c 	fitod  %f12, %f8
400069bc:	80 a0 c0 15 	cmp  %g3, %l5
400069c0:	91 a2 09 4e 	fmuld  %f8, %f14, %f8
400069c4:	02 80 00 59 	be  40006b28 <_dtoa_r+0x1194>
400069c8:	95 a2 88 c8 	fsubd  %f10, %f8, %f10
400069cc:	95 a2 89 52 	fmuld  %f10, %f18, %f10
400069d0:	81 aa 8a 50 	fcmpd  %f10, %f16
400069d4:	01 00 00 00 	nop 
400069d8:	23 bf ff f1 	fbne,a   4000699c <_dtoa_r+0x1008>
400069dc:	99 a2 89 ce 	fdivd  %f10, %f14, %f12
400069e0:	b6 10 00 11 	mov  %l1, %i3
400069e4:	a8 05 20 01 	inc  %l4
400069e8:	10 bf fd e4 	b  40006178 <_dtoa_r+0x7e4>
400069ec:	a2 10 00 02 	mov  %g2, %l1
400069f0:	b6 10 00 11 	mov  %l1, %i3
400069f4:	10 bf fd e1 	b  40006178 <_dtoa_r+0x7e4>
400069f8:	a2 10 00 13 	mov  %l3, %l1
400069fc:	12 80 00 06 	bne  40006a14 <_dtoa_r+0x1080>
40006a00:	a6 10 00 1c 	mov  %i4, %l3
40006a04:	80 8d e0 01 	btst  1, %l7
40006a08:	32 bf ff 0d 	bne,a   4000663c <_dtoa_r+0xca8>
40006a0c:	b8 07 3f ff 	add  %i4, -1, %i4
40006a10:	a6 10 00 1c 	mov  %i4, %l3
40006a14:	b8 07 3f ff 	add  %i4, -1, %i4
40006a18:	c2 4f 00 00 	ldsb  [ %i4 ], %g1
40006a1c:	80 a0 60 30 	cmp  %g1, 0x30
40006a20:	22 bf ff fd 	be,a   40006a14 <_dtoa_r+0x1080>
40006a24:	a6 10 00 1c 	mov  %i4, %l3
40006a28:	10 bf ff 0c 	b  40006658 <_dtoa_r+0xcc4>
40006a2c:	92 10 00 10 	mov  %l0, %o1
40006a30:	a8 05 20 01 	inc  %l4
40006a34:	10 bf ff 08 	b  40006654 <_dtoa_r+0xcc0>
40006a38:	c2 2c 40 00 	stb  %g1, [ %l1 ]
40006a3c:	a8 05 20 01 	inc  %l4
40006a40:	10 bf fd ce 	b  40006178 <_dtoa_r+0x7e4>
40006a44:	c2 28 c0 00 	stb  %g1, [ %g3 ]
40006a48:	a4 10 00 13 	mov  %l3, %l2
40006a4c:	82 10 20 36 	mov  0x36, %g1
40006a50:	82 20 40 02 	sub  %g1, %g2, %g1
40006a54:	84 10 00 10 	mov  %l0, %g2
40006a58:	ae 05 c0 01 	add  %l7, %g1, %l7
40006a5c:	10 bf fd 68 	b  40005ffc <_dtoa_r+0x668>
40006a60:	a6 04 c0 01 	add  %l3, %g1, %l3
40006a64:	80 a0 a0 00 	cmp  %g2, 0
40006a68:	04 80 00 0f 	ble  40006aa4 <_dtoa_r+0x1110>
40006a6c:	92 10 00 1a 	mov  %i2, %o1
40006a70:	94 10 20 01 	mov  1, %o2
40006a74:	40 00 08 fd 	call  40008e68 <__lshift>
40006a78:	90 10 00 18 	mov  %i0, %o0
40006a7c:	92 10 00 10 	mov  %l0, %o1
40006a80:	40 00 09 6b 	call  4000902c <__mcmp>
40006a84:	b4 10 00 08 	mov  %o0, %i2
40006a88:	80 a2 20 00 	cmp  %o0, 0
40006a8c:	04 80 00 5a 	ble  40006bf4 <_dtoa_r+0x1260>
40006a90:	01 00 00 00 	nop 
40006a94:	80 a5 e0 39 	cmp  %l7, 0x39
40006a98:	22 80 00 08 	be,a   40006ab8 <_dtoa_r+0x1124>
40006a9c:	b6 10 00 19 	mov  %i1, %i3
40006aa0:	ae 05 60 31 	add  %l5, 0x31, %l7
40006aa4:	b6 10 00 19 	mov  %i1, %i3
40006aa8:	ee 2d 80 00 	stb  %l7, [ %l6 ]
40006aac:	10 bf fe ea 	b  40006654 <_dtoa_r+0xcc0>
40006ab0:	b2 10 00 12 	mov  %l2, %i1
40006ab4:	b6 10 00 19 	mov  %i1, %i3
40006ab8:	82 10 20 39 	mov  0x39, %g1
40006abc:	b8 10 00 13 	mov  %l3, %i4
40006ac0:	c2 2d 80 00 	stb  %g1, [ %l6 ]
40006ac4:	10 bf fe dc 	b  40006634 <_dtoa_r+0xca0>
40006ac8:	b2 10 00 12 	mov  %l2, %i1
40006acc:	b6 10 00 11 	mov  %l1, %i3
40006ad0:	a8 03 e0 01 	add  %o7, 1, %l4
40006ad4:	10 bf fd a9 	b  40006178 <_dtoa_r+0x7e4>
40006ad8:	a2 10 00 0b 	mov  %o3, %l1
40006adc:	a8 03 e0 01 	add  %o7, 1, %l4
40006ae0:	10 bf fc e3 	b  40005e6c <_dtoa_r+0x4d8>
40006ae4:	a2 10 00 02 	mov  %g2, %l1
40006ae8:	d2 06 60 04 	ld  [ %i1 + 4 ], %o1
40006aec:	40 00 06 89 	call  40008510 <_Balloc>
40006af0:	90 10 00 18 	mov  %i0, %o0
40006af4:	d4 06 60 10 	ld  [ %i1 + 0x10 ], %o2
40006af8:	b8 10 00 08 	mov  %o0, %i4
40006afc:	92 06 60 0c 	add  %i1, 0xc, %o1
40006b00:	94 02 a0 02 	add  %o2, 2, %o2
40006b04:	90 02 20 0c 	add  %o0, 0xc, %o0
40006b08:	7f ff ed c2 	call  40002210 <memcpy>
40006b0c:	95 2a a0 02 	sll  %o2, 2, %o2
40006b10:	94 10 20 01 	mov  1, %o2
40006b14:	92 10 00 1c 	mov  %i4, %o1
40006b18:	40 00 08 d4 	call  40008e68 <__lshift>
40006b1c:	90 10 00 18 	mov  %i0, %o0
40006b20:	10 bf fd f6 	b  400062f8 <_dtoa_r+0x964>
40006b24:	a4 10 00 08 	mov  %o0, %l2
40006b28:	95 a2 88 4a 	faddd  %f10, %f10, %f10
40006b2c:	81 aa 8a ce 	fcmped  %f10, %f14
40006b30:	01 00 00 00 	nop 
40006b34:	0d 80 00 1a 	fbg  40006b9c <_dtoa_r+0x1208>
40006b38:	a8 05 20 01 	inc  %l4
40006b3c:	81 aa 8a 4e 	fcmpd  %f10, %f14
40006b40:	01 00 00 00 	nop 
40006b44:	03 80 00 34 	fbne  40006c14 <_dtoa_r+0x1280>
40006b48:	b6 10 00 11 	mov  %l1, %i3
40006b4c:	d9 27 bf f0 	st  %f12, [ %fp + -16 ]
40006b50:	c6 07 bf f0 	ld  [ %fp + -16 ], %g3
40006b54:	80 88 e0 01 	btst  1, %g3
40006b58:	12 bf fc c5 	bne  40005e6c <_dtoa_r+0x4d8>
40006b5c:	a2 10 00 02 	mov  %g2, %l1
40006b60:	10 bf fd 87 	b  4000617c <_dtoa_r+0x7e8>
40006b64:	92 10 00 1a 	mov  %i2, %o1
40006b68:	02 bf ff d3 	be  40006ab4 <_dtoa_r+0x1120>
40006b6c:	82 05 e0 01 	add  %l7, 1, %g1
40006b70:	b6 10 00 19 	mov  %i1, %i3
40006b74:	c2 2d 80 00 	stb  %g1, [ %l6 ]
40006b78:	10 bf fe b7 	b  40006654 <_dtoa_r+0xcc0>
40006b7c:	b2 10 00 12 	mov  %l2, %i1
40006b80:	b6 10 00 19 	mov  %i1, %i3
40006b84:	b8 10 00 13 	mov  %l3, %i4
40006b88:	10 bf fe 9d 	b  400065fc <_dtoa_r+0xc68>
40006b8c:	b2 10 00 12 	mov  %l2, %i1
40006b90:	a8 10 00 17 	mov  %l7, %l4
40006b94:	10 bf fd 6b 	b  40006140 <_dtoa_r+0x7ac>
40006b98:	ea 07 bf d4 	ld  [ %fp + -44 ], %l5
40006b9c:	b6 10 00 11 	mov  %l1, %i3
40006ba0:	10 bf fc b3 	b  40005e6c <_dtoa_r+0x4d8>
40006ba4:	a2 10 00 02 	mov  %g2, %l1
40006ba8:	02 bf ff c3 	be  40006ab4 <_dtoa_r+0x1120>
40006bac:	a6 05 a0 01 	add  %l6, 1, %l3
40006bb0:	80 a7 20 00 	cmp  %i4, 0
40006bb4:	34 bf ff bc 	bg,a   40006aa4 <_dtoa_r+0x1110>
40006bb8:	ae 05 60 31 	add  %l5, 0x31, %l7
40006bbc:	10 bf ff bb 	b  40006aa8 <_dtoa_r+0x1114>
40006bc0:	b6 10 00 19 	mov  %i1, %i3
40006bc4:	92 10 00 19 	mov  %i1, %o1
40006bc8:	96 10 20 00 	clr  %o3
40006bcc:	94 10 20 0a 	mov  0xa, %o2
40006bd0:	40 00 06 9c 	call  40008640 <__multadd>
40006bd4:	90 10 00 18 	mov  %i0, %o0
40006bd8:	80 a5 60 00 	cmp  %l5, 0
40006bdc:	12 bf ff ed 	bne  40006b90 <_dtoa_r+0x11fc>
40006be0:	b2 10 00 08 	mov  %o0, %i1
40006be4:	10 bf fd b9 	b  400062c8 <_dtoa_r+0x934>
40006be8:	ea 07 bf d4 	ld  [ %fp + -44 ], %l5
40006bec:	10 bf fe c1 	b  400066f0 <_dtoa_r+0xd5c>
40006bf0:	84 10 00 0b 	mov  %o3, %g2
40006bf4:	12 bf ff ac 	bne  40006aa4 <_dtoa_r+0x1110>
40006bf8:	80 8d e0 01 	btst  1, %l7
40006bfc:	12 bf ff a7 	bne  40006a98 <_dtoa_r+0x1104>
40006c00:	80 a5 e0 39 	cmp  %l7, 0x39
40006c04:	10 bf ff a9 	b  40006aa8 <_dtoa_r+0x1114>
40006c08:	b6 10 00 19 	mov  %i1, %i3
40006c0c:	10 bf fc 40 	b  40005d0c <_dtoa_r+0x378>
40006c10:	84 10 20 02 	mov  2, %g2
40006c14:	10 bf fd 59 	b  40006178 <_dtoa_r+0x7e4>
40006c18:	a2 10 00 02 	mov  %g2, %l1
40006c1c:	02 bf fd 2c 	be  400060cc <_dtoa_r+0x738>
40006c20:	84 10 20 3c 	mov  0x3c, %g2
40006c24:	10 bf fd 9e 	b  4000629c <_dtoa_r+0x908>
40006c28:	82 20 80 01 	sub  %g2, %g1, %g1
40006c2c:	b6 10 00 11 	mov  %l1, %i3
40006c30:	10 bf fd 4f 	b  4000616c <_dtoa_r+0x7d8>
40006c34:	a2 10 00 13 	mov  %l3, %l1
40006c38:	10 bf fc 0e 	b  40005c70 <_dtoa_r+0x2dc>
40006c3c:	92 10 20 00 	clr  %o1
40006c40:	d5 3f bf f0 	std  %f10, [ %fp + -16 ]
40006c44:	92 10 20 00 	clr  %o1
40006c48:	40 00 06 32 	call  40008510 <_Balloc>
40006c4c:	90 10 00 18 	mov  %i0, %o0
40006c50:	d0 24 40 00 	st  %o0, [ %l1 ]
40006c54:	c4 06 20 24 	ld  [ %i0 + 0x24 ], %g2
40006c58:	c2 07 bf fc 	ld  [ %fp + -4 ], %g1
40006c5c:	80 a0 60 00 	cmp  %g1, 0
40006c60:	06 80 00 0a 	bl  40006c88 <_dtoa_r+0x12f4>
40006c64:	e2 00 80 00 	ld  [ %g2 ], %l1
40006c68:	84 10 20 01 	mov  1, %g2
40006c6c:	80 a5 20 0e 	cmp  %l4, 0xe
40006c70:	04 80 00 03 	ble  40006c7c <_dtoa_r+0x12e8>
40006c74:	d5 1f bf f0 	ldd  [ %fp + -16 ], %f10
40006c78:	84 10 20 00 	clr  %g2
40006c7c:	80 88 a0 ff 	btst  0xff, %g2
40006c80:	32 bf ff 30 	bne,a   40006940 <_dtoa_r+0xfac>
40006c84:	83 2d 20 03 	sll  %l4, 3, %g1
40006c88:	84 10 3f ff 	mov  -1, %g2
40006c8c:	b8 10 20 00 	clr  %i4
40006c90:	c4 27 bf d4 	st  %g2, [ %fp + -44 ]
40006c94:	aa 10 3f ff 	mov  -1, %l5
40006c98:	84 10 20 01 	mov  1, %g2
40006c9c:	10 bf fc c7 	b  40005fb8 <_dtoa_r+0x624>
40006ca0:	c4 27 bf f0 	st  %g2, [ %fp + -16 ]

40006ca4 <__sflush_r>:
40006ca4:	9d e3 bf a0 	save  %sp, -96, %sp
40006ca8:	c2 16 60 0c 	lduh  [ %i1 + 0xc ], %g1
40006cac:	80 88 60 08 	btst  8, %g1
40006cb0:	32 80 00 4c 	bne,a   40006de0 <__sflush_r+0x13c>
40006cb4:	f8 06 60 10 	ld  [ %i1 + 0x10 ], %i4
40006cb8:	82 10 68 00 	or  %g1, 0x800, %g1
40006cbc:	c2 36 60 0c 	sth  %g1, [ %i1 + 0xc ]
40006cc0:	c4 06 60 04 	ld  [ %i1 + 4 ], %g2
40006cc4:	80 a0 a0 00 	cmp  %g2, 0
40006cc8:	24 80 00 66 	ble,a   40006e60 <__sflush_r+0x1bc>
40006ccc:	c4 06 60 40 	ld  [ %i1 + 0x40 ], %g2
40006cd0:	c4 06 60 2c 	ld  [ %i1 + 0x2c ], %g2
40006cd4:	80 a0 a0 00 	cmp  %g2, 0
40006cd8:	02 80 00 3f 	be  40006dd4 <__sflush_r+0x130>
40006cdc:	09 00 00 04 	sethi  %hi(0x1000), %g4
40006ce0:	fa 06 00 00 	ld  [ %i0 ], %i5
40006ce4:	c0 26 00 00 	clr  [ %i0 ]
40006ce8:	86 10 00 01 	mov  %g1, %g3
40006cec:	80 88 40 04 	btst  %g1, %g4
40006cf0:	12 80 00 61 	bne  40006e74 <__sflush_r+0x1d0>
40006cf4:	d2 06 60 20 	ld  [ %i1 + 0x20 ], %o1
40006cf8:	94 10 20 00 	clr  %o2
40006cfc:	96 10 20 01 	mov  1, %o3
40006d00:	9f c0 80 00 	call  %g2
40006d04:	90 10 00 18 	mov  %i0, %o0
40006d08:	80 a2 3f ff 	cmp  %o0, -1
40006d0c:	02 80 00 67 	be  40006ea8 <__sflush_r+0x204>
40006d10:	94 10 00 08 	mov  %o0, %o2
40006d14:	c6 16 60 0c 	lduh  [ %i1 + 0xc ], %g3
40006d18:	c4 06 60 2c 	ld  [ %i1 + 0x2c ], %g2
40006d1c:	d2 06 60 20 	ld  [ %i1 + 0x20 ], %o1
40006d20:	80 88 e0 04 	btst  4, %g3
40006d24:	02 80 00 0a 	be  40006d4c <__sflush_r+0xa8>
40006d28:	96 10 20 00 	clr  %o3
40006d2c:	c6 06 60 04 	ld  [ %i1 + 4 ], %g3
40006d30:	c2 06 60 34 	ld  [ %i1 + 0x34 ], %g1
40006d34:	80 a0 60 00 	cmp  %g1, 0
40006d38:	02 80 00 05 	be  40006d4c <__sflush_r+0xa8>
40006d3c:	94 22 80 03 	sub  %o2, %g3, %o2
40006d40:	c2 06 60 40 	ld  [ %i1 + 0x40 ], %g1
40006d44:	94 22 80 01 	sub  %o2, %g1, %o2
40006d48:	96 10 20 00 	clr  %o3
40006d4c:	9f c0 80 00 	call  %g2
40006d50:	90 10 00 18 	mov  %i0, %o0
40006d54:	80 a2 3f ff 	cmp  %o0, -1
40006d58:	12 80 00 49 	bne  40006e7c <__sflush_r+0x1d8>
40006d5c:	94 10 00 08 	mov  %o0, %o2
40006d60:	c6 06 00 00 	ld  [ %i0 ], %g3
40006d64:	80 a0 e0 1d 	cmp  %g3, 0x1d
40006d68:	18 80 00 3a 	bgu  40006e50 <__sflush_r+0x1ac>
40006d6c:	c2 16 60 0c 	lduh  [ %i1 + 0xc ], %g1
40006d70:	05 08 10 00 	sethi  %hi(0x20400000), %g2
40006d74:	84 10 a0 01 	or  %g2, 1, %g2	! 20400001 <__data_size+0x203ff9f1>
40006d78:	85 30 80 03 	srl  %g2, %g3, %g2
40006d7c:	80 88 a0 01 	btst  1, %g2
40006d80:	22 80 00 35 	be,a   40006e54 <__sflush_r+0x1b0>
40006d84:	82 10 60 40 	or  %g1, 0x40, %g1
40006d88:	82 08 77 ff 	and  %g1, -2049, %g1
40006d8c:	c4 06 60 10 	ld  [ %i1 + 0x10 ], %g2
40006d90:	c2 36 60 0c 	sth  %g1, [ %i1 + 0xc ]
40006d94:	c4 26 40 00 	st  %g2, [ %i1 ]
40006d98:	05 00 00 04 	sethi  %hi(0x1000), %g2
40006d9c:	80 88 40 02 	btst  %g1, %g2
40006da0:	12 80 00 4f 	bne  40006edc <__sflush_r+0x238>
40006da4:	c0 26 60 04 	clr  [ %i1 + 4 ]
40006da8:	fa 26 00 00 	st  %i5, [ %i0 ]
40006dac:	d2 06 60 34 	ld  [ %i1 + 0x34 ], %o1
40006db0:	80 a2 60 00 	cmp  %o1, 0
40006db4:	02 80 00 08 	be  40006dd4 <__sflush_r+0x130>
40006db8:	82 06 60 44 	add  %i1, 0x44, %g1
40006dbc:	80 a2 40 01 	cmp  %o1, %g1
40006dc0:	22 80 00 05 	be,a   40006dd4 <__sflush_r+0x130>
40006dc4:	c0 26 60 34 	clr  [ %i1 + 0x34 ]
40006dc8:	40 00 01 b9 	call  400074ac <_free_r>
40006dcc:	90 10 00 18 	mov  %i0, %o0
40006dd0:	c0 26 60 34 	clr  [ %i1 + 0x34 ]
40006dd4:	94 10 20 00 	clr  %o2
40006dd8:	81 c7 e0 08 	ret 
40006ddc:	91 e8 00 0a 	restore  %g0, %o2, %o0
40006de0:	80 a7 20 00 	cmp  %i4, 0
40006de4:	02 bf ff fc 	be  40006dd4 <__sflush_r+0x130>
40006de8:	80 88 60 03 	btst  3, %g1
40006dec:	fa 06 40 00 	ld  [ %i1 ], %i5
40006df0:	f8 26 40 00 	st  %i4, [ %i1 ]
40006df4:	ba 27 40 1c 	sub  %i5, %i4, %i5
40006df8:	12 80 00 03 	bne  40006e04 <__sflush_r+0x160>
40006dfc:	84 10 20 00 	clr  %g2
40006e00:	c4 06 60 14 	ld  [ %i1 + 0x14 ], %g2
40006e04:	80 a7 60 00 	cmp  %i5, 0
40006e08:	14 80 00 07 	bg  40006e24 <__sflush_r+0x180>
40006e0c:	c4 26 60 08 	st  %g2, [ %i1 + 8 ]
40006e10:	10 bf ff f2 	b  40006dd8 <__sflush_r+0x134>
40006e14:	94 10 20 00 	clr  %o2
40006e18:	80 a7 60 00 	cmp  %i5, 0
40006e1c:	04 bf ff ee 	ble  40006dd4 <__sflush_r+0x130>
40006e20:	b8 07 00 08 	add  %i4, %o0, %i4
40006e24:	96 10 00 1d 	mov  %i5, %o3
40006e28:	94 10 00 1c 	mov  %i4, %o2
40006e2c:	c2 06 60 28 	ld  [ %i1 + 0x28 ], %g1
40006e30:	d2 06 60 20 	ld  [ %i1 + 0x20 ], %o1
40006e34:	9f c0 40 00 	call  %g1
40006e38:	90 10 00 18 	mov  %i0, %o0
40006e3c:	80 a2 20 00 	cmp  %o0, 0
40006e40:	34 bf ff f6 	bg,a   40006e18 <__sflush_r+0x174>
40006e44:	ba 27 40 08 	sub  %i5, %o0, %i5
40006e48:	c2 16 60 0c 	lduh  [ %i1 + 0xc ], %g1
40006e4c:	94 10 3f ff 	mov  -1, %o2
40006e50:	82 10 60 40 	or  %g1, 0x40, %g1
40006e54:	c2 36 60 0c 	sth  %g1, [ %i1 + 0xc ]
40006e58:	81 c7 e0 08 	ret 
40006e5c:	91 e8 00 0a 	restore  %g0, %o2, %o0
40006e60:	80 a0 a0 00 	cmp  %g2, 0
40006e64:	34 bf ff 9c 	bg,a   40006cd4 <__sflush_r+0x30>
40006e68:	c4 06 60 2c 	ld  [ %i1 + 0x2c ], %g2
40006e6c:	10 bf ff db 	b  40006dd8 <__sflush_r+0x134>
40006e70:	94 10 20 00 	clr  %o2
40006e74:	10 bf ff ab 	b  40006d20 <__sflush_r+0x7c>
40006e78:	d4 06 60 54 	ld  [ %i1 + 0x54 ], %o2
40006e7c:	c2 16 60 0c 	lduh  [ %i1 + 0xc ], %g1
40006e80:	c4 06 60 10 	ld  [ %i1 + 0x10 ], %g2
40006e84:	82 08 77 ff 	and  %g1, -2049, %g1
40006e88:	c4 26 40 00 	st  %g2, [ %i1 ]
40006e8c:	c0 26 60 04 	clr  [ %i1 + 4 ]
40006e90:	05 00 00 04 	sethi  %hi(0x1000), %g2
40006e94:	80 88 40 02 	btst  %g1, %g2
40006e98:	02 bf ff c4 	be  40006da8 <__sflush_r+0x104>
40006e9c:	c2 36 60 0c 	sth  %g1, [ %i1 + 0xc ]
40006ea0:	10 bf ff c2 	b  40006da8 <__sflush_r+0x104>
40006ea4:	d4 26 60 54 	st  %o2, [ %i1 + 0x54 ]
40006ea8:	c2 06 00 00 	ld  [ %i0 ], %g1
40006eac:	80 a0 60 00 	cmp  %g1, 0
40006eb0:	22 bf ff 9a 	be,a   40006d18 <__sflush_r+0x74>
40006eb4:	c6 16 60 0c 	lduh  [ %i1 + 0xc ], %g3
40006eb8:	80 a0 60 1d 	cmp  %g1, 0x1d
40006ebc:	02 80 00 0d 	be  40006ef0 <__sflush_r+0x24c>
40006ec0:	80 a0 60 16 	cmp  %g1, 0x16
40006ec4:	22 80 00 0c 	be,a   40006ef4 <__sflush_r+0x250>
40006ec8:	fa 26 00 00 	st  %i5, [ %i0 ]
40006ecc:	c2 16 60 0c 	lduh  [ %i1 + 0xc ], %g1
40006ed0:	82 10 60 40 	or  %g1, 0x40, %g1
40006ed4:	10 bf ff c1 	b  40006dd8 <__sflush_r+0x134>
40006ed8:	c2 36 60 0c 	sth  %g1, [ %i1 + 0xc ]
40006edc:	80 a0 e0 00 	cmp  %g3, 0
40006ee0:	22 bf ff b2 	be,a   40006da8 <__sflush_r+0x104>
40006ee4:	d4 26 60 54 	st  %o2, [ %i1 + 0x54 ]
40006ee8:	10 bf ff b1 	b  40006dac <__sflush_r+0x108>
40006eec:	fa 26 00 00 	st  %i5, [ %i0 ]
40006ef0:	fa 26 00 00 	st  %i5, [ %i0 ]
40006ef4:	10 bf ff b9 	b  40006dd8 <__sflush_r+0x134>
40006ef8:	94 10 20 00 	clr  %o2

40006efc <_fflush_r>:
40006efc:	9d e3 bf a0 	save  %sp, -96, %sp
40006f00:	c2 06 60 10 	ld  [ %i1 + 0x10 ], %g1
40006f04:	80 a0 60 00 	cmp  %g1, 0
40006f08:	02 80 00 1b 	be  40006f74 <_fflush_r+0x78>
40006f0c:	80 a6 20 00 	cmp  %i0, 0
40006f10:	02 80 00 07 	be  40006f2c <_fflush_r+0x30>
40006f14:	03 10 00 3b 	sethi  %hi(0x4000ec00), %g1
40006f18:	c2 06 20 18 	ld  [ %i0 + 0x18 ], %g1
40006f1c:	80 a0 60 00 	cmp  %g1, 0
40006f20:	02 80 00 19 	be  40006f84 <_fflush_r+0x88>
40006f24:	01 00 00 00 	nop 
40006f28:	03 10 00 3b 	sethi  %hi(0x4000ec00), %g1
40006f2c:	82 10 62 20 	or  %g1, 0x220, %g1	! 4000ee20 <__sf_fake_stdin>
40006f30:	80 a6 40 01 	cmp  %i1, %g1
40006f34:	02 80 00 12 	be  40006f7c <_fflush_r+0x80>
40006f38:	03 10 00 3b 	sethi  %hi(0x4000ec00), %g1
40006f3c:	82 10 62 00 	or  %g1, 0x200, %g1	! 4000ee00 <__sf_fake_stdout>
40006f40:	80 a6 40 01 	cmp  %i1, %g1
40006f44:	02 80 00 14 	be  40006f94 <_fflush_r+0x98>
40006f48:	03 10 00 3b 	sethi  %hi(0x4000ec00), %g1
40006f4c:	82 10 61 e0 	or  %g1, 0x1e0, %g1	! 4000ede0 <__sf_fake_stderr>
40006f50:	80 a6 40 01 	cmp  %i1, %g1
40006f54:	22 80 00 02 	be,a   40006f5c <_fflush_r+0x60>
40006f58:	f2 06 20 0c 	ld  [ %i0 + 0xc ], %i1
40006f5c:	c2 56 60 0c 	ldsh  [ %i1 + 0xc ], %g1
40006f60:	80 a0 60 00 	cmp  %g1, 0
40006f64:	02 80 00 04 	be  40006f74 <_fflush_r+0x78>
40006f68:	01 00 00 00 	nop 
40006f6c:	7f ff ff 4e 	call  40006ca4 <__sflush_r>
40006f70:	81 e8 00 00 	restore 
40006f74:	81 c7 e0 08 	ret 
40006f78:	91 e8 20 00 	restore  %g0, 0, %o0
40006f7c:	10 bf ff f8 	b  40006f5c <_fflush_r+0x60>
40006f80:	f2 06 20 04 	ld  [ %i0 + 4 ], %i1
40006f84:	40 00 01 05 	call  40007398 <__sinit>
40006f88:	90 10 00 18 	mov  %i0, %o0
40006f8c:	10 bf ff e8 	b  40006f2c <_fflush_r+0x30>
40006f90:	03 10 00 3b 	sethi  %hi(0x4000ec00), %g1
40006f94:	10 bf ff f2 	b  40006f5c <_fflush_r+0x60>
40006f98:	f2 06 20 08 	ld  [ %i0 + 8 ], %i1

40006f9c <fflush>:
40006f9c:	9d e3 bf a0 	save  %sp, -96, %sp
40006fa0:	80 a6 20 00 	cmp  %i0, 0
40006fa4:	02 80 00 30 	be  40007064 <fflush+0xc8>
40006fa8:	03 10 00 3b 	sethi  %hi(0x4000ec00), %g1
40006fac:	c2 06 20 10 	ld  [ %i0 + 0x10 ], %g1
40006fb0:	80 a0 60 00 	cmp  %g1, 0
40006fb4:	02 80 00 21 	be  40007038 <fflush+0x9c>
40006fb8:	03 10 00 3c 	sethi  %hi(0x4000f000), %g1
40006fbc:	fa 00 63 5c 	ld  [ %g1 + 0x35c ], %i5	! 4000f35c <_impure_ptr>
40006fc0:	80 a7 60 00 	cmp  %i5, 0
40006fc4:	02 80 00 06 	be  40006fdc <fflush+0x40>
40006fc8:	03 10 00 3b 	sethi  %hi(0x4000ec00), %g1
40006fcc:	c2 07 60 18 	ld  [ %i5 + 0x18 ], %g1
40006fd0:	80 a0 60 00 	cmp  %g1, 0
40006fd4:	02 80 00 1b 	be  40007040 <fflush+0xa4>
40006fd8:	03 10 00 3b 	sethi  %hi(0x4000ec00), %g1
40006fdc:	82 10 62 20 	or  %g1, 0x220, %g1	! 4000ee20 <__sf_fake_stdin>
40006fe0:	80 a6 00 01 	cmp  %i0, %g1
40006fe4:	22 80 00 11 	be,a   40007028 <fflush+0x8c>
40006fe8:	f0 07 60 04 	ld  [ %i5 + 4 ], %i0
40006fec:	03 10 00 3b 	sethi  %hi(0x4000ec00), %g1
40006ff0:	82 10 62 00 	or  %g1, 0x200, %g1	! 4000ee00 <__sf_fake_stdout>
40006ff4:	80 a6 00 01 	cmp  %i0, %g1
40006ff8:	02 80 00 1f 	be  40007074 <fflush+0xd8>
40006ffc:	03 10 00 3b 	sethi  %hi(0x4000ec00), %g1
40007000:	82 10 61 e0 	or  %g1, 0x1e0, %g1	! 4000ede0 <__sf_fake_stderr>
40007004:	80 a6 00 01 	cmp  %i0, %g1
40007008:	22 80 00 02 	be,a   40007010 <fflush+0x74>
4000700c:	f0 07 60 0c 	ld  [ %i5 + 0xc ], %i0
40007010:	c2 56 20 0c 	ldsh  [ %i0 + 0xc ], %g1
40007014:	80 a0 60 00 	cmp  %g1, 0
40007018:	02 80 00 08 	be  40007038 <fflush+0x9c>
4000701c:	b2 10 00 18 	mov  %i0, %i1
40007020:	7f ff ff 21 	call  40006ca4 <__sflush_r>
40007024:	91 e8 00 1d 	restore  %g0, %i5, %o0
40007028:	c2 56 20 0c 	ldsh  [ %i0 + 0xc ], %g1
4000702c:	80 a0 60 00 	cmp  %g1, 0
40007030:	12 bf ff fc 	bne  40007020 <fflush+0x84>
40007034:	b2 10 00 18 	mov  %i0, %i1
40007038:	81 c7 e0 08 	ret 
4000703c:	91 e8 20 00 	restore  %g0, 0, %o0
40007040:	40 00 00 d6 	call  40007398 <__sinit>
40007044:	90 10 00 1d 	mov  %i5, %o0
40007048:	03 10 00 3b 	sethi  %hi(0x4000ec00), %g1
4000704c:	82 10 62 20 	or  %g1, 0x220, %g1	! 4000ee20 <__sf_fake_stdin>
40007050:	80 a6 00 01 	cmp  %i0, %g1
40007054:	12 bf ff e7 	bne  40006ff0 <fflush+0x54>
40007058:	03 10 00 3b 	sethi  %hi(0x4000ec00), %g1
4000705c:	10 bf ff f3 	b  40007028 <fflush+0x8c>
40007060:	f0 07 60 04 	ld  [ %i5 + 4 ], %i0
40007064:	33 10 00 1b 	sethi  %hi(0x40006c00), %i1
40007068:	f0 00 60 d4 	ld  [ %g1 + 0xd4 ], %i0
4000706c:	40 00 01 ef 	call  40007828 <_fwalk_reent>
40007070:	93 ee 62 fc 	restore  %i1, 0x2fc, %o1
40007074:	10 bf ff e7 	b  40007010 <fflush+0x74>
40007078:	f0 07 60 08 	ld  [ %i5 + 8 ], %i0

4000707c <_cleanup_r>:
4000707c:	13 10 00 2f 	sethi  %hi(0x4000bc00), %o1
40007080:	92 12 63 d4 	or  %o1, 0x3d4, %o1	! 4000bfd4 <_fclose_r>
40007084:	82 13 c0 00 	mov  %o7, %g1
40007088:	40 00 01 e8 	call  40007828 <_fwalk_reent>
4000708c:	9e 10 40 00 	mov  %g1, %o7

40007090 <__sfmoreglue>:
40007090:	9d e3 bf a0 	save  %sp, -96, %sp
40007094:	94 06 7f ff 	add  %i1, -1, %o2
40007098:	90 10 00 18 	mov  %i0, %o0
4000709c:	bb 2a a0 01 	sll  %o2, 1, %i5
400070a0:	ba 07 40 0a 	add  %i5, %o2, %i5
400070a4:	bb 2f 60 03 	sll  %i5, 3, %i5
400070a8:	ba 07 40 0a 	add  %i5, %o2, %i5
400070ac:	bb 2f 60 02 	sll  %i5, 2, %i5
400070b0:	40 00 02 98 	call  40007b10 <_malloc_r>
400070b4:	92 07 60 70 	add  %i5, 0x70, %o1
400070b8:	b0 92 20 00 	orcc  %o0, 0, %i0
400070bc:	02 80 00 08 	be  400070dc <__sfmoreglue+0x4c>
400070c0:	90 06 20 0c 	add  %i0, 0xc, %o0
400070c4:	c0 26 00 00 	clr  [ %i0 ]
400070c8:	f2 26 20 04 	st  %i1, [ %i0 + 4 ]
400070cc:	d0 26 20 08 	st  %o0, [ %i0 + 8 ]
400070d0:	94 07 60 64 	add  %i5, 0x64, %o2
400070d4:	40 00 04 c2 	call  400083dc <memset>
400070d8:	92 10 20 00 	clr  %o1
400070dc:	81 c7 e0 08 	ret 
400070e0:	81 e8 00 00 	restore 

400070e4 <__sfp>:
400070e4:	9d e3 bf a0 	save  %sp, -96, %sp
400070e8:	03 10 00 3b 	sethi  %hi(0x4000ec00), %g1
400070ec:	f8 00 60 d4 	ld  [ %g1 + 0xd4 ], %i4	! 4000ecd4 <_global_impure_ptr>
400070f0:	c2 07 20 18 	ld  [ %i4 + 0x18 ], %g1
400070f4:	80 a0 60 00 	cmp  %g1, 0
400070f8:	02 80 00 2b 	be  400071a4 <__sfp+0xc0>
400070fc:	01 00 00 00 	nop 
40007100:	b8 07 20 48 	add  %i4, 0x48, %i4
40007104:	b6 10 20 04 	mov  4, %i3
40007108:	c2 07 20 04 	ld  [ %i4 + 4 ], %g1
4000710c:	82 80 7f ff 	addcc  %g1, -1, %g1
40007110:	1c 80 00 07 	bpos  4000712c <__sfp+0x48>
40007114:	fa 07 20 08 	ld  [ %i4 + 8 ], %i5
40007118:	10 80 00 1e 	b  40007190 <__sfp+0xac>
4000711c:	fa 07 00 00 	ld  [ %i4 ], %i5
40007120:	80 a0 7f ff 	cmp  %g1, -1
40007124:	02 80 00 1a 	be  4000718c <__sfp+0xa8>
40007128:	ba 07 60 64 	add  %i5, 0x64, %i5
4000712c:	c4 57 60 0c 	ldsh  [ %i5 + 0xc ], %g2
40007130:	80 a0 a0 00 	cmp  %g2, 0
40007134:	12 bf ff fb 	bne  40007120 <__sfp+0x3c>
40007138:	82 00 7f ff 	add  %g1, -1, %g1
4000713c:	03 00 00 7f 	sethi  %hi(0x1fc00), %g1
40007140:	82 10 63 ff 	or  %g1, 0x3ff, %g1	! 1ffff <__data_size+0x1f9ef>
40007144:	c0 27 60 60 	clr  [ %i5 + 0x60 ]
40007148:	c0 27 40 00 	clr  [ %i5 ]
4000714c:	c0 27 60 04 	clr  [ %i5 + 4 ]
40007150:	c0 27 60 08 	clr  [ %i5 + 8 ]
40007154:	c0 27 60 10 	clr  [ %i5 + 0x10 ]
40007158:	c0 27 60 14 	clr  [ %i5 + 0x14 ]
4000715c:	c2 27 60 0c 	st  %g1, [ %i5 + 0xc ]
40007160:	c0 27 60 18 	clr  [ %i5 + 0x18 ]
40007164:	94 10 20 08 	mov  8, %o2
40007168:	92 10 20 00 	clr  %o1
4000716c:	40 00 04 9c 	call  400083dc <memset>
40007170:	90 07 60 58 	add  %i5, 0x58, %o0
40007174:	c0 27 60 34 	clr  [ %i5 + 0x34 ]
40007178:	c0 27 60 38 	clr  [ %i5 + 0x38 ]
4000717c:	c0 27 60 48 	clr  [ %i5 + 0x48 ]
40007180:	c0 27 60 4c 	clr  [ %i5 + 0x4c ]
40007184:	81 c7 e0 08 	ret 
40007188:	91 e8 00 1d 	restore  %g0, %i5, %o0
4000718c:	fa 07 00 00 	ld  [ %i4 ], %i5
40007190:	80 a7 60 00 	cmp  %i5, 0
40007194:	02 80 00 08 	be  400071b4 <__sfp+0xd0>
40007198:	92 10 21 9c 	mov  0x19c, %o1
4000719c:	10 bf ff db 	b  40007108 <__sfp+0x24>
400071a0:	b8 10 00 1d 	mov  %i5, %i4
400071a4:	40 00 00 16 	call  400071fc <__sinit.part.0>
400071a8:	90 10 00 1c 	mov  %i4, %o0
400071ac:	10 bf ff d6 	b  40007104 <__sfp+0x20>
400071b0:	b8 07 20 48 	add  %i4, 0x48, %i4
400071b4:	40 00 02 57 	call  40007b10 <_malloc_r>
400071b8:	90 10 00 18 	mov  %i0, %o0
400071bc:	ba 92 20 00 	orcc  %o0, 0, %i5
400071c0:	02 80 00 0b 	be  400071ec <__sfp+0x108>
400071c4:	90 07 60 0c 	add  %i5, 0xc, %o0
400071c8:	c0 27 40 00 	clr  [ %i5 ]
400071cc:	f6 27 60 04 	st  %i3, [ %i5 + 4 ]
400071d0:	d0 27 60 08 	st  %o0, [ %i5 + 8 ]
400071d4:	94 10 21 90 	mov  0x190, %o2
400071d8:	40 00 04 81 	call  400083dc <memset>
400071dc:	92 10 20 00 	clr  %o1
400071e0:	fa 27 00 00 	st  %i5, [ %i4 ]
400071e4:	10 bf ff c9 	b  40007108 <__sfp+0x24>
400071e8:	b8 10 00 1d 	mov  %i5, %i4
400071ec:	c0 27 00 00 	clr  [ %i4 ]
400071f0:	82 10 20 0c 	mov  0xc, %g1
400071f4:	10 bf ff e4 	b  40007184 <__sfp+0xa0>
400071f8:	c2 26 00 00 	st  %g1, [ %i0 ]

400071fc <__sinit.part.0>:
400071fc:	9d e3 bf a0 	save  %sp, -96, %sp
40007200:	03 10 00 1c 	sethi  %hi(0x40007000), %g1
40007204:	c0 26 20 48 	clr  [ %i0 + 0x48 ]
40007208:	82 10 60 7c 	or  %g1, 0x7c, %g1
4000720c:	c0 26 20 4c 	clr  [ %i0 + 0x4c ]
40007210:	c2 26 20 28 	st  %g1, [ %i0 + 0x28 ]
40007214:	03 10 00 3b 	sethi  %hi(0x4000ec00), %g1
40007218:	c2 00 60 d4 	ld  [ %g1 + 0xd4 ], %g1	! 4000ecd4 <_global_impure_ptr>
4000721c:	80 a6 00 01 	cmp  %i0, %g1
40007220:	02 80 00 54 	be  40007370 <__sinit.part.0+0x174>
40007224:	c0 26 20 50 	clr  [ %i0 + 0x50 ]
40007228:	7f ff ff af 	call  400070e4 <__sfp>
4000722c:	90 10 00 18 	mov  %i0, %o0
40007230:	82 10 00 08 	mov  %o0, %g1
40007234:	90 10 00 18 	mov  %i0, %o0
40007238:	7f ff ff ab 	call  400070e4 <__sfp>
4000723c:	c2 26 20 04 	st  %g1, [ %i0 + 4 ]
40007240:	82 10 00 08 	mov  %o0, %g1
40007244:	90 10 00 18 	mov  %i0, %o0
40007248:	7f ff ff a7 	call  400070e4 <__sfp>
4000724c:	c2 26 20 08 	st  %g1, [ %i0 + 8 ]
40007250:	03 00 01 00 	sethi  %hi(0x40000), %g1
40007254:	d0 26 20 0c 	st  %o0, [ %i0 + 0xc ]
40007258:	fa 06 20 04 	ld  [ %i0 + 4 ], %i5
4000725c:	94 10 20 08 	mov  8, %o2
40007260:	c2 27 60 0c 	st  %g1, [ %i5 + 0xc ]
40007264:	92 10 20 00 	clr  %o1
40007268:	c0 27 60 60 	clr  [ %i5 + 0x60 ]
4000726c:	c0 27 40 00 	clr  [ %i5 ]
40007270:	c0 27 60 04 	clr  [ %i5 + 4 ]
40007274:	c0 27 60 08 	clr  [ %i5 + 8 ]
40007278:	c0 27 60 10 	clr  [ %i5 + 0x10 ]
4000727c:	c0 27 60 14 	clr  [ %i5 + 0x14 ]
40007280:	c0 27 60 18 	clr  [ %i5 + 0x18 ]
40007284:	40 00 04 56 	call  400083dc <memset>
40007288:	90 07 60 58 	add  %i5, 0x58, %o0
4000728c:	03 00 02 40 	sethi  %hi(0x90000), %g1
40007290:	82 10 60 01 	or  %g1, 1, %g1	! 90001 <__data_size+0x8f9f1>
40007294:	fa 27 60 20 	st  %i5, [ %i5 + 0x20 ]
40007298:	94 10 20 08 	mov  8, %o2
4000729c:	92 10 20 00 	clr  %o1
400072a0:	33 10 00 27 	sethi  %hi(0x40009c00), %i1
400072a4:	35 10 00 27 	sethi  %hi(0x40009c00), %i2
400072a8:	b2 16 60 e0 	or  %i1, 0xe0, %i1
400072ac:	b4 16 a1 34 	or  %i2, 0x134, %i2
400072b0:	f2 27 60 24 	st  %i1, [ %i5 + 0x24 ]
400072b4:	f4 27 60 28 	st  %i2, [ %i5 + 0x28 ]
400072b8:	37 10 00 27 	sethi  %hi(0x40009c00), %i3
400072bc:	39 10 00 27 	sethi  %hi(0x40009c00), %i4
400072c0:	b6 16 e1 90 	or  %i3, 0x190, %i3
400072c4:	b8 17 21 e4 	or  %i4, 0x1e4, %i4
400072c8:	f6 27 60 2c 	st  %i3, [ %i5 + 0x2c ]
400072cc:	f8 27 60 30 	st  %i4, [ %i5 + 0x30 ]
400072d0:	fa 06 20 08 	ld  [ %i0 + 8 ], %i5
400072d4:	c2 27 60 0c 	st  %g1, [ %i5 + 0xc ]
400072d8:	c0 27 60 60 	clr  [ %i5 + 0x60 ]
400072dc:	c0 27 40 00 	clr  [ %i5 ]
400072e0:	c0 27 60 04 	clr  [ %i5 + 4 ]
400072e4:	c0 27 60 08 	clr  [ %i5 + 8 ]
400072e8:	c0 27 60 10 	clr  [ %i5 + 0x10 ]
400072ec:	c0 27 60 14 	clr  [ %i5 + 0x14 ]
400072f0:	c0 27 60 18 	clr  [ %i5 + 0x18 ]
400072f4:	40 00 04 3a 	call  400083dc <memset>
400072f8:	90 07 60 58 	add  %i5, 0x58, %o0
400072fc:	03 00 04 80 	sethi  %hi(0x120000), %g1
40007300:	82 10 60 02 	or  %g1, 2, %g1	! 120002 <__data_size+0x11f9f2>
40007304:	fa 27 60 20 	st  %i5, [ %i5 + 0x20 ]
40007308:	f2 27 60 24 	st  %i1, [ %i5 + 0x24 ]
4000730c:	f4 27 60 28 	st  %i2, [ %i5 + 0x28 ]
40007310:	f6 27 60 2c 	st  %i3, [ %i5 + 0x2c ]
40007314:	f8 27 60 30 	st  %i4, [ %i5 + 0x30 ]
40007318:	94 10 20 08 	mov  8, %o2
4000731c:	fa 06 20 0c 	ld  [ %i0 + 0xc ], %i5
40007320:	92 10 20 00 	clr  %o1
40007324:	c2 27 60 0c 	st  %g1, [ %i5 + 0xc ]
40007328:	c0 27 60 60 	clr  [ %i5 + 0x60 ]
4000732c:	c0 27 40 00 	clr  [ %i5 ]
40007330:	c0 27 60 04 	clr  [ %i5 + 4 ]
40007334:	c0 27 60 08 	clr  [ %i5 + 8 ]
40007338:	c0 27 60 10 	clr  [ %i5 + 0x10 ]
4000733c:	c0 27 60 14 	clr  [ %i5 + 0x14 ]
40007340:	c0 27 60 18 	clr  [ %i5 + 0x18 ]
40007344:	40 00 04 26 	call  400083dc <memset>
40007348:	90 07 60 58 	add  %i5, 0x58, %o0
4000734c:	fa 27 60 20 	st  %i5, [ %i5 + 0x20 ]
40007350:	f2 27 60 24 	st  %i1, [ %i5 + 0x24 ]
40007354:	f4 27 60 28 	st  %i2, [ %i5 + 0x28 ]
40007358:	f6 27 60 2c 	st  %i3, [ %i5 + 0x2c ]
4000735c:	f8 27 60 30 	st  %i4, [ %i5 + 0x30 ]
40007360:	82 10 20 01 	mov  1, %g1
40007364:	c2 26 20 18 	st  %g1, [ %i0 + 0x18 ]
40007368:	81 c7 e0 08 	ret 
4000736c:	81 e8 00 00 	restore 
40007370:	82 10 20 01 	mov  1, %g1
40007374:	10 bf ff ad 	b  40007228 <__sinit.part.0+0x2c>
40007378:	c2 26 20 18 	st  %g1, [ %i0 + 0x18 ]

4000737c <_cleanup>:
4000737c:	03 10 00 3b 	sethi  %hi(0x4000ec00), %g1
40007380:	13 10 00 2f 	sethi  %hi(0x4000bc00), %o1
40007384:	d0 00 60 d4 	ld  [ %g1 + 0xd4 ], %o0
40007388:	92 12 63 d4 	or  %o1, 0x3d4, %o1
4000738c:	82 13 c0 00 	mov  %o7, %g1
40007390:	40 00 01 26 	call  40007828 <_fwalk_reent>
40007394:	9e 10 40 00 	mov  %g1, %o7

40007398 <__sinit>:
40007398:	c2 02 20 18 	ld  [ %o0 + 0x18 ], %g1
4000739c:	80 a0 60 00 	cmp  %g1, 0
400073a0:	12 80 00 05 	bne  400073b4 <__sinit+0x1c>
400073a4:	01 00 00 00 	nop 
400073a8:	82 13 c0 00 	mov  %o7, %g1
400073ac:	7f ff ff 94 	call  400071fc <__sinit.part.0>
400073b0:	9e 10 40 00 	mov  %g1, %o7
400073b4:	81 c3 e0 08 	retl 
400073b8:	01 00 00 00 	nop 

400073bc <_malloc_trim_r>:
400073bc:	9d e3 bf a0 	save  %sp, -96, %sp
400073c0:	40 00 04 50 	call  40008500 <__malloc_lock>
400073c4:	90 10 00 18 	mov  %i0, %o0
400073c8:	37 10 00 3c 	sethi  %hi(0x4000f000), %i3
400073cc:	b6 16 e3 c8 	or  %i3, 0x3c8, %i3	! 4000f3c8 <__malloc_av_>
400073d0:	c2 06 e0 08 	ld  [ %i3 + 8 ], %g1
400073d4:	f8 00 60 04 	ld  [ %g1 + 4 ], %i4
400073d8:	b8 0f 3f fc 	and  %i4, -4, %i4
400073dc:	ba 27 00 19 	sub  %i4, %i1, %i5
400073e0:	ba 07 6f ef 	add  %i5, 0xfef, %i5
400073e4:	ba 0f 70 00 	and  %i5, -4096, %i5
400073e8:	ba 07 70 00 	add  %i5, -4096, %i5
400073ec:	80 a7 6f ff 	cmp  %i5, 0xfff
400073f0:	04 80 00 09 	ble  40007414 <_malloc_trim_r+0x58>
400073f4:	92 10 20 00 	clr  %o1
400073f8:	40 00 0a 2a 	call  40009ca0 <_sbrk_r>
400073fc:	90 10 00 18 	mov  %i0, %o0
40007400:	c2 06 e0 08 	ld  [ %i3 + 8 ], %g1
40007404:	82 00 40 1c 	add  %g1, %i4, %g1
40007408:	80 a2 00 01 	cmp  %o0, %g1
4000740c:	02 80 00 07 	be  40007428 <_malloc_trim_r+0x6c>
40007410:	92 20 00 1d 	neg  %i5, %o1
40007414:	90 10 00 18 	mov  %i0, %o0
40007418:	40 00 04 3c 	call  40008508 <__malloc_unlock>
4000741c:	b0 10 20 00 	clr  %i0
40007420:	81 c7 e0 08 	ret 
40007424:	81 e8 00 00 	restore 
40007428:	40 00 0a 1e 	call  40009ca0 <_sbrk_r>
4000742c:	90 10 00 18 	mov  %i0, %o0
40007430:	80 a2 3f ff 	cmp  %o0, -1
40007434:	02 80 00 0e 	be  4000746c <_malloc_trim_r+0xb0>
40007438:	05 10 00 3e 	sethi  %hi(0x4000f800), %g2
4000743c:	c6 06 e0 08 	ld  [ %i3 + 8 ], %g3
40007440:	c2 00 a2 b0 	ld  [ %g2 + 0x2b0 ], %g1
40007444:	90 10 00 18 	mov  %i0, %o0
40007448:	b8 27 00 1d 	sub  %i4, %i5, %i4
4000744c:	b0 10 20 01 	mov  1, %i0
40007450:	ba 20 40 1d 	sub  %g1, %i5, %i5
40007454:	b8 17 20 01 	or  %i4, 1, %i4
40007458:	fa 20 a2 b0 	st  %i5, [ %g2 + 0x2b0 ]
4000745c:	40 00 04 2b 	call  40008508 <__malloc_unlock>
40007460:	f8 20 e0 04 	st  %i4, [ %g3 + 4 ]
40007464:	81 c7 e0 08 	ret 
40007468:	81 e8 00 00 	restore 
4000746c:	92 10 20 00 	clr  %o1
40007470:	40 00 0a 0c 	call  40009ca0 <_sbrk_r>
40007474:	90 10 00 18 	mov  %i0, %o0
40007478:	c4 06 e0 08 	ld  [ %i3 + 8 ], %g2
4000747c:	82 22 00 02 	sub  %o0, %g2, %g1
40007480:	80 a0 60 0f 	cmp  %g1, 0xf
40007484:	24 bf ff e5 	ble,a   40007418 <_malloc_trim_r+0x5c>
40007488:	90 10 00 18 	mov  %i0, %o0
4000748c:	82 10 60 01 	or  %g1, 1, %g1
40007490:	07 10 00 3c 	sethi  %hi(0x4000f000), %g3
40007494:	c2 20 a0 04 	st  %g1, [ %g2 + 4 ]
40007498:	c6 00 e3 c0 	ld  [ %g3 + 0x3c0 ], %g3
4000749c:	03 10 00 3e 	sethi  %hi(0x4000f800), %g1
400074a0:	90 22 00 03 	sub  %o0, %g3, %o0
400074a4:	10 bf ff dc 	b  40007414 <_malloc_trim_r+0x58>
400074a8:	d0 20 62 b0 	st  %o0, [ %g1 + 0x2b0 ]

400074ac <_free_r>:
400074ac:	9d e3 bf a0 	save  %sp, -96, %sp
400074b0:	80 a6 60 00 	cmp  %i1, 0
400074b4:	02 80 00 48 	be  400075d4 <_free_r+0x128>
400074b8:	01 00 00 00 	nop 
400074bc:	40 00 04 11 	call  40008500 <__malloc_lock>
400074c0:	90 10 00 18 	mov  %i0, %o0
400074c4:	84 06 7f f8 	add  %i1, -8, %g2
400074c8:	f8 06 7f fc 	ld  [ %i1 + -4 ], %i4
400074cc:	09 10 00 3c 	sethi  %hi(0x4000f000), %g4
400074d0:	82 0f 3f fe 	and  %i4, -2, %g1
400074d4:	88 11 23 c8 	or  %g4, 0x3c8, %g4
400074d8:	ba 00 80 01 	add  %g2, %g1, %i5
400074dc:	f6 01 20 08 	ld  [ %g4 + 8 ], %i3
400074e0:	c6 07 60 04 	ld  [ %i5 + 4 ], %g3
400074e4:	80 a6 c0 1d 	cmp  %i3, %i5
400074e8:	02 80 00 6b 	be  40007694 <_free_r+0x1e8>
400074ec:	86 08 ff fc 	and  %g3, -4, %g3
400074f0:	c6 27 60 04 	st  %g3, [ %i5 + 4 ]
400074f4:	80 8f 20 01 	btst  1, %i4
400074f8:	12 80 00 27 	bne  40007594 <_free_r+0xe8>
400074fc:	b6 07 40 03 	add  %i5, %g3, %i3
40007500:	f2 06 7f f8 	ld  [ %i1 + -8 ], %i1
40007504:	f8 06 e0 04 	ld  [ %i3 + 4 ], %i4
40007508:	84 20 80 19 	sub  %g2, %i1, %g2
4000750c:	b4 01 20 08 	add  %g4, 8, %i2
40007510:	f6 00 a0 08 	ld  [ %g2 + 8 ], %i3
40007514:	82 00 40 19 	add  %g1, %i1, %g1
40007518:	80 a6 c0 1a 	cmp  %i3, %i2
4000751c:	02 80 00 51 	be  40007660 <_free_r+0x1b4>
40007520:	b8 0f 20 01 	and  %i4, 1, %i4
40007524:	f2 00 a0 0c 	ld  [ %g2 + 0xc ], %i1
40007528:	f2 26 e0 0c 	st  %i1, [ %i3 + 0xc ]
4000752c:	80 a7 20 00 	cmp  %i4, 0
40007530:	02 80 00 7b 	be  4000771c <_free_r+0x270>
40007534:	f6 26 60 08 	st  %i3, [ %i1 + 8 ]
40007538:	86 10 60 01 	or  %g1, 1, %g3
4000753c:	c6 20 a0 04 	st  %g3, [ %g2 + 4 ]
40007540:	c2 27 40 00 	st  %g1, [ %i5 ]
40007544:	80 a0 61 ff 	cmp  %g1, 0x1ff
40007548:	18 80 00 2a 	bgu  400075f0 <_free_r+0x144>
4000754c:	80 a0 69 ff 	cmp  %g1, 0x9ff
40007550:	fa 01 20 04 	ld  [ %g4 + 4 ], %i5
40007554:	b9 30 60 05 	srl  %g1, 5, %i4
40007558:	86 10 20 01 	mov  1, %g3
4000755c:	87 28 c0 1c 	sll  %g3, %i4, %g3
40007560:	86 10 c0 1d 	or  %g3, %i5, %g3
40007564:	82 08 7f f8 	and  %g1, -8, %g1
40007568:	82 00 60 08 	add  %g1, 8, %g1
4000756c:	fa 01 00 01 	ld  [ %g4 + %g1 ], %i5
40007570:	c6 21 20 04 	st  %g3, [ %g4 + 4 ]
40007574:	fa 20 a0 08 	st  %i5, [ %g2 + 8 ]
40007578:	86 01 00 01 	add  %g4, %g1, %g3
4000757c:	86 00 ff f8 	add  %g3, -8, %g3
40007580:	c6 20 a0 0c 	st  %g3, [ %g2 + 0xc ]
40007584:	c4 21 00 01 	st  %g2, [ %g4 + %g1 ]
40007588:	c4 27 60 0c 	st  %g2, [ %i5 + 0xc ]
4000758c:	40 00 03 df 	call  40008508 <__malloc_unlock>
40007590:	81 e8 00 00 	restore 
40007594:	f8 06 e0 04 	ld  [ %i3 + 4 ], %i4
40007598:	80 8f 20 01 	btst  1, %i4
4000759c:	32 80 00 10 	bne,a   400075dc <_free_r+0x130>
400075a0:	86 10 60 01 	or  %g1, 1, %g3
400075a4:	82 00 40 03 	add  %g1, %g3, %g1
400075a8:	b4 01 20 08 	add  %g4, 8, %i2
400075ac:	c6 07 60 08 	ld  [ %i5 + 8 ], %g3
400075b0:	80 a0 c0 1a 	cmp  %g3, %i2
400075b4:	02 80 00 5f 	be  40007730 <_free_r+0x284>
400075b8:	b8 10 60 01 	or  %g1, 1, %i4
400075bc:	fa 07 60 0c 	ld  [ %i5 + 0xc ], %i5
400075c0:	fa 20 e0 0c 	st  %i5, [ %g3 + 0xc ]
400075c4:	c6 27 60 08 	st  %g3, [ %i5 + 8 ]
400075c8:	f8 20 a0 04 	st  %i4, [ %g2 + 4 ]
400075cc:	10 bf ff de 	b  40007544 <_free_r+0x98>
400075d0:	c2 20 80 01 	st  %g1, [ %g2 + %g1 ]
400075d4:	81 c7 e0 08 	ret 
400075d8:	81 e8 00 00 	restore 
400075dc:	c6 26 7f fc 	st  %g3, [ %i1 + -4 ]
400075e0:	80 a0 61 ff 	cmp  %g1, 0x1ff
400075e4:	08 bf ff db 	bleu  40007550 <_free_r+0xa4>
400075e8:	c2 27 40 00 	st  %g1, [ %i5 ]
400075ec:	80 a0 69 ff 	cmp  %g1, 0x9ff
400075f0:	18 80 00 40 	bgu  400076f0 <_free_r+0x244>
400075f4:	87 30 60 09 	srl  %g1, 9, %g3
400075f8:	87 30 60 06 	srl  %g1, 6, %g3
400075fc:	ba 00 e0 39 	add  %g3, 0x39, %i5
40007600:	b8 00 e0 38 	add  %g3, 0x38, %i4
40007604:	87 2f 60 03 	sll  %i5, 3, %g3
40007608:	ba 01 00 03 	add  %g4, %g3, %i5
4000760c:	c6 01 00 03 	ld  [ %g4 + %g3 ], %g3
40007610:	ba 07 7f f8 	add  %i5, -8, %i5
40007614:	80 a7 40 03 	cmp  %i5, %g3
40007618:	22 80 00 4e 	be,a   40007750 <_free_r+0x2a4>
4000761c:	f6 01 20 04 	ld  [ %g4 + 4 ], %i3
40007620:	c8 00 e0 04 	ld  [ %g3 + 4 ], %g4
40007624:	88 09 3f fc 	and  %g4, -4, %g4
40007628:	80 a1 00 01 	cmp  %g4, %g1
4000762c:	28 80 00 07 	bleu,a   40007648 <_free_r+0x19c>
40007630:	fa 00 e0 0c 	ld  [ %g3 + 0xc ], %i5
40007634:	c6 00 e0 08 	ld  [ %g3 + 8 ], %g3
40007638:	80 a7 40 03 	cmp  %i5, %g3
4000763c:	32 bf ff fa 	bne,a   40007624 <_free_r+0x178>
40007640:	c8 00 e0 04 	ld  [ %g3 + 4 ], %g4
40007644:	fa 00 e0 0c 	ld  [ %g3 + 0xc ], %i5
40007648:	fa 20 a0 0c 	st  %i5, [ %g2 + 0xc ]
4000764c:	c6 20 a0 08 	st  %g3, [ %g2 + 8 ]
40007650:	c4 27 60 08 	st  %g2, [ %i5 + 8 ]
40007654:	c4 20 e0 0c 	st  %g2, [ %g3 + 0xc ]
40007658:	40 00 03 ac 	call  40008508 <__malloc_unlock>
4000765c:	81 e8 00 00 	restore 
40007660:	80 a7 20 00 	cmp  %i4, 0
40007664:	32 80 00 51 	bne,a   400077a8 <_free_r+0x2fc>
40007668:	86 10 60 01 	or  %g1, 1, %g3
4000766c:	c8 07 60 0c 	ld  [ %i5 + 0xc ], %g4
40007670:	fa 07 60 08 	ld  [ %i5 + 8 ], %i5
40007674:	c8 27 60 0c 	st  %g4, [ %i5 + 0xc ]
40007678:	fa 21 20 08 	st  %i5, [ %g4 + 8 ]
4000767c:	82 00 c0 01 	add  %g3, %g1, %g1
40007680:	86 10 60 01 	or  %g1, 1, %g3
40007684:	c6 20 a0 04 	st  %g3, [ %g2 + 4 ]
40007688:	c2 20 80 01 	st  %g1, [ %g2 + %g1 ]
4000768c:	40 00 03 9f 	call  40008508 <__malloc_unlock>
40007690:	81 e8 00 00 	restore 
40007694:	80 8f 20 01 	btst  1, %i4
40007698:	12 80 00 09 	bne  400076bc <_free_r+0x210>
4000769c:	82 00 40 03 	add  %g1, %g3, %g1
400076a0:	f8 06 7f f8 	ld  [ %i1 + -8 ], %i4
400076a4:	84 20 80 1c 	sub  %g2, %i4, %g2
400076a8:	c6 00 a0 0c 	ld  [ %g2 + 0xc ], %g3
400076ac:	fa 00 a0 08 	ld  [ %g2 + 8 ], %i5
400076b0:	c6 27 60 0c 	st  %g3, [ %i5 + 0xc ]
400076b4:	82 00 40 1c 	add  %g1, %i4, %g1
400076b8:	fa 20 e0 08 	st  %i5, [ %g3 + 8 ]
400076bc:	86 10 60 01 	or  %g1, 1, %g3
400076c0:	c6 20 a0 04 	st  %g3, [ %g2 + 4 ]
400076c4:	c4 21 20 08 	st  %g2, [ %g4 + 8 ]
400076c8:	05 10 00 3c 	sethi  %hi(0x4000f000), %g2
400076cc:	c4 00 a3 c4 	ld  [ %g2 + 0x3c4 ], %g2	! 4000f3c4 <__malloc_trim_threshold>
400076d0:	80 a0 80 01 	cmp  %g2, %g1
400076d4:	18 bf ff ae 	bgu  4000758c <_free_r+0xe0>
400076d8:	03 10 00 3e 	sethi  %hi(0x4000f800), %g1
400076dc:	90 10 00 18 	mov  %i0, %o0
400076e0:	7f ff ff 37 	call  400073bc <_malloc_trim_r>
400076e4:	d2 00 62 e0 	ld  [ %g1 + 0x2e0 ], %o1
400076e8:	40 00 03 88 	call  40008508 <__malloc_unlock>
400076ec:	81 e8 00 00 	restore 
400076f0:	80 a0 e0 14 	cmp  %g3, 0x14
400076f4:	08 80 00 0c 	bleu  40007724 <_free_r+0x278>
400076f8:	ba 00 e0 5c 	add  %g3, 0x5c, %i5
400076fc:	80 a0 e0 54 	cmp  %g3, 0x54
40007700:	18 80 00 1a 	bgu  40007768 <_free_r+0x2bc>
40007704:	80 a0 e1 54 	cmp  %g3, 0x154
40007708:	87 30 60 0c 	srl  %g1, 0xc, %g3
4000770c:	ba 00 e0 6f 	add  %g3, 0x6f, %i5
40007710:	b8 00 e0 6e 	add  %g3, 0x6e, %i4
40007714:	10 bf ff bd 	b  40007608 <_free_r+0x15c>
40007718:	87 2f 60 03 	sll  %i5, 3, %g3
4000771c:	10 bf ff a4 	b  400075ac <_free_r+0x100>
40007720:	82 00 40 03 	add  %g1, %g3, %g1
40007724:	b8 00 e0 5b 	add  %g3, 0x5b, %i4
40007728:	10 bf ff b8 	b  40007608 <_free_r+0x15c>
4000772c:	87 2f 60 03 	sll  %i5, 3, %g3
40007730:	c4 21 20 14 	st  %g2, [ %g4 + 0x14 ]
40007734:	c4 21 20 10 	st  %g2, [ %g4 + 0x10 ]
40007738:	f4 20 a0 0c 	st  %i2, [ %g2 + 0xc ]
4000773c:	f4 20 a0 08 	st  %i2, [ %g2 + 8 ]
40007740:	f8 20 a0 04 	st  %i4, [ %g2 + 4 ]
40007744:	c2 20 80 01 	st  %g1, [ %g2 + %g1 ]
40007748:	40 00 03 70 	call  40008508 <__malloc_unlock>
4000774c:	81 e8 00 00 	restore 
40007750:	b9 3f 20 02 	sra  %i4, 2, %i4
40007754:	82 10 20 01 	mov  1, %g1
40007758:	b9 28 40 1c 	sll  %g1, %i4, %i4
4000775c:	b8 17 00 1b 	or  %i4, %i3, %i4
40007760:	10 bf ff ba 	b  40007648 <_free_r+0x19c>
40007764:	f8 21 20 04 	st  %i4, [ %g4 + 4 ]
40007768:	18 80 00 07 	bgu  40007784 <_free_r+0x2d8>
4000776c:	80 a0 e5 54 	cmp  %g3, 0x554
40007770:	87 30 60 0f 	srl  %g1, 0xf, %g3
40007774:	ba 00 e0 78 	add  %g3, 0x78, %i5
40007778:	b8 00 e0 77 	add  %g3, 0x77, %i4
4000777c:	10 bf ff a3 	b  40007608 <_free_r+0x15c>
40007780:	87 2f 60 03 	sll  %i5, 3, %g3
40007784:	38 80 00 07 	bgu,a   400077a0 <_free_r+0x2f4>
40007788:	86 10 23 f8 	mov  0x3f8, %g3
4000778c:	87 30 60 12 	srl  %g1, 0x12, %g3
40007790:	ba 00 e0 7d 	add  %g3, 0x7d, %i5
40007794:	b8 00 e0 7c 	add  %g3, 0x7c, %i4
40007798:	10 bf ff 9c 	b  40007608 <_free_r+0x15c>
4000779c:	87 2f 60 03 	sll  %i5, 3, %g3
400077a0:	10 bf ff 9a 	b  40007608 <_free_r+0x15c>
400077a4:	b8 10 20 7e 	mov  0x7e, %i4
400077a8:	c6 20 a0 04 	st  %g3, [ %g2 + 4 ]
400077ac:	c2 27 40 00 	st  %g1, [ %i5 ]
400077b0:	40 00 03 56 	call  40008508 <__malloc_unlock>
400077b4:	81 e8 00 00 	restore 

400077b8 <_fwalk>:
400077b8:	9d e3 bf a0 	save  %sp, -96, %sp
400077bc:	b6 06 20 48 	add  %i0, 0x48, %i3
400077c0:	b0 10 20 00 	clr  %i0
400077c4:	f8 06 e0 04 	ld  [ %i3 + 4 ], %i4
400077c8:	b8 87 3f ff 	addcc  %i4, -1, %i4
400077cc:	0c 80 00 11 	bneg  40007810 <_fwalk+0x58>
400077d0:	fa 06 e0 08 	ld  [ %i3 + 8 ], %i5
400077d4:	c2 17 60 0c 	lduh  [ %i5 + 0xc ], %g1
400077d8:	80 a0 60 01 	cmp  %g1, 1
400077dc:	28 80 00 0a 	bleu,a   40007804 <_fwalk+0x4c>
400077e0:	b8 07 3f ff 	add  %i4, -1, %i4
400077e4:	c2 57 60 0e 	ldsh  [ %i5 + 0xe ], %g1
400077e8:	80 a0 7f ff 	cmp  %g1, -1
400077ec:	22 80 00 06 	be,a   40007804 <_fwalk+0x4c>
400077f0:	b8 07 3f ff 	add  %i4, -1, %i4
400077f4:	9f c6 40 00 	call  %i1
400077f8:	90 10 00 1d 	mov  %i5, %o0
400077fc:	b0 16 00 08 	or  %i0, %o0, %i0
40007800:	b8 07 3f ff 	add  %i4, -1, %i4
40007804:	80 a7 3f ff 	cmp  %i4, -1
40007808:	12 bf ff f3 	bne  400077d4 <_fwalk+0x1c>
4000780c:	ba 07 60 64 	add  %i5, 0x64, %i5
40007810:	f6 06 c0 00 	ld  [ %i3 ], %i3
40007814:	80 a6 e0 00 	cmp  %i3, 0
40007818:	32 bf ff ec 	bne,a   400077c8 <_fwalk+0x10>
4000781c:	f8 06 e0 04 	ld  [ %i3 + 4 ], %i4
40007820:	81 c7 e0 08 	ret 
40007824:	81 e8 00 00 	restore 

40007828 <_fwalk_reent>:
40007828:	9d e3 bf a0 	save  %sp, -96, %sp
4000782c:	b6 10 20 00 	clr  %i3
40007830:	b4 06 20 48 	add  %i0, 0x48, %i2
40007834:	f8 06 a0 04 	ld  [ %i2 + 4 ], %i4
40007838:	b8 87 3f ff 	addcc  %i4, -1, %i4
4000783c:	0c 80 00 11 	bneg  40007880 <_fwalk_reent+0x58>
40007840:	fa 06 a0 08 	ld  [ %i2 + 8 ], %i5
40007844:	c2 17 60 0c 	lduh  [ %i5 + 0xc ], %g1
40007848:	80 a0 60 01 	cmp  %g1, 1
4000784c:	28 80 00 0a 	bleu,a   40007874 <_fwalk_reent+0x4c>
40007850:	b8 07 3f ff 	add  %i4, -1, %i4
40007854:	c2 57 60 0e 	ldsh  [ %i5 + 0xe ], %g1
40007858:	80 a0 7f ff 	cmp  %g1, -1
4000785c:	02 80 00 05 	be  40007870 <_fwalk_reent+0x48>
40007860:	92 10 00 1d 	mov  %i5, %o1
40007864:	9f c6 40 00 	call  %i1
40007868:	90 10 00 18 	mov  %i0, %o0
4000786c:	b6 16 c0 08 	or  %i3, %o0, %i3
40007870:	b8 07 3f ff 	add  %i4, -1, %i4
40007874:	80 a7 3f ff 	cmp  %i4, -1
40007878:	12 bf ff f3 	bne  40007844 <_fwalk_reent+0x1c>
4000787c:	ba 07 60 64 	add  %i5, 0x64, %i5
40007880:	f4 06 80 00 	ld  [ %i2 ], %i2
40007884:	80 a6 a0 00 	cmp  %i2, 0
40007888:	32 bf ff ec 	bne,a   40007838 <_fwalk_reent+0x10>
4000788c:	f8 06 a0 04 	ld  [ %i2 + 4 ], %i4
40007890:	81 c7 e0 08 	ret 
40007894:	91 e8 00 1b 	restore  %g0, %i3, %o0

40007898 <__localeconv_l>:
40007898:	81 c3 e0 08 	retl 
4000789c:	90 02 20 f0 	add  %o0, 0xf0, %o0

400078a0 <_localeconv_r>:
400078a0:	03 10 00 3c 	sethi  %hi(0x4000f000), %g1
400078a4:	c2 00 63 5c 	ld  [ %g1 + 0x35c ], %g1	! 4000f35c <_impure_ptr>
400078a8:	d0 00 60 20 	ld  [ %g1 + 0x20 ], %o0
400078ac:	80 a2 20 00 	cmp  %o0, 0
400078b0:	22 80 00 04 	be,a   400078c0 <_localeconv_r+0x20>
400078b4:	11 10 00 3d 	sethi  %hi(0x4000f400), %o0
400078b8:	81 c3 e0 08 	retl 
400078bc:	90 02 20 f0 	add  %o0, 0xf0, %o0	! 4000f4f0 <__malloc_av_+0x128>
400078c0:	90 12 23 d0 	or  %o0, 0x3d0, %o0
400078c4:	81 c3 e0 08 	retl 
400078c8:	90 02 20 f0 	add  %o0, 0xf0, %o0

400078cc <localeconv>:
400078cc:	03 10 00 3c 	sethi  %hi(0x4000f000), %g1
400078d0:	c2 00 63 5c 	ld  [ %g1 + 0x35c ], %g1	! 4000f35c <_impure_ptr>
400078d4:	d0 00 60 20 	ld  [ %g1 + 0x20 ], %o0
400078d8:	80 a2 20 00 	cmp  %o0, 0
400078dc:	22 80 00 04 	be,a   400078ec <localeconv+0x20>
400078e0:	11 10 00 3d 	sethi  %hi(0x4000f400), %o0
400078e4:	81 c3 e0 08 	retl 
400078e8:	90 02 20 f0 	add  %o0, 0xf0, %o0	! 4000f4f0 <__malloc_av_+0x128>
400078ec:	90 12 23 d0 	or  %o0, 0x3d0, %o0
400078f0:	81 c3 e0 08 	retl 
400078f4:	90 02 20 f0 	add  %o0, 0xf0, %o0

400078f8 <__smakebuf_r>:
400078f8:	9d e3 bf 60 	save  %sp, -160, %sp
400078fc:	c2 16 60 0c 	lduh  [ %i1 + 0xc ], %g1
40007900:	80 88 60 02 	btst  2, %g1
40007904:	22 80 00 09 	be,a   40007928 <__smakebuf_r+0x30>
40007908:	d2 56 60 0e 	ldsh  [ %i1 + 0xe ], %o1
4000790c:	82 06 60 47 	add  %i1, 0x47, %g1
40007910:	c2 26 40 00 	st  %g1, [ %i1 ]
40007914:	c2 26 60 10 	st  %g1, [ %i1 + 0x10 ]
40007918:	82 10 20 01 	mov  1, %g1
4000791c:	c2 26 60 14 	st  %g1, [ %i1 + 0x14 ]
40007920:	81 c7 e0 08 	ret 
40007924:	81 e8 00 00 	restore 
40007928:	80 a2 60 00 	cmp  %o1, 0
4000792c:	06 80 00 25 	bl  400079c0 <__smakebuf_r+0xc8>
40007930:	94 07 bf c0 	add  %fp, -64, %o2
40007934:	40 00 12 c2 	call  4000c43c <_fstat_r>
40007938:	90 10 00 18 	mov  %i0, %o0
4000793c:	80 a2 20 00 	cmp  %o0, 0
40007940:	06 80 00 1f 	bl  400079bc <__smakebuf_r+0xc4>
40007944:	05 00 00 3c 	sethi  %hi(0xf000), %g2
40007948:	c2 17 bf c8 	lduh  [ %fp + -56 ], %g1
4000794c:	ba 10 28 00 	mov  0x800, %i5
40007950:	82 08 40 02 	and  %g1, %g2, %g1
40007954:	b6 10 24 00 	mov  0x400, %i3
40007958:	05 00 00 08 	sethi  %hi(0x2000), %g2
4000795c:	92 10 24 00 	mov  0x400, %o1
40007960:	82 18 40 02 	xor  %g1, %g2, %g1
40007964:	80 a0 00 01 	cmp  %g0, %g1
40007968:	b8 60 3f ff 	subx  %g0, -1, %i4
4000796c:	40 00 00 69 	call  40007b10 <_malloc_r>
40007970:	90 10 00 18 	mov  %i0, %o0
40007974:	80 a2 20 00 	cmp  %o0, 0
40007978:	22 80 00 1d 	be,a   400079ec <__smakebuf_r+0xf4>
4000797c:	c2 16 60 0c 	lduh  [ %i1 + 0xc ], %g1
40007980:	03 10 00 1c 	sethi  %hi(0x40007000), %g1
40007984:	82 10 60 7c 	or  %g1, 0x7c, %g1	! 4000707c <_cleanup_r>
40007988:	c2 26 20 28 	st  %g1, [ %i0 + 0x28 ]
4000798c:	d0 26 40 00 	st  %o0, [ %i1 ]
40007990:	c2 16 60 0c 	lduh  [ %i1 + 0xc ], %g1
40007994:	d0 26 60 10 	st  %o0, [ %i1 + 0x10 ]
40007998:	82 10 60 80 	or  %g1, 0x80, %g1
4000799c:	f6 26 60 14 	st  %i3, [ %i1 + 0x14 ]
400079a0:	80 a7 20 00 	cmp  %i4, 0
400079a4:	12 80 00 22 	bne  40007a2c <__smakebuf_r+0x134>
400079a8:	c2 36 60 0c 	sth  %g1, [ %i1 + 0xc ]
400079ac:	82 17 40 01 	or  %i5, %g1, %g1
400079b0:	c2 36 60 0c 	sth  %g1, [ %i1 + 0xc ]
400079b4:	81 c7 e0 08 	ret 
400079b8:	81 e8 00 00 	restore 
400079bc:	c2 16 60 0c 	lduh  [ %i1 + 0xc ], %g1
400079c0:	80 88 60 80 	btst  0x80, %g1
400079c4:	02 80 00 16 	be  40007a1c <__smakebuf_r+0x124>
400079c8:	ba 10 20 00 	clr  %i5
400079cc:	92 10 20 40 	mov  0x40, %o1
400079d0:	90 10 00 18 	mov  %i0, %o0
400079d4:	40 00 00 4f 	call  40007b10 <_malloc_r>
400079d8:	b6 10 20 40 	mov  0x40, %i3
400079dc:	80 a2 20 00 	cmp  %o0, 0
400079e0:	12 bf ff e8 	bne  40007980 <__smakebuf_r+0x88>
400079e4:	b8 10 20 00 	clr  %i4
400079e8:	c2 16 60 0c 	lduh  [ %i1 + 0xc ], %g1
400079ec:	80 88 62 00 	btst  0x200, %g1
400079f0:	12 bf ff cc 	bne  40007920 <__smakebuf_r+0x28>
400079f4:	82 08 7f fc 	and  %g1, -4, %g1
400079f8:	82 10 60 02 	or  %g1, 2, %g1
400079fc:	84 06 60 47 	add  %i1, 0x47, %g2
40007a00:	c2 36 60 0c 	sth  %g1, [ %i1 + 0xc ]
40007a04:	c4 26 40 00 	st  %g2, [ %i1 ]
40007a08:	82 10 20 01 	mov  1, %g1
40007a0c:	c4 26 60 10 	st  %g2, [ %i1 + 0x10 ]
40007a10:	c2 26 60 14 	st  %g1, [ %i1 + 0x14 ]
40007a14:	81 c7 e0 08 	ret 
40007a18:	81 e8 00 00 	restore 
40007a1c:	b6 10 24 00 	mov  0x400, %i3
40007a20:	b8 10 20 00 	clr  %i4
40007a24:	10 bf ff d2 	b  4000796c <__smakebuf_r+0x74>
40007a28:	92 10 24 00 	mov  0x400, %o1
40007a2c:	d2 56 60 0e 	ldsh  [ %i1 + 0xe ], %o1
40007a30:	40 00 13 d0 	call  4000c970 <_isatty_r>
40007a34:	90 10 00 18 	mov  %i0, %o0
40007a38:	80 a2 20 00 	cmp  %o0, 0
40007a3c:	02 bf ff dc 	be  400079ac <__smakebuf_r+0xb4>
40007a40:	c2 16 60 0c 	lduh  [ %i1 + 0xc ], %g1
40007a44:	82 08 7f fc 	and  %g1, -4, %g1
40007a48:	82 10 60 01 	or  %g1, 1, %g1
40007a4c:	82 17 40 01 	or  %i5, %g1, %g1
40007a50:	c2 36 60 0c 	sth  %g1, [ %i1 + 0xc ]
40007a54:	81 c7 e0 08 	ret 
40007a58:	81 e8 00 00 	restore 

40007a5c <__swhatbuf_r>:
40007a5c:	9d e3 bf 60 	save  %sp, -160, %sp
40007a60:	d2 56 60 0e 	ldsh  [ %i1 + 0xe ], %o1
40007a64:	80 a2 60 00 	cmp  %o1, 0
40007a68:	06 80 00 12 	bl  40007ab0 <__swhatbuf_r+0x54>
40007a6c:	94 07 bf c0 	add  %fp, -64, %o2
40007a70:	40 00 12 73 	call  4000c43c <_fstat_r>
40007a74:	90 10 00 18 	mov  %i0, %o0
40007a78:	80 a2 20 00 	cmp  %o0, 0
40007a7c:	06 80 00 0d 	bl  40007ab0 <__swhatbuf_r+0x54>
40007a80:	05 00 00 3c 	sethi  %hi(0xf000), %g2
40007a84:	c2 17 bf c8 	lduh  [ %fp + -56 ], %g1
40007a88:	82 08 40 02 	and  %g1, %g2, %g1
40007a8c:	05 00 00 08 	sethi  %hi(0x2000), %g2
40007a90:	82 18 40 02 	xor  %g1, %g2, %g1
40007a94:	80 a0 00 01 	cmp  %g0, %g1
40007a98:	82 60 3f ff 	subx  %g0, -1, %g1
40007a9c:	c2 26 c0 00 	st  %g1, [ %i3 ]
40007aa0:	82 10 24 00 	mov  0x400, %g1
40007aa4:	c2 26 80 00 	st  %g1, [ %i2 ]
40007aa8:	81 c7 e0 08 	ret 
40007aac:	91 e8 28 00 	restore  %g0, 0x800, %o0
40007ab0:	c2 16 60 0c 	lduh  [ %i1 + 0xc ], %g1
40007ab4:	80 88 60 80 	btst  0x80, %g1
40007ab8:	02 80 00 06 	be  40007ad0 <__swhatbuf_r+0x74>
40007abc:	c0 26 c0 00 	clr  [ %i3 ]
40007ac0:	82 10 20 40 	mov  0x40, %g1
40007ac4:	c2 26 80 00 	st  %g1, [ %i2 ]
40007ac8:	81 c7 e0 08 	ret 
40007acc:	91 e8 20 00 	restore  %g0, 0, %o0
40007ad0:	82 10 24 00 	mov  0x400, %g1
40007ad4:	c2 26 80 00 	st  %g1, [ %i2 ]
40007ad8:	81 c7 e0 08 	ret 
40007adc:	91 e8 20 00 	restore  %g0, 0, %o0

40007ae0 <malloc>:
40007ae0:	92 10 00 08 	mov  %o0, %o1
40007ae4:	03 10 00 3c 	sethi  %hi(0x4000f000), %g1
40007ae8:	d0 00 63 5c 	ld  [ %g1 + 0x35c ], %o0	! 4000f35c <_impure_ptr>
40007aec:	82 13 c0 00 	mov  %o7, %g1
40007af0:	40 00 00 08 	call  40007b10 <_malloc_r>
40007af4:	9e 10 40 00 	mov  %g1, %o7

40007af8 <free>:
40007af8:	92 10 00 08 	mov  %o0, %o1
40007afc:	03 10 00 3c 	sethi  %hi(0x4000f000), %g1
40007b00:	d0 00 63 5c 	ld  [ %g1 + 0x35c ], %o0	! 4000f35c <_impure_ptr>
40007b04:	82 13 c0 00 	mov  %o7, %g1
40007b08:	7f ff fe 69 	call  400074ac <_free_r>
40007b0c:	9e 10 40 00 	mov  %g1, %o7

40007b10 <_malloc_r>:
40007b10:	9d e3 bf a0 	save  %sp, -96, %sp
40007b14:	82 06 60 0b 	add  %i1, 0xb, %g1
40007b18:	80 a0 60 16 	cmp  %g1, 0x16
40007b1c:	18 80 00 21 	bgu  40007ba0 <_malloc_r+0x90>
40007b20:	80 a0 60 00 	cmp  %g1, 0
40007b24:	80 a6 60 10 	cmp  %i1, 0x10
40007b28:	18 80 00 ca 	bgu  40007e50 <_malloc_r+0x340>
40007b2c:	82 10 20 0c 	mov  0xc, %g1
40007b30:	40 00 02 74 	call  40008500 <__malloc_lock>
40007b34:	90 10 00 18 	mov  %i0, %o0
40007b38:	b8 10 20 10 	mov  0x10, %i4
40007b3c:	82 10 20 18 	mov  0x18, %g1
40007b40:	88 10 20 02 	mov  2, %g4
40007b44:	37 10 00 3c 	sethi  %hi(0x4000f000), %i3
40007b48:	b6 16 e3 c8 	or  %i3, 0x3c8, %i3	! 4000f3c8 <__malloc_av_>
40007b4c:	82 06 c0 01 	add  %i3, %g1, %g1
40007b50:	fa 00 60 04 	ld  [ %g1 + 4 ], %i5
40007b54:	84 00 7f f8 	add  %g1, -8, %g2
40007b58:	80 a7 40 02 	cmp  %i5, %g2
40007b5c:	22 80 00 c1 	be,a   40007e60 <_malloc_r+0x350>
40007b60:	fa 00 60 0c 	ld  [ %g1 + 0xc ], %i5
40007b64:	c2 07 60 04 	ld  [ %i5 + 4 ], %g1
40007b68:	c4 07 60 0c 	ld  [ %i5 + 0xc ], %g2
40007b6c:	c6 07 60 08 	ld  [ %i5 + 8 ], %g3
40007b70:	c4 20 e0 0c 	st  %g2, [ %g3 + 0xc ]
40007b74:	c6 20 a0 08 	st  %g3, [ %g2 + 8 ]
40007b78:	82 08 7f fc 	and  %g1, -4, %g1
40007b7c:	82 07 40 01 	add  %i5, %g1, %g1
40007b80:	c4 00 60 04 	ld  [ %g1 + 4 ], %g2
40007b84:	84 10 a0 01 	or  %g2, 1, %g2
40007b88:	90 10 00 18 	mov  %i0, %o0
40007b8c:	c4 20 60 04 	st  %g2, [ %g1 + 4 ]
40007b90:	40 00 02 5e 	call  40008508 <__malloc_unlock>
40007b94:	ba 07 60 08 	add  %i5, 8, %i5
40007b98:	81 c7 e0 08 	ret 
40007b9c:	91 e8 00 1d 	restore  %g0, %i5, %o0
40007ba0:	06 80 00 ab 	bl  40007e4c <_malloc_r+0x33c>
40007ba4:	b8 08 7f f8 	and  %g1, -8, %i4
40007ba8:	80 a7 00 19 	cmp  %i4, %i1
40007bac:	0a 80 00 a9 	bcs  40007e50 <_malloc_r+0x340>
40007bb0:	82 10 20 0c 	mov  0xc, %g1
40007bb4:	40 00 02 53 	call  40008500 <__malloc_lock>
40007bb8:	90 10 00 18 	mov  %i0, %o0
40007bbc:	80 a7 21 f7 	cmp  %i4, 0x1f7
40007bc0:	08 80 01 4d 	bleu  400080f4 <_malloc_r+0x5e4>
40007bc4:	89 37 20 03 	srl  %i4, 3, %g4
40007bc8:	83 37 20 09 	srl  %i4, 9, %g1
40007bcc:	80 a0 60 00 	cmp  %g1, 0
40007bd0:	22 80 00 ed 	be,a   40007f84 <_malloc_r+0x474>
40007bd4:	82 10 22 00 	mov  0x200, %g1
40007bd8:	80 a0 60 04 	cmp  %g1, 4
40007bdc:	18 80 01 21 	bgu  40008060 <_malloc_r+0x550>
40007be0:	80 a0 60 14 	cmp  %g1, 0x14
40007be4:	83 37 20 06 	srl  %i4, 6, %g1
40007be8:	88 00 60 39 	add  %g1, 0x39, %g4
40007bec:	b4 00 60 38 	add  %g1, 0x38, %i2
40007bf0:	83 29 20 03 	sll  %g4, 3, %g1
40007bf4:	37 10 00 3c 	sethi  %hi(0x4000f000), %i3
40007bf8:	b6 16 e3 c8 	or  %i3, 0x3c8, %i3	! 4000f3c8 <__malloc_av_>
40007bfc:	82 06 c0 01 	add  %i3, %g1, %g1
40007c00:	86 00 7f f8 	add  %g1, -8, %g3
40007c04:	fa 00 60 04 	ld  [ %g1 + 4 ], %i5
40007c08:	80 a0 c0 1d 	cmp  %g3, %i5
40007c0c:	32 80 00 0b 	bne,a   40007c38 <_malloc_r+0x128>
40007c10:	c2 07 60 04 	ld  [ %i5 + 4 ], %g1
40007c14:	10 80 00 97 	b  40007e70 <_malloc_r+0x360>
40007c18:	fa 06 e0 10 	ld  [ %i3 + 0x10 ], %i5
40007c1c:	36 80 00 dd 	bge,a   40007f90 <_malloc_r+0x480>
40007c20:	c4 07 60 0c 	ld  [ %i5 + 0xc ], %g2
40007c24:	fa 07 60 0c 	ld  [ %i5 + 0xc ], %i5
40007c28:	80 a0 c0 1d 	cmp  %g3, %i5
40007c2c:	22 80 00 91 	be,a   40007e70 <_malloc_r+0x360>
40007c30:	fa 06 e0 10 	ld  [ %i3 + 0x10 ], %i5
40007c34:	c2 07 60 04 	ld  [ %i5 + 4 ], %g1
40007c38:	82 08 7f fc 	and  %g1, -4, %g1
40007c3c:	84 20 40 1c 	sub  %g1, %i4, %g2
40007c40:	80 a0 a0 0f 	cmp  %g2, 0xf
40007c44:	04 bf ff f6 	ble  40007c1c <_malloc_r+0x10c>
40007c48:	80 a0 a0 00 	cmp  %g2, 0
40007c4c:	fa 06 e0 10 	ld  [ %i3 + 0x10 ], %i5
40007c50:	9e 06 e0 08 	add  %i3, 8, %o7
40007c54:	80 a7 40 0f 	cmp  %i5, %o7
40007c58:	12 80 00 8a 	bne  40007e80 <_malloc_r+0x370>
40007c5c:	88 10 00 1a 	mov  %i2, %g4
40007c60:	c6 06 e0 04 	ld  [ %i3 + 4 ], %g3
40007c64:	83 39 20 02 	sra  %g4, 2, %g1
40007c68:	b4 10 20 01 	mov  1, %i2
40007c6c:	b5 2e 80 01 	sll  %i2, %g1, %i2
40007c70:	80 a6 80 03 	cmp  %i2, %g3
40007c74:	08 80 00 a5 	bleu  40007f08 <_malloc_r+0x3f8>
40007c78:	80 8e 80 03 	btst  %i2, %g3
40007c7c:	fa 06 e0 08 	ld  [ %i3 + 8 ], %i5
40007c80:	c2 07 60 04 	ld  [ %i5 + 4 ], %g1
40007c84:	b2 08 7f fc 	and  %g1, -4, %i1
40007c88:	84 26 40 1c 	sub  %i1, %i4, %g2
40007c8c:	80 a0 a0 0f 	cmp  %g2, 0xf
40007c90:	04 80 00 03 	ble  40007c9c <_malloc_r+0x18c>
40007c94:	86 10 20 01 	mov  1, %g3
40007c98:	86 10 20 00 	clr  %g3
40007c9c:	80 88 e0 ff 	btst  0xff, %g3
40007ca0:	12 80 00 04 	bne  40007cb0 <_malloc_r+0x1a0>
40007ca4:	80 a6 40 1c 	cmp  %i1, %i4
40007ca8:	1a 80 00 c5 	bcc  40007fbc <_malloc_r+0x4ac>
40007cac:	82 17 20 01 	or  %i4, 1, %g1
40007cb0:	03 10 00 3e 	sethi  %hi(0x4000f800), %g1
40007cb4:	27 10 00 3c 	sethi  %hi(0x4000f000), %l3
40007cb8:	f4 00 62 e0 	ld  [ %g1 + 0x2e0 ], %i2
40007cbc:	a2 07 40 19 	add  %i5, %i1, %l1
40007cc0:	c2 04 e3 c0 	ld  [ %l3 + 0x3c0 ], %g1
40007cc4:	80 a0 7f ff 	cmp  %g1, -1
40007cc8:	02 80 01 47 	be  400081e4 <_malloc_r+0x6d4>
40007ccc:	b4 07 00 1a 	add  %i4, %i2, %i2
40007cd0:	13 00 00 04 	sethi  %hi(0x1000), %o1
40007cd4:	92 12 60 0f 	or  %o1, 0xf, %o1	! 100f <__data_size+0x9ff>
40007cd8:	b4 06 80 09 	add  %i2, %o1, %i2
40007cdc:	b4 0e b0 00 	and  %i2, -4096, %i2
40007ce0:	92 10 00 1a 	mov  %i2, %o1
40007ce4:	40 00 07 ef 	call  40009ca0 <_sbrk_r>
40007ce8:	90 10 00 18 	mov  %i0, %o0
40007cec:	80 a2 3f ff 	cmp  %o0, -1
40007cf0:	02 80 01 30 	be  400081b0 <_malloc_r+0x6a0>
40007cf4:	a0 10 00 08 	mov  %o0, %l0
40007cf8:	80 a7 40 1b 	cmp  %i5, %i3
40007cfc:	02 80 00 04 	be  40007d0c <_malloc_r+0x1fc>
40007d00:	80 a2 00 11 	cmp  %o0, %l1
40007d04:	2a 80 01 2c 	bcs,a   400081b4 <_malloc_r+0x6a4>
40007d08:	fa 06 e0 08 	ld  [ %i3 + 8 ], %i5
40007d0c:	25 10 00 3e 	sethi  %hi(0x4000f800), %l2
40007d10:	d2 04 a2 b0 	ld  [ %l2 + 0x2b0 ], %o1	! 4000fab0 <__malloc_current_mallinfo>
40007d14:	92 06 80 09 	add  %i2, %o1, %o1
40007d18:	80 a4 40 10 	cmp  %l1, %l0
40007d1c:	02 80 01 28 	be  400081bc <_malloc_r+0x6ac>
40007d20:	d2 24 a2 b0 	st  %o1, [ %l2 + 0x2b0 ]
40007d24:	c2 04 e3 c0 	ld  [ %l3 + 0x3c0 ], %g1
40007d28:	80 a0 7f ff 	cmp  %g1, -1
40007d2c:	02 80 01 2c 	be  400081dc <_malloc_r+0x6cc>
40007d30:	a2 24 00 11 	sub  %l0, %l1, %l1
40007d34:	92 04 40 09 	add  %l1, %o1, %o1
40007d38:	d2 24 a2 b0 	st  %o1, [ %l2 + 0x2b0 ]
40007d3c:	82 8c 20 07 	andcc  %l0, 7, %g1
40007d40:	02 80 00 06 	be  40007d58 <_malloc_r+0x248>
40007d44:	13 00 00 04 	sethi  %hi(0x1000), %o1
40007d48:	a0 24 00 01 	sub  %l0, %g1, %l0
40007d4c:	92 12 60 08 	or  %o1, 8, %o1
40007d50:	a0 04 20 08 	add  %l0, 8, %l0
40007d54:	92 22 40 01 	sub  %o1, %g1, %o1
40007d58:	b4 04 00 1a 	add  %l0, %i2, %i2
40007d5c:	90 10 00 18 	mov  %i0, %o0
40007d60:	b4 0e af ff 	and  %i2, 0xfff, %i2
40007d64:	b4 22 40 1a 	sub  %o1, %i2, %i2
40007d68:	40 00 07 ce 	call  40009ca0 <_sbrk_r>
40007d6c:	92 10 00 1a 	mov  %i2, %o1
40007d70:	80 a2 3f ff 	cmp  %o0, -1
40007d74:	02 80 01 32 	be  4000823c <_malloc_r+0x72c>
40007d78:	82 10 20 01 	mov  1, %g1
40007d7c:	82 22 00 10 	sub  %o0, %l0, %g1
40007d80:	82 00 40 1a 	add  %g1, %i2, %g1
40007d84:	82 10 60 01 	or  %g1, 1, %g1
40007d88:	e0 26 e0 08 	st  %l0, [ %i3 + 8 ]
40007d8c:	d2 04 a2 b0 	ld  [ %l2 + 0x2b0 ], %o1
40007d90:	c2 24 20 04 	st  %g1, [ %l0 + 4 ]
40007d94:	92 06 80 09 	add  %i2, %o1, %o1
40007d98:	80 a7 40 1b 	cmp  %i5, %i3
40007d9c:	02 80 01 2a 	be  40008244 <_malloc_r+0x734>
40007da0:	d2 24 a2 b0 	st  %o1, [ %l2 + 0x2b0 ]
40007da4:	80 a6 60 0f 	cmp  %i1, 0xf
40007da8:	08 80 01 29 	bleu  4000824c <_malloc_r+0x73c>
40007dac:	82 06 7f f4 	add  %i1, -12, %g1
40007db0:	c4 07 60 04 	ld  [ %i5 + 4 ], %g2
40007db4:	84 08 a0 01 	and  %g2, 1, %g2
40007db8:	82 08 7f f8 	and  %g1, -8, %g1
40007dbc:	84 10 80 01 	or  %g2, %g1, %g2
40007dc0:	c4 27 60 04 	st  %g2, [ %i5 + 4 ]
40007dc4:	86 10 20 05 	mov  5, %g3
40007dc8:	84 07 40 01 	add  %i5, %g1, %g2
40007dcc:	c6 20 a0 04 	st  %g3, [ %g2 + 4 ]
40007dd0:	80 a0 60 0f 	cmp  %g1, 0xf
40007dd4:	18 80 01 2f 	bgu  40008290 <_malloc_r+0x780>
40007dd8:	c6 20 a0 08 	st  %g3, [ %g2 + 8 ]
40007ddc:	c2 04 20 04 	ld  [ %l0 + 4 ], %g1
40007de0:	ba 10 00 10 	mov  %l0, %i5
40007de4:	05 10 00 3e 	sethi  %hi(0x4000f800), %g2
40007de8:	c6 00 a2 dc 	ld  [ %g2 + 0x2dc ], %g3	! 4000fadc <__malloc_max_sbrked_mem>
40007dec:	80 a0 c0 09 	cmp  %g3, %o1
40007df0:	2a 80 00 02 	bcs,a   40007df8 <_malloc_r+0x2e8>
40007df4:	d2 20 a2 dc 	st  %o1, [ %g2 + 0x2dc ]
40007df8:	05 10 00 3e 	sethi  %hi(0x4000f800), %g2
40007dfc:	c6 00 a2 d8 	ld  [ %g2 + 0x2d8 ], %g3	! 4000fad8 <__malloc_max_total_mem>
40007e00:	80 a0 c0 09 	cmp  %g3, %o1
40007e04:	2a 80 00 02 	bcs,a   40007e0c <_malloc_r+0x2fc>
40007e08:	d2 20 a2 d8 	st  %o1, [ %g2 + 0x2d8 ]
40007e0c:	82 08 7f fc 	and  %g1, -4, %g1
40007e10:	80 a0 40 1c 	cmp  %g1, %i4
40007e14:	0a 80 00 09 	bcs  40007e38 <_malloc_r+0x328>
40007e18:	84 20 40 1c 	sub  %g1, %i4, %g2
40007e1c:	80 a0 a0 0f 	cmp  %g2, 0xf
40007e20:	04 80 00 03 	ble  40007e2c <_malloc_r+0x31c>
40007e24:	82 10 20 01 	mov  1, %g1
40007e28:	82 10 20 00 	clr  %g1
40007e2c:	80 88 60 ff 	btst  0xff, %g1
40007e30:	02 80 00 63 	be  40007fbc <_malloc_r+0x4ac>
40007e34:	82 17 20 01 	or  %i4, 1, %g1
40007e38:	90 10 00 18 	mov  %i0, %o0
40007e3c:	40 00 01 b3 	call  40008508 <__malloc_unlock>
40007e40:	ba 10 20 00 	clr  %i5
40007e44:	81 c7 e0 08 	ret 
40007e48:	91 e8 00 1d 	restore  %g0, %i5, %o0
40007e4c:	82 10 20 0c 	mov  0xc, %g1
40007e50:	ba 10 20 00 	clr  %i5
40007e54:	c2 26 00 00 	st  %g1, [ %i0 ]
40007e58:	81 c7 e0 08 	ret 
40007e5c:	91 e8 00 1d 	restore  %g0, %i5, %o0
40007e60:	80 a0 40 1d 	cmp  %g1, %i5
40007e64:	12 bf ff 40 	bne  40007b64 <_malloc_r+0x54>
40007e68:	88 01 20 02 	add  %g4, 2, %g4
40007e6c:	fa 06 e0 10 	ld  [ %i3 + 0x10 ], %i5
40007e70:	9e 06 e0 08 	add  %i3, 8, %o7
40007e74:	80 a7 40 0f 	cmp  %i5, %o7
40007e78:	22 bf ff 7b 	be,a   40007c64 <_malloc_r+0x154>
40007e7c:	c6 06 e0 04 	ld  [ %i3 + 4 ], %g3
40007e80:	c2 07 60 04 	ld  [ %i5 + 4 ], %g1
40007e84:	82 08 7f fc 	and  %g1, -4, %g1
40007e88:	84 20 40 1c 	sub  %g1, %i4, %g2
40007e8c:	80 a0 a0 0f 	cmp  %g2, 0xf
40007e90:	14 80 00 9b 	bg  400080fc <_malloc_r+0x5ec>
40007e94:	80 a0 a0 00 	cmp  %g2, 0
40007e98:	de 26 e0 14 	st  %o7, [ %i3 + 0x14 ]
40007e9c:	16 80 00 40 	bge  40007f9c <_malloc_r+0x48c>
40007ea0:	de 26 e0 10 	st  %o7, [ %i3 + 0x10 ]
40007ea4:	80 a0 61 ff 	cmp  %g1, 0x1ff
40007ea8:	18 80 00 50 	bgu  40007fe8 <_malloc_r+0x4d8>
40007eac:	80 a0 69 ff 	cmp  %g1, 0x9ff
40007eb0:	c4 06 e0 04 	ld  [ %i3 + 4 ], %g2
40007eb4:	b5 30 60 05 	srl  %g1, 5, %i2
40007eb8:	86 10 20 01 	mov  1, %g3
40007ebc:	82 08 7f f8 	and  %g1, -8, %g1
40007ec0:	87 28 c0 1a 	sll  %g3, %i2, %g3
40007ec4:	82 00 60 08 	add  %g1, 8, %g1
40007ec8:	86 10 c0 02 	or  %g3, %g2, %g3
40007ecc:	f4 06 c0 01 	ld  [ %i3 + %g1 ], %i2
40007ed0:	84 06 c0 01 	add  %i3, %g1, %g2
40007ed4:	f4 27 60 08 	st  %i2, [ %i5 + 8 ]
40007ed8:	c6 26 e0 04 	st  %g3, [ %i3 + 4 ]
40007edc:	84 00 bf f8 	add  %g2, -8, %g2
40007ee0:	c4 27 60 0c 	st  %g2, [ %i5 + 0xc ]
40007ee4:	fa 26 c0 01 	st  %i5, [ %i3 + %g1 ]
40007ee8:	fa 26 a0 0c 	st  %i5, [ %i2 + 0xc ]
40007eec:	83 39 20 02 	sra  %g4, 2, %g1
40007ef0:	b4 10 20 01 	mov  1, %i2
40007ef4:	b5 2e 80 01 	sll  %i2, %g1, %i2
40007ef8:	80 a6 80 03 	cmp  %i2, %g3
40007efc:	38 bf ff 61 	bgu,a   40007c80 <_malloc_r+0x170>
40007f00:	fa 06 e0 08 	ld  [ %i3 + 8 ], %i5
40007f04:	80 8e 80 03 	btst  %i2, %g3
40007f08:	12 80 00 08 	bne  40007f28 <_malloc_r+0x418>
40007f0c:	9b 29 20 03 	sll  %g4, 3, %o5
40007f10:	88 09 3f fc 	and  %g4, -4, %g4
40007f14:	b5 2e a0 01 	sll  %i2, 1, %i2
40007f18:	80 8e 80 03 	btst  %i2, %g3
40007f1c:	02 bf ff fe 	be  40007f14 <_malloc_r+0x404>
40007f20:	88 01 20 04 	add  %g4, 4, %g4
40007f24:	9b 29 20 03 	sll  %g4, 3, %o5
40007f28:	98 10 00 04 	mov  %g4, %o4
40007f2c:	9a 06 c0 0d 	add  %i3, %o5, %o5
40007f30:	b2 10 00 0d 	mov  %o5, %i1
40007f34:	10 80 00 0b 	b  40007f60 <_malloc_r+0x450>
40007f38:	c2 06 60 0c 	ld  [ %i1 + 0xc ], %g1
40007f3c:	ba 10 00 01 	mov  %g1, %i5
40007f40:	84 08 bf fc 	and  %g2, -4, %g2
40007f44:	86 20 80 1c 	sub  %g2, %i4, %g3
40007f48:	80 a0 e0 0f 	cmp  %g3, 0xf
40007f4c:	14 80 00 4f 	bg  40008088 <_malloc_r+0x578>
40007f50:	c2 00 60 0c 	ld  [ %g1 + 0xc ], %g1
40007f54:	80 a0 e0 00 	cmp  %g3, 0
40007f58:	36 80 00 5d 	bge,a   400080cc <_malloc_r+0x5bc>
40007f5c:	84 07 40 02 	add  %i5, %g2, %g2
40007f60:	80 a6 40 01 	cmp  %i1, %g1
40007f64:	32 bf ff f6 	bne,a   40007f3c <_malloc_r+0x42c>
40007f68:	c4 00 60 04 	ld  [ %g1 + 4 ], %g2
40007f6c:	98 03 20 01 	inc  %o4
40007f70:	80 8b 20 03 	btst  3, %o4
40007f74:	12 bf ff f0 	bne  40007f34 <_malloc_r+0x424>
40007f78:	b2 06 60 08 	add  %i1, 8, %i1
40007f7c:	10 80 00 7b 	b  40008168 <_malloc_r+0x658>
40007f80:	80 89 20 03 	btst  3, %g4
40007f84:	88 10 20 40 	mov  0x40, %g4
40007f88:	10 bf ff 1b 	b  40007bf4 <_malloc_r+0xe4>
40007f8c:	b4 10 20 3f 	mov  0x3f, %i2
40007f90:	c6 07 60 08 	ld  [ %i5 + 8 ], %g3
40007f94:	c4 20 e0 0c 	st  %g2, [ %g3 + 0xc ]
40007f98:	c6 20 a0 08 	st  %g3, [ %g2 + 8 ]
40007f9c:	82 07 40 01 	add  %i5, %g1, %g1
40007fa0:	c4 00 60 04 	ld  [ %g1 + 4 ], %g2
40007fa4:	84 10 a0 01 	or  %g2, 1, %g2
40007fa8:	90 10 00 18 	mov  %i0, %o0
40007fac:	c4 20 60 04 	st  %g2, [ %g1 + 4 ]
40007fb0:	40 00 01 56 	call  40008508 <__malloc_unlock>
40007fb4:	ba 07 60 08 	add  %i5, 8, %i5
40007fb8:	30 bf fe f8 	b,a   40007b98 <_malloc_r+0x88>
40007fbc:	c2 27 60 04 	st  %g1, [ %i5 + 4 ]
40007fc0:	b8 07 40 1c 	add  %i5, %i4, %i4
40007fc4:	84 10 a0 01 	or  %g2, 1, %g2
40007fc8:	f8 26 e0 08 	st  %i4, [ %i3 + 8 ]
40007fcc:	90 10 00 18 	mov  %i0, %o0
40007fd0:	c4 27 20 04 	st  %g2, [ %i4 + 4 ]
40007fd4:	40 00 01 4d 	call  40008508 <__malloc_unlock>
40007fd8:	ba 07 60 08 	add  %i5, 8, %i5
40007fdc:	b0 10 00 1d 	mov  %i5, %i0
40007fe0:	81 c7 e0 08 	ret 
40007fe4:	81 e8 00 00 	restore 
40007fe8:	08 80 00 53 	bleu  40008134 <_malloc_r+0x624>
40007fec:	85 30 60 09 	srl  %g1, 9, %g2
40007ff0:	80 a0 a0 14 	cmp  %g2, 0x14
40007ff4:	18 80 00 84 	bgu  40008204 <_malloc_r+0x6f4>
40007ff8:	80 a0 a0 54 	cmp  %g2, 0x54
40007ffc:	b4 00 a0 5c 	add  %g2, 0x5c, %i2
40008000:	86 00 a0 5b 	add  %g2, 0x5b, %g3
40008004:	85 2e a0 03 	sll  %i2, 3, %g2
40008008:	b4 06 c0 02 	add  %i3, %g2, %i2
4000800c:	c4 06 c0 02 	ld  [ %i3 + %g2 ], %g2
40008010:	b4 06 bf f8 	add  %i2, -8, %i2
40008014:	80 a6 80 02 	cmp  %i2, %g2
40008018:	22 80 00 75 	be,a   400081ec <_malloc_r+0x6dc>
4000801c:	f2 06 e0 04 	ld  [ %i3 + 4 ], %i1
40008020:	c6 00 a0 04 	ld  [ %g2 + 4 ], %g3
40008024:	86 08 ff fc 	and  %g3, -4, %g3
40008028:	80 a0 c0 01 	cmp  %g3, %g1
4000802c:	28 80 00 07 	bleu,a   40008048 <_malloc_r+0x538>
40008030:	f4 00 a0 0c 	ld  [ %g2 + 0xc ], %i2
40008034:	c4 00 a0 08 	ld  [ %g2 + 8 ], %g2
40008038:	80 a6 80 02 	cmp  %i2, %g2
4000803c:	32 bf ff fa 	bne,a   40008024 <_malloc_r+0x514>
40008040:	c6 00 a0 04 	ld  [ %g2 + 4 ], %g3
40008044:	f4 00 a0 0c 	ld  [ %g2 + 0xc ], %i2
40008048:	c6 06 e0 04 	ld  [ %i3 + 4 ], %g3
4000804c:	f4 27 60 0c 	st  %i2, [ %i5 + 0xc ]
40008050:	c4 27 60 08 	st  %g2, [ %i5 + 8 ]
40008054:	fa 26 a0 08 	st  %i5, [ %i2 + 8 ]
40008058:	10 bf ff a5 	b  40007eec <_malloc_r+0x3dc>
4000805c:	fa 20 a0 0c 	st  %i5, [ %g2 + 0xc ]
40008060:	08 80 00 3a 	bleu  40008148 <_malloc_r+0x638>
40008064:	88 00 60 5c 	add  %g1, 0x5c, %g4
40008068:	80 a0 60 54 	cmp  %g1, 0x54
4000806c:	18 80 00 6d 	bgu  40008220 <_malloc_r+0x710>
40008070:	80 a0 61 54 	cmp  %g1, 0x154
40008074:	83 37 20 0c 	srl  %i4, 0xc, %g1
40008078:	88 00 60 6f 	add  %g1, 0x6f, %g4
4000807c:	b4 00 60 6e 	add  %g1, 0x6e, %i2
40008080:	10 bf fe dd 	b  40007bf4 <_malloc_r+0xe4>
40008084:	83 29 20 03 	sll  %g4, 3, %g1
40008088:	88 17 20 01 	or  %i4, 1, %g4
4000808c:	c8 27 60 04 	st  %g4, [ %i5 + 4 ]
40008090:	c8 07 60 08 	ld  [ %i5 + 8 ], %g4
40008094:	c2 21 20 0c 	st  %g1, [ %g4 + 0xc ]
40008098:	c8 20 60 08 	st  %g4, [ %g1 + 8 ]
4000809c:	b8 07 40 1c 	add  %i5, %i4, %i4
400080a0:	f8 26 e0 14 	st  %i4, [ %i3 + 0x14 ]
400080a4:	f8 26 e0 10 	st  %i4, [ %i3 + 0x10 ]
400080a8:	de 27 20 0c 	st  %o7, [ %i4 + 0xc ]
400080ac:	de 27 20 08 	st  %o7, [ %i4 + 8 ]
400080b0:	82 10 e0 01 	or  %g3, 1, %g1
400080b4:	c2 27 20 04 	st  %g1, [ %i4 + 4 ]
400080b8:	c6 27 40 02 	st  %g3, [ %i5 + %g2 ]
400080bc:	90 10 00 18 	mov  %i0, %o0
400080c0:	40 00 01 12 	call  40008508 <__malloc_unlock>
400080c4:	ba 07 60 08 	add  %i5, 8, %i5
400080c8:	30 bf ff 64 	b,a   40007e58 <_malloc_r+0x348>
400080cc:	c6 00 a0 04 	ld  [ %g2 + 4 ], %g3
400080d0:	86 10 e0 01 	or  %g3, 1, %g3
400080d4:	c6 20 a0 04 	st  %g3, [ %g2 + 4 ]
400080d8:	c4 07 60 08 	ld  [ %i5 + 8 ], %g2
400080dc:	c2 20 a0 0c 	st  %g1, [ %g2 + 0xc ]
400080e0:	c4 20 60 08 	st  %g2, [ %g1 + 8 ]
400080e4:	90 10 00 18 	mov  %i0, %o0
400080e8:	40 00 01 08 	call  40008508 <__malloc_unlock>
400080ec:	ba 07 60 08 	add  %i5, 8, %i5
400080f0:	30 bf ff 5a 	b,a   40007e58 <_malloc_r+0x348>
400080f4:	10 bf fe 94 	b  40007b44 <_malloc_r+0x34>
400080f8:	82 07 20 08 	add  %i4, 8, %g1
400080fc:	86 17 20 01 	or  %i4, 1, %g3
40008100:	c6 27 60 04 	st  %g3, [ %i5 + 4 ]
40008104:	b8 07 40 1c 	add  %i5, %i4, %i4
40008108:	f8 26 e0 14 	st  %i4, [ %i3 + 0x14 ]
4000810c:	f8 26 e0 10 	st  %i4, [ %i3 + 0x10 ]
40008110:	de 27 20 0c 	st  %o7, [ %i4 + 0xc ]
40008114:	de 27 20 08 	st  %o7, [ %i4 + 8 ]
40008118:	86 10 a0 01 	or  %g2, 1, %g3
4000811c:	c6 27 20 04 	st  %g3, [ %i4 + 4 ]
40008120:	c4 27 40 01 	st  %g2, [ %i5 + %g1 ]
40008124:	90 10 00 18 	mov  %i0, %o0
40008128:	40 00 00 f8 	call  40008508 <__malloc_unlock>
4000812c:	ba 07 60 08 	add  %i5, 8, %i5
40008130:	30 bf ff 4a 	b,a   40007e58 <_malloc_r+0x348>
40008134:	85 30 60 06 	srl  %g1, 6, %g2
40008138:	b4 00 a0 39 	add  %g2, 0x39, %i2
4000813c:	86 00 a0 38 	add  %g2, 0x38, %g3
40008140:	10 bf ff b2 	b  40008008 <_malloc_r+0x4f8>
40008144:	85 2e a0 03 	sll  %i2, 3, %g2
40008148:	b4 00 60 5b 	add  %g1, 0x5b, %i2
4000814c:	10 bf fe aa 	b  40007bf4 <_malloc_r+0xe4>
40008150:	83 29 20 03 	sll  %g4, 3, %g1
40008154:	c2 03 60 08 	ld  [ %o5 + 8 ], %g1
40008158:	80 a0 40 0d 	cmp  %g1, %o5
4000815c:	12 80 00 60 	bne  400082dc <_malloc_r+0x7cc>
40008160:	88 01 3f ff 	add  %g4, -1, %g4
40008164:	80 89 20 03 	btst  3, %g4
40008168:	32 bf ff fb 	bne,a   40008154 <_malloc_r+0x644>
4000816c:	9a 03 7f f8 	add  %o5, -8, %o5
40008170:	c2 06 e0 04 	ld  [ %i3 + 4 ], %g1
40008174:	82 28 40 1a 	andn  %g1, %i2, %g1
40008178:	c2 26 e0 04 	st  %g1, [ %i3 + 4 ]
4000817c:	b4 86 80 1a 	addcc  %i2, %i2, %i2
40008180:	02 bf fe bf 	be  40007c7c <_malloc_r+0x16c>
40008184:	80 a0 40 1a 	cmp  %g1, %i2
40008188:	1a 80 00 06 	bcc  400081a0 <_malloc_r+0x690>
4000818c:	80 8e 80 01 	btst  %i2, %g1
40008190:	10 bf fe bc 	b  40007c80 <_malloc_r+0x170>
40008194:	fa 06 e0 08 	ld  [ %i3 + 8 ], %i5
40008198:	98 03 20 04 	add  %o4, 4, %o4
4000819c:	80 8e 80 01 	btst  %i2, %g1
400081a0:	22 bf ff fe 	be,a   40008198 <_malloc_r+0x688>
400081a4:	b5 2e a0 01 	sll  %i2, 1, %i2
400081a8:	10 bf ff 5f 	b  40007f24 <_malloc_r+0x414>
400081ac:	88 10 00 0c 	mov  %o4, %g4
400081b0:	fa 06 e0 08 	ld  [ %i3 + 8 ], %i5
400081b4:	10 bf ff 16 	b  40007e0c <_malloc_r+0x2fc>
400081b8:	c2 07 60 04 	ld  [ %i5 + 4 ], %g1
400081bc:	80 8c 6f ff 	btst  0xfff, %l1
400081c0:	32 bf fe da 	bne,a   40007d28 <_malloc_r+0x218>
400081c4:	c2 04 e3 c0 	ld  [ %l3 + 0x3c0 ], %g1
400081c8:	fa 06 e0 08 	ld  [ %i3 + 8 ], %i5
400081cc:	82 06 40 1a 	add  %i1, %i2, %g1
400081d0:	82 10 60 01 	or  %g1, 1, %g1
400081d4:	10 bf ff 04 	b  40007de4 <_malloc_r+0x2d4>
400081d8:	c2 27 60 04 	st  %g1, [ %i5 + 4 ]
400081dc:	10 bf fe d8 	b  40007d3c <_malloc_r+0x22c>
400081e0:	e0 24 e3 c0 	st  %l0, [ %l3 + 0x3c0 ]
400081e4:	10 bf fe bf 	b  40007ce0 <_malloc_r+0x1d0>
400081e8:	b4 06 a0 10 	add  %i2, 0x10, %i2
400081ec:	83 38 e0 02 	sra  %g3, 2, %g1
400081f0:	86 10 20 01 	mov  1, %g3
400081f4:	87 28 c0 01 	sll  %g3, %g1, %g3
400081f8:	86 10 c0 19 	or  %g3, %i1, %g3
400081fc:	10 bf ff 94 	b  4000804c <_malloc_r+0x53c>
40008200:	c6 26 e0 04 	st  %g3, [ %i3 + 4 ]
40008204:	18 80 00 15 	bgu  40008258 <_malloc_r+0x748>
40008208:	80 a0 a1 54 	cmp  %g2, 0x154
4000820c:	85 30 60 0c 	srl  %g1, 0xc, %g2
40008210:	b4 00 a0 6f 	add  %g2, 0x6f, %i2
40008214:	86 00 a0 6e 	add  %g2, 0x6e, %g3
40008218:	10 bf ff 7c 	b  40008008 <_malloc_r+0x4f8>
4000821c:	85 2e a0 03 	sll  %i2, 3, %g2
40008220:	18 80 00 15 	bgu  40008274 <_malloc_r+0x764>
40008224:	80 a0 65 54 	cmp  %g1, 0x554
40008228:	83 37 20 0f 	srl  %i4, 0xf, %g1
4000822c:	88 00 60 78 	add  %g1, 0x78, %g4
40008230:	b4 00 60 77 	add  %g1, 0x77, %i2
40008234:	10 bf fe 70 	b  40007bf4 <_malloc_r+0xe4>
40008238:	83 29 20 03 	sll  %g4, 3, %g1
4000823c:	10 bf fe d3 	b  40007d88 <_malloc_r+0x278>
40008240:	b4 10 20 00 	clr  %i2
40008244:	10 bf fe e8 	b  40007de4 <_malloc_r+0x2d4>
40008248:	ba 10 00 10 	mov  %l0, %i5
4000824c:	82 10 20 01 	mov  1, %g1
40008250:	10 bf fe fa 	b  40007e38 <_malloc_r+0x328>
40008254:	c2 24 20 04 	st  %g1, [ %l0 + 4 ]
40008258:	18 80 00 15 	bgu  400082ac <_malloc_r+0x79c>
4000825c:	80 a0 a5 54 	cmp  %g2, 0x554
40008260:	85 30 60 0f 	srl  %g1, 0xf, %g2
40008264:	b4 00 a0 78 	add  %g2, 0x78, %i2
40008268:	86 00 a0 77 	add  %g2, 0x77, %g3
4000826c:	10 bf ff 67 	b  40008008 <_malloc_r+0x4f8>
40008270:	85 2e a0 03 	sll  %i2, 3, %g2
40008274:	38 80 00 15 	bgu,a   400082c8 <_malloc_r+0x7b8>
40008278:	82 10 23 f8 	mov  0x3f8, %g1
4000827c:	83 37 20 12 	srl  %i4, 0x12, %g1
40008280:	88 00 60 7d 	add  %g1, 0x7d, %g4
40008284:	b4 00 60 7c 	add  %g1, 0x7c, %i2
40008288:	10 bf fe 5b 	b  40007bf4 <_malloc_r+0xe4>
4000828c:	83 29 20 03 	sll  %g4, 3, %g1
40008290:	92 07 60 08 	add  %i5, 8, %o1
40008294:	7f ff fc 86 	call  400074ac <_free_r>
40008298:	90 10 00 18 	mov  %i0, %o0
4000829c:	d2 04 a2 b0 	ld  [ %l2 + 0x2b0 ], %o1
400082a0:	fa 06 e0 08 	ld  [ %i3 + 8 ], %i5
400082a4:	10 bf fe d0 	b  40007de4 <_malloc_r+0x2d4>
400082a8:	c2 07 60 04 	ld  [ %i5 + 4 ], %g1
400082ac:	38 80 00 0a 	bgu,a   400082d4 <_malloc_r+0x7c4>
400082b0:	84 10 23 f8 	mov  0x3f8, %g2
400082b4:	85 30 60 12 	srl  %g1, 0x12, %g2
400082b8:	b4 00 a0 7d 	add  %g2, 0x7d, %i2
400082bc:	86 00 a0 7c 	add  %g2, 0x7c, %g3
400082c0:	10 bf ff 52 	b  40008008 <_malloc_r+0x4f8>
400082c4:	85 2e a0 03 	sll  %i2, 3, %g2
400082c8:	88 10 20 7f 	mov  0x7f, %g4
400082cc:	10 bf fe 4a 	b  40007bf4 <_malloc_r+0xe4>
400082d0:	b4 10 20 7e 	mov  0x7e, %i2
400082d4:	10 bf ff 4d 	b  40008008 <_malloc_r+0x4f8>
400082d8:	86 10 20 7e 	mov  0x7e, %g3
400082dc:	10 bf ff a8 	b  4000817c <_malloc_r+0x66c>
400082e0:	c2 06 e0 04 	ld  [ %i3 + 4 ], %g1

400082e4 <memchr>:
400082e4:	80 8a 20 03 	btst  3, %o0
400082e8:	02 80 00 14 	be  40008338 <memchr+0x54>
400082ec:	88 10 00 09 	mov  %o1, %g4
400082f0:	80 a2 a0 00 	cmp  %o2, 0
400082f4:	02 80 00 18 	be  40008354 <memchr+0x70>
400082f8:	82 02 bf ff 	add  %o2, -1, %g1
400082fc:	10 80 00 09 	b  40008320 <memchr+0x3c>
40008300:	86 0a 60 ff 	and  %o1, 0xff, %g3
40008304:	80 8a 20 03 	btst  3, %o0
40008308:	02 80 00 0e 	be  40008340 <memchr+0x5c>
4000830c:	80 a0 60 03 	cmp  %g1, 3
40008310:	82 00 7f ff 	add  %g1, -1, %g1
40008314:	80 a0 7f ff 	cmp  %g1, -1
40008318:	02 80 00 0f 	be  40008354 <memchr+0x70>
4000831c:	01 00 00 00 	nop 
40008320:	c4 0a 00 00 	ldub  [ %o0 ], %g2
40008324:	80 a0 80 03 	cmp  %g2, %g3
40008328:	32 bf ff f7 	bne,a   40008304 <memchr+0x20>
4000832c:	90 02 20 01 	inc  %o0
40008330:	81 c3 e0 08 	retl 
40008334:	01 00 00 00 	nop 
40008338:	82 10 00 0a 	mov  %o2, %g1
4000833c:	80 a0 60 03 	cmp  %g1, 3
40008340:	38 80 00 12 	bgu,a   40008388 <memchr+0xa4>
40008344:	92 0a 60 ff 	and  %o1, 0xff, %o1
40008348:	80 a0 60 00 	cmp  %g1, 0
4000834c:	12 80 00 04 	bne  4000835c <memchr+0x78>
40008350:	82 02 00 01 	add  %o0, %g1, %g1
40008354:	81 c3 e0 08 	retl 
40008358:	90 10 20 00 	clr  %o0
4000835c:	10 80 00 05 	b  40008370 <memchr+0x8c>
40008360:	86 09 20 ff 	and  %g4, 0xff, %g3
40008364:	80 a2 00 01 	cmp  %o0, %g1
40008368:	02 bf ff fb 	be  40008354 <memchr+0x70>
4000836c:	01 00 00 00 	nop 
40008370:	c4 0a 00 00 	ldub  [ %o0 ], %g2
40008374:	80 a0 80 03 	cmp  %g2, %g3
40008378:	32 bf ff fb 	bne,a   40008364 <memchr+0x80>
4000837c:	90 02 20 01 	inc  %o0
40008380:	81 c3 e0 08 	retl 
40008384:	01 00 00 00 	nop 
40008388:	19 3f bf bf 	sethi  %hi(0xfefefc00), %o4
4000838c:	85 2a 60 08 	sll  %o1, 8, %g2
40008390:	1b 20 20 20 	sethi  %hi(0x80808000), %o5
40008394:	84 10 80 09 	or  %g2, %o1, %g2
40008398:	98 13 22 ff 	or  %o4, 0x2ff, %o4
4000839c:	93 28 a0 10 	sll  %g2, 0x10, %o1
400083a0:	9a 13 60 80 	or  %o5, 0x80, %o5
400083a4:	92 12 40 02 	or  %o1, %g2, %o1
400083a8:	c4 02 00 00 	ld  [ %o0 ], %g2
400083ac:	84 1a 40 02 	xor  %o1, %g2, %g2
400083b0:	86 00 80 0c 	add  %g2, %o4, %g3
400083b4:	84 28 c0 02 	andn  %g3, %g2, %g2
400083b8:	80 88 80 0d 	btst  %g2, %o5
400083bc:	32 bf ff e8 	bne,a   4000835c <memchr+0x78>
400083c0:	82 02 00 01 	add  %o0, %g1, %g1
400083c4:	82 00 7f fc 	add  %g1, -4, %g1
400083c8:	80 a0 60 03 	cmp  %g1, 3
400083cc:	18 bf ff f7 	bgu  400083a8 <memchr+0xc4>
400083d0:	90 02 20 04 	add  %o0, 4, %o0
400083d4:	10 bf ff de 	b  4000834c <memchr+0x68>
400083d8:	80 a0 60 00 	cmp  %g1, 0

400083dc <memset>:
400083dc:	80 8a 20 03 	btst  3, %o0
400083e0:	02 80 00 41 	be  400084e4 <memset+0x108>
400083e4:	80 a2 a0 00 	cmp  %o2, 0
400083e8:	84 02 bf ff 	add  %o2, -1, %g2
400083ec:	86 10 00 09 	mov  %o1, %g3
400083f0:	12 80 00 06 	bne  40008408 <memset+0x2c>
400083f4:	82 10 00 08 	mov  %o0, %g1
400083f8:	30 80 00 3e 	b,a   400084f0 <memset+0x114>
400083fc:	80 a0 bf ff 	cmp  %g2, -1
40008400:	02 80 00 3c 	be  400084f0 <memset+0x114>
40008404:	01 00 00 00 	nop 
40008408:	c6 28 40 00 	stb  %g3, [ %g1 ]
4000840c:	82 00 60 01 	inc  %g1
40008410:	80 88 60 03 	btst  3, %g1
40008414:	32 bf ff fa 	bne,a   400083fc <memset+0x20>
40008418:	84 00 bf ff 	add  %g2, -1, %g2
4000841c:	80 a0 a0 03 	cmp  %g2, 3
40008420:	08 80 00 28 	bleu  400084c0 <memset+0xe4>
40008424:	80 a0 a0 00 	cmp  %g2, 0
40008428:	88 0a 60 ff 	and  %o1, 0xff, %g4
4000842c:	87 29 20 08 	sll  %g4, 8, %g3
40008430:	80 a0 a0 0f 	cmp  %g2, 0xf
40008434:	88 10 c0 04 	or  %g3, %g4, %g4
40008438:	87 29 20 10 	sll  %g4, 0x10, %g3
4000843c:	08 80 00 2f 	bleu  400084f8 <memset+0x11c>
40008440:	86 10 c0 04 	or  %g3, %g4, %g3
40008444:	88 00 bf f0 	add  %g2, -16, %g4
40008448:	88 09 3f f0 	and  %g4, -16, %g4
4000844c:	88 01 20 10 	add  %g4, 0x10, %g4
40008450:	88 00 40 04 	add  %g1, %g4, %g4
40008454:	c6 20 40 00 	st  %g3, [ %g1 ]
40008458:	c6 20 60 04 	st  %g3, [ %g1 + 4 ]
4000845c:	c6 20 60 08 	st  %g3, [ %g1 + 8 ]
40008460:	c6 20 60 0c 	st  %g3, [ %g1 + 0xc ]
40008464:	82 00 60 10 	add  %g1, 0x10, %g1
40008468:	80 a1 00 01 	cmp  %g4, %g1
4000846c:	32 bf ff fb 	bne,a   40008458 <memset+0x7c>
40008470:	c6 20 40 00 	st  %g3, [ %g1 ]
40008474:	9a 08 a0 0c 	and  %g2, 0xc, %o5
40008478:	88 08 a0 0f 	and  %g2, 0xf, %g4
4000847c:	80 a3 60 00 	cmp  %o5, 0
40008480:	02 80 00 0f 	be  400084bc <memset+0xe0>
40008484:	84 10 00 04 	mov  %g4, %g2
40008488:	84 01 3f fc 	add  %g4, -4, %g2
4000848c:	80 a0 a0 03 	cmp  %g2, 3
40008490:	08 80 00 07 	bleu  400084ac <memset+0xd0>
40008494:	c6 20 40 00 	st  %g3, [ %g1 ]
40008498:	9a 01 3f f8 	add  %g4, -8, %o5
4000849c:	80 a3 60 03 	cmp  %o5, 3
400084a0:	08 80 00 03 	bleu  400084ac <memset+0xd0>
400084a4:	c6 20 60 04 	st  %g3, [ %g1 + 4 ]
400084a8:	c6 20 60 08 	st  %g3, [ %g1 + 8 ]
400084ac:	86 08 bf fc 	and  %g2, -4, %g3
400084b0:	84 09 20 03 	and  %g4, 3, %g2
400084b4:	86 00 e0 04 	add  %g3, 4, %g3
400084b8:	82 00 40 03 	add  %g1, %g3, %g1
400084bc:	80 a0 a0 00 	cmp  %g2, 0
400084c0:	02 80 00 0c 	be  400084f0 <memset+0x114>
400084c4:	80 a0 a0 01 	cmp  %g2, 1
400084c8:	02 80 00 0a 	be  400084f0 <memset+0x114>
400084cc:	d2 28 40 00 	stb  %o1, [ %g1 ]
400084d0:	80 a0 a0 02 	cmp  %g2, 2
400084d4:	02 80 00 07 	be  400084f0 <memset+0x114>
400084d8:	d2 28 60 01 	stb  %o1, [ %g1 + 1 ]
400084dc:	81 c3 e0 08 	retl 
400084e0:	d2 28 60 02 	stb  %o1, [ %g1 + 2 ]
400084e4:	82 10 00 08 	mov  %o0, %g1
400084e8:	10 bf ff cd 	b  4000841c <memset+0x40>
400084ec:	84 10 00 0a 	mov  %o2, %g2
400084f0:	81 c3 e0 08 	retl 
400084f4:	01 00 00 00 	nop 
400084f8:	10 bf ff e4 	b  40008488 <memset+0xac>
400084fc:	88 10 00 02 	mov  %g2, %g4

40008500 <__malloc_lock>:
40008500:	81 c3 e0 08 	retl 
40008504:	01 00 00 00 	nop 

40008508 <__malloc_unlock>:
40008508:	81 c3 e0 08 	retl 
4000850c:	01 00 00 00 	nop 

40008510 <_Balloc>:
40008510:	9d e3 bf a0 	save  %sp, -96, %sp
40008514:	fa 06 20 24 	ld  [ %i0 + 0x24 ], %i5
40008518:	80 a7 60 00 	cmp  %i5, 0
4000851c:	02 80 00 11 	be  40008560 <_Balloc+0x50>
40008520:	01 00 00 00 	nop 
40008524:	c2 07 60 0c 	ld  [ %i5 + 0xc ], %g1
40008528:	80 a0 60 00 	cmp  %g1, 0
4000852c:	02 80 00 16 	be  40008584 <_Balloc+0x74>
40008530:	94 10 20 21 	mov  0x21, %o2
40008534:	85 2e 60 02 	sll  %i1, 2, %g2
40008538:	d0 00 40 02 	ld  [ %g1 + %g2 ], %o0
4000853c:	80 a2 20 00 	cmp  %o0, 0
40008540:	02 80 00 1c 	be  400085b0 <_Balloc+0xa0>
40008544:	92 10 20 01 	mov  1, %o1
40008548:	c6 02 00 00 	ld  [ %o0 ], %g3
4000854c:	c6 20 40 02 	st  %g3, [ %g1 + %g2 ]
40008550:	c0 22 20 10 	clr  [ %o0 + 0x10 ]
40008554:	c0 22 20 0c 	clr  [ %o0 + 0xc ]
40008558:	81 c7 e0 08 	ret 
4000855c:	91 e8 00 08 	restore  %g0, %o0, %o0
40008560:	7f ff fd 60 	call  40007ae0 <malloc>
40008564:	90 10 20 10 	mov  0x10, %o0
40008568:	d0 26 20 24 	st  %o0, [ %i0 + 0x24 ]
4000856c:	ba 10 00 08 	mov  %o0, %i5
40008570:	c0 22 20 04 	clr  [ %o0 + 4 ]
40008574:	c0 22 20 08 	clr  [ %o0 + 8 ]
40008578:	c0 22 00 00 	clr  [ %o0 ]
4000857c:	c0 22 20 0c 	clr  [ %o0 + 0xc ]
40008580:	94 10 20 21 	mov  0x21, %o2
40008584:	92 10 20 04 	mov  4, %o1
40008588:	40 00 0e 5a 	call  4000bef0 <_calloc_r>
4000858c:	90 10 00 18 	mov  %i0, %o0
40008590:	d0 27 60 0c 	st  %o0, [ %i5 + 0xc ]
40008594:	c2 06 20 24 	ld  [ %i0 + 0x24 ], %g1
40008598:	c2 00 60 0c 	ld  [ %g1 + 0xc ], %g1
4000859c:	80 a0 60 00 	cmp  %g1, 0
400085a0:	12 bf ff e6 	bne  40008538 <_Balloc+0x28>
400085a4:	85 2e 60 02 	sll  %i1, 2, %g2
400085a8:	10 bf ff ec 	b  40008558 <_Balloc+0x48>
400085ac:	90 10 20 00 	clr  %o0
400085b0:	ba 10 20 01 	mov  1, %i5
400085b4:	90 10 00 18 	mov  %i0, %o0
400085b8:	bb 2f 40 19 	sll  %i5, %i1, %i5
400085bc:	94 07 60 05 	add  %i5, 5, %o2
400085c0:	40 00 0e 4c 	call  4000bef0 <_calloc_r>
400085c4:	95 2a a0 02 	sll  %o2, 2, %o2
400085c8:	80 a2 20 00 	cmp  %o0, 0
400085cc:	22 bf ff e3 	be,a   40008558 <_Balloc+0x48>
400085d0:	90 10 20 00 	clr  %o0
400085d4:	f2 22 20 04 	st  %i1, [ %o0 + 4 ]
400085d8:	10 bf ff de 	b  40008550 <_Balloc+0x40>
400085dc:	fa 22 20 08 	st  %i5, [ %o0 + 8 ]

400085e0 <_Bfree>:
400085e0:	9d e3 bf a0 	save  %sp, -96, %sp
400085e4:	d0 06 20 24 	ld  [ %i0 + 0x24 ], %o0
400085e8:	80 a2 20 00 	cmp  %o0, 0
400085ec:	02 80 00 0d 	be  40008620 <_Bfree+0x40>
400085f0:	01 00 00 00 	nop 
400085f4:	80 a6 60 00 	cmp  %i1, 0
400085f8:	02 80 00 08 	be  40008618 <_Bfree+0x38>
400085fc:	01 00 00 00 	nop 
40008600:	c4 02 20 0c 	ld  [ %o0 + 0xc ], %g2
40008604:	c2 06 60 04 	ld  [ %i1 + 4 ], %g1
40008608:	83 28 60 02 	sll  %g1, 2, %g1
4000860c:	c6 00 80 01 	ld  [ %g2 + %g1 ], %g3
40008610:	c6 26 40 00 	st  %g3, [ %i1 ]
40008614:	f2 20 80 01 	st  %i1, [ %g2 + %g1 ]
40008618:	81 c7 e0 08 	ret 
4000861c:	81 e8 00 00 	restore 
40008620:	7f ff fd 30 	call  40007ae0 <malloc>
40008624:	90 10 20 10 	mov  0x10, %o0
40008628:	d0 26 20 24 	st  %o0, [ %i0 + 0x24 ]
4000862c:	c0 22 20 04 	clr  [ %o0 + 4 ]
40008630:	c0 22 20 08 	clr  [ %o0 + 8 ]
40008634:	c0 22 00 00 	clr  [ %o0 ]
40008638:	10 bf ff ef 	b  400085f4 <_Bfree+0x14>
4000863c:	c0 22 20 0c 	clr  [ %o0 + 0xc ]

40008640 <__multadd>:
40008640:	9d e3 bf a0 	save  %sp, -96, %sp
40008644:	25 00 00 3f 	sethi  %hi(0xfc00), %l2
40008648:	e0 06 60 10 	ld  [ %i1 + 0x10 ], %l0
4000864c:	ba 06 60 14 	add  %i1, 0x14, %i5
40008650:	b8 10 20 00 	clr  %i4
40008654:	a4 14 a3 ff 	or  %l2, 0x3ff, %l2
40008658:	e2 07 40 00 	ld  [ %i5 ], %l1
4000865c:	92 10 00 1a 	mov  %i2, %o1
40008660:	40 00 16 11 	call  4000dea4 <.umul>
40008664:	90 0c 40 12 	and  %l1, %l2, %o0
40008668:	92 10 00 1a 	mov  %i2, %o1
4000866c:	b6 02 00 1b 	add  %o0, %i3, %i3
40008670:	40 00 16 0d 	call  4000dea4 <.umul>
40008674:	91 34 60 10 	srl  %l1, 0x10, %o0
40008678:	83 36 e0 10 	srl  %i3, 0x10, %g1
4000867c:	ba 07 60 04 	add  %i5, 4, %i5
40008680:	90 02 00 01 	add  %o0, %g1, %o0
40008684:	b6 0e c0 12 	and  %i3, %l2, %i3
40008688:	83 2a 20 10 	sll  %o0, 0x10, %g1
4000868c:	b6 00 40 1b 	add  %g1, %i3, %i3
40008690:	f6 27 7f fc 	st  %i3, [ %i5 + -4 ]
40008694:	b8 07 20 01 	inc  %i4
40008698:	80 a4 00 1c 	cmp  %l0, %i4
4000869c:	14 bf ff ef 	bg  40008658 <__multadd+0x18>
400086a0:	b7 32 20 10 	srl  %o0, 0x10, %i3
400086a4:	80 a6 e0 00 	cmp  %i3, 0
400086a8:	02 80 00 0c 	be  400086d8 <__multadd+0x98>
400086ac:	01 00 00 00 	nop 
400086b0:	c2 06 60 08 	ld  [ %i1 + 8 ], %g1
400086b4:	80 a0 40 10 	cmp  %g1, %l0
400086b8:	24 80 00 0a 	ble,a   400086e0 <__multadd+0xa0>
400086bc:	d2 06 60 04 	ld  [ %i1 + 4 ], %o1
400086c0:	82 04 20 04 	add  %l0, 4, %g1
400086c4:	83 28 60 02 	sll  %g1, 2, %g1
400086c8:	82 06 40 01 	add  %i1, %g1, %g1
400086cc:	f6 20 60 04 	st  %i3, [ %g1 + 4 ]
400086d0:	a0 04 20 01 	inc  %l0
400086d4:	e0 26 60 10 	st  %l0, [ %i1 + 0x10 ]
400086d8:	81 c7 e0 08 	ret 
400086dc:	91 e8 00 19 	restore  %g0, %i1, %o0
400086e0:	90 10 00 18 	mov  %i0, %o0
400086e4:	7f ff ff 8b 	call  40008510 <_Balloc>
400086e8:	92 02 60 01 	inc  %o1
400086ec:	d4 06 60 10 	ld  [ %i1 + 0x10 ], %o2
400086f0:	b8 10 00 08 	mov  %o0, %i4
400086f4:	94 02 a0 02 	add  %o2, 2, %o2
400086f8:	92 06 60 0c 	add  %i1, 0xc, %o1
400086fc:	95 2a a0 02 	sll  %o2, 2, %o2
40008700:	7f ff e6 c4 	call  40002210 <memcpy>
40008704:	90 02 20 0c 	add  %o0, 0xc, %o0
40008708:	fa 06 20 24 	ld  [ %i0 + 0x24 ], %i5
4000870c:	80 a7 60 00 	cmp  %i5, 0
40008710:	02 80 00 0a 	be  40008738 <__multadd+0xf8>
40008714:	01 00 00 00 	nop 
40008718:	fa 07 60 0c 	ld  [ %i5 + 0xc ], %i5
4000871c:	c2 06 60 04 	ld  [ %i1 + 4 ], %g1
40008720:	83 28 60 02 	sll  %g1, 2, %g1
40008724:	c4 07 40 01 	ld  [ %i5 + %g1 ], %g2
40008728:	c4 26 40 00 	st  %g2, [ %i1 ]
4000872c:	f2 27 40 01 	st  %i1, [ %i5 + %g1 ]
40008730:	10 bf ff e4 	b  400086c0 <__multadd+0x80>
40008734:	b2 10 00 1c 	mov  %i4, %i1
40008738:	7f ff fc ea 	call  40007ae0 <malloc>
4000873c:	90 10 20 10 	mov  0x10, %o0
40008740:	d0 26 20 24 	st  %o0, [ %i0 + 0x24 ]
40008744:	c0 22 20 04 	clr  [ %o0 + 4 ]
40008748:	c0 22 20 08 	clr  [ %o0 + 8 ]
4000874c:	c0 22 00 00 	clr  [ %o0 ]
40008750:	10 bf ff f3 	b  4000871c <__multadd+0xdc>
40008754:	c0 22 20 0c 	clr  [ %o0 + 0xc ]

40008758 <__s2b>:
40008758:	9d e3 bf a0 	save  %sp, -96, %sp
4000875c:	92 10 20 09 	mov  9, %o1
40008760:	40 00 16 0d 	call  4000df94 <.div>
40008764:	90 06 e0 08 	add  %i3, 8, %o0
40008768:	80 a6 e0 09 	cmp  %i3, 9
4000876c:	04 80 00 2f 	ble  40008828 <__s2b+0xd0>
40008770:	82 10 20 01 	mov  1, %g1
40008774:	92 10 20 00 	clr  %o1
40008778:	83 28 60 01 	sll  %g1, 1, %g1
4000877c:	80 a2 00 01 	cmp  %o0, %g1
40008780:	14 bf ff fe 	bg  40008778 <__s2b+0x20>
40008784:	92 02 60 01 	inc  %o1
40008788:	7f ff ff 62 	call  40008510 <_Balloc>
4000878c:	90 10 00 18 	mov  %i0, %o0
40008790:	82 10 20 01 	mov  1, %g1
40008794:	f8 22 20 14 	st  %i4, [ %o0 + 0x14 ]
40008798:	c2 22 20 10 	st  %g1, [ %o0 + 0x10 ]
4000879c:	80 a6 a0 09 	cmp  %i2, 9
400087a0:	04 80 00 1f 	ble  4000881c <__s2b+0xc4>
400087a4:	92 10 00 08 	mov  %o0, %o1
400087a8:	b8 06 60 09 	add  %i1, 9, %i4
400087ac:	b2 06 40 1a 	add  %i1, %i2, %i1
400087b0:	ba 10 00 1c 	mov  %i4, %i5
400087b4:	d6 4f 40 00 	ldsb  [ %i5 ], %o3
400087b8:	94 10 20 0a 	mov  0xa, %o2
400087bc:	96 02 ff d0 	add  %o3, -48, %o3
400087c0:	7f ff ff a0 	call  40008640 <__multadd>
400087c4:	90 10 00 18 	mov  %i0, %o0
400087c8:	ba 07 60 01 	inc  %i5
400087cc:	80 a6 40 1d 	cmp  %i1, %i5
400087d0:	12 bf ff f9 	bne  400087b4 <__s2b+0x5c>
400087d4:	92 10 00 08 	mov  %o0, %o1
400087d8:	b2 06 bf f8 	add  %i2, -8, %i1
400087dc:	b2 07 00 19 	add  %i4, %i1, %i1
400087e0:	80 a6 c0 1a 	cmp  %i3, %i2
400087e4:	04 80 00 0c 	ble  40008814 <__s2b+0xbc>
400087e8:	b6 26 c0 1a 	sub  %i3, %i2, %i3
400087ec:	b6 06 40 1b 	add  %i1, %i3, %i3
400087f0:	d6 4e 40 00 	ldsb  [ %i1 ], %o3
400087f4:	94 10 20 0a 	mov  0xa, %o2
400087f8:	96 02 ff d0 	add  %o3, -48, %o3
400087fc:	7f ff ff 91 	call  40008640 <__multadd>
40008800:	90 10 00 18 	mov  %i0, %o0
40008804:	b2 06 60 01 	inc  %i1
40008808:	80 a6 c0 19 	cmp  %i3, %i1
4000880c:	12 bf ff f9 	bne  400087f0 <__s2b+0x98>
40008810:	92 10 00 08 	mov  %o0, %o1
40008814:	81 c7 e0 08 	ret 
40008818:	91 e8 00 09 	restore  %g0, %o1, %o0
4000881c:	b2 06 60 0a 	add  %i1, 0xa, %i1
40008820:	10 bf ff f0 	b  400087e0 <__s2b+0x88>
40008824:	b4 10 20 09 	mov  9, %i2
40008828:	10 bf ff d8 	b  40008788 <__s2b+0x30>
4000882c:	92 10 20 00 	clr  %o1

40008830 <__hi0bits>:
40008830:	05 3f ff c0 	sethi  %hi(0xffff0000), %g2
40008834:	80 8a 00 02 	btst  %o0, %g2
40008838:	12 80 00 1d 	bne  400088ac <__hi0bits+0x7c>
4000883c:	82 10 00 08 	mov  %o0, %g1
40008840:	83 2a 20 10 	sll  %o0, 0x10, %g1
40008844:	86 10 20 18 	mov  0x18, %g3
40008848:	90 10 20 10 	mov  0x10, %o0
4000884c:	05 3f c0 00 	sethi  %hi(0xff000000), %g2
40008850:	80 88 40 02 	btst  %g1, %g2
40008854:	12 80 00 04 	bne  40008864 <__hi0bits+0x34>
40008858:	05 3c 00 00 	sethi  %hi(0xf0000000), %g2
4000885c:	83 28 60 08 	sll  %g1, 8, %g1
40008860:	90 10 00 03 	mov  %g3, %o0
40008864:	80 88 40 02 	btst  %g1, %g2
40008868:	12 80 00 04 	bne  40008878 <__hi0bits+0x48>
4000886c:	05 30 00 00 	sethi  %hi(0xc0000000), %g2
40008870:	90 02 20 04 	add  %o0, 4, %o0
40008874:	83 28 60 04 	sll  %g1, 4, %g1
40008878:	80 88 40 02 	btst  %g1, %g2
4000887c:	12 80 00 05 	bne  40008890 <__hi0bits+0x60>
40008880:	80 a0 60 00 	cmp  %g1, 0
40008884:	90 02 20 02 	add  %o0, 2, %o0
40008888:	83 28 60 02 	sll  %g1, 2, %g1
4000888c:	80 a0 60 00 	cmp  %g1, 0
40008890:	06 80 00 05 	bl  400088a4 <__hi0bits+0x74>
40008894:	05 10 00 00 	sethi  %hi(0x40000000), %g2
40008898:	80 88 40 02 	btst  %g1, %g2
4000889c:	02 80 00 07 	be  400088b8 <__hi0bits+0x88>
400088a0:	90 02 20 01 	inc  %o0
400088a4:	81 c3 e0 08 	retl 
400088a8:	01 00 00 00 	nop 
400088ac:	86 10 20 08 	mov  8, %g3	! 8 <fpu_state_f2>
400088b0:	10 bf ff e7 	b  4000884c <__hi0bits+0x1c>
400088b4:	90 10 20 00 	clr  %o0
400088b8:	81 c3 e0 08 	retl 
400088bc:	90 10 20 20 	mov  0x20, %o0

400088c0 <__lo0bits>:
400088c0:	c2 02 00 00 	ld  [ %o0 ], %g1
400088c4:	80 88 60 07 	btst  7, %g1
400088c8:	22 80 00 0c 	be,a   400088f8 <__lo0bits+0x38>
400088cc:	05 00 00 3f 	sethi  %hi(0xfc00), %g2
400088d0:	80 88 60 01 	btst  1, %g1
400088d4:	12 80 00 07 	bne  400088f0 <__lo0bits+0x30>
400088d8:	84 10 20 00 	clr  %g2
400088dc:	80 88 60 02 	btst  2, %g1
400088e0:	02 80 00 2a 	be  40008988 <__lo0bits+0xc8>
400088e4:	84 10 20 01 	mov  1, %g2
400088e8:	83 30 60 01 	srl  %g1, 1, %g1
400088ec:	c2 22 00 00 	st  %g1, [ %o0 ]
400088f0:	81 c3 e0 08 	retl 
400088f4:	90 10 00 02 	mov  %g2, %o0
400088f8:	84 10 a3 ff 	or  %g2, 0x3ff, %g2
400088fc:	80 88 40 02 	btst  %g1, %g2
40008900:	22 80 00 1d 	be,a   40008974 <__lo0bits+0xb4>
40008904:	83 30 60 10 	srl  %g1, 0x10, %g1
40008908:	86 10 20 08 	mov  8, %g3
4000890c:	84 10 20 00 	clr  %g2
40008910:	80 88 60 ff 	btst  0xff, %g1
40008914:	12 80 00 05 	bne  40008928 <__lo0bits+0x68>
40008918:	80 88 60 0f 	btst  0xf, %g1
4000891c:	83 30 60 08 	srl  %g1, 8, %g1
40008920:	84 10 00 03 	mov  %g3, %g2
40008924:	80 88 60 0f 	btst  0xf, %g1
40008928:	12 80 00 05 	bne  4000893c <__lo0bits+0x7c>
4000892c:	80 88 60 03 	btst  3, %g1
40008930:	84 00 a0 04 	add  %g2, 4, %g2
40008934:	83 30 60 04 	srl  %g1, 4, %g1
40008938:	80 88 60 03 	btst  3, %g1
4000893c:	12 80 00 05 	bne  40008950 <__lo0bits+0x90>
40008940:	80 88 60 01 	btst  1, %g1
40008944:	84 00 a0 02 	add  %g2, 2, %g2
40008948:	83 30 60 02 	srl  %g1, 2, %g1
4000894c:	80 88 60 01 	btst  1, %g1
40008950:	32 80 00 07 	bne,a   4000896c <__lo0bits+0xac>
40008954:	c2 22 00 00 	st  %g1, [ %o0 ]
40008958:	83 30 60 01 	srl  %g1, 1, %g1
4000895c:	80 a0 60 00 	cmp  %g1, 0
40008960:	02 80 00 08 	be  40008980 <__lo0bits+0xc0>
40008964:	84 00 a0 01 	inc  %g2
40008968:	c2 22 00 00 	st  %g1, [ %o0 ]
4000896c:	81 c3 e0 08 	retl 
40008970:	90 10 00 02 	mov  %g2, %o0
40008974:	86 10 20 18 	mov  0x18, %g3
40008978:	10 bf ff e6 	b  40008910 <__lo0bits+0x50>
4000897c:	84 10 20 10 	mov  0x10, %g2
40008980:	10 bf ff dc 	b  400088f0 <__lo0bits+0x30>
40008984:	84 10 20 20 	mov  0x20, %g2
40008988:	83 30 60 02 	srl  %g1, 2, %g1
4000898c:	84 10 20 02 	mov  2, %g2
40008990:	c2 22 00 00 	st  %g1, [ %o0 ]
40008994:	81 c3 e0 08 	retl 
40008998:	90 10 00 02 	mov  %g2, %o0

4000899c <__i2b>:
4000899c:	9d e3 bf a0 	save  %sp, -96, %sp
400089a0:	fa 06 20 24 	ld  [ %i0 + 0x24 ], %i5
400089a4:	80 a7 60 00 	cmp  %i5, 0
400089a8:	02 80 00 12 	be  400089f0 <__i2b+0x54>
400089ac:	01 00 00 00 	nop 
400089b0:	c2 07 60 0c 	ld  [ %i5 + 0xc ], %g1
400089b4:	80 a0 60 00 	cmp  %g1, 0
400089b8:	02 80 00 17 	be  40008a14 <__i2b+0x78>
400089bc:	94 10 20 21 	mov  0x21, %o2
400089c0:	d0 00 60 04 	ld  [ %g1 + 4 ], %o0
400089c4:	80 a2 20 00 	cmp  %o0, 0
400089c8:	02 80 00 1e 	be  40008a40 <__i2b+0xa4>
400089cc:	94 10 20 1c 	mov  0x1c, %o2
400089d0:	c4 02 00 00 	ld  [ %o0 ], %g2
400089d4:	c4 20 60 04 	st  %g2, [ %g1 + 4 ]
400089d8:	c0 22 20 0c 	clr  [ %o0 + 0xc ]
400089dc:	82 10 20 01 	mov  1, %g1
400089e0:	f2 22 20 14 	st  %i1, [ %o0 + 0x14 ]
400089e4:	c2 22 20 10 	st  %g1, [ %o0 + 0x10 ]
400089e8:	81 c7 e0 08 	ret 
400089ec:	91 e8 00 08 	restore  %g0, %o0, %o0
400089f0:	7f ff fc 3c 	call  40007ae0 <malloc>
400089f4:	90 10 20 10 	mov  0x10, %o0
400089f8:	d0 26 20 24 	st  %o0, [ %i0 + 0x24 ]
400089fc:	ba 10 00 08 	mov  %o0, %i5
40008a00:	c0 22 20 04 	clr  [ %o0 + 4 ]
40008a04:	c0 22 20 08 	clr  [ %o0 + 8 ]
40008a08:	c0 22 00 00 	clr  [ %o0 ]
40008a0c:	c0 22 20 0c 	clr  [ %o0 + 0xc ]
40008a10:	94 10 20 21 	mov  0x21, %o2
40008a14:	92 10 20 04 	mov  4, %o1
40008a18:	40 00 0d 36 	call  4000bef0 <_calloc_r>
40008a1c:	90 10 00 18 	mov  %i0, %o0
40008a20:	d0 27 60 0c 	st  %o0, [ %i5 + 0xc ]
40008a24:	c2 06 20 24 	ld  [ %i0 + 0x24 ], %g1
40008a28:	c2 00 60 0c 	ld  [ %g1 + 0xc ], %g1
40008a2c:	80 a0 60 00 	cmp  %g1, 0
40008a30:	32 bf ff e5 	bne,a   400089c4 <__i2b+0x28>
40008a34:	d0 00 60 04 	ld  [ %g1 + 4 ], %o0
40008a38:	c0 20 20 14 	clr  [ 0x14 ]
40008a3c:	91 d0 20 05 	ta  5
40008a40:	92 10 20 01 	mov  1, %o1
40008a44:	40 00 0d 2b 	call  4000bef0 <_calloc_r>
40008a48:	90 10 00 18 	mov  %i0, %o0
40008a4c:	80 a2 20 00 	cmp  %o0, 0
40008a50:	02 bf ff fa 	be  40008a38 <__i2b+0x9c>
40008a54:	82 10 20 01 	mov  1, %g1
40008a58:	c2 22 20 04 	st  %g1, [ %o0 + 4 ]
40008a5c:	82 10 20 02 	mov  2, %g1
40008a60:	c0 22 20 0c 	clr  [ %o0 + 0xc ]
40008a64:	c2 22 20 08 	st  %g1, [ %o0 + 8 ]
40008a68:	f2 22 20 14 	st  %i1, [ %o0 + 0x14 ]
40008a6c:	82 10 20 01 	mov  1, %g1
40008a70:	c2 22 20 10 	st  %g1, [ %o0 + 0x10 ]
40008a74:	81 c7 e0 08 	ret 
40008a78:	91 e8 00 08 	restore  %g0, %o0, %o0

40008a7c <__multiply>:
40008a7c:	9d e3 bf 90 	save  %sp, -112, %sp
40008a80:	e6 06 60 10 	ld  [ %i1 + 0x10 ], %l3
40008a84:	f6 06 a0 10 	ld  [ %i2 + 0x10 ], %i3
40008a88:	80 a4 c0 1b 	cmp  %l3, %i3
40008a8c:	06 80 00 09 	bl  40008ab0 <__multiply+0x34>
40008a90:	a4 06 c0 13 	add  %i3, %l3, %l2
40008a94:	84 10 00 1b 	mov  %i3, %g2
40008a98:	82 10 00 1a 	mov  %i2, %g1
40008a9c:	b6 10 00 13 	mov  %l3, %i3
40008aa0:	b4 10 00 19 	mov  %i1, %i2
40008aa4:	a6 10 00 02 	mov  %g2, %l3
40008aa8:	b2 10 00 01 	mov  %g1, %i1
40008aac:	a4 06 c0 13 	add  %i3, %l3, %l2
40008ab0:	c2 06 a0 08 	ld  [ %i2 + 8 ], %g1
40008ab4:	80 a0 40 12 	cmp  %g1, %l2
40008ab8:	16 80 00 03 	bge  40008ac4 <__multiply+0x48>
40008abc:	d2 06 a0 04 	ld  [ %i2 + 4 ], %o1
40008ac0:	92 02 60 01 	inc  %o1
40008ac4:	7f ff fe 93 	call  40008510 <_Balloc>
40008ac8:	90 10 00 18 	mov  %i0, %o0
40008acc:	d0 27 bf f4 	st  %o0, [ %fp + -12 ]
40008ad0:	a2 02 20 14 	add  %o0, 0x14, %l1
40008ad4:	a1 2c a0 02 	sll  %l2, 2, %l0
40008ad8:	a0 04 40 10 	add  %l1, %l0, %l0
40008adc:	80 a4 40 10 	cmp  %l1, %l0
40008ae0:	1a 80 00 07 	bcc  40008afc <__multiply+0x80>
40008ae4:	82 10 00 11 	mov  %l1, %g1
40008ae8:	c0 20 40 00 	clr  [ %g1 ]
40008aec:	82 00 60 04 	add  %g1, 4, %g1
40008af0:	80 a4 00 01 	cmp  %l0, %g1
40008af4:	38 bf ff fe 	bgu,a   40008aec <__multiply+0x70>
40008af8:	c0 20 40 00 	clr  [ %g1 ]
40008afc:	82 06 a0 14 	add  %i2, 0x14, %g1
40008b00:	c2 27 bf f8 	st  %g1, [ %fp + -8 ]
40008b04:	b2 06 60 14 	add  %i1, 0x14, %i1
40008b08:	b7 2e e0 02 	sll  %i3, 2, %i3
40008b0c:	a7 2c e0 02 	sll  %l3, 2, %l3
40008b10:	a6 06 40 13 	add  %i1, %l3, %l3
40008b14:	80 a6 40 13 	cmp  %i1, %l3
40008b18:	1a 80 00 5b 	bcc  40008c84 <__multiply+0x208>
40008b1c:	b6 00 40 1b 	add  %g1, %i3, %i3
40008b20:	84 10 20 04 	mov  4, %g2
40008b24:	82 06 a0 15 	add  %i2, 0x15, %g1
40008b28:	80 a6 c0 01 	cmp  %i3, %g1
40008b2c:	1a 80 00 66 	bcc  40008cc4 <__multiply+0x248>
40008b30:	c4 27 bf fc 	st  %g2, [ %fp + -4 ]
40008b34:	39 00 00 3f 	sethi  %hi(0xfc00), %i4
40008b38:	10 80 00 09 	b  40008b5c <__multiply+0xe0>
40008b3c:	b8 17 23 ff 	or  %i4, 0x3ff, %i4	! ffff <__data_size+0xf9ef>
40008b40:	80 a6 a0 00 	cmp  %i2, 0
40008b44:	32 80 00 2e 	bne,a   40008bfc <__multiply+0x180>
40008b48:	fa 04 40 00 	ld  [ %l1 ], %i5
40008b4c:	b2 06 60 04 	add  %i1, 4, %i1
40008b50:	80 a4 c0 19 	cmp  %l3, %i1
40008b54:	08 80 00 4c 	bleu  40008c84 <__multiply+0x208>
40008b58:	a2 04 60 04 	add  %l1, 4, %l1
40008b5c:	f4 06 40 00 	ld  [ %i1 ], %i2
40008b60:	ac 8e 80 1c 	andcc  %i2, %i4, %l6
40008b64:	02 bf ff f7 	be  40008b40 <__multiply+0xc4>
40008b68:	b5 36 a0 10 	srl  %i2, 0x10, %i2
40008b6c:	b0 10 00 11 	mov  %l1, %i0
40008b70:	ee 07 bf f8 	ld  [ %fp + -8 ], %l7
40008b74:	ba 10 20 00 	clr  %i5
40008b78:	e8 05 c0 00 	ld  [ %l7 ], %l4
40008b7c:	92 10 00 16 	mov  %l6, %o1
40008b80:	40 00 14 c9 	call  4000dea4 <.umul>
40008b84:	90 0d 00 1c 	and  %l4, %i4, %o0
40008b88:	f4 06 00 00 	ld  [ %i0 ], %i2
40008b8c:	82 10 00 08 	mov  %o0, %g1
40008b90:	88 0e 80 1c 	and  %i2, %i4, %g4
40008b94:	82 00 40 04 	add  %g1, %g4, %g1
40008b98:	92 10 00 16 	mov  %l6, %o1
40008b9c:	ba 00 40 1d 	add  %g1, %i5, %i5
40008ba0:	40 00 14 c1 	call  4000dea4 <.umul>
40008ba4:	91 35 20 10 	srl  %l4, 0x10, %o0
40008ba8:	83 37 60 10 	srl  %i5, 0x10, %g1
40008bac:	b0 06 20 04 	add  %i0, 4, %i0
40008bb0:	b5 36 a0 10 	srl  %i2, 0x10, %i2
40008bb4:	ba 0f 40 1c 	and  %i5, %i4, %i5
40008bb8:	90 02 00 1a 	add  %o0, %i2, %o0
40008bbc:	90 02 00 01 	add  %o0, %g1, %o0
40008bc0:	83 2a 20 10 	sll  %o0, 0x10, %g1
40008bc4:	ba 10 40 1d 	or  %g1, %i5, %i5
40008bc8:	fa 26 3f fc 	st  %i5, [ %i0 + -4 ]
40008bcc:	ae 05 e0 04 	add  %l7, 4, %l7
40008bd0:	80 a6 c0 17 	cmp  %i3, %l7
40008bd4:	18 bf ff e9 	bgu  40008b78 <__multiply+0xfc>
40008bd8:	bb 32 20 10 	srl  %o0, 0x10, %i5
40008bdc:	c2 07 bf fc 	ld  [ %fp + -4 ], %g1
40008be0:	fa 24 40 01 	st  %i5, [ %l1 + %g1 ]
40008be4:	f4 06 40 00 	ld  [ %i1 ], %i2
40008be8:	b5 36 a0 10 	srl  %i2, 0x10, %i2
40008bec:	80 a6 a0 00 	cmp  %i2, 0
40008bf0:	22 bf ff d8 	be,a   40008b50 <__multiply+0xd4>
40008bf4:	b2 06 60 04 	add  %i1, 4, %i1
40008bf8:	fa 04 40 00 	ld  [ %l1 ], %i5
40008bfc:	a8 10 00 11 	mov  %l1, %l4
40008c00:	aa 10 00 1d 	mov  %i5, %l5
40008c04:	ee 07 bf f8 	ld  [ %fp + -8 ], %l7
40008c08:	b0 10 20 00 	clr  %i0
40008c0c:	d0 05 c0 00 	ld  [ %l7 ], %o0
40008c10:	ad 35 60 10 	srl  %l5, 0x10, %l6
40008c14:	92 10 00 1a 	mov  %i2, %o1
40008c18:	40 00 14 a3 	call  4000dea4 <.umul>
40008c1c:	90 0a 00 1c 	and  %o0, %i4, %o0
40008c20:	90 02 00 16 	add  %o0, %l6, %o0
40008c24:	ac 02 00 18 	add  %o0, %i0, %l6
40008c28:	83 2d a0 10 	sll  %l6, 0x10, %g1
40008c2c:	ae 05 e0 04 	add  %l7, 4, %l7
40008c30:	ba 0f 40 1c 	and  %i5, %i4, %i5
40008c34:	92 10 00 1a 	mov  %i2, %o1
40008c38:	ba 10 40 1d 	or  %g1, %i5, %i5
40008c3c:	fa 25 00 00 	st  %i5, [ %l4 ]
40008c40:	40 00 14 99 	call  4000dea4 <.umul>
40008c44:	d0 15 ff fc 	lduh  [ %l7 + -4 ], %o0
40008c48:	a8 05 20 04 	add  %l4, 4, %l4
40008c4c:	ad 35 a0 10 	srl  %l6, 0x10, %l6
40008c50:	ea 05 00 00 	ld  [ %l4 ], %l5
40008c54:	80 a6 c0 17 	cmp  %i3, %l7
40008c58:	ba 0d 40 1c 	and  %l5, %i4, %i5
40008c5c:	ba 02 00 1d 	add  %o0, %i5, %i5
40008c60:	ba 07 40 16 	add  %i5, %l6, %i5
40008c64:	18 bf ff ea 	bgu  40008c0c <__multiply+0x190>
40008c68:	b1 37 60 10 	srl  %i5, 0x10, %i0
40008c6c:	c2 07 bf fc 	ld  [ %fp + -4 ], %g1
40008c70:	fa 24 40 01 	st  %i5, [ %l1 + %g1 ]
40008c74:	b2 06 60 04 	add  %i1, 4, %i1
40008c78:	80 a4 c0 19 	cmp  %l3, %i1
40008c7c:	18 bf ff b8 	bgu  40008b5c <__multiply+0xe0>
40008c80:	a2 04 60 04 	add  %l1, 4, %l1
40008c84:	80 a4 a0 00 	cmp  %l2, 0
40008c88:	34 80 00 07 	bg,a   40008ca4 <__multiply+0x228>
40008c8c:	a0 04 3f fc 	add  %l0, -4, %l0
40008c90:	10 80 00 0a 	b  40008cb8 <__multiply+0x23c>
40008c94:	c2 07 bf f4 	ld  [ %fp + -12 ], %g1
40008c98:	02 80 00 08 	be  40008cb8 <__multiply+0x23c>
40008c9c:	c2 07 bf f4 	ld  [ %fp + -12 ], %g1
40008ca0:	a0 04 3f fc 	add  %l0, -4, %l0
40008ca4:	c2 04 00 00 	ld  [ %l0 ], %g1
40008ca8:	80 a0 60 00 	cmp  %g1, 0
40008cac:	22 bf ff fb 	be,a   40008c98 <__multiply+0x21c>
40008cb0:	a4 84 bf ff 	addcc  %l2, -1, %l2
40008cb4:	c2 07 bf f4 	ld  [ %fp + -12 ], %g1
40008cb8:	e4 20 60 10 	st  %l2, [ %g1 + 0x10 ]
40008cbc:	81 c7 e0 08 	ret 
40008cc0:	91 e8 00 01 	restore  %g0, %g1, %o0
40008cc4:	aa 26 c0 1a 	sub  %i3, %i2, %l5
40008cc8:	aa 05 7f eb 	add  %l5, -21, %l5
40008ccc:	aa 0d 7f fc 	and  %l5, -4, %l5
40008cd0:	82 05 60 04 	add  %l5, 4, %g1
40008cd4:	10 bf ff 98 	b  40008b34 <__multiply+0xb8>
40008cd8:	c2 27 bf fc 	st  %g1, [ %fp + -4 ]

40008cdc <__pow5mult>:
40008cdc:	9d e3 bf a0 	save  %sp, -96, %sp
40008ce0:	82 8e a0 03 	andcc  %i2, 3, %g1
40008ce4:	32 80 00 44 	bne,a   40008df4 <__pow5mult+0x118>
40008ce8:	82 00 7f ff 	add  %g1, -1, %g1
40008cec:	b5 3e a0 02 	sra  %i2, 2, %i2
40008cf0:	80 a6 a0 00 	cmp  %i2, 0
40008cf4:	02 80 00 2e 	be  40008dac <__pow5mult+0xd0>
40008cf8:	b8 10 00 19 	mov  %i1, %i4
40008cfc:	f8 06 20 24 	ld  [ %i0 + 0x24 ], %i4
40008d00:	80 a7 20 00 	cmp  %i4, 0
40008d04:	02 80 00 46 	be  40008e1c <__pow5mult+0x140>
40008d08:	01 00 00 00 	nop 
40008d0c:	fa 07 20 08 	ld  [ %i4 + 8 ], %i5
40008d10:	80 a7 60 00 	cmp  %i5, 0
40008d14:	02 80 00 4b 	be  40008e40 <__pow5mult+0x164>
40008d18:	92 10 20 01 	mov  1, %o1
40008d1c:	80 8e a0 01 	btst  1, %i2
40008d20:	12 80 00 0e 	bne  40008d58 <__pow5mult+0x7c>
40008d24:	b8 10 00 19 	mov  %i1, %i4
40008d28:	b5 3e a0 01 	sra  %i2, 1, %i2
40008d2c:	80 a6 a0 00 	cmp  %i2, 0
40008d30:	02 80 00 1f 	be  40008dac <__pow5mult+0xd0>
40008d34:	01 00 00 00 	nop 
40008d38:	d0 07 40 00 	ld  [ %i5 ], %o0
40008d3c:	80 a2 20 00 	cmp  %o0, 0
40008d40:	02 80 00 1d 	be  40008db4 <__pow5mult+0xd8>
40008d44:	94 10 00 1d 	mov  %i5, %o2
40008d48:	ba 10 00 08 	mov  %o0, %i5
40008d4c:	80 8e a0 01 	btst  1, %i2
40008d50:	22 bf ff f7 	be,a   40008d2c <__pow5mult+0x50>
40008d54:	b5 3e a0 01 	sra  %i2, 1, %i2
40008d58:	94 10 00 1d 	mov  %i5, %o2
40008d5c:	92 10 00 1c 	mov  %i4, %o1
40008d60:	7f ff ff 47 	call  40008a7c <__multiply>
40008d64:	90 10 00 18 	mov  %i0, %o0
40008d68:	c2 06 20 24 	ld  [ %i0 + 0x24 ], %g1
40008d6c:	80 a0 60 00 	cmp  %g1, 0
40008d70:	02 80 00 18 	be  40008dd0 <__pow5mult+0xf4>
40008d74:	b6 10 00 08 	mov  %o0, %i3
40008d78:	80 a7 20 00 	cmp  %i4, 0
40008d7c:	22 bf ff eb 	be,a   40008d28 <__pow5mult+0x4c>
40008d80:	b8 10 00 1b 	mov  %i3, %i4
40008d84:	c4 00 60 0c 	ld  [ %g1 + 0xc ], %g2
40008d88:	c2 07 20 04 	ld  [ %i4 + 4 ], %g1
40008d8c:	83 28 60 02 	sll  %g1, 2, %g1
40008d90:	c6 00 80 01 	ld  [ %g2 + %g1 ], %g3
40008d94:	c6 27 00 00 	st  %g3, [ %i4 ]
40008d98:	f8 20 80 01 	st  %i4, [ %g2 + %g1 ]
40008d9c:	b5 3e a0 01 	sra  %i2, 1, %i2
40008da0:	80 a6 a0 00 	cmp  %i2, 0
40008da4:	12 bf ff e5 	bne  40008d38 <__pow5mult+0x5c>
40008da8:	b8 10 00 1b 	mov  %i3, %i4
40008dac:	81 c7 e0 08 	ret 
40008db0:	91 e8 00 1c 	restore  %g0, %i4, %o0
40008db4:	92 10 00 1d 	mov  %i5, %o1
40008db8:	7f ff ff 31 	call  40008a7c <__multiply>
40008dbc:	90 10 00 18 	mov  %i0, %o0
40008dc0:	d0 27 40 00 	st  %o0, [ %i5 ]
40008dc4:	c0 22 00 00 	clr  [ %o0 ]
40008dc8:	10 bf ff e1 	b  40008d4c <__pow5mult+0x70>
40008dcc:	ba 10 00 08 	mov  %o0, %i5
40008dd0:	7f ff fb 44 	call  40007ae0 <malloc>
40008dd4:	90 10 20 10 	mov  0x10, %o0
40008dd8:	d0 26 20 24 	st  %o0, [ %i0 + 0x24 ]
40008ddc:	82 10 00 08 	mov  %o0, %g1
40008de0:	c0 22 20 08 	clr  [ %o0 + 8 ]
40008de4:	c0 22 00 00 	clr  [ %o0 ]
40008de8:	c0 22 20 0c 	clr  [ %o0 + 0xc ]
40008dec:	10 bf ff e3 	b  40008d78 <__pow5mult+0x9c>
40008df0:	c0 22 20 04 	clr  [ %o0 + 4 ]
40008df4:	05 10 00 3b 	sethi  %hi(0x4000ec00), %g2
40008df8:	83 28 60 02 	sll  %g1, 2, %g1
40008dfc:	84 10 a2 40 	or  %g2, 0x240, %g2
40008e00:	92 10 00 19 	mov  %i1, %o1
40008e04:	96 10 20 00 	clr  %o3
40008e08:	90 10 00 18 	mov  %i0, %o0
40008e0c:	7f ff fe 0d 	call  40008640 <__multadd>
40008e10:	d4 00 80 01 	ld  [ %g2 + %g1 ], %o2
40008e14:	10 bf ff b6 	b  40008cec <__pow5mult+0x10>
40008e18:	b2 10 00 08 	mov  %o0, %i1
40008e1c:	7f ff fb 31 	call  40007ae0 <malloc>
40008e20:	90 10 20 10 	mov  0x10, %o0
40008e24:	d0 26 20 24 	st  %o0, [ %i0 + 0x24 ]
40008e28:	b8 10 00 08 	mov  %o0, %i4
40008e2c:	c0 22 20 04 	clr  [ %o0 + 4 ]
40008e30:	c0 22 20 08 	clr  [ %o0 + 8 ]
40008e34:	c0 22 00 00 	clr  [ %o0 ]
40008e38:	c0 22 20 0c 	clr  [ %o0 + 0xc ]
40008e3c:	92 10 20 01 	mov  1, %o1
40008e40:	7f ff fd b4 	call  40008510 <_Balloc>
40008e44:	90 10 00 18 	mov  %i0, %o0
40008e48:	82 10 22 71 	mov  0x271, %g1
40008e4c:	c2 22 20 14 	st  %g1, [ %o0 + 0x14 ]
40008e50:	82 10 20 01 	mov  1, %g1
40008e54:	c2 22 20 10 	st  %g1, [ %o0 + 0x10 ]
40008e58:	d0 27 20 08 	st  %o0, [ %i4 + 8 ]
40008e5c:	ba 10 00 08 	mov  %o0, %i5
40008e60:	10 bf ff af 	b  40008d1c <__pow5mult+0x40>
40008e64:	c0 22 00 00 	clr  [ %o0 ]

40008e68 <__lshift>:
40008e68:	9d e3 bf a0 	save  %sp, -96, %sp
40008e6c:	e0 06 60 10 	ld  [ %i1 + 0x10 ], %l0
40008e70:	bb 3e a0 05 	sra  %i2, 5, %i5
40008e74:	c2 06 60 08 	ld  [ %i1 + 8 ], %g1
40008e78:	a0 07 40 10 	add  %i5, %l0, %l0
40008e7c:	b6 04 20 01 	add  %l0, 1, %i3
40008e80:	80 a6 c0 01 	cmp  %i3, %g1
40008e84:	04 80 00 06 	ble  40008e9c <__lshift+0x34>
40008e88:	d2 06 60 04 	ld  [ %i1 + 4 ], %o1
40008e8c:	83 28 60 01 	sll  %g1, 1, %g1
40008e90:	80 a6 c0 01 	cmp  %i3, %g1
40008e94:	14 bf ff fe 	bg  40008e8c <__lshift+0x24>
40008e98:	92 02 60 01 	inc  %o1
40008e9c:	7f ff fd 9d 	call  40008510 <_Balloc>
40008ea0:	90 10 00 18 	mov  %i0, %o0
40008ea4:	80 a7 60 00 	cmp  %i5, 0
40008ea8:	a2 10 00 08 	mov  %o0, %l1
40008eac:	04 80 00 0d 	ble  40008ee0 <__lshift+0x78>
40008eb0:	88 02 20 14 	add  %o0, 0x14, %g4
40008eb4:	ba 07 60 05 	add  %i5, 5, %i5
40008eb8:	82 10 00 04 	mov  %g4, %g1
40008ebc:	bb 2f 60 02 	sll  %i5, 2, %i5
40008ec0:	84 02 00 1d 	add  %o0, %i5, %g2
40008ec4:	c0 20 40 00 	clr  [ %g1 ]
40008ec8:	82 00 60 04 	add  %g1, 4, %g1
40008ecc:	80 a0 80 01 	cmp  %g2, %g1
40008ed0:	32 bf ff fe 	bne,a   40008ec8 <__lshift+0x60>
40008ed4:	c0 20 40 00 	clr  [ %g1 ]
40008ed8:	ba 07 7f ec 	add  %i5, -20, %i5
40008edc:	88 01 00 1d 	add  %g4, %i5, %g4
40008ee0:	82 06 60 14 	add  %i1, 0x14, %g1
40008ee4:	fa 06 60 10 	ld  [ %i1 + 0x10 ], %i5
40008ee8:	b4 8e a0 1f 	andcc  %i2, 0x1f, %i2
40008eec:	bb 2f 60 02 	sll  %i5, 2, %i5
40008ef0:	02 80 00 24 	be  40008f80 <__lshift+0x118>
40008ef4:	ba 00 40 1d 	add  %g1, %i5, %i5
40008ef8:	9e 10 20 20 	mov  0x20, %o7
40008efc:	b8 10 00 04 	mov  %g4, %i4
40008f00:	9e 23 c0 1a 	sub  %o7, %i2, %o7
40008f04:	86 10 20 00 	clr  %g3
40008f08:	c4 00 40 00 	ld  [ %g1 ], %g2
40008f0c:	b8 07 20 04 	add  %i4, 4, %i4
40008f10:	85 28 80 1a 	sll  %g2, %i2, %g2
40008f14:	84 10 80 03 	or  %g2, %g3, %g2
40008f18:	c4 27 3f fc 	st  %g2, [ %i4 + -4 ]
40008f1c:	82 00 60 04 	add  %g1, 4, %g1
40008f20:	c4 00 7f fc 	ld  [ %g1 + -4 ], %g2
40008f24:	80 a7 40 01 	cmp  %i5, %g1
40008f28:	18 bf ff f8 	bgu  40008f08 <__lshift+0xa0>
40008f2c:	87 30 80 0f 	srl  %g2, %o7, %g3
40008f30:	84 06 60 15 	add  %i1, 0x15, %g2
40008f34:	80 a7 40 02 	cmp  %i5, %g2
40008f38:	1a 80 00 34 	bcc  40009008 <__lshift+0x1a0>
40008f3c:	82 10 20 04 	mov  4, %g1
40008f40:	80 a0 e0 00 	cmp  %g3, 0
40008f44:	12 80 00 1d 	bne  40008fb8 <__lshift+0x150>
40008f48:	c6 21 00 01 	st  %g3, [ %g4 + %g1 ]
40008f4c:	e0 24 60 10 	st  %l0, [ %l1 + 0x10 ]
40008f50:	fa 06 20 24 	ld  [ %i0 + 0x24 ], %i5
40008f54:	80 a7 60 00 	cmp  %i5, 0
40008f58:	02 80 00 1e 	be  40008fd0 <__lshift+0x168>
40008f5c:	01 00 00 00 	nop 
40008f60:	fa 07 60 0c 	ld  [ %i5 + 0xc ], %i5
40008f64:	c2 06 60 04 	ld  [ %i1 + 4 ], %g1
40008f68:	83 28 60 02 	sll  %g1, 2, %g1
40008f6c:	c4 07 40 01 	ld  [ %i5 + %g1 ], %g2
40008f70:	c4 26 40 00 	st  %g2, [ %i1 ]
40008f74:	f2 27 40 01 	st  %i1, [ %i5 + %g1 ]
40008f78:	81 c7 e0 08 	ret 
40008f7c:	91 e8 00 11 	restore  %g0, %l1, %o0
40008f80:	c4 00 40 00 	ld  [ %g1 ], %g2
40008f84:	c4 21 00 00 	st  %g2, [ %g4 ]
40008f88:	82 00 60 04 	add  %g1, 4, %g1
40008f8c:	80 a7 40 01 	cmp  %i5, %g1
40008f90:	08 bf ff ef 	bleu  40008f4c <__lshift+0xe4>
40008f94:	88 01 20 04 	add  %g4, 4, %g4
40008f98:	c4 00 40 00 	ld  [ %g1 ], %g2
40008f9c:	c4 21 00 00 	st  %g2, [ %g4 ]
40008fa0:	82 00 60 04 	add  %g1, 4, %g1
40008fa4:	80 a7 40 01 	cmp  %i5, %g1
40008fa8:	18 bf ff f6 	bgu  40008f80 <__lshift+0x118>
40008fac:	88 01 20 04 	add  %g4, 4, %g4
40008fb0:	10 bf ff e8 	b  40008f50 <__lshift+0xe8>
40008fb4:	e0 24 60 10 	st  %l0, [ %l1 + 0x10 ]
40008fb8:	a0 10 00 1b 	mov  %i3, %l0
40008fbc:	e0 24 60 10 	st  %l0, [ %l1 + 0x10 ]
40008fc0:	fa 06 20 24 	ld  [ %i0 + 0x24 ], %i5
40008fc4:	80 a7 60 00 	cmp  %i5, 0
40008fc8:	32 bf ff e7 	bne,a   40008f64 <__lshift+0xfc>
40008fcc:	fa 07 60 0c 	ld  [ %i5 + 0xc ], %i5
40008fd0:	7f ff fa c4 	call  40007ae0 <malloc>
40008fd4:	90 10 20 10 	mov  0x10, %o0
40008fd8:	d0 26 20 24 	st  %o0, [ %i0 + 0x24 ]
40008fdc:	c0 22 20 08 	clr  [ %o0 + 8 ]
40008fe0:	c0 22 00 00 	clr  [ %o0 ]
40008fe4:	c0 22 20 04 	clr  [ %o0 + 4 ]
40008fe8:	c0 22 20 0c 	clr  [ %o0 + 0xc ]
40008fec:	c2 06 60 04 	ld  [ %i1 + 4 ], %g1
40008ff0:	83 28 60 02 	sll  %g1, 2, %g1
40008ff4:	c4 07 40 01 	ld  [ %i5 + %g1 ], %g2
40008ff8:	c4 26 40 00 	st  %g2, [ %i1 ]
40008ffc:	f2 27 40 01 	st  %i1, [ %i5 + %g1 ]
40009000:	81 c7 e0 08 	ret 
40009004:	91 e8 00 11 	restore  %g0, %l1, %o0
40009008:	82 27 40 19 	sub  %i5, %i1, %g1
4000900c:	82 00 7f eb 	add  %g1, -21, %g1
40009010:	82 08 7f fc 	and  %g1, -4, %g1
40009014:	82 00 60 04 	add  %g1, 4, %g1
40009018:	80 a0 e0 00 	cmp  %g3, 0
4000901c:	02 bf ff cc 	be  40008f4c <__lshift+0xe4>
40009020:	c6 21 00 01 	st  %g3, [ %g4 + %g1 ]
40009024:	10 bf ff e6 	b  40008fbc <__lshift+0x154>
40009028:	a0 10 00 1b 	mov  %i3, %l0

4000902c <__mcmp>:
4000902c:	88 10 00 08 	mov  %o0, %g4
40009030:	c2 02 60 10 	ld  [ %o1 + 0x10 ], %g1
40009034:	d0 02 20 10 	ld  [ %o0 + 0x10 ], %o0
40009038:	90 a2 00 01 	subcc  %o0, %g1, %o0
4000903c:	12 80 00 12 	bne  40009084 <__mcmp+0x58>
40009040:	85 28 60 02 	sll  %g1, 2, %g2
40009044:	88 01 20 14 	add  %g4, 0x14, %g4
40009048:	92 02 60 14 	add  %o1, 0x14, %o1
4000904c:	82 01 00 02 	add  %g4, %g2, %g1
40009050:	10 80 00 04 	b  40009060 <__mcmp+0x34>
40009054:	92 02 40 02 	add  %o1, %g2, %o1
40009058:	1a 80 00 0b 	bcc  40009084 <__mcmp+0x58>
4000905c:	01 00 00 00 	nop 
40009060:	82 00 7f fc 	add  %g1, -4, %g1
40009064:	92 02 7f fc 	add  %o1, -4, %o1
40009068:	c6 00 40 00 	ld  [ %g1 ], %g3
4000906c:	c4 02 40 00 	ld  [ %o1 ], %g2
40009070:	80 a0 c0 02 	cmp  %g3, %g2
40009074:	22 bf ff f9 	be,a   40009058 <__mcmp+0x2c>
40009078:	80 a1 00 01 	cmp  %g4, %g1
4000907c:	1a 80 00 04 	bcc  4000908c <__mcmp+0x60>
40009080:	90 10 3f ff 	mov  -1, %o0
40009084:	81 c3 e0 08 	retl 
40009088:	01 00 00 00 	nop 
4000908c:	81 c3 e0 08 	retl 
40009090:	90 10 20 01 	mov  1, %o0	! 1 <_CONTEXT_I_>

40009094 <__mdiff>:
40009094:	9d e3 bf a0 	save  %sp, -96, %sp
40009098:	e2 06 60 10 	ld  [ %i1 + 0x10 ], %l1
4000909c:	c4 06 a0 10 	ld  [ %i2 + 0x10 ], %g2
400090a0:	b8 06 60 14 	add  %i1, 0x14, %i4
400090a4:	a2 24 40 02 	sub  %l1, %g2, %l1
400090a8:	80 a4 60 00 	cmp  %l1, 0
400090ac:	12 80 00 67 	bne  40009248 <__mdiff+0x1b4>
400090b0:	a0 06 a0 14 	add  %i2, 0x14, %l0
400090b4:	85 28 a0 02 	sll  %g2, 2, %g2
400090b8:	82 07 00 02 	add  %i4, %g2, %g1
400090bc:	10 80 00 04 	b  400090cc <__mdiff+0x38>
400090c0:	84 04 00 02 	add  %l0, %g2, %g2
400090c4:	08 80 00 75 	bleu  40009298 <__mdiff+0x204>
400090c8:	92 10 20 00 	clr  %o1
400090cc:	82 00 7f fc 	add  %g1, -4, %g1
400090d0:	84 00 bf fc 	add  %g2, -4, %g2
400090d4:	c8 00 40 00 	ld  [ %g1 ], %g4
400090d8:	c6 00 80 00 	ld  [ %g2 ], %g3
400090dc:	80 a1 00 03 	cmp  %g4, %g3
400090e0:	22 bf ff f9 	be,a   400090c4 <__mdiff+0x30>
400090e4:	80 a0 40 1c 	cmp  %g1, %i4
400090e8:	0a 80 00 5b 	bcs  40009254 <__mdiff+0x1c0>
400090ec:	84 10 00 1c 	mov  %i4, %g2
400090f0:	d2 06 60 04 	ld  [ %i1 + 4 ], %o1
400090f4:	7f ff fd 07 	call  40008510 <_Balloc>
400090f8:	90 10 00 18 	mov  %i0, %o0
400090fc:	de 06 a0 10 	ld  [ %i2 + 0x10 ], %o7
40009100:	f6 06 60 10 	ld  [ %i1 + 0x10 ], %i3
40009104:	9f 2b e0 02 	sll  %o7, 2, %o7
40009108:	bb 2e e0 02 	sll  %i3, 2, %i5
4000910c:	35 00 00 3f 	sethi  %hi(0xfc00), %i2
40009110:	b0 10 00 08 	mov  %o0, %i0
40009114:	e2 22 20 0c 	st  %l1, [ %o0 + 0xc ]
40009118:	ba 07 00 1d 	add  %i4, %i5, %i5
4000911c:	9e 04 00 0f 	add  %l0, %o7, %o7
40009120:	b2 02 20 14 	add  %o0, 0x14, %i1
40009124:	9a 10 20 00 	clr  %o5
40009128:	82 10 20 00 	clr  %g1
4000912c:	b4 16 a3 ff 	or  %i2, 0x3ff, %i2
40009130:	c8 04 00 0d 	ld  [ %l0 + %o5 ], %g4
40009134:	c4 07 00 0d 	ld  [ %i4 + %o5 ], %g2
40009138:	86 08 80 1a 	and  %g2, %i2, %g3
4000913c:	85 30 a0 10 	srl  %g2, 0x10, %g2
40009140:	98 09 00 1a 	and  %g4, %i2, %o4
40009144:	86 00 c0 01 	add  %g3, %g1, %g3
40009148:	83 31 20 10 	srl  %g4, 0x10, %g1
4000914c:	86 20 c0 0c 	sub  %g3, %o4, %g3
40009150:	82 20 80 01 	sub  %g2, %g1, %g1
40009154:	89 38 e0 10 	sra  %g3, 0x10, %g4
40009158:	86 08 c0 1a 	and  %g3, %i2, %g3
4000915c:	82 00 40 04 	add  %g1, %g4, %g1
40009160:	85 28 60 10 	sll  %g1, 0x10, %g2
40009164:	86 10 80 03 	or  %g2, %g3, %g3
40009168:	c6 26 40 0d 	st  %g3, [ %i1 + %o5 ]
4000916c:	9a 03 60 04 	add  %o5, 4, %o5
40009170:	84 04 00 0d 	add  %l0, %o5, %g2
40009174:	80 a3 c0 02 	cmp  %o7, %g2
40009178:	18 bf ff ee 	bgu  40009130 <__mdiff+0x9c>
4000917c:	83 38 60 10 	sra  %g1, 0x10, %g1
40009180:	88 04 20 01 	add  %l0, 1, %g4
40009184:	84 10 20 00 	clr  %g2
40009188:	a0 38 00 10 	xnor  %g0, %l0, %l0
4000918c:	80 a3 c0 04 	cmp  %o7, %g4
40009190:	a0 03 c0 10 	add  %o7, %l0, %l0
40009194:	1a 80 00 3a 	bcc  4000927c <__mdiff+0x1e8>
40009198:	a1 34 20 02 	srl  %l0, 2, %l0
4000919c:	84 06 40 02 	add  %i1, %g2, %g2
400091a0:	80 a3 c0 04 	cmp  %o7, %g4
400091a4:	1a 80 00 33 	bcc  40009270 <__mdiff+0x1dc>
400091a8:	b4 10 20 04 	mov  4, %i2
400091ac:	b8 07 00 1a 	add  %i4, %i2, %i4
400091b0:	80 a7 40 1c 	cmp  %i5, %i4
400091b4:	08 80 00 1a 	bleu  4000921c <__mdiff+0x188>
400091b8:	b4 06 40 1a 	add  %i1, %i2, %i2
400091bc:	ba 07 7f ff 	add  %i5, -1, %i5
400091c0:	33 00 00 3f 	sethi  %hi(0xfc00), %i1
400091c4:	ba 27 40 1c 	sub  %i5, %i4, %i5
400091c8:	88 10 20 00 	clr  %g4
400091cc:	bb 37 60 02 	srl  %i5, 2, %i5
400091d0:	b2 16 63 ff 	or  %i1, 0x3ff, %i1
400091d4:	9e 07 60 01 	add  %i5, 1, %o7
400091d8:	9f 2b e0 02 	sll  %o7, 2, %o7
400091dc:	c4 07 00 04 	ld  [ %i4 + %g4 ], %g2
400091e0:	86 08 80 19 	and  %g2, %i1, %g3
400091e4:	85 30 a0 10 	srl  %g2, 0x10, %g2
400091e8:	86 00 c0 01 	add  %g3, %g1, %g3
400091ec:	83 38 e0 10 	sra  %g3, 0x10, %g1
400091f0:	86 08 c0 19 	and  %g3, %i1, %g3
400091f4:	82 00 80 01 	add  %g2, %g1, %g1
400091f8:	85 28 60 10 	sll  %g1, 0x10, %g2
400091fc:	86 10 80 03 	or  %g2, %g3, %g3
40009200:	c6 26 80 04 	st  %g3, [ %i2 + %g4 ]
40009204:	88 01 20 04 	add  %g4, 4, %g4
40009208:	80 a3 c0 04 	cmp  %o7, %g4
4000920c:	12 bf ff f4 	bne  400091dc <__mdiff+0x148>
40009210:	83 38 60 10 	sra  %g1, 0x10, %g1
40009214:	85 2f 60 02 	sll  %i5, 2, %g2
40009218:	84 06 80 02 	add  %i2, %g2, %g2
4000921c:	80 a0 e0 00 	cmp  %g3, 0
40009220:	32 80 00 08 	bne,a   40009240 <__mdiff+0x1ac>
40009224:	f6 26 20 10 	st  %i3, [ %i0 + 0x10 ]
40009228:	84 00 bf fc 	add  %g2, -4, %g2
4000922c:	c2 00 80 00 	ld  [ %g2 ], %g1
40009230:	80 a0 60 00 	cmp  %g1, 0
40009234:	02 bf ff fd 	be  40009228 <__mdiff+0x194>
40009238:	b6 06 ff ff 	add  %i3, -1, %i3
4000923c:	f6 26 20 10 	st  %i3, [ %i0 + 0x10 ]
40009240:	81 c7 e0 08 	ret 
40009244:	81 e8 00 00 	restore 
40009248:	16 bf ff aa 	bge  400090f0 <__mdiff+0x5c>
4000924c:	a2 10 20 00 	clr  %l1
40009250:	84 10 00 1c 	mov  %i4, %g2
40009254:	82 10 00 19 	mov  %i1, %g1
40009258:	b8 10 00 10 	mov  %l0, %i4
4000925c:	b2 10 00 1a 	mov  %i2, %i1
40009260:	a0 10 00 02 	mov  %g2, %l0
40009264:	b4 10 00 01 	mov  %g1, %i2
40009268:	10 bf ff a2 	b  400090f0 <__mdiff+0x5c>
4000926c:	a2 10 20 01 	mov  1, %l1
40009270:	a0 04 20 01 	inc  %l0
40009274:	10 bf ff ce 	b  400091ac <__mdiff+0x118>
40009278:	b5 2c 20 02 	sll  %l0, 2, %i2
4000927c:	85 2c 20 02 	sll  %l0, 2, %g2
40009280:	b4 10 20 04 	mov  4, %i2
40009284:	80 a3 c0 04 	cmp  %o7, %g4
40009288:	0a bf ff c9 	bcs  400091ac <__mdiff+0x118>
4000928c:	84 06 40 02 	add  %i1, %g2, %g2
40009290:	10 bf ff f9 	b  40009274 <__mdiff+0x1e0>
40009294:	a0 04 20 01 	inc  %l0
40009298:	7f ff fc 9e 	call  40008510 <_Balloc>
4000929c:	90 10 00 18 	mov  %i0, %o0
400092a0:	82 10 20 01 	mov  1, %g1
400092a4:	c2 22 20 10 	st  %g1, [ %o0 + 0x10 ]
400092a8:	c0 22 20 14 	clr  [ %o0 + 0x14 ]
400092ac:	81 c7 e0 08 	ret 
400092b0:	91 e8 00 08 	restore  %g0, %o0, %o0

400092b4 <__ulp>:
400092b4:	03 1f fc 00 	sethi  %hi(0x7ff00000), %g1
400092b8:	90 0a 00 01 	and  %o0, %g1, %o0
400092bc:	03 3f 30 00 	sethi  %hi(0xfcc00000), %g1
400092c0:	90 02 00 01 	add  %o0, %g1, %o0
400092c4:	80 a2 20 00 	cmp  %o0, 0
400092c8:	04 80 00 08 	ble  400092e8 <__ulp+0x34>
400092cc:	9c 03 bf b0 	add  %sp, -80, %sp
400092d0:	84 10 00 08 	mov  %o0, %g2
400092d4:	86 10 20 00 	clr  %g3
400092d8:	c4 3b a0 48 	std  %g2, [ %sp + 0x48 ]
400092dc:	c1 1b a0 48 	ldd  [ %sp + 0x48 ], %f0
400092e0:	81 c3 e0 08 	retl 
400092e4:	9c 03 a0 50 	add  %sp, 0x50, %sp
400092e8:	90 20 00 08 	neg  %o0
400092ec:	91 3a 20 14 	sra  %o0, 0x14, %o0
400092f0:	80 a2 20 13 	cmp  %o0, 0x13
400092f4:	34 80 00 09 	bg,a   40009318 <__ulp+0x64>
400092f8:	90 02 3f ec 	add  %o0, -20, %o0
400092fc:	03 00 02 00 	sethi  %hi(0x80000), %g1
40009300:	86 10 20 00 	clr  %g3
40009304:	85 38 40 08 	sra  %g1, %o0, %g2
40009308:	c4 3b a0 48 	std  %g2, [ %sp + 0x48 ]
4000930c:	c1 1b a0 48 	ldd  [ %sp + 0x48 ], %f0
40009310:	81 c3 e0 08 	retl 
40009314:	9c 03 a0 50 	add  %sp, 0x50, %sp
40009318:	84 10 20 00 	clr  %g2
4000931c:	80 a2 20 1e 	cmp  %o0, 0x1e
40009320:	14 80 00 04 	bg  40009330 <__ulp+0x7c>
40009324:	82 10 20 01 	mov  1, %g1
40009328:	03 20 00 00 	sethi  %hi(0x80000000), %g1
4000932c:	83 30 40 08 	srl  %g1, %o0, %g1
40009330:	86 10 00 01 	mov  %g1, %g3
40009334:	c4 3b a0 48 	std  %g2, [ %sp + 0x48 ]
40009338:	c1 1b a0 48 	ldd  [ %sp + 0x48 ], %f0
4000933c:	81 c3 e0 08 	retl 
40009340:	9c 03 a0 50 	add  %sp, 0x50, %sp

40009344 <__b2d>:
40009344:	9d e3 bf 98 	save  %sp, -104, %sp
40009348:	03 3f ff c0 	sethi  %hi(0xffff0000), %g1
4000934c:	b6 06 20 14 	add  %i0, 0x14, %i3
40009350:	c6 06 20 10 	ld  [ %i0 + 0x10 ], %g3
40009354:	87 28 e0 02 	sll  %g3, 2, %g3
40009358:	86 06 c0 03 	add  %i3, %g3, %g3
4000935c:	c8 00 ff fc 	ld  [ %g3 + -4 ], %g4
40009360:	80 89 00 01 	btst  %g4, %g1
40009364:	12 80 00 2d 	bne  40009418 <__b2d+0xd4>
40009368:	b4 00 ff fc 	add  %g3, -4, %i2
4000936c:	85 29 20 10 	sll  %g4, 0x10, %g2
40009370:	b8 10 20 18 	mov  0x18, %i4
40009374:	82 10 20 10 	mov  0x10, %g1
40009378:	3b 3f c0 00 	sethi  %hi(0xff000000), %i5
4000937c:	80 88 80 1d 	btst  %g2, %i5
40009380:	12 80 00 04 	bne  40009390 <__b2d+0x4c>
40009384:	3b 3c 00 00 	sethi  %hi(0xf0000000), %i5
40009388:	85 28 a0 08 	sll  %g2, 8, %g2
4000938c:	82 10 00 1c 	mov  %i4, %g1
40009390:	80 88 80 1d 	btst  %g2, %i5
40009394:	12 80 00 04 	bne  400093a4 <__b2d+0x60>
40009398:	3b 30 00 00 	sethi  %hi(0xc0000000), %i5
4000939c:	82 00 60 04 	add  %g1, 4, %g1
400093a0:	85 28 a0 04 	sll  %g2, 4, %g2
400093a4:	80 88 80 1d 	btst  %g2, %i5
400093a8:	12 80 00 05 	bne  400093bc <__b2d+0x78>
400093ac:	80 a0 a0 00 	cmp  %g2, 0
400093b0:	82 00 60 02 	add  %g1, 2, %g1
400093b4:	85 28 a0 02 	sll  %g2, 2, %g2
400093b8:	80 a0 a0 00 	cmp  %g2, 0
400093bc:	06 80 00 05 	bl  400093d0 <__b2d+0x8c>
400093c0:	3b 10 00 00 	sethi  %hi(0x40000000), %i5
400093c4:	80 88 80 1d 	btst  %g2, %i5
400093c8:	02 80 00 31 	be  4000948c <__b2d+0x148>
400093cc:	82 00 60 01 	inc  %g1
400093d0:	84 10 20 20 	mov  0x20, %g2
400093d4:	ba 20 80 01 	sub  %g2, %g1, %i5
400093d8:	80 a0 60 0a 	cmp  %g1, 0xa
400093dc:	04 80 00 1b 	ble  40009448 <__b2d+0x104>
400093e0:	fa 26 40 00 	st  %i5, [ %i1 ]
400093e4:	80 a6 c0 1a 	cmp  %i3, %i2
400093e8:	1a 80 00 10 	bcc  40009428 <__b2d+0xe4>
400093ec:	82 00 7f f5 	add  %g1, -11, %g1
400093f0:	80 a0 60 00 	cmp  %g1, 0
400093f4:	12 80 00 3a 	bne  400094dc <__b2d+0x198>
400093f8:	f4 00 ff f8 	ld  [ %g3 + -8 ], %i2
400093fc:	03 0f fc 00 	sethi  %hi(0x3ff00000), %g1
40009400:	b8 11 00 01 	or  %g4, %g1, %i4
40009404:	ba 10 00 1a 	mov  %i2, %i5
40009408:	f8 3f bf f8 	std  %i4, [ %fp + -8 ]
4000940c:	c1 1f bf f8 	ldd  [ %fp + -8 ], %f0
40009410:	81 c7 e0 08 	ret 
40009414:	81 e8 00 00 	restore 
40009418:	84 10 00 04 	mov  %g4, %g2
4000941c:	b8 10 20 08 	mov  8, %i4
40009420:	10 bf ff d6 	b  40009378 <__b2d+0x34>
40009424:	82 10 20 00 	clr  %g1
40009428:	80 a0 60 00 	cmp  %g1, 0
4000942c:	02 bf ff f4 	be  400093fc <__b2d+0xb8>
40009430:	b4 10 20 00 	clr  %i2
40009434:	83 29 00 01 	sll  %g4, %g1, %g1
40009438:	05 0f fc 00 	sethi  %hi(0x3ff00000), %g2
4000943c:	b4 10 20 00 	clr  %i2
40009440:	10 bf ff f1 	b  40009404 <__b2d+0xc0>
40009444:	b8 10 40 02 	or  %g1, %g2, %i4
40009448:	84 10 20 0b 	mov  0xb, %g2
4000944c:	31 0f fc 00 	sethi  %hi(0x3ff00000), %i0
40009450:	84 20 80 01 	sub  %g2, %g1, %g2
40009454:	b2 10 20 00 	clr  %i1
40009458:	9f 31 00 02 	srl  %g4, %g2, %o7
4000945c:	80 a6 c0 1a 	cmp  %i3, %i2
40009460:	1a 80 00 04 	bcc  40009470 <__b2d+0x12c>
40009464:	b8 13 c0 18 	or  %o7, %i0, %i4
40009468:	f2 00 ff f8 	ld  [ %g3 + -8 ], %i1
4000946c:	b3 36 40 02 	srl  %i1, %g2, %i1
40009470:	82 00 60 15 	add  %g1, 0x15, %g1
40009474:	83 29 00 01 	sll  %g4, %g1, %g1
40009478:	ba 10 40 19 	or  %g1, %i1, %i5
4000947c:	f8 3f bf f8 	std  %i4, [ %fp + -8 ]
40009480:	c1 1f bf f8 	ldd  [ %fp + -8 ], %f0
40009484:	81 c7 e0 08 	ret 
40009488:	81 e8 00 00 	restore 
4000948c:	c0 26 40 00 	clr  [ %i1 ]
40009490:	80 a6 c0 1a 	cmp  %i3, %i2
40009494:	1a bf ff e8 	bcc  40009434 <__b2d+0xf0>
40009498:	82 10 20 15 	mov  0x15, %g1
4000949c:	b2 00 ff f8 	add  %g3, -8, %i1
400094a0:	f4 00 ff f8 	ld  [ %g3 + -8 ], %i2
400094a4:	84 10 20 0b 	mov  0xb, %g2
400094a8:	82 10 20 15 	mov  0x15, %g1
400094ac:	89 29 00 01 	sll  %g4, %g1, %g4
400094b0:	87 36 80 02 	srl  %i2, %g2, %g3
400094b4:	80 a6 c0 19 	cmp  %i3, %i1
400094b8:	88 11 00 03 	or  %g4, %g3, %g4
400094bc:	b5 2e 80 01 	sll  %i2, %g1, %i2
400094c0:	03 0f fc 00 	sethi  %hi(0x3ff00000), %g1
400094c4:	1a bf ff d0 	bcc  40009404 <__b2d+0xc0>
400094c8:	b8 11 00 01 	or  %g4, %g1, %i4
400094cc:	c2 06 7f fc 	ld  [ %i1 + -4 ], %g1
400094d0:	85 30 40 02 	srl  %g1, %g2, %g2
400094d4:	10 bf ff cc 	b  40009404 <__b2d+0xc0>
400094d8:	b4 16 80 02 	or  %i2, %g2, %i2
400094dc:	b2 00 ff f8 	add  %g3, -8, %i1
400094e0:	10 bf ff f3 	b  400094ac <__b2d+0x168>
400094e4:	84 20 80 01 	sub  %g2, %g1, %g2

400094e8 <__d2b>:
400094e8:	9d e3 bf a0 	save  %sp, -96, %sp
400094ec:	86 10 00 1a 	mov  %i2, %g3
400094f0:	f4 06 20 24 	ld  [ %i0 + 0x24 ], %i2
400094f4:	80 a6 a0 00 	cmp  %i2, 0
400094f8:	02 80 00 b8 	be  400097d8 <__d2b+0x2f0>
400094fc:	ba 10 00 03 	mov  %g3, %i5
40009500:	c4 06 a0 0c 	ld  [ %i2 + 0xc ], %g2
40009504:	80 a0 a0 00 	cmp  %g2, 0
40009508:	02 80 00 bd 	be  400097fc <__d2b+0x314>
4000950c:	94 10 20 21 	mov  0x21, %o2
40009510:	d0 00 a0 04 	ld  [ %g2 + 4 ], %o0
40009514:	80 a2 20 00 	cmp  %o0, 0
40009518:	02 80 00 c4 	be  40009828 <__d2b+0x340>
4000951c:	94 10 20 1c 	mov  0x1c, %o2
40009520:	c6 02 00 00 	ld  [ %o0 ], %g3
40009524:	c6 20 a0 04 	st  %g3, [ %g2 + 4 ]
40009528:	c0 22 20 10 	clr  [ %o0 + 0x10 ]
4000952c:	c0 22 20 0c 	clr  [ %o0 + 0xc ]
40009530:	85 36 60 14 	srl  %i1, 0x14, %g2
40009534:	07 3f fc 00 	sethi  %hi(0xfff00000), %g3
40009538:	b4 88 a7 ff 	andcc  %g2, 0x7ff, %i2
4000953c:	02 80 00 04 	be  4000954c <__d2b+0x64>
40009540:	82 2e 40 03 	andn  %i1, %g3, %g1
40009544:	05 00 04 00 	sethi  %hi(0x100000), %g2
40009548:	82 10 40 02 	or  %g1, %g2, %g1
4000954c:	84 97 60 00 	orcc  %i5, 0, %g2
40009550:	02 80 00 3d 	be  40009644 <__d2b+0x15c>
40009554:	80 88 60 07 	btst  7, %g1
40009558:	80 88 a0 07 	btst  7, %g2
4000955c:	22 80 00 6e 	be,a   40009714 <__d2b+0x22c>
40009560:	07 00 00 3f 	sethi  %hi(0xfc00), %g3
40009564:	80 88 a0 01 	btst  1, %g2
40009568:	12 80 00 94 	bne  400097b8 <__d2b+0x2d0>
4000956c:	80 88 a0 02 	btst  2, %g2
40009570:	02 80 00 c7 	be  4000988c <__d2b+0x3a4>
40009574:	89 30 a0 02 	srl  %g2, 2, %g4
40009578:	89 30 a0 01 	srl  %g2, 1, %g4
4000957c:	bb 28 60 1f 	sll  %g1, 0x1f, %i5
40009580:	86 10 20 01 	mov  1, %g3
40009584:	88 11 00 1d 	or  %g4, %i5, %g4
40009588:	83 30 40 03 	srl  %g1, %g3, %g1
4000958c:	c8 22 20 14 	st  %g4, [ %o0 + 0x14 ]
40009590:	80 a0 00 01 	cmp  %g0, %g1
40009594:	c2 22 20 18 	st  %g1, [ %o0 + 0x18 ]
40009598:	82 40 20 00 	addx  %g0, 0, %g1
4000959c:	82 00 60 01 	inc  %g1
400095a0:	80 a6 a0 00 	cmp  %i2, 0
400095a4:	12 80 00 37 	bne  40009680 <__d2b+0x198>
400095a8:	c2 22 20 10 	st  %g1, [ %o0 + 0x10 ]
400095ac:	86 00 fb ce 	add  %g3, -1074, %g3
400095b0:	c6 26 c0 00 	st  %g3, [ %i3 ]
400095b4:	85 28 60 02 	sll  %g1, 2, %g2
400095b8:	07 3f ff c0 	sethi  %hi(0xffff0000), %g3
400095bc:	84 02 00 02 	add  %o0, %g2, %g2
400095c0:	c4 00 a0 10 	ld  [ %g2 + 0x10 ], %g2
400095c4:	80 88 80 03 	btst  %g2, %g3
400095c8:	12 80 00 72 	bne  40009790 <__d2b+0x2a8>
400095cc:	83 28 60 05 	sll  %g1, 5, %g1
400095d0:	85 28 a0 10 	sll  %g2, 0x10, %g2
400095d4:	ba 10 20 18 	mov  0x18, %i5
400095d8:	86 10 20 10 	mov  0x10, %g3
400095dc:	09 3f c0 00 	sethi  %hi(0xff000000), %g4
400095e0:	80 88 80 04 	btst  %g2, %g4
400095e4:	12 80 00 04 	bne  400095f4 <__d2b+0x10c>
400095e8:	09 3c 00 00 	sethi  %hi(0xf0000000), %g4
400095ec:	85 28 a0 08 	sll  %g2, 8, %g2
400095f0:	86 10 00 1d 	mov  %i5, %g3
400095f4:	80 88 80 04 	btst  %g2, %g4
400095f8:	12 80 00 04 	bne  40009608 <__d2b+0x120>
400095fc:	09 30 00 00 	sethi  %hi(0xc0000000), %g4
40009600:	86 00 e0 04 	add  %g3, 4, %g3
40009604:	85 28 a0 04 	sll  %g2, 4, %g2
40009608:	80 88 80 04 	btst  %g2, %g4
4000960c:	12 80 00 05 	bne  40009620 <__d2b+0x138>
40009610:	80 a0 a0 00 	cmp  %g2, 0
40009614:	86 00 e0 02 	add  %g3, 2, %g3
40009618:	85 28 a0 02 	sll  %g2, 2, %g2
4000961c:	80 a0 a0 00 	cmp  %g2, 0
40009620:	06 80 00 05 	bl  40009634 <__d2b+0x14c>
40009624:	09 10 00 00 	sethi  %hi(0x40000000), %g4
40009628:	80 88 80 04 	btst  %g2, %g4
4000962c:	02 80 00 67 	be  400097c8 <__d2b+0x2e0>
40009630:	86 00 e0 01 	inc  %g3
40009634:	82 20 40 03 	sub  %g1, %g3, %g1
40009638:	c2 27 00 00 	st  %g1, [ %i4 ]
4000963c:	81 c7 e0 08 	ret 
40009640:	91 e8 00 08 	restore  %g0, %o0, %o0
40009644:	02 80 00 17 	be  400096a0 <__d2b+0x1b8>
40009648:	05 00 00 3f 	sethi  %hi(0xfc00), %g2
4000964c:	80 88 60 01 	btst  1, %g1
40009650:	12 80 00 07 	bne  4000966c <__d2b+0x184>
40009654:	86 10 20 20 	mov  0x20, %g3
40009658:	80 88 60 02 	btst  2, %g1
4000965c:	22 80 00 8a 	be,a   40009884 <__d2b+0x39c>
40009660:	83 30 60 02 	srl  %g1, 2, %g1
40009664:	83 30 60 01 	srl  %g1, 1, %g1
40009668:	86 10 20 21 	mov  0x21, %g3
4000966c:	c2 22 20 14 	st  %g1, [ %o0 + 0x14 ]
40009670:	82 10 20 01 	mov  1, %g1
40009674:	80 a6 a0 00 	cmp  %i2, 0
40009678:	02 bf ff cd 	be  400095ac <__d2b+0xc4>
4000967c:	c2 22 20 10 	st  %g1, [ %o0 + 0x10 ]
40009680:	82 06 bb cd 	add  %i2, -1075, %g1
40009684:	82 00 40 03 	add  %g1, %g3, %g1
40009688:	c2 26 c0 00 	st  %g1, [ %i3 ]
4000968c:	82 10 20 35 	mov  0x35, %g1
40009690:	86 20 40 03 	sub  %g1, %g3, %g3
40009694:	c6 27 00 00 	st  %g3, [ %i4 ]
40009698:	81 c7 e0 08 	ret 
4000969c:	91 e8 00 08 	restore  %g0, %o0, %o0
400096a0:	84 10 a3 ff 	or  %g2, 0x3ff, %g2
400096a4:	80 88 40 02 	btst  %g1, %g2
400096a8:	02 80 00 3d 	be  4000979c <__d2b+0x2b4>
400096ac:	89 30 60 10 	srl  %g1, 0x10, %g4
400096b0:	86 08 60 ff 	and  %g1, 0xff, %g3
400096b4:	88 10 00 01 	mov  %g1, %g4
400096b8:	ba 10 20 08 	mov  8, %i5
400096bc:	84 10 20 00 	clr  %g2
400096c0:	80 a0 e0 00 	cmp  %g3, 0
400096c4:	12 80 00 05 	bne  400096d8 <__d2b+0x1f0>
400096c8:	80 89 20 0f 	btst  0xf, %g4
400096cc:	89 31 20 08 	srl  %g4, 8, %g4
400096d0:	84 10 00 1d 	mov  %i5, %g2
400096d4:	80 89 20 0f 	btst  0xf, %g4
400096d8:	12 80 00 05 	bne  400096ec <__d2b+0x204>
400096dc:	80 89 20 03 	btst  3, %g4
400096e0:	84 00 a0 04 	add  %g2, 4, %g2
400096e4:	89 31 20 04 	srl  %g4, 4, %g4
400096e8:	80 89 20 03 	btst  3, %g4
400096ec:	12 80 00 05 	bne  40009700 <__d2b+0x218>
400096f0:	80 89 20 01 	btst  1, %g4
400096f4:	84 00 a0 02 	add  %g2, 2, %g2
400096f8:	89 31 20 02 	srl  %g4, 2, %g4
400096fc:	80 89 20 01 	btst  1, %g4
40009700:	22 80 00 5b 	be,a   4000986c <__d2b+0x384>
40009704:	89 31 20 01 	srl  %g4, 1, %g4
40009708:	86 00 a0 20 	add  %g2, 0x20, %g3
4000970c:	10 bf ff d8 	b  4000966c <__d2b+0x184>
40009710:	82 10 00 04 	mov  %g4, %g1
40009714:	86 10 e3 ff 	or  %g3, 0x3ff, %g3
40009718:	80 88 80 03 	btst  %g2, %g3
4000971c:	02 80 00 24 	be  400097ac <__d2b+0x2c4>
40009720:	89 30 a0 10 	srl  %g2, 0x10, %g4
40009724:	88 10 00 02 	mov  %g2, %g4
40009728:	ba 10 20 08 	mov  8, %i5
4000972c:	86 10 20 00 	clr  %g3
40009730:	80 89 20 ff 	btst  0xff, %g4
40009734:	12 80 00 05 	bne  40009748 <__d2b+0x260>
40009738:	80 89 20 0f 	btst  0xf, %g4
4000973c:	89 31 20 08 	srl  %g4, 8, %g4
40009740:	86 10 00 1d 	mov  %i5, %g3
40009744:	80 89 20 0f 	btst  0xf, %g4
40009748:	12 80 00 05 	bne  4000975c <__d2b+0x274>
4000974c:	80 89 20 03 	btst  3, %g4
40009750:	86 00 e0 04 	add  %g3, 4, %g3
40009754:	89 31 20 04 	srl  %g4, 4, %g4
40009758:	80 89 20 03 	btst  3, %g4
4000975c:	12 80 00 3d 	bne  40009850 <__d2b+0x368>
40009760:	80 89 20 01 	btst  1, %g4
40009764:	89 31 20 02 	srl  %g4, 2, %g4
40009768:	80 89 20 01 	btst  1, %g4
4000976c:	12 80 00 06 	bne  40009784 <__d2b+0x29c>
40009770:	86 00 e0 02 	add  %g3, 2, %g3
40009774:	89 31 20 01 	srl  %g4, 1, %g4
40009778:	80 a1 20 00 	cmp  %g4, 0
4000977c:	02 80 00 47 	be  40009898 <__d2b+0x3b0>
40009780:	86 00 e0 01 	inc  %g3
40009784:	ba 20 00 03 	neg  %g3, %i5
40009788:	10 bf ff 7f 	b  40009584 <__d2b+0x9c>
4000978c:	bb 28 40 1d 	sll  %g1, %i5, %i5
40009790:	ba 10 20 08 	mov  8, %i5
40009794:	10 bf ff 92 	b  400095dc <__d2b+0xf4>
40009798:	86 10 20 00 	clr  %g3
4000979c:	ba 10 20 18 	mov  0x18, %i5
400097a0:	86 10 00 04 	mov  %g4, %g3
400097a4:	10 bf ff c7 	b  400096c0 <__d2b+0x1d8>
400097a8:	84 10 20 10 	mov  0x10, %g2
400097ac:	ba 10 20 18 	mov  0x18, %i5
400097b0:	10 bf ff e0 	b  40009730 <__d2b+0x248>
400097b4:	86 10 20 10 	mov  0x10, %g3
400097b8:	88 10 00 02 	mov  %g2, %g4
400097bc:	86 10 20 00 	clr  %g3
400097c0:	10 bf ff 74 	b  40009590 <__d2b+0xa8>
400097c4:	c8 22 20 14 	st  %g4, [ %o0 + 0x14 ]
400097c8:	86 10 20 20 	mov  0x20, %g3
400097cc:	82 20 40 03 	sub  %g1, %g3, %g1
400097d0:	10 bf ff 9b 	b  4000963c <__d2b+0x154>
400097d4:	c2 27 00 00 	st  %g1, [ %i4 ]
400097d8:	7f ff f8 c2 	call  40007ae0 <malloc>
400097dc:	90 10 20 10 	mov  0x10, %o0
400097e0:	d0 26 20 24 	st  %o0, [ %i0 + 0x24 ]
400097e4:	b4 10 00 08 	mov  %o0, %i2
400097e8:	c0 22 20 04 	clr  [ %o0 + 4 ]
400097ec:	c0 22 20 08 	clr  [ %o0 + 8 ]
400097f0:	c0 22 00 00 	clr  [ %o0 ]
400097f4:	c0 22 20 0c 	clr  [ %o0 + 0xc ]
400097f8:	94 10 20 21 	mov  0x21, %o2
400097fc:	92 10 20 04 	mov  4, %o1
40009800:	40 00 09 bc 	call  4000bef0 <_calloc_r>
40009804:	90 10 00 18 	mov  %i0, %o0
40009808:	d0 26 a0 0c 	st  %o0, [ %i2 + 0xc ]
4000980c:	c4 06 20 24 	ld  [ %i0 + 0x24 ], %g2
40009810:	c4 00 a0 0c 	ld  [ %g2 + 0xc ], %g2
40009814:	80 a0 a0 00 	cmp  %g2, 0
40009818:	32 bf ff 3f 	bne,a   40009514 <__d2b+0x2c>
4000981c:	d0 00 a0 04 	ld  [ %g2 + 4 ], %o0
40009820:	10 bf ff 44 	b  40009530 <__d2b+0x48>
40009824:	90 10 20 00 	clr  %o0
40009828:	92 10 20 01 	mov  1, %o1
4000982c:	40 00 09 b1 	call  4000bef0 <_calloc_r>
40009830:	90 10 00 18 	mov  %i0, %o0
40009834:	80 a2 20 00 	cmp  %o0, 0
40009838:	02 bf ff fa 	be  40009820 <__d2b+0x338>
4000983c:	84 10 20 01 	mov  1, %g2
40009840:	c4 22 20 04 	st  %g2, [ %o0 + 4 ]
40009844:	84 10 20 02 	mov  2, %g2
40009848:	10 bf ff 38 	b  40009528 <__d2b+0x40>
4000984c:	c4 22 20 08 	st  %g2, [ %o0 + 8 ]
40009850:	02 bf ff c9 	be  40009774 <__d2b+0x28c>
40009854:	80 a0 e0 00 	cmp  %g3, 0
40009858:	12 bf ff cc 	bne  40009788 <__d2b+0x2a0>
4000985c:	ba 20 00 03 	neg  %g3, %i5
40009860:	c8 22 20 14 	st  %g4, [ %o0 + 0x14 ]
40009864:	10 bf ff 4b 	b  40009590 <__d2b+0xa8>
40009868:	86 10 20 00 	clr  %g3
4000986c:	80 a1 20 00 	cmp  %g4, 0
40009870:	02 bf ff 7f 	be  4000966c <__d2b+0x184>
40009874:	86 10 20 40 	mov  0x40, %g3
40009878:	86 00 a0 21 	add  %g2, 0x21, %g3
4000987c:	10 bf ff 7c 	b  4000966c <__d2b+0x184>
40009880:	82 10 00 04 	mov  %g4, %g1
40009884:	10 bf ff 7a 	b  4000966c <__d2b+0x184>
40009888:	86 10 20 22 	mov  0x22, %g3
4000988c:	bb 28 60 1e 	sll  %g1, 0x1e, %i5
40009890:	10 bf ff 3d 	b  40009584 <__d2b+0x9c>
40009894:	86 10 20 02 	mov  2, %g3
40009898:	ba 10 00 01 	mov  %g1, %i5
4000989c:	88 10 00 02 	mov  %g2, %g4
400098a0:	10 bf ff 39 	b  40009584 <__d2b+0x9c>
400098a4:	86 10 20 20 	mov  0x20, %g3

400098a8 <__ratio>:
400098a8:	9d e3 bf 90 	save  %sp, -112, %sp
400098ac:	03 3f ff c0 	sethi  %hi(0xffff0000), %g1
400098b0:	b4 06 20 14 	add  %i0, 0x14, %i2
400098b4:	c6 06 20 10 	ld  [ %i0 + 0x10 ], %g3
400098b8:	87 28 e0 02 	sll  %g3, 2, %g3
400098bc:	86 06 80 03 	add  %i2, %g3, %g3
400098c0:	c8 00 ff fc 	ld  [ %g3 + -4 ], %g4
400098c4:	80 89 00 01 	btst  %g4, %g1
400098c8:	12 80 00 40 	bne  400099c8 <__ratio+0x120>
400098cc:	9e 00 ff fc 	add  %g3, -4, %o7
400098d0:	85 29 20 10 	sll  %g4, 0x10, %g2
400098d4:	b8 10 20 18 	mov  0x18, %i4
400098d8:	82 10 20 10 	mov  0x10, %g1
400098dc:	3b 3f c0 00 	sethi  %hi(0xff000000), %i5
400098e0:	80 88 80 1d 	btst  %g2, %i5
400098e4:	12 80 00 04 	bne  400098f4 <__ratio+0x4c>
400098e8:	3b 3c 00 00 	sethi  %hi(0xf0000000), %i5
400098ec:	85 28 a0 08 	sll  %g2, 8, %g2
400098f0:	82 10 00 1c 	mov  %i4, %g1
400098f4:	80 88 80 1d 	btst  %g2, %i5
400098f8:	12 80 00 04 	bne  40009908 <__ratio+0x60>
400098fc:	3b 30 00 00 	sethi  %hi(0xc0000000), %i5
40009900:	82 00 60 04 	add  %g1, 4, %g1
40009904:	85 28 a0 04 	sll  %g2, 4, %g2
40009908:	80 88 80 1d 	btst  %g2, %i5
4000990c:	12 80 00 05 	bne  40009920 <__ratio+0x78>
40009910:	80 a0 a0 00 	cmp  %g2, 0
40009914:	82 00 60 02 	add  %g1, 2, %g1
40009918:	85 28 a0 02 	sll  %g2, 2, %g2
4000991c:	80 a0 a0 00 	cmp  %g2, 0
40009920:	06 80 00 05 	bl  40009934 <__ratio+0x8c>
40009924:	3b 10 00 00 	sethi  %hi(0x40000000), %i5
40009928:	80 88 80 1d 	btst  %g2, %i5
4000992c:	02 80 00 48 	be  40009a4c <__ratio+0x1a4>
40009930:	82 00 60 01 	inc  %g1
40009934:	84 10 20 20 	mov  0x20, %g2
40009938:	80 a0 60 0a 	cmp  %g1, 0xa
4000993c:	04 80 00 36 	ble  40009a14 <__ratio+0x16c>
40009940:	b6 20 80 01 	sub  %g2, %g1, %i3
40009944:	80 a6 80 0f 	cmp  %i2, %o7
40009948:	1a 80 00 24 	bcc  400099d8 <__ratio+0x130>
4000994c:	82 00 7f f5 	add  %g1, -11, %g1
40009950:	80 a0 60 00 	cmp  %g1, 0
40009954:	12 80 00 48 	bne  40009a74 <__ratio+0x1cc>
40009958:	de 00 ff f8 	ld  [ %g3 + -8 ], %o7
4000995c:	03 0f fc 00 	sethi  %hi(0x3ff00000), %g1
40009960:	b8 11 00 01 	or  %g4, %g1, %i4
40009964:	ba 10 00 0f 	mov  %o7, %i5
40009968:	92 07 bf fc 	add  %fp, -4, %o1
4000996c:	7f ff fe 76 	call  40009344 <__b2d>
40009970:	90 10 00 19 	mov  %i1, %o0
40009974:	f8 3f bf f0 	std  %i4, [ %fp + -16 ]
40009978:	c4 06 60 10 	ld  [ %i1 + 0x10 ], %g2
4000997c:	d1 1f bf f0 	ldd  [ %fp + -16 ], %f8
40009980:	c1 3f bf f0 	std  %f0, [ %fp + -16 ]
40009984:	c2 06 20 10 	ld  [ %i0 + 0x10 ], %g1
40009988:	86 10 00 1d 	mov  %i5, %g3
4000998c:	82 20 40 02 	sub  %g1, %g2, %g1
40009990:	c4 07 bf fc 	ld  [ %fp + -4 ], %g2
40009994:	83 28 60 05 	sll  %g1, 5, %g1
40009998:	84 26 c0 02 	sub  %i3, %g2, %g2
4000999c:	82 00 40 02 	add  %g1, %g2, %g1
400099a0:	80 a0 60 00 	cmp  %g1, 0
400099a4:	04 80 00 13 	ble  400099f0 <__ratio+0x148>
400099a8:	f4 1f bf f0 	ldd  [ %fp + -16 ], %i2
400099ac:	83 28 60 14 	sll  %g1, 0x14, %g1
400099b0:	84 00 40 1c 	add  %g1, %i4, %g2
400099b4:	c4 3f bf f0 	std  %g2, [ %fp + -16 ]
400099b8:	d1 1f bf f0 	ldd  [ %fp + -16 ], %f8
400099bc:	81 a2 09 c0 	fdivd  %f8, %f0, %f0
400099c0:	81 c7 e0 08 	ret 
400099c4:	81 e8 00 00 	restore 
400099c8:	84 10 00 04 	mov  %g4, %g2
400099cc:	b8 10 20 08 	mov  8, %i4
400099d0:	10 bf ff c3 	b  400098dc <__ratio+0x34>
400099d4:	82 10 20 00 	clr  %g1
400099d8:	80 a0 60 00 	cmp  %g1, 0
400099dc:	12 80 00 21 	bne  40009a60 <__ratio+0x1b8>
400099e0:	9e 10 20 00 	clr  %o7
400099e4:	03 0f fc 00 	sethi  %hi(0x3ff00000), %g1
400099e8:	10 bf ff df 	b  40009964 <__ratio+0xbc>
400099ec:	b8 11 00 01 	or  %g4, %g1, %i4
400099f0:	c1 27 bf f0 	st  %f0, [ %fp + -16 ]
400099f4:	83 28 60 14 	sll  %g1, 0x14, %g1
400099f8:	c4 07 bf f0 	ld  [ %fp + -16 ], %g2
400099fc:	b4 20 80 01 	sub  %g2, %g1, %i2
40009a00:	f4 3f bf f0 	std  %i2, [ %fp + -16 ]
40009a04:	c1 1f bf f0 	ldd  [ %fp + -16 ], %f0
40009a08:	81 a2 09 c0 	fdivd  %f8, %f0, %f0
40009a0c:	81 c7 e0 08 	ret 
40009a10:	81 e8 00 00 	restore 
40009a14:	84 10 20 0b 	mov  0xb, %g2
40009a18:	19 0f fc 00 	sethi  %hi(0x3ff00000), %o4
40009a1c:	84 20 80 01 	sub  %g2, %g1, %g2
40009a20:	9a 10 20 00 	clr  %o5
40009a24:	97 31 00 02 	srl  %g4, %g2, %o3
40009a28:	80 a6 80 0f 	cmp  %i2, %o7
40009a2c:	1a 80 00 04 	bcc  40009a3c <__ratio+0x194>
40009a30:	b8 12 c0 0c 	or  %o3, %o4, %i4
40009a34:	da 00 ff f8 	ld  [ %g3 + -8 ], %o5
40009a38:	9b 33 40 02 	srl  %o5, %g2, %o5
40009a3c:	82 00 60 15 	add  %g1, 0x15, %g1
40009a40:	83 29 00 01 	sll  %g4, %g1, %g1
40009a44:	10 bf ff c9 	b  40009968 <__ratio+0xc0>
40009a48:	ba 10 40 0d 	or  %g1, %o5, %i5
40009a4c:	80 a6 80 0f 	cmp  %i2, %o7
40009a50:	0a 80 00 17 	bcs  40009aac <__ratio+0x204>
40009a54:	9a 00 ff f8 	add  %g3, -8, %o5
40009a58:	82 10 20 15 	mov  0x15, %g1
40009a5c:	b6 10 20 00 	clr  %i3
40009a60:	83 29 00 01 	sll  %g4, %g1, %g1
40009a64:	05 0f fc 00 	sethi  %hi(0x3ff00000), %g2
40009a68:	9e 10 20 00 	clr  %o7
40009a6c:	10 bf ff be 	b  40009964 <__ratio+0xbc>
40009a70:	b8 10 40 02 	or  %g1, %g2, %i4
40009a74:	9a 00 ff f8 	add  %g3, -8, %o5
40009a78:	84 20 80 01 	sub  %g2, %g1, %g2
40009a7c:	89 29 00 01 	sll  %g4, %g1, %g4
40009a80:	87 33 c0 02 	srl  %o7, %g2, %g3
40009a84:	80 a6 80 0d 	cmp  %i2, %o5
40009a88:	88 11 00 03 	or  %g4, %g3, %g4
40009a8c:	9f 2b c0 01 	sll  %o7, %g1, %o7
40009a90:	03 0f fc 00 	sethi  %hi(0x3ff00000), %g1
40009a94:	1a bf ff b4 	bcc  40009964 <__ratio+0xbc>
40009a98:	b8 11 00 01 	or  %g4, %g1, %i4
40009a9c:	c2 03 7f fc 	ld  [ %o5 + -4 ], %g1
40009aa0:	85 30 40 02 	srl  %g1, %g2, %g2
40009aa4:	10 bf ff b0 	b  40009964 <__ratio+0xbc>
40009aa8:	9e 13 c0 02 	or  %o7, %g2, %o7
40009aac:	de 00 ff f8 	ld  [ %g3 + -8 ], %o7
40009ab0:	84 10 20 0b 	mov  0xb, %g2
40009ab4:	b6 10 20 00 	clr  %i3
40009ab8:	10 bf ff f1 	b  40009a7c <__ratio+0x1d4>
40009abc:	82 10 20 15 	mov  0x15, %g1

40009ac0 <_mprec_log10>:
40009ac0:	03 10 00 3b 	sethi  %hi(0x4000ec00), %g1
40009ac4:	80 a2 20 17 	cmp  %o0, 0x17
40009ac8:	c1 18 61 c0 	ldd  [ %g1 + 0x1c0 ], %f0
40009acc:	03 10 00 3b 	sethi  %hi(0x4000ec00), %g1
40009ad0:	04 80 00 07 	ble  40009aec <_mprec_log10+0x2c>
40009ad4:	d1 18 61 c8 	ldd  [ %g1 + 0x1c8 ], %f8	! 4000edc8 <blanks.1+0x58>
40009ad8:	90 82 3f ff 	addcc  %o0, -1, %o0
40009adc:	12 bf ff ff 	bne  40009ad8 <_mprec_log10+0x18>
40009ae0:	81 a0 09 48 	fmuld  %f0, %f8, %f0
40009ae4:	81 c3 e0 08 	retl 
40009ae8:	01 00 00 00 	nop 
40009aec:	91 2a 20 03 	sll  %o0, 3, %o0
40009af0:	03 10 00 3b 	sethi  %hi(0x4000ec00), %g1
40009af4:	82 10 62 a0 	or  %g1, 0x2a0, %g1	! 4000eea0 <__mprec_tens>
40009af8:	81 c3 e0 08 	retl 
40009afc:	c1 18 40 08 	ldd  [ %g1 + %o0 ], %f0

40009b00 <__copybits>:
40009b00:	82 02 a0 14 	add  %o2, 0x14, %g1
40009b04:	88 02 7f ff 	add  %o1, -1, %g4
40009b08:	c6 02 a0 10 	ld  [ %o2 + 0x10 ], %g3
40009b0c:	89 39 20 05 	sra  %g4, 5, %g4
40009b10:	87 28 e0 02 	sll  %g3, 2, %g3
40009b14:	88 01 20 01 	inc  %g4
40009b18:	86 00 40 03 	add  %g1, %g3, %g3
40009b1c:	89 29 20 02 	sll  %g4, 2, %g4
40009b20:	80 a0 40 03 	cmp  %g1, %g3
40009b24:	1a 80 00 13 	bcc  40009b70 <__copybits+0x70>
40009b28:	88 02 00 04 	add  %o0, %g4, %g4
40009b2c:	84 10 00 08 	mov  %o0, %g2
40009b30:	da 00 40 00 	ld  [ %g1 ], %o5
40009b34:	da 20 80 00 	st  %o5, [ %g2 ]
40009b38:	82 00 60 04 	add  %g1, 4, %g1
40009b3c:	80 a0 c0 01 	cmp  %g3, %g1
40009b40:	18 bf ff fc 	bgu  40009b30 <__copybits+0x30>
40009b44:	84 00 a0 04 	add  %g2, 4, %g2
40009b48:	82 20 c0 0a 	sub  %g3, %o2, %g1
40009b4c:	82 00 7f eb 	add  %g1, -21, %g1
40009b50:	82 08 7f fc 	and  %g1, -4, %g1
40009b54:	82 00 60 04 	add  %g1, 4, %g1
40009b58:	90 02 00 01 	add  %o0, %g1, %o0
40009b5c:	80 a1 00 08 	cmp  %g4, %o0
40009b60:	08 80 00 07 	bleu  40009b7c <__copybits+0x7c>
40009b64:	01 00 00 00 	nop 
40009b68:	c0 22 00 00 	clr  [ %o0 ]
40009b6c:	90 02 20 04 	add  %o0, 4, %o0
40009b70:	80 a1 00 08 	cmp  %g4, %o0
40009b74:	38 bf ff fe 	bgu,a   40009b6c <__copybits+0x6c>
40009b78:	c0 22 00 00 	clr  [ %o0 ]
40009b7c:	81 c3 e0 08 	retl 
40009b80:	01 00 00 00 	nop 

40009b84 <__any_on>:
40009b84:	c2 02 20 10 	ld  [ %o0 + 0x10 ], %g1
40009b88:	85 3a 60 05 	sra  %o1, 5, %g2
40009b8c:	80 a0 40 02 	cmp  %g1, %g2
40009b90:	16 80 00 0e 	bge  40009bc8 <__any_on+0x44>
40009b94:	86 02 20 14 	add  %o0, 0x14, %g3
40009b98:	83 28 60 02 	sll  %g1, 2, %g1
40009b9c:	10 80 00 06 	b  40009bb4 <__any_on+0x30>
40009ba0:	82 00 c0 01 	add  %g3, %g1, %g1
40009ba4:	c4 00 40 00 	ld  [ %g1 ], %g2
40009ba8:	80 a0 a0 00 	cmp  %g2, 0
40009bac:	12 80 00 15 	bne  40009c00 <__any_on+0x7c>
40009bb0:	01 00 00 00 	nop 
40009bb4:	80 a0 40 03 	cmp  %g1, %g3
40009bb8:	18 bf ff fb 	bgu  40009ba4 <__any_on+0x20>
40009bbc:	82 00 7f fc 	add  %g1, -4, %g1
40009bc0:	81 c3 e0 08 	retl 
40009bc4:	90 10 20 00 	clr  %o0
40009bc8:	85 28 a0 02 	sll  %g2, 2, %g2
40009bcc:	04 bf ff fa 	ble  40009bb4 <__any_on+0x30>
40009bd0:	82 00 c0 02 	add  %g3, %g2, %g1
40009bd4:	92 8a 60 1f 	andcc  %o1, 0x1f, %o1
40009bd8:	02 bf ff f8 	be  40009bb8 <__any_on+0x34>
40009bdc:	80 a0 40 03 	cmp  %g1, %g3
40009be0:	c8 00 c0 02 	ld  [ %g3 + %g2 ], %g4
40009be4:	85 31 00 09 	srl  %g4, %o1, %g2
40009be8:	93 28 80 09 	sll  %g2, %o1, %o1
40009bec:	80 a1 00 09 	cmp  %g4, %o1
40009bf0:	02 bf ff f1 	be  40009bb4 <__any_on+0x30>
40009bf4:	90 10 20 01 	mov  1, %o0
40009bf8:	81 c3 e0 08 	retl 
40009bfc:	01 00 00 00 	nop 
40009c00:	81 c3 e0 08 	retl 
40009c04:	90 10 20 01 	mov  1, %o0	! 1 <_CONTEXT_I_>

40009c08 <frexp>:
40009c08:	c0 22 80 00 	clr  [ %o2 ]
40009c0c:	05 1f ff ff 	sethi  %hi(0x7ffffc00), %g2
40009c10:	07 1f fb ff 	sethi  %hi(0x7feffc00), %g3
40009c14:	84 10 a3 ff 	or  %g2, 0x3ff, %g2
40009c18:	86 10 e3 ff 	or  %g3, 0x3ff, %g3
40009c1c:	82 0a 00 02 	and  %o0, %g2, %g1
40009c20:	9c 03 bf b0 	add  %sp, -80, %sp
40009c24:	80 a0 40 03 	cmp  %g1, %g3
40009c28:	14 80 00 1a 	bg  40009c90 <frexp+0x88>
40009c2c:	88 10 00 08 	mov  %o0, %g4
40009c30:	80 90 40 09 	orcc  %g1, %o1, %g0
40009c34:	02 80 00 17 	be  40009c90 <frexp+0x88>
40009c38:	1b 1f fc 00 	sethi  %hi(0x7ff00000), %o5
40009c3c:	80 8a 00 0d 	btst  %o0, %o5
40009c40:	12 80 00 0c 	bne  40009c70 <frexp+0x68>
40009c44:	86 10 20 00 	clr  %g3
40009c48:	d0 3b a0 48 	std  %o0, [ %sp + 0x48 ]
40009c4c:	03 10 00 3b 	sethi  %hi(0x4000ec00), %g1
40009c50:	d5 1b a0 48 	ldd  [ %sp + 0x48 ], %f10
40009c54:	d1 18 63 68 	ldd  [ %g1 + 0x368 ], %f8
40009c58:	86 10 3f ca 	mov  -54, %g3
40009c5c:	91 a2 89 48 	fmuld  %f10, %f8, %f8
40009c60:	d1 3b a0 48 	std  %f8, [ %sp + 0x48 ]
40009c64:	d0 1b a0 48 	ldd  [ %sp + 0x48 ], %o0
40009c68:	88 10 00 08 	mov  %o0, %g4
40009c6c:	82 09 00 02 	and  %g4, %g2, %g1
40009c70:	83 38 60 14 	sra  %g1, 0x14, %g1
40009c74:	82 00 7c 02 	add  %g1, -1022, %g1
40009c78:	82 00 40 03 	add  %g1, %g3, %g1
40009c7c:	05 1f fc 00 	sethi  %hi(0x7ff00000), %g2
40009c80:	c2 22 80 00 	st  %g1, [ %o2 ]
40009c84:	88 29 00 02 	andn  %g4, %g2, %g4
40009c88:	03 0f f8 00 	sethi  %hi(0x3fe00000), %g1
40009c8c:	90 11 00 01 	or  %g4, %g1, %o0
40009c90:	d0 3b a0 48 	std  %o0, [ %sp + 0x48 ]
40009c94:	c1 1b a0 48 	ldd  [ %sp + 0x48 ], %f0
40009c98:	81 c3 e0 08 	retl 
40009c9c:	9c 03 a0 50 	add  %sp, 0x50, %sp

40009ca0 <_sbrk_r>:
40009ca0:	9d e3 bf a0 	save  %sp, -96, %sp
40009ca4:	3b 10 00 3e 	sethi  %hi(0x4000f800), %i5
40009ca8:	90 10 00 19 	mov  %i1, %o0
40009cac:	40 00 10 00 	call  4000dcac <sbrk>
40009cb0:	c0 27 62 e8 	clr  [ %i5 + 0x2e8 ]
40009cb4:	80 a2 3f ff 	cmp  %o0, -1
40009cb8:	02 80 00 04 	be  40009cc8 <_sbrk_r+0x28>
40009cbc:	c2 07 62 e8 	ld  [ %i5 + 0x2e8 ], %g1
40009cc0:	81 c7 e0 08 	ret 
40009cc4:	91 e8 00 08 	restore  %g0, %o0, %o0
40009cc8:	80 a0 60 00 	cmp  %g1, 0
40009ccc:	02 bf ff fd 	be  40009cc0 <_sbrk_r+0x20>
40009cd0:	01 00 00 00 	nop 
40009cd4:	c2 26 00 00 	st  %g1, [ %i0 ]
40009cd8:	81 c7 e0 08 	ret 
40009cdc:	91 e8 00 08 	restore  %g0, %o0, %o0

40009ce0 <__sread>:
40009ce0:	9d e3 bf a0 	save  %sp, -96, %sp
40009ce4:	90 10 00 18 	mov  %i0, %o0
40009ce8:	96 10 00 1b 	mov  %i3, %o3
40009cec:	94 10 00 1a 	mov  %i2, %o2
40009cf0:	40 00 0c 42 	call  4000cdf8 <_read_r>
40009cf4:	d2 56 60 0e 	ldsh  [ %i1 + 0xe ], %o1
40009cf8:	b0 92 20 00 	orcc  %o0, 0, %i0
40009cfc:	26 80 00 07 	bl,a   40009d18 <__sread+0x38>
40009d00:	c4 16 60 0c 	lduh  [ %i1 + 0xc ], %g2
40009d04:	c2 06 60 54 	ld  [ %i1 + 0x54 ], %g1
40009d08:	82 00 40 18 	add  %g1, %i0, %g1
40009d0c:	c2 26 60 54 	st  %g1, [ %i1 + 0x54 ]
40009d10:	81 c7 e0 08 	ret 
40009d14:	81 e8 00 00 	restore 
40009d18:	03 00 00 04 	sethi  %hi(0x1000), %g1
40009d1c:	82 28 80 01 	andn  %g2, %g1, %g1
40009d20:	c2 36 60 0c 	sth  %g1, [ %i1 + 0xc ]
40009d24:	81 c7 e0 08 	ret 
40009d28:	81 e8 00 00 	restore 

40009d2c <__seofread>:
40009d2c:	81 c3 e0 08 	retl 
40009d30:	90 10 20 00 	clr  %o0

40009d34 <__swrite>:
40009d34:	9d e3 bf a0 	save  %sp, -96, %sp
40009d38:	c4 16 60 0c 	lduh  [ %i1 + 0xc ], %g2
40009d3c:	ba 10 00 19 	mov  %i1, %i5
40009d40:	80 88 a1 00 	btst  0x100, %g2
40009d44:	12 80 00 07 	bne  40009d60 <__swrite+0x2c>
40009d48:	f2 56 60 0e 	ldsh  [ %i1 + 0xe ], %i1
40009d4c:	03 00 00 04 	sethi  %hi(0x1000), %g1
40009d50:	82 28 80 01 	andn  %g2, %g1, %g1
40009d54:	c2 37 60 0c 	sth  %g1, [ %i5 + 0xc ]
40009d58:	40 00 08 54 	call  4000bea8 <_write_r>
40009d5c:	81 e8 00 00 	restore 
40009d60:	92 10 00 19 	mov  %i1, %o1
40009d64:	96 10 20 02 	mov  2, %o3
40009d68:	94 10 20 00 	clr  %o2
40009d6c:	40 00 0b 63 	call  4000caf8 <_lseek_r>
40009d70:	90 10 00 18 	mov  %i0, %o0
40009d74:	c4 17 60 0c 	lduh  [ %i5 + 0xc ], %g2
40009d78:	03 00 00 04 	sethi  %hi(0x1000), %g1
40009d7c:	f2 57 60 0e 	ldsh  [ %i5 + 0xe ], %i1
40009d80:	82 28 80 01 	andn  %g2, %g1, %g1
40009d84:	c2 37 60 0c 	sth  %g1, [ %i5 + 0xc ]
40009d88:	40 00 08 48 	call  4000bea8 <_write_r>
40009d8c:	81 e8 00 00 	restore 

40009d90 <__sseek>:
40009d90:	9d e3 bf a0 	save  %sp, -96, %sp
40009d94:	90 10 00 18 	mov  %i0, %o0
40009d98:	96 10 00 1b 	mov  %i3, %o3
40009d9c:	94 10 00 1a 	mov  %i2, %o2
40009da0:	40 00 0b 56 	call  4000caf8 <_lseek_r>
40009da4:	d2 56 60 0e 	ldsh  [ %i1 + 0xe ], %o1
40009da8:	c4 16 60 0c 	lduh  [ %i1 + 0xc ], %g2
40009dac:	80 a2 3f ff 	cmp  %o0, -1
40009db0:	02 80 00 08 	be  40009dd0 <__sseek+0x40>
40009db4:	b0 10 00 08 	mov  %o0, %i0
40009db8:	d0 26 60 54 	st  %o0, [ %i1 + 0x54 ]
40009dbc:	03 00 00 04 	sethi  %hi(0x1000), %g1
40009dc0:	82 10 40 02 	or  %g1, %g2, %g1
40009dc4:	c2 36 60 0c 	sth  %g1, [ %i1 + 0xc ]
40009dc8:	81 c7 e0 08 	ret 
40009dcc:	81 e8 00 00 	restore 
40009dd0:	03 00 00 04 	sethi  %hi(0x1000), %g1
40009dd4:	82 28 80 01 	andn  %g2, %g1, %g1
40009dd8:	c2 36 60 0c 	sth  %g1, [ %i1 + 0xc ]
40009ddc:	81 c7 e0 08 	ret 
40009de0:	81 e8 00 00 	restore 

40009de4 <__sclose>:
40009de4:	d2 52 60 0e 	ldsh  [ %o1 + 0xe ], %o1
40009de8:	82 13 c0 00 	mov  %o7, %g1
40009dec:	40 00 08 6a 	call  4000bf94 <_close_r>
40009df0:	9e 10 40 00 	mov  %g1, %o7

40009df4 <strlen>:
40009df4:	80 8a 20 03 	btst  3, %o0
40009df8:	12 80 00 07 	bne  40009e14 <strlen+0x20>
40009dfc:	82 10 00 08 	mov  %o0, %g1
40009e00:	10 80 00 0b 	b  40009e2c <strlen+0x38>
40009e04:	c4 00 40 00 	ld  [ %g1 ], %g2
40009e08:	80 88 60 03 	btst  3, %g1
40009e0c:	22 80 00 08 	be,a   40009e2c <strlen+0x38>
40009e10:	c4 00 40 00 	ld  [ %g1 ], %g2
40009e14:	c4 48 40 00 	ldsb  [ %g1 ], %g2
40009e18:	80 a0 a0 00 	cmp  %g2, 0
40009e1c:	32 bf ff fb 	bne,a   40009e08 <strlen+0x14>
40009e20:	82 00 60 01 	inc  %g1
40009e24:	81 c3 e0 08 	retl 
40009e28:	90 20 40 08 	sub  %g1, %o0, %o0
40009e2c:	1b 3f bf bf 	sethi  %hi(0xfefefc00), %o5
40009e30:	09 20 20 20 	sethi  %hi(0x80808000), %g4
40009e34:	9a 13 62 ff 	or  %o5, 0x2ff, %o5
40009e38:	88 11 20 80 	or  %g4, 0x80, %g4
40009e3c:	86 00 80 0d 	add  %g2, %o5, %g3
40009e40:	84 28 c0 02 	andn  %g3, %g2, %g2
40009e44:	80 88 80 04 	btst  %g2, %g4
40009e48:	32 80 00 11 	bne,a   40009e8c <strlen+0x98>
40009e4c:	c4 48 40 00 	ldsb  [ %g1 ], %g2
40009e50:	c4 00 60 04 	ld  [ %g1 + 4 ], %g2
40009e54:	86 00 80 0d 	add  %g2, %o5, %g3
40009e58:	84 28 c0 02 	andn  %g3, %g2, %g2
40009e5c:	80 88 80 04 	btst  %g2, %g4
40009e60:	12 80 00 0a 	bne  40009e88 <strlen+0x94>
40009e64:	82 00 60 04 	add  %g1, 4, %g1
40009e68:	c4 00 60 04 	ld  [ %g1 + 4 ], %g2
40009e6c:	86 00 80 0d 	add  %g2, %o5, %g3
40009e70:	84 28 c0 02 	andn  %g3, %g2, %g2
40009e74:	80 88 80 04 	btst  %g2, %g4
40009e78:	02 bf ff f6 	be  40009e50 <strlen+0x5c>
40009e7c:	82 00 60 04 	add  %g1, 4, %g1
40009e80:	10 80 00 03 	b  40009e8c <strlen+0x98>
40009e84:	c4 48 40 00 	ldsb  [ %g1 ], %g2
40009e88:	c4 48 40 00 	ldsb  [ %g1 ], %g2
40009e8c:	80 a0 a0 00 	cmp  %g2, 0
40009e90:	32 bf ff fe 	bne,a   40009e88 <strlen+0x94>
40009e94:	82 00 60 01 	inc  %g1
40009e98:	81 c3 e0 08 	retl 
40009e9c:	90 20 40 08 	sub  %g1, %o0, %o0

40009ea0 <strncpy>:
40009ea0:	82 12 40 08 	or  %o1, %o0, %g1
40009ea4:	80 88 60 03 	btst  3, %g1
40009ea8:	12 80 00 07 	bne  40009ec4 <strncpy+0x24>
40009eac:	80 a2 a0 03 	cmp  %o2, 3
40009eb0:	08 80 00 18 	bleu  40009f10 <strncpy+0x70>
40009eb4:	82 10 20 01 	mov  1, %g1
40009eb8:	80 88 60 ff 	btst  0xff, %g1
40009ebc:	32 80 00 1a 	bne,a   40009f24 <strncpy+0x84>
40009ec0:	1b 3f bf bf 	sethi  %hi(0xfefefc00), %o5
40009ec4:	86 10 00 08 	mov  %o0, %g3
40009ec8:	82 02 bf ff 	add  %o2, -1, %g1
40009ecc:	9a 10 20 01 	mov  1, %o5
40009ed0:	10 80 00 0a 	b  40009ef8 <strncpy+0x58>
40009ed4:	92 02 40 01 	add  %o1, %g1, %o1
40009ed8:	c2 0a 40 01 	ldub  [ %o1 + %g1 ], %g1
40009edc:	c2 28 bf ff 	stb  %g1, [ %g2 + -1 ]
40009ee0:	83 28 60 18 	sll  %g1, 0x18, %g1
40009ee4:	80 a0 60 00 	cmp  %g1, 0
40009ee8:	02 80 00 21 	be  40009f6c <strncpy+0xcc>
40009eec:	88 02 bf ff 	add  %o2, -1, %g4
40009ef0:	86 10 00 02 	mov  %g2, %g3
40009ef4:	94 10 00 04 	mov  %g4, %o2
40009ef8:	84 00 e0 01 	add  %g3, 1, %g2
40009efc:	80 a2 a0 00 	cmp  %o2, 0
40009f00:	12 bf ff f6 	bne  40009ed8 <strncpy+0x38>
40009f04:	82 23 40 0a 	sub  %o5, %o2, %g1
40009f08:	81 c3 e0 08 	retl 
40009f0c:	01 00 00 00 	nop 
40009f10:	82 10 20 00 	clr  %g1	! 0 <__bcc_cfg_skip_clear_bss>
40009f14:	80 88 60 ff 	btst  0xff, %g1
40009f18:	02 bf ff ec 	be  40009ec8 <strncpy+0x28>
40009f1c:	86 10 00 08 	mov  %o0, %g3
40009f20:	1b 3f bf bf 	sethi  %hi(0xfefefc00), %o5
40009f24:	09 20 20 20 	sethi  %hi(0x80808000), %g4
40009f28:	86 10 00 08 	mov  %o0, %g3
40009f2c:	9a 13 62 ff 	or  %o5, 0x2ff, %o5
40009f30:	88 11 20 80 	or  %g4, 0x80, %g4
40009f34:	c4 02 40 00 	ld  [ %o1 ], %g2
40009f38:	82 00 80 0d 	add  %g2, %o5, %g1
40009f3c:	82 28 40 02 	andn  %g1, %g2, %g1
40009f40:	80 88 40 04 	btst  %g1, %g4
40009f44:	32 bf ff e2 	bne,a   40009ecc <strncpy+0x2c>
40009f48:	82 02 bf ff 	add  %o2, -1, %g1
40009f4c:	c4 20 c0 00 	st  %g2, [ %g3 ]
40009f50:	94 02 bf fc 	add  %o2, -4, %o2
40009f54:	86 00 e0 04 	add  %g3, 4, %g3
40009f58:	80 a2 a0 03 	cmp  %o2, 3
40009f5c:	18 bf ff f6 	bgu  40009f34 <strncpy+0x94>
40009f60:	92 02 60 04 	add  %o1, 4, %o1
40009f64:	10 bf ff da 	b  40009ecc <strncpy+0x2c>
40009f68:	82 02 bf ff 	add  %o2, -1, %g1
40009f6c:	80 a1 20 00 	cmp  %g4, 0
40009f70:	02 bf ff e6 	be  40009f08 <strncpy+0x68>
40009f74:	98 02 bf fe 	add  %o2, -2, %o4
40009f78:	82 20 00 02 	neg  %g2, %g1
40009f7c:	80 a3 20 05 	cmp  %o4, 5
40009f80:	08 80 00 22 	bleu  4000a008 <strncpy+0x168>
40009f84:	82 08 60 03 	and  %g1, 3, %g1
40009f88:	80 a0 60 00 	cmp  %g1, 0
40009f8c:	02 80 00 0f 	be  40009fc8 <strncpy+0x128>
40009f90:	96 10 00 02 	mov  %g2, %o3
40009f94:	c0 28 80 00 	clrb  [ %g2 ]
40009f98:	96 00 e0 02 	add  %g3, 2, %o3
40009f9c:	80 a0 60 01 	cmp  %g1, 1
40009fa0:	02 80 00 0a 	be  40009fc8 <strncpy+0x128>
40009fa4:	98 02 bf fd 	add  %o2, -3, %o4
40009fa8:	c0 28 a0 01 	clrb  [ %g2 + 1 ]
40009fac:	96 00 e0 03 	add  %g3, 3, %o3
40009fb0:	80 a0 60 03 	cmp  %g1, 3
40009fb4:	12 80 00 05 	bne  40009fc8 <strncpy+0x128>
40009fb8:	98 02 bf fc 	add  %o2, -4, %o4
40009fbc:	96 00 e0 04 	add  %g3, 4, %o3
40009fc0:	c0 28 a0 02 	clrb  [ %g2 + 2 ]
40009fc4:	98 02 bf fb 	add  %o2, -5, %o4
40009fc8:	88 21 00 01 	sub  %g4, %g1, %g4
40009fcc:	84 00 80 01 	add  %g2, %g1, %g2
40009fd0:	86 01 3f fc 	add  %g4, -4, %g3
40009fd4:	82 10 20 00 	clr  %g1
40009fd8:	87 30 e0 02 	srl  %g3, 2, %g3
40009fdc:	86 00 e0 01 	inc  %g3
40009fe0:	9b 28 60 02 	sll  %g1, 2, %o5
40009fe4:	82 00 60 01 	inc  %g1
40009fe8:	80 a0 c0 01 	cmp  %g3, %g1
40009fec:	18 bf ff fd 	bgu  40009fe0 <strncpy+0x140>
40009ff0:	c0 20 80 0d 	clr  [ %g2 + %o5 ]
40009ff4:	87 28 e0 02 	sll  %g3, 2, %g3
40009ff8:	84 02 c0 03 	add  %o3, %g3, %g2
40009ffc:	80 a1 00 03 	cmp  %g4, %g3
4000a000:	02 bf ff c2 	be  40009f08 <strncpy+0x68>
4000a004:	98 23 00 03 	sub  %o4, %g3, %o4
4000a008:	80 a3 20 00 	cmp  %o4, 0
4000a00c:	02 bf ff bf 	be  40009f08 <strncpy+0x68>
4000a010:	c0 28 80 00 	clrb  [ %g2 ]
4000a014:	80 a3 20 01 	cmp  %o4, 1
4000a018:	02 bf ff bc 	be  40009f08 <strncpy+0x68>
4000a01c:	c0 28 a0 01 	clrb  [ %g2 + 1 ]
4000a020:	80 a3 20 02 	cmp  %o4, 2
4000a024:	02 bf ff b9 	be  40009f08 <strncpy+0x68>
4000a028:	c0 28 a0 02 	clrb  [ %g2 + 2 ]
4000a02c:	80 a3 20 03 	cmp  %o4, 3
4000a030:	02 bf ff b6 	be  40009f08 <strncpy+0x68>
4000a034:	c0 28 a0 03 	clrb  [ %g2 + 3 ]
4000a038:	80 a3 20 04 	cmp  %o4, 4
4000a03c:	02 bf ff b3 	be  40009f08 <strncpy+0x68>
4000a040:	c0 28 a0 04 	clrb  [ %g2 + 4 ]
4000a044:	81 c3 e0 08 	retl 
4000a048:	c0 28 a0 05 	clrb  [ %g2 + 5 ]
4000a04c:	40 00 a9 8c 	call  4003467c <__bss_end+0x24b7c>
4000a050:	40 00 a5 48 	call  40033570 <__bss_end+0x23a70>
4000a054:	40 00 a5 48 	call  40033574 <__bss_end+0x23a74>
4000a058:	40 00 a9 7c 	call  40034648 <__bss_end+0x24b48>
4000a05c:	40 00 a5 48 	call  4003357c <__bss_end+0x23a7c>
4000a060:	40 00 a5 48 	call  40033580 <__bss_end+0x23a80>
4000a064:	40 00 a5 48 	call  40033584 <__bss_end+0x23a84>
4000a068:	40 00 a6 80 	call  40033a68 <__bss_end+0x23f68>
4000a06c:	40 00 a5 48 	call  4003358c <__bss_end+0x23a8c>
4000a070:	40 00 a5 48 	call  40033590 <__bss_end+0x23a90>
4000a074:	40 00 a9 50 	call  400345b4 <__bss_end+0x24ab4>
4000a078:	40 00 a9 40 	call  40034578 <__bss_end+0x24a78>
4000a07c:	40 00 a5 48 	call  4003359c <__bss_end+0x23a9c>
4000a080:	40 00 a9 30 	call  40034540 <__bss_end+0x24a40>
4000a084:	40 00 a8 dc 	call  400343f4 <__bss_end+0x248f4>
4000a088:	40 00 a5 48 	call  400335a8 <__bss_end+0x23aa8>
4000a08c:	40 00 a8 cc 	call  400343bc <__bss_end+0x248bc>
4000a090:	40 00 a6 48 	call  400339b0 <__bss_end+0x23eb0>
4000a094:	40 00 a6 48 	call  400339b4 <__bss_end+0x23eb4>
4000a098:	40 00 a6 48 	call  400339b8 <__bss_end+0x23eb8>
4000a09c:	40 00 a6 48 	call  400339bc <__bss_end+0x23ebc>
4000a0a0:	40 00 a6 48 	call  400339c0 <__bss_end+0x23ec0>
4000a0a4:	40 00 a6 48 	call  400339c4 <__bss_end+0x23ec4>
4000a0a8:	40 00 a6 48 	call  400339c8 <__bss_end+0x23ec8>
4000a0ac:	40 00 a6 48 	call  400339cc <__bss_end+0x23ecc>
4000a0b0:	40 00 a6 48 	call  400339d0 <__bss_end+0x23ed0>
4000a0b4:	40 00 a5 48 	call  400335d4 <__bss_end+0x23ad4>
4000a0b8:	40 00 a5 48 	call  400335d8 <__bss_end+0x23ad8>
4000a0bc:	40 00 a5 48 	call  400335dc <__bss_end+0x23adc>
4000a0c0:	40 00 a5 48 	call  400335e0 <__bss_end+0x23ae0>
4000a0c4:	40 00 a5 48 	call  400335e4 <__bss_end+0x23ae4>
4000a0c8:	40 00 a5 48 	call  400335e8 <__bss_end+0x23ae8>
4000a0cc:	40 00 a5 48 	call  400335ec <__bss_end+0x23aec>
4000a0d0:	40 00 a5 48 	call  400335f0 <__bss_end+0x23af0>
4000a0d4:	40 00 a5 48 	call  400335f4 <__bss_end+0x23af4>
4000a0d8:	40 00 a7 80 	call  40033ed8 <__bss_end+0x243d8>
4000a0dc:	40 00 a6 e4 	call  40033c6c <__bss_end+0x2416c>
4000a0e0:	40 00 a5 48 	call  40033600 <__bss_end+0x23b00>
4000a0e4:	40 00 a5 48 	call  40033604 <__bss_end+0x23b04>
4000a0e8:	40 00 a5 48 	call  40033608 <__bss_end+0x23b08>
4000a0ec:	40 00 a5 48 	call  4003360c <__bss_end+0x23b0c>
4000a0f0:	40 00 a5 48 	call  40033610 <__bss_end+0x23b10>
4000a0f4:	40 00 a5 48 	call  40033614 <__bss_end+0x23b14>
4000a0f8:	40 00 a5 48 	call  40033618 <__bss_end+0x23b18>
4000a0fc:	40 00 a5 48 	call  4003361c <__bss_end+0x23b1c>
4000a100:	40 00 a5 48 	call  40033620 <__bss_end+0x23b20>
4000a104:	40 00 a5 48 	call  40033624 <__bss_end+0x23b24>
4000a108:	40 00 a7 f8 	call  400340e8 <__bss_end+0x245e8>
4000a10c:	40 00 a5 48 	call  4003362c <__bss_end+0x23b2c>
4000a110:	40 00 a5 48 	call  40033630 <__bss_end+0x23b30>
4000a114:	40 00 a5 48 	call  40033634 <__bss_end+0x23b34>
4000a118:	40 00 a7 ac 	call  40033fc8 <__bss_end+0x244c8>
4000a11c:	40 00 a5 48 	call  4003363c <__bss_end+0x23b3c>
4000a120:	40 00 a9 c8 	call  40034840 <__bss_end+0x24d40>
4000a124:	40 00 a5 48 	call  40033644 <__bss_end+0x23b44>
4000a128:	40 00 a5 48 	call  40033648 <__bss_end+0x23b48>
4000a12c:	40 00 b9 7c 	call  4003871c <__bss_end+0x28c1c>
4000a130:	40 00 a5 48 	call  40033650 <__bss_end+0x23b50>
4000a134:	40 00 a5 48 	call  40033654 <__bss_end+0x23b54>
4000a138:	40 00 a5 48 	call  40033658 <__bss_end+0x23b58>
4000a13c:	40 00 a5 48 	call  4003365c <__bss_end+0x23b5c>
4000a140:	40 00 a5 48 	call  40033660 <__bss_end+0x23b60>
4000a144:	40 00 a5 48 	call  40033664 <__bss_end+0x23b64>
4000a148:	40 00 a5 48 	call  40033668 <__bss_end+0x23b68>
4000a14c:	40 00 a5 48 	call  4003366c <__bss_end+0x23b6c>
4000a150:	40 00 a5 48 	call  40033670 <__bss_end+0x23b70>
4000a154:	40 00 a5 48 	call  40033674 <__bss_end+0x23b74>
4000a158:	40 00 a7 80 	call  40033f58 <__bss_end+0x24458>
4000a15c:	40 00 a6 e8 	call  40033cfc <__bss_end+0x241fc>
4000a160:	40 00 a5 48 	call  40033680 <__bss_end+0x23b80>
4000a164:	40 00 a5 48 	call  40033684 <__bss_end+0x23b84>
4000a168:	40 00 a5 48 	call  40033688 <__bss_end+0x23b88>
4000a16c:	40 00 a9 a8 	call  4003480c <__bss_end+0x24d0c>
4000a170:	40 00 a6 e8 	call  40033d10 <__bss_end+0x24210>
4000a174:	40 00 a6 d4 	call  40033cc4 <__bss_end+0x241c4>
4000a178:	40 00 a5 48 	call  40033698 <__bss_end+0x23b98>
4000a17c:	40 00 aa 3c 	call  40034a6c <__bss_end+0x24f6c>
4000a180:	40 00 a5 48 	call  400336a0 <__bss_end+0x23ba0>
4000a184:	40 00 a8 84 	call  40034394 <__bss_end+0x24894>
4000a188:	40 00 a7 fc 	call  40034178 <__bss_end+0x24678>
4000a18c:	40 00 aa 00 	call  4003498c <__bss_end+0x24e8c>
4000a190:	40 00 a6 d4 	call  40033ce0 <__bss_end+0x241e0>
4000a194:	40 00 a5 48 	call  400336b4 <__bss_end+0x23bb4>
4000a198:	40 00 a7 ac 	call  40034048 <__bss_end+0x24548>
4000a19c:	40 00 a6 c8 	call  40033cbc <__bss_end+0x241bc>
4000a1a0:	40 00 b9 74 	call  40038770 <__bss_end+0x28c70>
4000a1a4:	40 00 a5 48 	call  400336c4 <__bss_end+0x23bc4>
4000a1a8:	40 00 a5 48 	call  400336c8 <__bss_end+0x23bc8>
4000a1ac:	40 00 b9 04 	call  400385bc <__bss_end+0x28abc>
4000a1b0:	40 00 a5 48 	call  400336d0 <__bss_end+0x23bd0>
4000a1b4:	40 00 a6 c8 	call  40033cd4 <__bss_end+0x241d4>

4000a1b8 <__sprint_r>:
4000a1b8:	9d e3 bf a0 	save  %sp, -96, %sp
4000a1bc:	c2 06 a0 08 	ld  [ %i2 + 8 ], %g1
4000a1c0:	80 a0 60 00 	cmp  %g1, 0
4000a1c4:	02 80 00 2d 	be  4000a278 <__sprint_r+0xc0>
4000a1c8:	05 00 00 08 	sethi  %hi(0x2000), %g2
4000a1cc:	c6 06 60 60 	ld  [ %i1 + 0x60 ], %g3
4000a1d0:	80 88 c0 02 	btst  %g3, %g2
4000a1d4:	02 80 00 1a 	be  4000a23c <__sprint_r+0x84>
4000a1d8:	94 10 00 1a 	mov  %i2, %o2
4000a1dc:	e0 06 80 00 	ld  [ %i2 ], %l0
4000a1e0:	e2 04 20 04 	ld  [ %l0 + 4 ], %l1
4000a1e4:	b9 34 60 02 	srl  %l1, 2, %i4
4000a1e8:	80 a7 20 00 	cmp  %i4, 0
4000a1ec:	02 80 00 1b 	be  4000a258 <__sprint_r+0xa0>
4000a1f0:	f6 04 00 00 	ld  [ %l0 ], %i3
4000a1f4:	10 80 00 05 	b  4000a208 <__sprint_r+0x50>
4000a1f8:	ba 10 20 00 	clr  %i5
4000a1fc:	80 a7 00 1d 	cmp  %i4, %i5
4000a200:	22 80 00 16 	be,a   4000a258 <__sprint_r+0xa0>
4000a204:	c2 06 a0 08 	ld  [ %i2 + 8 ], %g1
4000a208:	83 2f 60 02 	sll  %i5, 2, %g1
4000a20c:	94 10 00 19 	mov  %i1, %o2
4000a210:	d2 06 c0 01 	ld  [ %i3 + %g1 ], %o1
4000a214:	40 00 08 4f 	call  4000c350 <_fputwc_r>
4000a218:	90 10 00 18 	mov  %i0, %o0
4000a21c:	80 a2 3f ff 	cmp  %o0, -1
4000a220:	32 bf ff f7 	bne,a   4000a1fc <__sprint_r+0x44>
4000a224:	ba 07 60 01 	inc  %i5
4000a228:	b0 10 3f ff 	mov  -1, %i0
4000a22c:	c0 26 a0 08 	clr  [ %i2 + 8 ]
4000a230:	c0 26 a0 04 	clr  [ %i2 + 4 ]
4000a234:	81 c7 e0 08 	ret 
4000a238:	81 e8 00 00 	restore 
4000a23c:	92 10 00 19 	mov  %i1, %o1
4000a240:	40 00 08 90 	call  4000c480 <__sfvwrite_r>
4000a244:	90 10 00 18 	mov  %i0, %o0
4000a248:	c0 26 a0 08 	clr  [ %i2 + 8 ]
4000a24c:	c0 26 a0 04 	clr  [ %i2 + 4 ]
4000a250:	81 c7 e0 08 	ret 
4000a254:	91 e8 00 08 	restore  %g0, %o0, %o0
4000a258:	a2 0c 7f fc 	and  %l1, -4, %l1
4000a25c:	82 20 40 11 	sub  %g1, %l1, %g1
4000a260:	c2 26 a0 08 	st  %g1, [ %i2 + 8 ]
4000a264:	80 a0 60 00 	cmp  %g1, 0
4000a268:	12 bf ff de 	bne  4000a1e0 <__sprint_r+0x28>
4000a26c:	a0 04 20 08 	add  %l0, 8, %l0
4000a270:	10 bf ff ef 	b  4000a22c <__sprint_r+0x74>
4000a274:	b0 10 20 00 	clr  %i0
4000a278:	c0 26 a0 04 	clr  [ %i2 + 4 ]
4000a27c:	81 c7 e0 08 	ret 
4000a280:	91 e8 20 00 	restore  %g0, 0, %o0

4000a284 <_vfiprintf_r>:
4000a284:	9d e3 be 78 	save  %sp, -392, %sp
4000a288:	f6 27 bf 04 	st  %i3, [ %fp + -252 ]
4000a28c:	a4 10 00 18 	mov  %i0, %l2
4000a290:	aa 10 00 19 	mov  %i1, %l5
4000a294:	80 a6 20 00 	cmp  %i0, 0
4000a298:	02 80 00 06 	be  4000a2b0 <_vfiprintf_r+0x2c>
4000a29c:	a2 10 00 1a 	mov  %i2, %l1
4000a2a0:	c2 06 20 18 	ld  [ %i0 + 0x18 ], %g1
4000a2a4:	80 a0 60 00 	cmp  %g1, 0
4000a2a8:	02 80 00 7a 	be  4000a490 <_vfiprintf_r+0x20c>
4000a2ac:	01 00 00 00 	nop 
4000a2b0:	03 10 00 3b 	sethi  %hi(0x4000ec00), %g1
4000a2b4:	82 10 62 20 	or  %g1, 0x220, %g1	! 4000ee20 <__sf_fake_stdin>
4000a2b8:	80 a5 40 01 	cmp  %l5, %g1
4000a2bc:	22 80 00 0b 	be,a   4000a2e8 <_vfiprintf_r+0x64>
4000a2c0:	ea 04 a0 04 	ld  [ %l2 + 4 ], %l5
4000a2c4:	03 10 00 3b 	sethi  %hi(0x4000ec00), %g1
4000a2c8:	82 10 62 00 	or  %g1, 0x200, %g1	! 4000ee00 <__sf_fake_stdout>
4000a2cc:	80 a5 40 01 	cmp  %l5, %g1
4000a2d0:	02 80 00 79 	be  4000a4b4 <_vfiprintf_r+0x230>
4000a2d4:	03 10 00 3b 	sethi  %hi(0x4000ec00), %g1
4000a2d8:	82 10 61 e0 	or  %g1, 0x1e0, %g1	! 4000ede0 <__sf_fake_stderr>
4000a2dc:	80 a5 40 01 	cmp  %l5, %g1
4000a2e0:	22 80 00 02 	be,a   4000a2e8 <_vfiprintf_r+0x64>
4000a2e4:	ea 04 a0 0c 	ld  [ %l2 + 0xc ], %l5
4000a2e8:	c2 15 60 0c 	lduh  [ %l5 + 0xc ], %g1
4000a2ec:	05 00 00 08 	sethi  %hi(0x2000), %g2
4000a2f0:	80 88 80 01 	btst  %g2, %g1
4000a2f4:	12 80 00 08 	bne  4000a314 <_vfiprintf_r+0x90>
4000a2f8:	80 88 60 08 	btst  8, %g1
4000a2fc:	82 10 40 02 	or  %g1, %g2, %g1
4000a300:	c6 05 60 60 	ld  [ %l5 + 0x60 ], %g3
4000a304:	c2 35 60 0c 	sth  %g1, [ %l5 + 0xc ]
4000a308:	84 28 c0 02 	andn  %g3, %g2, %g2
4000a30c:	c4 25 60 60 	st  %g2, [ %l5 + 0x60 ]
4000a310:	80 88 60 08 	btst  8, %g1
4000a314:	02 80 04 8c 	be  4000b544 <_vfiprintf_r+0x12c0>
4000a318:	92 10 00 15 	mov  %l5, %o1
4000a31c:	c4 05 60 10 	ld  [ %l5 + 0x10 ], %g2
4000a320:	80 a0 a0 00 	cmp  %g2, 0
4000a324:	02 80 04 88 	be  4000b544 <_vfiprintf_r+0x12c0>
4000a328:	82 08 60 1a 	and  %g1, 0x1a, %g1
4000a32c:	80 a0 60 0a 	cmp  %g1, 0xa
4000a330:	22 80 04 90 	be,a   4000b570 <_vfiprintf_r+0x12ec>
4000a334:	c2 55 60 0e 	ldsh  [ %l5 + 0xe ], %g1
4000a338:	82 07 bf 58 	add  %fp, -168, %g1
4000a33c:	c2 27 bf 4c 	st  %g1, [ %fp + -180 ]
4000a340:	b2 10 00 01 	mov  %g1, %i1
4000a344:	03 10 00 28 	sethi  %hi(0x4000a000), %g1
4000a348:	82 10 60 4c 	or  %g1, 0x4c, %g1	! 4000a04c <strncpy+0x1ac>
4000a34c:	c2 27 be f0 	st  %g1, [ %fp + -272 ]
4000a350:	03 10 00 3b 	sethi  %hi(0x4000ec00), %g1
4000a354:	82 10 63 80 	or  %g1, 0x380, %g1	! 4000ef80 <blanks.1>
4000a358:	c2 27 bf 10 	st  %g1, [ %fp + -240 ]
4000a35c:	03 10 00 3b 	sethi  %hi(0x4000ec00), %g1
4000a360:	82 10 63 70 	or  %g1, 0x370, %g1	! 4000ef70 <zeroes.0>
4000a364:	c0 27 bf 54 	clr  [ %fp + -172 ]
4000a368:	c2 27 bf 14 	st  %g1, [ %fp + -236 ]
4000a36c:	c0 27 bf 50 	clr  [ %fp + -176 ]
4000a370:	03 10 00 3b 	sethi  %hi(0x4000ec00), %g1
4000a374:	c0 27 be ec 	clr  [ %fp + -276 ]
4000a378:	82 10 60 f8 	or  %g1, 0xf8, %g1
4000a37c:	c0 27 be e8 	clr  [ %fp + -280 ]
4000a380:	c0 27 be dc 	clr  [ %fp + -292 ]
4000a384:	c0 27 be e0 	clr  [ %fp + -288 ]
4000a388:	c0 27 bf 08 	clr  [ %fp + -248 ]
4000a38c:	c2 27 be e4 	st  %g1, [ %fp + -284 ]
4000a390:	c2 0c 40 00 	ldub  [ %l1 ], %g1
4000a394:	83 28 60 18 	sll  %g1, 0x18, %g1
4000a398:	85 38 60 18 	sra  %g1, 0x18, %g2
4000a39c:	80 a0 a0 25 	cmp  %g2, 0x25
4000a3a0:	02 80 00 55 	be  4000a4f4 <_vfiprintf_r+0x270>
4000a3a4:	ba 10 00 11 	mov  %l1, %i5
4000a3a8:	80 a0 a0 00 	cmp  %g2, 0
4000a3ac:	02 80 00 53 	be  4000a4f8 <_vfiprintf_r+0x274>
4000a3b0:	80 a0 60 00 	cmp  %g1, 0
4000a3b4:	b8 10 00 1d 	mov  %i5, %i4
4000a3b8:	ba 07 60 01 	inc  %i5
4000a3bc:	c2 0f 40 00 	ldub  [ %i5 ], %g1
4000a3c0:	83 28 60 18 	sll  %g1, 0x18, %g1
4000a3c4:	80 a0 60 00 	cmp  %g1, 0
4000a3c8:	02 80 00 05 	be  4000a3dc <_vfiprintf_r+0x158>
4000a3cc:	85 38 60 18 	sra  %g1, 0x18, %g2
4000a3d0:	80 a0 a0 25 	cmp  %g2, 0x25
4000a3d4:	32 bf ff f9 	bne,a   4000a3b8 <_vfiprintf_r+0x134>
4000a3d8:	b8 10 00 1d 	mov  %i5, %i4
4000a3dc:	b6 a7 40 11 	subcc  %i5, %l1, %i3
4000a3e0:	02 80 00 45 	be  4000a4f4 <_vfiprintf_r+0x270>
4000a3e4:	c4 07 bf 50 	ld  [ %fp + -176 ], %g2
4000a3e8:	c2 07 bf 54 	ld  [ %fp + -172 ], %g1
4000a3ec:	82 06 c0 01 	add  %i3, %g1, %g1
4000a3f0:	84 00 a0 01 	inc  %g2
4000a3f4:	e2 26 40 00 	st  %l1, [ %i1 ]
4000a3f8:	f6 26 60 04 	st  %i3, [ %i1 + 4 ]
4000a3fc:	c2 27 bf 54 	st  %g1, [ %fp + -172 ]
4000a400:	c4 27 bf 50 	st  %g2, [ %fp + -176 ]
4000a404:	80 a0 a0 07 	cmp  %g2, 7
4000a408:	04 80 00 36 	ble  4000a4e0 <_vfiprintf_r+0x25c>
4000a40c:	b2 06 60 08 	add  %i1, 8, %i1
4000a410:	80 a0 60 00 	cmp  %g1, 0
4000a414:	02 80 04 96 	be  4000b66c <_vfiprintf_r+0x13e8>
4000a418:	05 00 00 08 	sethi  %hi(0x2000), %g2
4000a41c:	c6 05 60 60 	ld  [ %l5 + 0x60 ], %g3
4000a420:	80 88 c0 02 	btst  %g3, %g2
4000a424:	02 80 00 26 	be  4000a4bc <_vfiprintf_r+0x238>
4000a428:	f0 07 bf 4c 	ld  [ %fp + -180 ], %i0
4000a42c:	e2 06 20 04 	ld  [ %i0 + 4 ], %l1
4000a430:	b3 34 60 02 	srl  %l1, 2, %i1
4000a434:	80 a6 60 00 	cmp  %i1, 0
4000a438:	02 80 04 87 	be  4000b654 <_vfiprintf_r+0x13d0>
4000a43c:	e0 06 00 00 	ld  [ %i0 ], %l0
4000a440:	10 80 00 05 	b  4000a454 <_vfiprintf_r+0x1d0>
4000a444:	b4 10 20 00 	clr  %i2
4000a448:	80 a6 40 1a 	cmp  %i1, %i2
4000a44c:	02 80 04 82 	be  4000b654 <_vfiprintf_r+0x13d0>
4000a450:	c2 07 bf 54 	ld  [ %fp + -172 ], %g1
4000a454:	83 2e a0 02 	sll  %i2, 2, %g1
4000a458:	94 10 00 15 	mov  %l5, %o2
4000a45c:	d2 04 00 01 	ld  [ %l0 + %g1 ], %o1
4000a460:	40 00 07 bc 	call  4000c350 <_fputwc_r>
4000a464:	90 10 00 12 	mov  %l2, %o0
4000a468:	80 a2 3f ff 	cmp  %o0, -1
4000a46c:	32 bf ff f7 	bne,a   4000a448 <_vfiprintf_r+0x1c4>
4000a470:	b4 06 a0 01 	inc  %i2
4000a474:	c2 15 60 0c 	lduh  [ %l5 + 0xc ], %g1
4000a478:	80 88 60 40 	btst  0x40, %g1
4000a47c:	12 80 06 3c 	bne  4000bd6c <_vfiprintf_r+0x1ae8>
4000a480:	82 10 3f ff 	mov  -1, %g1
4000a484:	f0 07 bf 08 	ld  [ %fp + -248 ], %i0
4000a488:	81 c7 e0 08 	ret 
4000a48c:	81 e8 00 00 	restore 
4000a490:	7f ff f3 c2 	call  40007398 <__sinit>
4000a494:	90 10 00 18 	mov  %i0, %o0
4000a498:	03 10 00 3b 	sethi  %hi(0x4000ec00), %g1
4000a49c:	82 10 62 20 	or  %g1, 0x220, %g1	! 4000ee20 <__sf_fake_stdin>
4000a4a0:	80 a5 40 01 	cmp  %l5, %g1
4000a4a4:	12 bf ff 89 	bne  4000a2c8 <_vfiprintf_r+0x44>
4000a4a8:	03 10 00 3b 	sethi  %hi(0x4000ec00), %g1
4000a4ac:	10 bf ff 8f 	b  4000a2e8 <_vfiprintf_r+0x64>
4000a4b0:	ea 04 a0 04 	ld  [ %l2 + 4 ], %l5
4000a4b4:	10 bf ff 8d 	b  4000a2e8 <_vfiprintf_r+0x64>
4000a4b8:	ea 04 a0 08 	ld  [ %l2 + 8 ], %l5
4000a4bc:	94 07 bf 4c 	add  %fp, -180, %o2
4000a4c0:	92 10 00 15 	mov  %l5, %o1
4000a4c4:	40 00 07 ef 	call  4000c480 <__sfvwrite_r>
4000a4c8:	90 10 00 12 	mov  %l2, %o0
4000a4cc:	c0 27 bf 54 	clr  [ %fp + -172 ]
4000a4d0:	80 a2 20 00 	cmp  %o0, 0
4000a4d4:	12 bf ff e8 	bne  4000a474 <_vfiprintf_r+0x1f0>
4000a4d8:	c0 27 bf 50 	clr  [ %fp + -176 ]
4000a4dc:	b2 07 bf 58 	add  %fp, -168, %i1
4000a4e0:	c4 07 bf 08 	ld  [ %fp + -248 ], %g2
4000a4e4:	c2 0f 20 01 	ldub  [ %i4 + 1 ], %g1
4000a4e8:	84 00 80 1b 	add  %g2, %i3, %g2
4000a4ec:	83 28 60 18 	sll  %g1, 0x18, %g1
4000a4f0:	c4 27 bf 08 	st  %g2, [ %fp + -248 ]
4000a4f4:	80 a0 60 00 	cmp  %g1, 0
4000a4f8:	02 80 05 96 	be  4000bb50 <_vfiprintf_r+0x18cc>
4000a4fc:	a2 07 60 01 	add  %i5, 1, %l1
4000a500:	c2 0f 60 01 	ldub  [ %i5 + 1 ], %g1
4000a504:	c0 2f bf 1f 	clrb  [ %fp + -225 ]
4000a508:	b6 10 3f ff 	mov  -1, %i3
4000a50c:	b4 10 20 00 	clr  %i2
4000a510:	a0 10 20 00 	clr  %l0
4000a514:	83 28 60 18 	sll  %g1, 0x18, %g1
4000a518:	ba 10 20 2b 	mov  0x2b, %i5
4000a51c:	b8 10 20 20 	mov  0x20, %i4
4000a520:	a2 04 60 01 	inc  %l1
4000a524:	83 38 60 18 	sra  %g1, 0x18, %g1
4000a528:	84 00 7f e0 	add  %g1, -32, %g2
4000a52c:	80 a0 a0 5a 	cmp  %g2, 0x5a
4000a530:	18 80 00 06 	bgu  4000a548 <_vfiprintf_r+0x2c4>
4000a534:	85 28 a0 02 	sll  %g2, 2, %g2
4000a538:	c6 07 be f0 	ld  [ %fp + -272 ], %g3
4000a53c:	c4 00 c0 02 	ld  [ %g3 + %g2 ], %g2
4000a540:	81 c0 80 00 	jmp  %g2
4000a544:	01 00 00 00 	nop 
4000a548:	80 a0 60 00 	cmp  %g1, 0
4000a54c:	02 80 05 81 	be  4000bb50 <_vfiprintf_r+0x18cc>
4000a550:	a8 10 20 01 	mov  1, %l4
4000a554:	c2 2f bf 98 	stb  %g1, [ %fp + -104 ]
4000a558:	c0 2f bf 1f 	clrb  [ %fp + -225 ]
4000a55c:	82 10 20 01 	mov  1, %g1
4000a560:	c2 27 bf 0c 	st  %g1, [ %fp + -244 ]
4000a564:	b0 07 bf 98 	add  %fp, -104, %i0
4000a568:	b6 10 20 00 	clr  %i3
4000a56c:	82 8c 20 02 	andcc  %l0, 2, %g1
4000a570:	02 80 00 03 	be  4000a57c <_vfiprintf_r+0x2f8>
4000a574:	c2 27 be f4 	st  %g1, [ %fp + -268 ]
4000a578:	a8 05 20 02 	add  %l4, 2, %l4
4000a57c:	84 8c 20 84 	andcc  %l0, 0x84, %g2
4000a580:	c4 27 bf 00 	st  %g2, [ %fp + -256 ]
4000a584:	d0 07 bf 50 	ld  [ %fp + -176 ], %o0
4000a588:	c2 07 bf 54 	ld  [ %fp + -172 ], %g1
4000a58c:	86 02 20 01 	add  %o0, 1, %g3
4000a590:	12 80 00 06 	bne  4000a5a8 <_vfiprintf_r+0x324>
4000a594:	84 10 00 03 	mov  %g3, %g2
4000a598:	a6 26 80 14 	sub  %i2, %l4, %l3
4000a59c:	80 a4 e0 00 	cmp  %l3, 0
4000a5a0:	14 80 02 fc 	bg  4000b190 <_vfiprintf_r+0xf0c>
4000a5a4:	80 a4 e0 10 	cmp  %l3, 0x10
4000a5a8:	c8 4f bf 1f 	ldsb  [ %fp + -225 ], %g4
4000a5ac:	80 a1 20 00 	cmp  %g4, 0
4000a5b0:	02 80 01 41 	be  4000aab4 <_vfiprintf_r+0x830>
4000a5b4:	86 06 60 08 	add  %i1, 8, %g3
4000a5b8:	88 07 bf 1f 	add  %fp, -225, %g4
4000a5bc:	82 00 60 01 	inc  %g1
4000a5c0:	c8 26 40 00 	st  %g4, [ %i1 ]
4000a5c4:	c2 27 bf 54 	st  %g1, [ %fp + -172 ]
4000a5c8:	88 10 20 01 	mov  1, %g4
4000a5cc:	c4 27 bf 50 	st  %g2, [ %fp + -176 ]
4000a5d0:	80 a0 a0 07 	cmp  %g2, 7
4000a5d4:	04 80 01 34 	ble  4000aaa4 <_vfiprintf_r+0x820>
4000a5d8:	c8 26 60 04 	st  %g4, [ %i1 + 4 ]
4000a5dc:	80 a0 60 00 	cmp  %g1, 0
4000a5e0:	02 80 02 db 	be  4000b14c <_vfiprintf_r+0xec8>
4000a5e4:	05 00 00 08 	sethi  %hi(0x2000), %g2
4000a5e8:	c6 05 60 60 	ld  [ %l5 + 0x60 ], %g3
4000a5ec:	80 88 c0 02 	btst  %g3, %g2
4000a5f0:	02 80 02 cf 	be  4000b12c <_vfiprintf_r+0xea8>
4000a5f4:	f2 07 bf 4c 	ld  [ %fp + -180 ], %i1
4000a5f8:	ec 06 60 04 	ld  [ %i1 + 4 ], %l6
4000a5fc:	b9 35 a0 02 	srl  %l6, 2, %i4
4000a600:	80 a7 20 00 	cmp  %i4, 0
4000a604:	02 80 04 22 	be  4000b68c <_vfiprintf_r+0x1408>
4000a608:	e6 06 40 00 	ld  [ %i1 ], %l3
4000a60c:	10 80 00 05 	b  4000a620 <_vfiprintf_r+0x39c>
4000a610:	ba 10 20 00 	clr  %i5
4000a614:	80 a7 00 1d 	cmp  %i4, %i5
4000a618:	02 80 04 1d 	be  4000b68c <_vfiprintf_r+0x1408>
4000a61c:	c2 07 bf 54 	ld  [ %fp + -172 ], %g1
4000a620:	83 2f 60 02 	sll  %i5, 2, %g1
4000a624:	94 10 00 15 	mov  %l5, %o2
4000a628:	d2 04 c0 01 	ld  [ %l3 + %g1 ], %o1
4000a62c:	40 00 07 49 	call  4000c350 <_fputwc_r>
4000a630:	90 10 00 12 	mov  %l2, %o0
4000a634:	80 a2 3f ff 	cmp  %o0, -1
4000a638:	32 bf ff f7 	bne,a   4000a614 <_vfiprintf_r+0x390>
4000a63c:	ba 07 60 01 	inc  %i5
4000a640:	10 bf ff 8e 	b  4000a478 <_vfiprintf_r+0x1f4>
4000a644:	c2 15 60 0c 	lduh  [ %l5 + 0xc ], %g1
4000a648:	b4 10 20 00 	clr  %i2
4000a64c:	84 00 7f d0 	add  %g1, -48, %g2
4000a650:	83 2e a0 02 	sll  %i2, 2, %g1
4000a654:	a2 04 60 01 	inc  %l1
4000a658:	b4 00 40 1a 	add  %g1, %i2, %i2
4000a65c:	c2 4c 7f ff 	ldsb  [ %l1 + -1 ], %g1
4000a660:	b5 2e a0 01 	sll  %i2, 1, %i2
4000a664:	b4 00 80 1a 	add  %g2, %i2, %i2
4000a668:	84 00 7f d0 	add  %g1, -48, %g2
4000a66c:	80 a0 a0 09 	cmp  %g2, 9
4000a670:	28 bf ff f9 	bleu,a   4000a654 <_vfiprintf_r+0x3d0>
4000a674:	83 2e a0 02 	sll  %i2, 2, %g1
4000a678:	10 bf ff ad 	b  4000a52c <_vfiprintf_r+0x2a8>
4000a67c:	84 00 7f e0 	add  %g1, -32, %g2
4000a680:	7f ff f4 88 	call  400078a0 <_localeconv_r>
4000a684:	90 10 00 12 	mov  %l2, %o0
4000a688:	c2 02 20 04 	ld  [ %o0 + 4 ], %g1
4000a68c:	c2 27 be e0 	st  %g1, [ %fp + -288 ]
4000a690:	7f ff fd d9 	call  40009df4 <strlen>
4000a694:	90 10 00 01 	mov  %g1, %o0
4000a698:	82 10 00 08 	mov  %o0, %g1
4000a69c:	90 10 00 12 	mov  %l2, %o0
4000a6a0:	b0 10 00 01 	mov  %g1, %i0
4000a6a4:	7f ff f4 7f 	call  400078a0 <_localeconv_r>
4000a6a8:	c2 27 be dc 	st  %g1, [ %fp + -292 ]
4000a6ac:	82 96 20 00 	orcc  %i0, 0, %g1
4000a6b0:	c2 02 20 08 	ld  [ %o0 + 8 ], %g1
4000a6b4:	02 80 00 05 	be  4000a6c8 <_vfiprintf_r+0x444>
4000a6b8:	c2 27 be e8 	st  %g1, [ %fp + -280 ]
4000a6bc:	80 a0 60 00 	cmp  %g1, 0
4000a6c0:	32 80 04 83 	bne,a   4000b8cc <_vfiprintf_r+0x1648>
4000a6c4:	c6 48 40 00 	ldsb  [ %g1 ], %g3
4000a6c8:	c4 0c 40 00 	ldub  [ %l1 ], %g2
4000a6cc:	10 bf ff 95 	b  4000a520 <_vfiprintf_r+0x29c>
4000a6d0:	83 28 a0 18 	sll  %g2, 0x18, %g1
4000a6d4:	c4 0c 40 00 	ldub  [ %l1 ], %g2
4000a6d8:	a0 14 20 20 	or  %l0, 0x20, %l0
4000a6dc:	10 bf ff 91 	b  4000a520 <_vfiprintf_r+0x29c>
4000a6e0:	83 28 a0 18 	sll  %g2, 0x18, %g1
4000a6e4:	a0 14 20 10 	or  %l0, 0x10, %l0
4000a6e8:	80 8c 20 20 	btst  0x20, %l0
4000a6ec:	02 80 04 13 	be  4000b738 <_vfiprintf_r+0x14b4>
4000a6f0:	c4 07 bf 04 	ld  [ %fp + -252 ], %g2
4000a6f4:	c2 07 bf 04 	ld  [ %fp + -252 ], %g1
4000a6f8:	92 10 00 01 	mov  %g1, %o1
4000a6fc:	82 00 60 08 	add  %g1, 8, %g1
4000a700:	94 10 20 08 	mov  8, %o2
4000a704:	c2 27 bf 04 	st  %g1, [ %fp + -252 ]
4000a708:	7f ff de c2 	call  40002210 <memcpy>
4000a70c:	90 07 bf 28 	add  %fp, -216, %o0
4000a710:	c2 07 bf 28 	ld  [ %fp + -216 ], %g1
4000a714:	c4 07 bf 2c 	ld  [ %fp + -212 ], %g2
4000a718:	c2 27 be f8 	st  %g1, [ %fp + -264 ]
4000a71c:	c4 27 be fc 	st  %g2, [ %fp + -260 ]
4000a720:	80 a0 60 00 	cmp  %g1, 0
4000a724:	06 80 04 1f 	bl  4000b7a0 <_vfiprintf_r+0x151c>
4000a728:	f8 1f be f8 	ldd  [ %fp + -264 ], %i4
4000a72c:	80 a6 ff ff 	cmp  %i3, -1
4000a730:	02 80 03 98 	be  4000b590 <_vfiprintf_r+0x130c>
4000a734:	80 a6 e0 00 	cmp  %i3, 0
4000a738:	12 80 03 96 	bne  4000b590 <_vfiprintf_r+0x130c>
4000a73c:	a0 0c 3f 7f 	and  %l0, -129, %l0
4000a740:	c4 1f be f8 	ldd  [ %fp + -264 ], %g2
4000a744:	82 10 00 02 	mov  %g2, %g1
4000a748:	80 90 40 03 	orcc  %g1, %g3, %g0
4000a74c:	12 80 03 93 	bne  4000b598 <_vfiprintf_r+0x1314>
4000a750:	ba 10 00 10 	mov  %l0, %i5
4000a754:	c0 27 bf 0c 	clr  [ %fp + -244 ]
4000a758:	b0 07 bf fc 	add  %fp, -4, %i0
4000a75c:	c2 07 bf 0c 	ld  [ %fp + -244 ], %g1
4000a760:	80 a6 c0 01 	cmp  %i3, %g1
4000a764:	16 80 00 03 	bge  4000a770 <_vfiprintf_r+0x4ec>
4000a768:	a8 10 00 1b 	mov  %i3, %l4
4000a76c:	a8 10 00 01 	mov  %g1, %l4
4000a770:	c2 4f bf 1f 	ldsb  [ %fp + -225 ], %g1
4000a774:	80 a0 00 01 	cmp  %g0, %g1
4000a778:	10 bf ff 7d 	b  4000a56c <_vfiprintf_r+0x2e8>
4000a77c:	a8 40 00 14 	addx  %g0, %l4, %l4
4000a780:	c4 07 bf 04 	ld  [ %fp + -252 ], %g2
4000a784:	c2 00 80 00 	ld  [ %g2 ], %g1
4000a788:	c0 2f bf 1f 	clrb  [ %fp + -225 ]
4000a78c:	84 00 a0 04 	add  %g2, 4, %g2
4000a790:	c2 2f bf 98 	stb  %g1, [ %fp + -104 ]
4000a794:	c4 27 bf 04 	st  %g2, [ %fp + -252 ]
4000a798:	82 10 20 01 	mov  1, %g1
4000a79c:	a8 10 20 01 	mov  1, %l4
4000a7a0:	c2 27 bf 0c 	st  %g1, [ %fp + -244 ]
4000a7a4:	10 bf ff 71 	b  4000a568 <_vfiprintf_r+0x2e4>
4000a7a8:	b0 07 bf 98 	add  %fp, -104, %i0
4000a7ac:	c2 07 bf 04 	ld  [ %fp + -252 ], %g1
4000a7b0:	c0 2f bf 1f 	clrb  [ %fp + -225 ]
4000a7b4:	f0 00 40 00 	ld  [ %g1 ], %i0
4000a7b8:	82 00 60 04 	add  %g1, 4, %g1
4000a7bc:	80 a6 20 00 	cmp  %i0, 0
4000a7c0:	02 80 04 c6 	be  4000bad8 <_vfiprintf_r+0x1854>
4000a7c4:	c2 27 bf 04 	st  %g1, [ %fp + -252 ]
4000a7c8:	80 a6 ff ff 	cmp  %i3, -1
4000a7cc:	02 80 04 7f 	be  4000b9c8 <_vfiprintf_r+0x1744>
4000a7d0:	94 10 00 1b 	mov  %i3, %o2
4000a7d4:	92 10 20 00 	clr  %o1
4000a7d8:	7f ff f6 c3 	call  400082e4 <memchr>
4000a7dc:	90 10 00 18 	mov  %i0, %o0
4000a7e0:	80 a2 20 00 	cmp  %o0, 0
4000a7e4:	02 80 05 5d 	be  4000bd58 <_vfiprintf_r+0x1ad4>
4000a7e8:	82 22 00 18 	sub  %o0, %i0, %g1
4000a7ec:	b6 10 20 00 	clr  %i3
4000a7f0:	10 bf ff db 	b  4000a75c <_vfiprintf_r+0x4d8>
4000a7f4:	c2 27 bf 0c 	st  %g1, [ %fp + -244 ]
4000a7f8:	a0 14 20 10 	or  %l0, 0x10, %l0
4000a7fc:	80 8c 20 20 	btst  0x20, %l0
4000a800:	02 80 03 b6 	be  4000b6d8 <_vfiprintf_r+0x1454>
4000a804:	c4 07 bf 04 	ld  [ %fp + -252 ], %g2
4000a808:	c2 07 bf 04 	ld  [ %fp + -252 ], %g1
4000a80c:	92 10 00 01 	mov  %g1, %o1
4000a810:	82 00 60 08 	add  %g1, 8, %g1
4000a814:	94 10 20 08 	mov  8, %o2
4000a818:	c2 27 bf 04 	st  %g1, [ %fp + -252 ]
4000a81c:	7f ff de 7d 	call  40002210 <memcpy>
4000a820:	90 07 bf 30 	add  %fp, -208, %o0
4000a824:	c4 1f bf 30 	ldd  [ %fp + -208 ], %g2
4000a828:	ba 0c 3b ff 	and  %l0, -1025, %i5
4000a82c:	c4 3f be f8 	std  %g2, [ %fp + -264 ]
4000a830:	82 10 20 00 	clr  %g1
4000a834:	c0 2f bf 1f 	clrb  [ %fp + -225 ]
4000a838:	80 a6 ff ff 	cmp  %i3, -1
4000a83c:	02 80 01 4c 	be  4000ad6c <_vfiprintf_r+0xae8>
4000a840:	c4 1f be f8 	ldd  [ %fp + -264 ], %g2
4000a844:	88 10 00 02 	mov  %g2, %g4
4000a848:	80 91 00 03 	orcc  %g4, %g3, %g0
4000a84c:	12 80 01 47 	bne  4000ad68 <_vfiprintf_r+0xae4>
4000a850:	a0 0f 7f 7f 	and  %i5, -129, %l0
4000a854:	80 a6 e0 00 	cmp  %i3, 0
4000a858:	12 80 01 44 	bne  4000ad68 <_vfiprintf_r+0xae4>
4000a85c:	80 88 60 ff 	btst  0xff, %g1
4000a860:	12 bf ff bd 	bne  4000a754 <_vfiprintf_r+0x4d0>
4000a864:	b6 10 20 00 	clr  %i3
4000a868:	82 8f 60 01 	andcc  %i5, 1, %g1
4000a86c:	02 bf ff bb 	be  4000a758 <_vfiprintf_r+0x4d4>
4000a870:	c2 27 bf 0c 	st  %g1, [ %fp + -244 ]
4000a874:	82 10 20 30 	mov  0x30, %g1
4000a878:	b0 07 bf fb 	add  %fp, -5, %i0
4000a87c:	10 bf ff b8 	b  4000a75c <_vfiprintf_r+0x4d8>
4000a880:	c2 2f bf fb 	stb  %g1, [ %fp + -5 ]
4000a884:	c4 07 bf 04 	ld  [ %fp + -252 ], %g2
4000a888:	c2 00 80 00 	ld  [ %g2 ], %g1
4000a88c:	84 00 a0 04 	add  %g2, 4, %g2
4000a890:	80 8c 20 20 	btst  0x20, %l0
4000a894:	12 80 04 09 	bne  4000b8b8 <_vfiprintf_r+0x1634>
4000a898:	c4 27 bf 04 	st  %g2, [ %fp + -252 ]
4000a89c:	80 8c 20 10 	btst  0x10, %l0
4000a8a0:	12 80 04 a2 	bne  4000bb28 <_vfiprintf_r+0x18a4>
4000a8a4:	c4 07 bf 08 	ld  [ %fp + -248 ], %g2
4000a8a8:	80 8c 20 40 	btst  0x40, %l0
4000a8ac:	32 bf fe b9 	bne,a   4000a390 <_vfiprintf_r+0x10c>
4000a8b0:	c4 30 40 00 	sth  %g2, [ %g1 ]
4000a8b4:	80 8c 22 00 	btst  0x200, %l0
4000a8b8:	22 bf fe b6 	be,a   4000a390 <_vfiprintf_r+0x10c>
4000a8bc:	c4 20 40 00 	st  %g2, [ %g1 ]
4000a8c0:	c4 07 bf 08 	ld  [ %fp + -248 ], %g2
4000a8c4:	10 bf fe b3 	b  4000a390 <_vfiprintf_r+0x10c>
4000a8c8:	c4 28 40 00 	stb  %g2, [ %g1 ]
4000a8cc:	c4 0c 40 00 	ldub  [ %l1 ], %g2
4000a8d0:	a0 14 20 80 	or  %l0, 0x80, %l0
4000a8d4:	10 bf ff 13 	b  4000a520 <_vfiprintf_r+0x29c>
4000a8d8:	83 28 a0 18 	sll  %g2, 0x18, %g1
4000a8dc:	c2 4c 40 00 	ldsb  [ %l1 ], %g1
4000a8e0:	80 a0 60 2a 	cmp  %g1, 0x2a
4000a8e4:	02 80 05 33 	be  4000bdb0 <_vfiprintf_r+0x1b2c>
4000a8e8:	86 04 60 01 	add  %l1, 1, %g3
4000a8ec:	84 00 7f d0 	add  %g1, -48, %g2
4000a8f0:	a2 10 00 03 	mov  %g3, %l1
4000a8f4:	80 a0 a0 09 	cmp  %g2, 9
4000a8f8:	18 bf ff 0c 	bgu  4000a528 <_vfiprintf_r+0x2a4>
4000a8fc:	b6 10 20 00 	clr  %i3
4000a900:	83 2e e0 02 	sll  %i3, 2, %g1
4000a904:	a2 04 60 01 	inc  %l1
4000a908:	b6 00 40 1b 	add  %g1, %i3, %i3
4000a90c:	c2 4c 7f ff 	ldsb  [ %l1 + -1 ], %g1
4000a910:	b7 2e e0 01 	sll  %i3, 1, %i3
4000a914:	b6 06 c0 02 	add  %i3, %g2, %i3
4000a918:	84 00 7f d0 	add  %g1, -48, %g2
4000a91c:	80 a0 a0 09 	cmp  %g2, 9
4000a920:	28 bf ff f9 	bleu,a   4000a904 <_vfiprintf_r+0x680>
4000a924:	83 2e e0 02 	sll  %i3, 2, %g1
4000a928:	10 bf ff 01 	b  4000a52c <_vfiprintf_r+0x2a8>
4000a92c:	84 00 7f e0 	add  %g1, -32, %g2
4000a930:	c4 0c 40 00 	ldub  [ %l1 ], %g2
4000a934:	a0 14 20 04 	or  %l0, 4, %l0
4000a938:	10 bf fe fa 	b  4000a520 <_vfiprintf_r+0x29c>
4000a93c:	83 28 a0 18 	sll  %g2, 0x18, %g1
4000a940:	c4 0c 40 00 	ldub  [ %l1 ], %g2
4000a944:	fa 2f bf 1f 	stb  %i5, [ %fp + -225 ]
4000a948:	10 bf fe f6 	b  4000a520 <_vfiprintf_r+0x29c>
4000a94c:	83 28 a0 18 	sll  %g2, 0x18, %g1
4000a950:	c2 07 bf 04 	ld  [ %fp + -252 ], %g1
4000a954:	f4 00 40 00 	ld  [ %g1 ], %i2
4000a958:	82 00 60 04 	add  %g1, 4, %g1
4000a95c:	c2 27 bf 04 	st  %g1, [ %fp + -252 ]
4000a960:	c4 0c 40 00 	ldub  [ %l1 ], %g2
4000a964:	80 a6 a0 00 	cmp  %i2, 0
4000a968:	16 bf fe ee 	bge  4000a520 <_vfiprintf_r+0x29c>
4000a96c:	83 28 a0 18 	sll  %g2, 0x18, %g1
4000a970:	b4 20 00 1a 	neg  %i2
4000a974:	10 bf fe eb 	b  4000a520 <_vfiprintf_r+0x29c>
4000a978:	a0 14 20 04 	or  %l0, 4, %l0
4000a97c:	c4 0c 40 00 	ldub  [ %l1 ], %g2
4000a980:	a0 14 20 01 	or  %l0, 1, %l0
4000a984:	10 bf fe e7 	b  4000a520 <_vfiprintf_r+0x29c>
4000a988:	83 28 a0 18 	sll  %g2, 0x18, %g1
4000a98c:	c4 0c 40 00 	ldub  [ %l1 ], %g2
4000a990:	c6 4f bf 1f 	ldsb  [ %fp + -225 ], %g3
4000a994:	80 a0 e0 00 	cmp  %g3, 0
4000a998:	12 bf fe e2 	bne  4000a520 <_vfiprintf_r+0x29c>
4000a99c:	83 28 a0 18 	sll  %g2, 0x18, %g1
4000a9a0:	10 bf fe e0 	b  4000a520 <_vfiprintf_r+0x29c>
4000a9a4:	f8 2f bf 1f 	stb  %i4, [ %fp + -225 ]
4000a9a8:	c4 0c 40 00 	ldub  [ %l1 ], %g2
4000a9ac:	83 28 a0 18 	sll  %g2, 0x18, %g1
4000a9b0:	85 38 60 18 	sra  %g1, 0x18, %g2
4000a9b4:	80 a0 a0 68 	cmp  %g2, 0x68
4000a9b8:	22 80 04 3c 	be,a   4000baa8 <_vfiprintf_r+0x1824>
4000a9bc:	c4 0c 60 01 	ldub  [ %l1 + 1 ], %g2
4000a9c0:	10 bf fe d8 	b  4000a520 <_vfiprintf_r+0x29c>
4000a9c4:	a0 14 20 40 	or  %l0, 0x40, %l0
4000a9c8:	ba 14 20 10 	or  %l0, 0x10, %i5
4000a9cc:	80 8f 60 20 	btst  0x20, %i5
4000a9d0:	02 80 03 7c 	be  4000b7c0 <_vfiprintf_r+0x153c>
4000a9d4:	c2 07 bf 04 	ld  [ %fp + -252 ], %g1
4000a9d8:	92 10 00 01 	mov  %g1, %o1
4000a9dc:	82 00 60 08 	add  %g1, 8, %g1
4000a9e0:	94 10 20 08 	mov  8, %o2
4000a9e4:	c2 27 bf 04 	st  %g1, [ %fp + -252 ]
4000a9e8:	7f ff de 0a 	call  40002210 <memcpy>
4000a9ec:	90 07 bf 38 	add  %fp, -200, %o0
4000a9f0:	c4 1f bf 38 	ldd  [ %fp + -200 ], %g2
4000a9f4:	82 10 20 01 	mov  1, %g1
4000a9f8:	10 bf ff 8f 	b  4000a834 <_vfiprintf_r+0x5b0>
4000a9fc:	c4 3f be f8 	std  %g2, [ %fp + -264 ]
4000aa00:	c4 07 bf 04 	ld  [ %fp + -252 ], %g2
4000aa04:	c2 00 80 00 	ld  [ %g2 ], %g1
4000aa08:	86 10 00 01 	mov  %g1, %g3
4000aa0c:	03 00 00 0c 	sethi  %hi(0x3000), %g1
4000aa10:	82 10 60 78 	or  %g1, 0x78, %g1	! 3078 <__data_size+0x2a68>
4000aa14:	84 00 a0 04 	add  %g2, 4, %g2
4000aa18:	c2 37 bf 20 	sth  %g1, [ %fp + -224 ]
4000aa1c:	c2 07 be e4 	ld  [ %fp + -284 ], %g1
4000aa20:	c4 27 bf 04 	st  %g2, [ %fp + -252 ]
4000aa24:	c2 27 be ec 	st  %g1, [ %fp + -276 ]
4000aa28:	84 10 20 00 	clr  %g2
4000aa2c:	ba 14 20 02 	or  %l0, 2, %i5
4000aa30:	c4 3f be f8 	std  %g2, [ %fp + -264 ]
4000aa34:	10 bf ff 80 	b  4000a834 <_vfiprintf_r+0x5b0>
4000aa38:	82 10 20 02 	mov  2, %g1
4000aa3c:	c4 0c 40 00 	ldub  [ %l1 ], %g2
4000aa40:	83 28 a0 18 	sll  %g2, 0x18, %g1
4000aa44:	85 38 60 18 	sra  %g1, 0x18, %g2
4000aa48:	80 a0 a0 6c 	cmp  %g2, 0x6c
4000aa4c:	22 80 04 13 	be,a   4000ba98 <_vfiprintf_r+0x1814>
4000aa50:	c4 0c 60 01 	ldub  [ %l1 + 1 ], %g2
4000aa54:	10 bf fe b3 	b  4000a520 <_vfiprintf_r+0x29c>
4000aa58:	a0 14 20 10 	or  %l0, 0x10, %l0
4000aa5c:	94 07 bf 4c 	add  %fp, -180, %o2
4000aa60:	92 10 00 15 	mov  %l5, %o1
4000aa64:	40 00 06 87 	call  4000c480 <__sfvwrite_r>
4000aa68:	90 10 00 12 	mov  %l2, %o0
4000aa6c:	c0 27 bf 54 	clr  [ %fp + -172 ]
4000aa70:	80 a2 20 00 	cmp  %o0, 0
4000aa74:	12 bf fe 80 	bne  4000a474 <_vfiprintf_r+0x1f0>
4000aa78:	c0 27 bf 50 	clr  [ %fp + -176 ]
4000aa7c:	c2 4f bf 1f 	ldsb  [ %fp + -225 ], %g1
4000aa80:	80 a0 60 00 	cmp  %g1, 0
4000aa84:	02 80 03 98 	be  4000b8e4 <_vfiprintf_r+0x1660>
4000aa88:	c2 07 be f4 	ld  [ %fp + -268 ], %g1
4000aa8c:	82 07 bf 1f 	add  %fp, -225, %g1
4000aa90:	86 07 bf 60 	add  %fp, -160, %g3
4000aa94:	c2 27 bf 58 	st  %g1, [ %fp + -168 ]
4000aa98:	84 10 20 01 	mov  1, %g2
4000aa9c:	82 10 20 01 	mov  1, %g1
4000aaa0:	c2 27 bf 5c 	st  %g1, [ %fp + -164 ]
4000aaa4:	90 10 00 02 	mov  %g2, %o0
4000aaa8:	b2 10 00 03 	mov  %g3, %i1
4000aaac:	84 00 a0 01 	inc  %g2
4000aab0:	86 00 e0 08 	add  %g3, 8, %g3
4000aab4:	c8 07 be f4 	ld  [ %fp + -268 ], %g4
4000aab8:	80 a1 20 00 	cmp  %g4, 0
4000aabc:	02 80 00 31 	be  4000ab80 <_vfiprintf_r+0x8fc>
4000aac0:	c8 07 bf 00 	ld  [ %fp + -256 ], %g4
4000aac4:	88 07 bf 20 	add  %fp, -224, %g4
4000aac8:	82 00 60 02 	add  %g1, 2, %g1
4000aacc:	c8 26 40 00 	st  %g4, [ %i1 ]
4000aad0:	c2 27 bf 54 	st  %g1, [ %fp + -172 ]
4000aad4:	88 10 20 02 	mov  2, %g4
4000aad8:	c4 27 bf 50 	st  %g2, [ %fp + -176 ]
4000aadc:	80 a0 a0 07 	cmp  %g2, 7
4000aae0:	04 80 00 23 	ble  4000ab6c <_vfiprintf_r+0x8e8>
4000aae4:	c8 26 60 04 	st  %g4, [ %i1 + 4 ]
4000aae8:	80 a0 60 00 	cmp  %g1, 0
4000aaec:	02 80 02 f7 	be  4000b6c8 <_vfiprintf_r+0x1444>
4000aaf0:	86 07 bf 60 	add  %fp, -160, %g3
4000aaf4:	c6 05 60 60 	ld  [ %l5 + 0x60 ], %g3
4000aaf8:	05 00 00 08 	sethi  %hi(0x2000), %g2
4000aafc:	80 88 c0 02 	btst  %g3, %g2
4000ab00:	02 80 02 84 	be  4000b510 <_vfiprintf_r+0x128c>
4000ab04:	f2 07 bf 4c 	ld  [ %fp + -180 ], %i1
4000ab08:	ec 06 60 04 	ld  [ %i1 + 4 ], %l6
4000ab0c:	b9 35 a0 02 	srl  %l6, 2, %i4
4000ab10:	80 a7 20 00 	cmp  %i4, 0
4000ab14:	02 80 02 e6 	be  4000b6ac <_vfiprintf_r+0x1428>
4000ab18:	e6 06 40 00 	ld  [ %i1 ], %l3
4000ab1c:	10 80 00 05 	b  4000ab30 <_vfiprintf_r+0x8ac>
4000ab20:	ba 10 20 00 	clr  %i5
4000ab24:	80 a7 00 1d 	cmp  %i4, %i5
4000ab28:	02 80 02 e1 	be  4000b6ac <_vfiprintf_r+0x1428>
4000ab2c:	c2 07 bf 54 	ld  [ %fp + -172 ], %g1
4000ab30:	83 2f 60 02 	sll  %i5, 2, %g1
4000ab34:	94 10 00 15 	mov  %l5, %o2
4000ab38:	d2 04 c0 01 	ld  [ %l3 + %g1 ], %o1
4000ab3c:	40 00 06 05 	call  4000c350 <_fputwc_r>
4000ab40:	90 10 00 12 	mov  %l2, %o0
4000ab44:	80 a2 3f ff 	cmp  %o0, -1
4000ab48:	32 bf ff f7 	bne,a   4000ab24 <_vfiprintf_r+0x8a0>
4000ab4c:	ba 07 60 01 	inc  %i5
4000ab50:	10 bf fe 4a 	b  4000a478 <_vfiprintf_r+0x1f4>
4000ab54:	c2 15 60 0c 	lduh  [ %l5 + 0xc ], %g1
4000ab58:	86 07 bf 60 	add  %fp, -160, %g3
4000ab5c:	c2 27 bf 58 	st  %g1, [ %fp + -168 ]
4000ab60:	84 10 20 01 	mov  1, %g2
4000ab64:	82 10 20 02 	mov  2, %g1
4000ab68:	c2 27 bf 5c 	st  %g1, [ %fp + -164 ]
4000ab6c:	b2 10 00 03 	mov  %g3, %i1
4000ab70:	90 10 00 02 	mov  %g2, %o0
4000ab74:	86 06 60 08 	add  %i1, 8, %g3
4000ab78:	84 02 20 01 	add  %o0, 1, %g2
4000ab7c:	c8 07 bf 00 	ld  [ %fp + -256 ], %g4
4000ab80:	80 a1 20 80 	cmp  %g4, 0x80
4000ab84:	02 80 00 99 	be  4000ade8 <_vfiprintf_r+0xb64>
4000ab88:	a6 26 80 14 	sub  %i2, %l4, %l3
4000ab8c:	c8 07 bf 0c 	ld  [ %fp + -244 ], %g4
4000ab90:	b6 26 c0 04 	sub  %i3, %g4, %i3
4000ab94:	80 a6 e0 00 	cmp  %i3, 0
4000ab98:	14 80 00 fc 	bg  4000af88 <_vfiprintf_r+0xd04>
4000ab9c:	80 a6 e0 10 	cmp  %i3, 0x10
4000aba0:	c8 07 bf 0c 	ld  [ %fp + -244 ], %g4
4000aba4:	f0 26 40 00 	st  %i0, [ %i1 ]
4000aba8:	82 01 00 01 	add  %g4, %g1, %g1
4000abac:	c8 26 60 04 	st  %g4, [ %i1 + 4 ]
4000abb0:	c2 27 bf 54 	st  %g1, [ %fp + -172 ]
4000abb4:	80 a0 a0 07 	cmp  %g2, 7
4000abb8:	04 80 00 2c 	ble  4000ac68 <_vfiprintf_r+0x9e4>
4000abbc:	c4 27 bf 50 	st  %g2, [ %fp + -176 ]
4000abc0:	80 a0 60 00 	cmp  %g1, 0
4000abc4:	02 80 00 59 	be  4000ad28 <_vfiprintf_r+0xaa4>
4000abc8:	05 00 00 08 	sethi  %hi(0x2000), %g2
4000abcc:	c6 05 60 60 	ld  [ %l5 + 0x60 ], %g3
4000abd0:	80 88 c0 02 	btst  %g3, %g2
4000abd4:	02 80 00 4d 	be  4000ad08 <_vfiprintf_r+0xa84>
4000abd8:	f6 07 bf 4c 	ld  [ %fp + -180 ], %i3
4000abdc:	f0 06 e0 04 	ld  [ %i3 + 4 ], %i0
4000abe0:	b9 36 20 02 	srl  %i0, 2, %i4
4000abe4:	80 a7 20 00 	cmp  %i4, 0
4000abe8:	02 80 01 62 	be  4000b170 <_vfiprintf_r+0xeec>
4000abec:	f2 06 c0 00 	ld  [ %i3 ], %i1
4000abf0:	10 80 00 05 	b  4000ac04 <_vfiprintf_r+0x980>
4000abf4:	ba 10 20 00 	clr  %i5
4000abf8:	80 a7 00 1d 	cmp  %i4, %i5
4000abfc:	02 80 01 5d 	be  4000b170 <_vfiprintf_r+0xeec>
4000ac00:	c2 07 bf 54 	ld  [ %fp + -172 ], %g1
4000ac04:	83 2f 60 02 	sll  %i5, 2, %g1
4000ac08:	94 10 00 15 	mov  %l5, %o2
4000ac0c:	d2 06 40 01 	ld  [ %i1 + %g1 ], %o1
4000ac10:	40 00 05 d0 	call  4000c350 <_fputwc_r>
4000ac14:	90 10 00 12 	mov  %l2, %o0
4000ac18:	80 a2 3f ff 	cmp  %o0, -1
4000ac1c:	32 bf ff f7 	bne,a   4000abf8 <_vfiprintf_r+0x974>
4000ac20:	ba 07 60 01 	inc  %i5
4000ac24:	10 bf fe 15 	b  4000a478 <_vfiprintf_r+0x1f4>
4000ac28:	c2 15 60 0c 	lduh  [ %l5 + 0xc ], %g1
4000ac2c:	94 07 bf 4c 	add  %fp, -180, %o2
4000ac30:	92 10 00 15 	mov  %l5, %o1
4000ac34:	40 00 06 13 	call  4000c480 <__sfvwrite_r>
4000ac38:	90 10 00 12 	mov  %l2, %o0
4000ac3c:	c0 27 bf 54 	clr  [ %fp + -172 ]
4000ac40:	80 a2 20 00 	cmp  %o0, 0
4000ac44:	12 bf fe 0c 	bne  4000a474 <_vfiprintf_r+0x1f0>
4000ac48:	c0 27 bf 50 	clr  [ %fp + -176 ]
4000ac4c:	c2 07 bf 0c 	ld  [ %fp + -244 ], %g1
4000ac50:	84 10 20 01 	mov  1, %g2
4000ac54:	f0 27 bf 58 	st  %i0, [ %fp + -168 ]
4000ac58:	c2 27 bf 5c 	st  %g1, [ %fp + -164 ]
4000ac5c:	c2 27 bf 54 	st  %g1, [ %fp + -172 ]
4000ac60:	c4 27 bf 50 	st  %g2, [ %fp + -176 ]
4000ac64:	86 07 bf 60 	add  %fp, -160, %g3
4000ac68:	80 8c 20 04 	btst  4, %l0
4000ac6c:	02 80 00 07 	be  4000ac88 <_vfiprintf_r+0xa04>
4000ac70:	80 a6 80 14 	cmp  %i2, %l4
4000ac74:	b6 26 80 14 	sub  %i2, %l4, %i3
4000ac78:	80 a6 e0 00 	cmp  %i3, 0
4000ac7c:	14 80 01 b8 	bg  4000b35c <_vfiprintf_r+0x10d8>
4000ac80:	80 a6 e0 10 	cmp  %i3, 0x10
4000ac84:	80 a6 80 14 	cmp  %i2, %l4
4000ac88:	26 80 00 02 	bl,a   4000ac90 <_vfiprintf_r+0xa0c>
4000ac8c:	b4 10 00 14 	mov  %l4, %i2
4000ac90:	c4 07 bf 08 	ld  [ %fp + -248 ], %g2
4000ac94:	84 00 80 1a 	add  %g2, %i2, %g2
4000ac98:	80 a0 60 00 	cmp  %g1, 0
4000ac9c:	02 80 00 30 	be  4000ad5c <_vfiprintf_r+0xad8>
4000aca0:	c4 27 bf 08 	st  %g2, [ %fp + -248 ]
4000aca4:	c6 05 60 60 	ld  [ %l5 + 0x60 ], %g3
4000aca8:	05 00 00 08 	sethi  %hi(0x2000), %g2
4000acac:	80 88 c0 02 	btst  %g3, %g2
4000acb0:	02 80 01 14 	be  4000b100 <_vfiprintf_r+0xe7c>
4000acb4:	f6 07 bf 4c 	ld  [ %fp + -180 ], %i3
4000acb8:	f2 06 e0 04 	ld  [ %i3 + 4 ], %i1
4000acbc:	b9 36 60 02 	srl  %i1, 2, %i4
4000acc0:	80 a7 20 00 	cmp  %i4, 0
4000acc4:	02 80 01 88 	be  4000b2e4 <_vfiprintf_r+0x1060>
4000acc8:	f4 06 c0 00 	ld  [ %i3 ], %i2
4000accc:	10 80 00 05 	b  4000ace0 <_vfiprintf_r+0xa5c>
4000acd0:	ba 10 20 00 	clr  %i5
4000acd4:	80 a7 00 1d 	cmp  %i4, %i5
4000acd8:	02 80 01 83 	be  4000b2e4 <_vfiprintf_r+0x1060>
4000acdc:	c2 07 bf 54 	ld  [ %fp + -172 ], %g1
4000ace0:	83 2f 60 02 	sll  %i5, 2, %g1
4000ace4:	94 10 00 15 	mov  %l5, %o2
4000ace8:	d2 06 80 01 	ld  [ %i2 + %g1 ], %o1
4000acec:	40 00 05 99 	call  4000c350 <_fputwc_r>
4000acf0:	90 10 00 12 	mov  %l2, %o0
4000acf4:	80 a2 3f ff 	cmp  %o0, -1
4000acf8:	32 bf ff f7 	bne,a   4000acd4 <_vfiprintf_r+0xa50>
4000acfc:	ba 07 60 01 	inc  %i5
4000ad00:	10 bf fd de 	b  4000a478 <_vfiprintf_r+0x1f4>
4000ad04:	c2 15 60 0c 	lduh  [ %l5 + 0xc ], %g1
4000ad08:	94 07 bf 4c 	add  %fp, -180, %o2
4000ad0c:	92 10 00 15 	mov  %l5, %o1
4000ad10:	40 00 05 dc 	call  4000c480 <__sfvwrite_r>
4000ad14:	90 10 00 12 	mov  %l2, %o0
4000ad18:	c0 27 bf 54 	clr  [ %fp + -172 ]
4000ad1c:	80 a2 20 00 	cmp  %o0, 0
4000ad20:	12 bf fd d5 	bne  4000a474 <_vfiprintf_r+0x1f0>
4000ad24:	c0 27 bf 50 	clr  [ %fp + -176 ]
4000ad28:	80 8c 20 04 	btst  4, %l0
4000ad2c:	02 80 00 07 	be  4000ad48 <_vfiprintf_r+0xac4>
4000ad30:	80 a6 80 14 	cmp  %i2, %l4
4000ad34:	b6 26 80 14 	sub  %i2, %l4, %i3
4000ad38:	80 a6 e0 00 	cmp  %i3, 0
4000ad3c:	14 80 01 85 	bg  4000b350 <_vfiprintf_r+0x10cc>
4000ad40:	84 10 20 00 	clr  %g2
4000ad44:	80 a6 80 14 	cmp  %i2, %l4
4000ad48:	26 80 00 02 	bl,a   4000ad50 <_vfiprintf_r+0xacc>
4000ad4c:	b4 10 00 14 	mov  %l4, %i2
4000ad50:	c2 07 bf 08 	ld  [ %fp + -248 ], %g1
4000ad54:	82 00 40 1a 	add  %g1, %i2, %g1
4000ad58:	c2 27 bf 08 	st  %g1, [ %fp + -248 ]
4000ad5c:	c0 27 bf 50 	clr  [ %fp + -176 ]
4000ad60:	10 bf fd 8c 	b  4000a390 <_vfiprintf_r+0x10c>
4000ad64:	b2 07 bf 58 	add  %fp, -168, %i1
4000ad68:	ba 10 00 10 	mov  %l0, %i5
4000ad6c:	82 08 60 ff 	and  %g1, 0xff, %g1
4000ad70:	80 a0 60 01 	cmp  %g1, 1
4000ad74:	02 80 02 08 	be  4000b594 <_vfiprintf_r+0x1310>
4000ad78:	b8 07 bf fc 	add  %fp, -4, %i4
4000ad7c:	80 a0 60 02 	cmp  %g1, 2
4000ad80:	02 80 01 62 	be  4000b308 <_vfiprintf_r+0x1084>
4000ad84:	b0 10 00 1c 	mov  %i4, %i0
4000ad88:	c4 1f be f8 	ldd  [ %fp + -264 ], %g2
4000ad8c:	9e 10 00 18 	mov  %i0, %o7
4000ad90:	82 08 e0 07 	and  %g3, 7, %g1
4000ad94:	b0 06 3f ff 	add  %i0, -1, %i0
4000ad98:	82 00 60 30 	add  %g1, 0x30, %g1
4000ad9c:	c2 2e 00 00 	stb  %g1, [ %i0 ]
4000ada0:	9b 28 a0 1d 	sll  %g2, 0x1d, %o5
4000ada4:	99 30 a0 03 	srl  %g2, 3, %o4
4000ada8:	89 30 e0 03 	srl  %g3, 3, %g4
4000adac:	86 13 40 04 	or  %o5, %g4, %g3
4000adb0:	80 93 00 03 	orcc  %o4, %g3, %g0
4000adb4:	12 bf ff f6 	bne  4000ad8c <_vfiprintf_r+0xb08>
4000adb8:	84 10 00 0c 	mov  %o4, %g2
4000adbc:	82 08 60 7f 	and  %g1, 0x7f, %g1
4000adc0:	80 a0 60 30 	cmp  %g1, 0x30
4000adc4:	02 80 00 05 	be  4000add8 <_vfiprintf_r+0xb54>
4000adc8:	c4 3f be f8 	std  %g2, [ %fp + -264 ]
4000adcc:	80 8f 60 01 	btst  1, %i5
4000add0:	32 80 02 b3 	bne,a   4000b89c <_vfiprintf_r+0x1618>
4000add4:	9e 03 ff fe 	add  %o7, -2, %o7
4000add8:	82 27 00 18 	sub  %i4, %i0, %g1
4000addc:	a0 10 00 1d 	mov  %i5, %l0
4000ade0:	10 bf fe 5f 	b  4000a75c <_vfiprintf_r+0x4d8>
4000ade4:	c2 27 bf 0c 	st  %g1, [ %fp + -244 ]
4000ade8:	80 a4 e0 00 	cmp  %l3, 0
4000adec:	04 bf ff 69 	ble  4000ab90 <_vfiprintf_r+0x90c>
4000adf0:	c8 07 bf 0c 	ld  [ %fp + -244 ], %g4
4000adf4:	80 a4 e0 10 	cmp  %l3, 0x10
4000adf8:	04 80 03 df 	ble  4000bd74 <_vfiprintf_r+0x1af0>
4000adfc:	ba 10 00 03 	mov  %g3, %i5
4000ae00:	ae 10 20 10 	mov  0x10, %l7
4000ae04:	10 80 00 09 	b  4000ae28 <_vfiprintf_r+0xba4>
4000ae08:	f6 27 bf 00 	st  %i3, [ %fp + -256 ]
4000ae0c:	88 02 20 02 	add  %o0, 2, %g4
4000ae10:	b2 06 60 08 	add  %i1, 8, %i1
4000ae14:	90 10 00 02 	mov  %g2, %o0
4000ae18:	a6 04 ff f0 	add  %l3, -16, %l3
4000ae1c:	80 a4 e0 10 	cmp  %l3, 0x10
4000ae20:	04 80 00 35 	ble  4000aef4 <_vfiprintf_r+0xc70>
4000ae24:	f6 07 bf 00 	ld  [ %fp + -256 ], %i3
4000ae28:	84 02 20 01 	add  %o0, 1, %g2
4000ae2c:	82 00 60 10 	add  %g1, 0x10, %g1
4000ae30:	c6 07 bf 14 	ld  [ %fp + -236 ], %g3
4000ae34:	ee 26 60 04 	st  %l7, [ %i1 + 4 ]
4000ae38:	c6 26 40 00 	st  %g3, [ %i1 ]
4000ae3c:	c2 27 bf 54 	st  %g1, [ %fp + -172 ]
4000ae40:	80 a0 a0 07 	cmp  %g2, 7
4000ae44:	04 bf ff f2 	ble  4000ae0c <_vfiprintf_r+0xb88>
4000ae48:	c4 27 bf 50 	st  %g2, [ %fp + -176 ]
4000ae4c:	80 a0 60 00 	cmp  %g1, 0
4000ae50:	02 80 00 a8 	be  4000b0f0 <_vfiprintf_r+0xe6c>
4000ae54:	07 00 00 08 	sethi  %hi(0x2000), %g3
4000ae58:	c4 05 60 60 	ld  [ %l5 + 0x60 ], %g2
4000ae5c:	80 88 80 03 	btst  %g2, %g3
4000ae60:	02 80 00 16 	be  4000aeb8 <_vfiprintf_r+0xc34>
4000ae64:	f2 07 bf 4c 	ld  [ %fp + -180 ], %i1
4000ae68:	f6 06 60 04 	ld  [ %i1 + 4 ], %i3
4000ae6c:	bb 36 e0 02 	srl  %i3, 2, %i5
4000ae70:	80 a7 60 00 	cmp  %i5, 0
4000ae74:	02 80 00 99 	be  4000b0d8 <_vfiprintf_r+0xe54>
4000ae78:	f8 06 40 00 	ld  [ %i1 ], %i4
4000ae7c:	10 80 00 05 	b  4000ae90 <_vfiprintf_r+0xc0c>
4000ae80:	ac 10 20 00 	clr  %l6
4000ae84:	80 a7 40 16 	cmp  %i5, %l6
4000ae88:	02 80 00 94 	be  4000b0d8 <_vfiprintf_r+0xe54>
4000ae8c:	c2 07 bf 54 	ld  [ %fp + -172 ], %g1
4000ae90:	83 2d a0 02 	sll  %l6, 2, %g1
4000ae94:	94 10 00 15 	mov  %l5, %o2
4000ae98:	d2 07 00 01 	ld  [ %i4 + %g1 ], %o1
4000ae9c:	40 00 05 2d 	call  4000c350 <_fputwc_r>
4000aea0:	90 10 00 12 	mov  %l2, %o0
4000aea4:	80 a2 3f ff 	cmp  %o0, -1
4000aea8:	32 bf ff f7 	bne,a   4000ae84 <_vfiprintf_r+0xc00>
4000aeac:	ac 05 a0 01 	inc  %l6
4000aeb0:	10 bf fd 72 	b  4000a478 <_vfiprintf_r+0x1f4>
4000aeb4:	c2 15 60 0c 	lduh  [ %l5 + 0xc ], %g1
4000aeb8:	94 07 bf 4c 	add  %fp, -180, %o2
4000aebc:	92 10 00 15 	mov  %l5, %o1
4000aec0:	40 00 05 70 	call  4000c480 <__sfvwrite_r>
4000aec4:	90 10 00 12 	mov  %l2, %o0
4000aec8:	c0 27 bf 54 	clr  [ %fp + -172 ]
4000aecc:	80 a2 20 00 	cmp  %o0, 0
4000aed0:	12 bf fd 69 	bne  4000a474 <_vfiprintf_r+0x1f0>
4000aed4:	c0 27 bf 50 	clr  [ %fp + -176 ]
4000aed8:	a6 04 ff f0 	add  %l3, -16, %l3
4000aedc:	88 10 20 01 	mov  1, %g4
4000aee0:	82 10 20 00 	clr  %g1
4000aee4:	80 a4 e0 10 	cmp  %l3, 0x10
4000aee8:	14 bf ff d0 	bg  4000ae28 <_vfiprintf_r+0xba4>
4000aeec:	b2 07 bf 58 	add  %fp, -168, %i1
4000aef0:	f6 07 bf 00 	ld  [ %fp + -256 ], %i3
4000aef4:	ba 06 60 08 	add  %i1, 8, %i5
4000aef8:	82 00 40 13 	add  %g1, %l3, %g1
4000aefc:	c4 07 bf 14 	ld  [ %fp + -236 ], %g2
4000af00:	e6 26 60 04 	st  %l3, [ %i1 + 4 ]
4000af04:	c4 26 40 00 	st  %g2, [ %i1 ]
4000af08:	c2 27 bf 54 	st  %g1, [ %fp + -172 ]
4000af0c:	80 a1 20 07 	cmp  %g4, 7
4000af10:	04 80 02 59 	ble  4000b874 <_vfiprintf_r+0x15f0>
4000af14:	c8 27 bf 50 	st  %g4, [ %fp + -176 ]
4000af18:	80 a0 60 00 	cmp  %g1, 0
4000af1c:	02 80 03 5e 	be  4000bc94 <_vfiprintf_r+0x1a10>
4000af20:	86 07 bf 60 	add  %fp, -160, %g3
4000af24:	c6 05 60 60 	ld  [ %l5 + 0x60 ], %g3
4000af28:	05 00 00 08 	sethi  %hi(0x2000), %g2
4000af2c:	80 88 c0 02 	btst  %g3, %g2
4000af30:	02 80 02 f1 	be  4000baf4 <_vfiprintf_r+0x1870>
4000af34:	e6 07 bf 4c 	ld  [ %fp + -180 ], %l3
4000af38:	ec 04 e0 04 	ld  [ %l3 + 4 ], %l6
4000af3c:	b9 35 a0 02 	srl  %l6, 2, %i4
4000af40:	80 a7 20 00 	cmp  %i4, 0
4000af44:	02 80 03 4d 	be  4000bc78 <_vfiprintf_r+0x19f4>
4000af48:	f2 04 c0 00 	ld  [ %l3 ], %i1
4000af4c:	10 80 00 05 	b  4000af60 <_vfiprintf_r+0xcdc>
4000af50:	ba 10 20 00 	clr  %i5
4000af54:	80 a7 00 1d 	cmp  %i4, %i5
4000af58:	02 80 03 48 	be  4000bc78 <_vfiprintf_r+0x19f4>
4000af5c:	c2 07 bf 54 	ld  [ %fp + -172 ], %g1
4000af60:	83 2f 60 02 	sll  %i5, 2, %g1
4000af64:	94 10 00 15 	mov  %l5, %o2
4000af68:	d2 06 40 01 	ld  [ %i1 + %g1 ], %o1
4000af6c:	40 00 04 f9 	call  4000c350 <_fputwc_r>
4000af70:	90 10 00 12 	mov  %l2, %o0
4000af74:	80 a2 3f ff 	cmp  %o0, -1
4000af78:	32 bf ff f7 	bne,a   4000af54 <_vfiprintf_r+0xcd0>
4000af7c:	ba 07 60 01 	inc  %i5
4000af80:	10 bf fd 3e 	b  4000a478 <_vfiprintf_r+0x1f4>
4000af84:	c2 15 60 0c 	lduh  [ %l5 + 0xc ], %g1
4000af88:	04 80 00 3e 	ble  4000b080 <_vfiprintf_r+0xdfc>
4000af8c:	88 10 00 03 	mov  %g3, %g4
4000af90:	10 80 00 09 	b  4000afb4 <_vfiprintf_r+0xd30>
4000af94:	ac 10 20 10 	mov  0x10, %l6
4000af98:	84 02 20 02 	add  %o0, 2, %g2
4000af9c:	b2 06 60 08 	add  %i1, 8, %i1
4000afa0:	90 10 00 03 	mov  %g3, %o0
4000afa4:	b6 06 ff f0 	add  %i3, -16, %i3
4000afa8:	80 a6 e0 10 	cmp  %i3, 0x10
4000afac:	04 80 00 35 	ble  4000b080 <_vfiprintf_r+0xdfc>
4000afb0:	88 06 60 08 	add  %i1, 8, %g4
4000afb4:	86 02 20 01 	add  %o0, 1, %g3
4000afb8:	82 00 60 10 	add  %g1, 0x10, %g1
4000afbc:	c4 07 bf 14 	ld  [ %fp + -236 ], %g2
4000afc0:	ec 26 60 04 	st  %l6, [ %i1 + 4 ]
4000afc4:	c4 26 40 00 	st  %g2, [ %i1 ]
4000afc8:	c2 27 bf 54 	st  %g1, [ %fp + -172 ]
4000afcc:	80 a0 e0 07 	cmp  %g3, 7
4000afd0:	04 bf ff f2 	ble  4000af98 <_vfiprintf_r+0xd14>
4000afd4:	c6 27 bf 50 	st  %g3, [ %fp + -176 ]
4000afd8:	80 a0 60 00 	cmp  %g1, 0
4000afdc:	02 80 00 3b 	be  4000b0c8 <_vfiprintf_r+0xe44>
4000afe0:	07 00 00 08 	sethi  %hi(0x2000), %g3
4000afe4:	c4 05 60 60 	ld  [ %l5 + 0x60 ], %g2
4000afe8:	80 88 80 03 	btst  %g2, %g3
4000afec:	02 80 00 16 	be  4000b044 <_vfiprintf_r+0xdc0>
4000aff0:	f2 07 bf 4c 	ld  [ %fp + -180 ], %i1
4000aff4:	e6 06 60 04 	ld  [ %i1 + 4 ], %l3
4000aff8:	bb 34 e0 02 	srl  %l3, 2, %i5
4000affc:	80 a7 60 00 	cmp  %i5, 0
4000b000:	02 80 00 2c 	be  4000b0b0 <_vfiprintf_r+0xe2c>
4000b004:	f8 06 40 00 	ld  [ %i1 ], %i4
4000b008:	10 80 00 05 	b  4000b01c <_vfiprintf_r+0xd98>
4000b00c:	ae 10 20 00 	clr  %l7
4000b010:	80 a7 40 17 	cmp  %i5, %l7
4000b014:	02 80 00 27 	be  4000b0b0 <_vfiprintf_r+0xe2c>
4000b018:	c2 07 bf 54 	ld  [ %fp + -172 ], %g1
4000b01c:	83 2d e0 02 	sll  %l7, 2, %g1
4000b020:	94 10 00 15 	mov  %l5, %o2
4000b024:	d2 07 00 01 	ld  [ %i4 + %g1 ], %o1
4000b028:	40 00 04 ca 	call  4000c350 <_fputwc_r>
4000b02c:	90 10 00 12 	mov  %l2, %o0
4000b030:	80 a2 3f ff 	cmp  %o0, -1
4000b034:	32 bf ff f7 	bne,a   4000b010 <_vfiprintf_r+0xd8c>
4000b038:	ae 05 e0 01 	inc  %l7
4000b03c:	10 bf fd 0f 	b  4000a478 <_vfiprintf_r+0x1f4>
4000b040:	c2 15 60 0c 	lduh  [ %l5 + 0xc ], %g1
4000b044:	94 07 bf 4c 	add  %fp, -180, %o2
4000b048:	92 10 00 15 	mov  %l5, %o1
4000b04c:	40 00 05 0d 	call  4000c480 <__sfvwrite_r>
4000b050:	90 10 00 12 	mov  %l2, %o0
4000b054:	c0 27 bf 54 	clr  [ %fp + -172 ]
4000b058:	80 a2 20 00 	cmp  %o0, 0
4000b05c:	12 bf fd 06 	bne  4000a474 <_vfiprintf_r+0x1f0>
4000b060:	c0 27 bf 50 	clr  [ %fp + -176 ]
4000b064:	b6 06 ff f0 	add  %i3, -16, %i3
4000b068:	84 10 20 01 	mov  1, %g2
4000b06c:	82 10 20 00 	clr  %g1
4000b070:	80 a6 e0 10 	cmp  %i3, 0x10
4000b074:	14 bf ff d0 	bg  4000afb4 <_vfiprintf_r+0xd30>
4000b078:	b2 07 bf 58 	add  %fp, -168, %i1
4000b07c:	88 06 60 08 	add  %i1, 8, %g4
4000b080:	82 00 40 1b 	add  %g1, %i3, %g1
4000b084:	c6 07 bf 14 	ld  [ %fp + -236 ], %g3
4000b088:	f6 26 60 04 	st  %i3, [ %i1 + 4 ]
4000b08c:	c6 26 40 00 	st  %g3, [ %i1 ]
4000b090:	c2 27 bf 54 	st  %g1, [ %fp + -172 ]
4000b094:	80 a0 a0 07 	cmp  %g2, 7
4000b098:	14 80 01 4c 	bg  4000b5c8 <_vfiprintf_r+0x1344>
4000b09c:	c4 27 bf 50 	st  %g2, [ %fp + -176 ]
4000b0a0:	84 00 a0 01 	inc  %g2
4000b0a4:	86 01 20 08 	add  %g4, 8, %g3
4000b0a8:	10 bf fe be 	b  4000aba0 <_vfiprintf_r+0x91c>
4000b0ac:	b2 10 00 04 	mov  %g4, %i1
4000b0b0:	a6 0c ff fc 	and  %l3, -4, %l3
4000b0b4:	82 20 40 13 	sub  %g1, %l3, %g1
4000b0b8:	c2 27 bf 54 	st  %g1, [ %fp + -172 ]
4000b0bc:	80 a0 60 00 	cmp  %g1, 0
4000b0c0:	12 bf ff cd 	bne  4000aff4 <_vfiprintf_r+0xd70>
4000b0c4:	b2 06 60 08 	add  %i1, 8, %i1
4000b0c8:	84 10 20 01 	mov  1, %g2
4000b0cc:	90 10 20 00 	clr  %o0
4000b0d0:	10 bf ff b5 	b  4000afa4 <_vfiprintf_r+0xd20>
4000b0d4:	b2 07 bf 58 	add  %fp, -168, %i1
4000b0d8:	b6 0e ff fc 	and  %i3, -4, %i3
4000b0dc:	82 20 40 1b 	sub  %g1, %i3, %g1
4000b0e0:	c2 27 bf 54 	st  %g1, [ %fp + -172 ]
4000b0e4:	80 a0 60 00 	cmp  %g1, 0
4000b0e8:	12 bf ff 60 	bne  4000ae68 <_vfiprintf_r+0xbe4>
4000b0ec:	b2 06 60 08 	add  %i1, 8, %i1
4000b0f0:	88 10 20 01 	mov  1, %g4
4000b0f4:	90 10 20 00 	clr  %o0
4000b0f8:	10 bf ff 48 	b  4000ae18 <_vfiprintf_r+0xb94>
4000b0fc:	b2 07 bf 58 	add  %fp, -168, %i1
4000b100:	94 07 bf 4c 	add  %fp, -180, %o2
4000b104:	92 10 00 15 	mov  %l5, %o1
4000b108:	40 00 04 de 	call  4000c480 <__sfvwrite_r>
4000b10c:	90 10 00 12 	mov  %l2, %o0
4000b110:	c0 27 bf 54 	clr  [ %fp + -172 ]
4000b114:	80 a2 20 00 	cmp  %o0, 0
4000b118:	12 bf fc d7 	bne  4000a474 <_vfiprintf_r+0x1f0>
4000b11c:	c0 27 bf 50 	clr  [ %fp + -176 ]
4000b120:	c0 27 bf 50 	clr  [ %fp + -176 ]
4000b124:	10 bf fc 9b 	b  4000a390 <_vfiprintf_r+0x10c>
4000b128:	b2 07 bf 58 	add  %fp, -168, %i1
4000b12c:	94 07 bf 4c 	add  %fp, -180, %o2
4000b130:	92 10 00 15 	mov  %l5, %o1
4000b134:	40 00 04 d3 	call  4000c480 <__sfvwrite_r>
4000b138:	90 10 00 12 	mov  %l2, %o0
4000b13c:	c0 27 bf 54 	clr  [ %fp + -172 ]
4000b140:	80 a2 20 00 	cmp  %o0, 0
4000b144:	12 bf fc cc 	bne  4000a474 <_vfiprintf_r+0x1f0>
4000b148:	c0 27 bf 50 	clr  [ %fp + -176 ]
4000b14c:	c2 07 be f4 	ld  [ %fp + -268 ], %g1
4000b150:	80 a0 60 00 	cmp  %g1, 0
4000b154:	32 80 01 38 	bne,a   4000b634 <_vfiprintf_r+0x13b0>
4000b158:	82 07 bf 20 	add  %fp, -224, %g1
4000b15c:	90 10 20 00 	clr  %o0
4000b160:	86 07 bf 60 	add  %fp, -160, %g3
4000b164:	84 10 20 01 	mov  1, %g2
4000b168:	10 bf fe 85 	b  4000ab7c <_vfiprintf_r+0x8f8>
4000b16c:	b2 07 bf 58 	add  %fp, -168, %i1
4000b170:	b0 0e 3f fc 	and  %i0, -4, %i0
4000b174:	82 20 40 18 	sub  %g1, %i0, %g1
4000b178:	c2 27 bf 54 	st  %g1, [ %fp + -172 ]
4000b17c:	80 a0 60 00 	cmp  %g1, 0
4000b180:	12 bf fe 97 	bne  4000abdc <_vfiprintf_r+0x958>
4000b184:	b6 06 e0 08 	add  %i3, 8, %i3
4000b188:	10 bf fe e9 	b  4000ad2c <_vfiprintf_r+0xaa8>
4000b18c:	80 8c 20 04 	btst  4, %l0
4000b190:	24 80 00 3f 	ble,a   4000b28c <_vfiprintf_r+0x1008>
4000b194:	88 10 00 03 	mov  %g3, %g4
4000b198:	ae 10 20 10 	mov  0x10, %l7
4000b19c:	10 80 00 0a 	b  4000b1c4 <_vfiprintf_r+0xf40>
4000b1a0:	f6 27 be d8 	st  %i3, [ %fp + -296 ]
4000b1a4:	88 02 20 02 	add  %o0, 2, %g4
4000b1a8:	b2 06 60 08 	add  %i1, 8, %i1
4000b1ac:	90 10 00 03 	mov  %g3, %o0
4000b1b0:	a6 04 ff f0 	add  %l3, -16, %l3
4000b1b4:	80 a4 e0 10 	cmp  %l3, 0x10
4000b1b8:	04 80 00 35 	ble  4000b28c <_vfiprintf_r+0x1008>
4000b1bc:	f6 07 be d8 	ld  [ %fp + -296 ], %i3
4000b1c0:	86 02 20 01 	add  %o0, 1, %g3
4000b1c4:	82 00 60 10 	add  %g1, 0x10, %g1
4000b1c8:	c4 07 bf 10 	ld  [ %fp + -240 ], %g2
4000b1cc:	ee 26 60 04 	st  %l7, [ %i1 + 4 ]
4000b1d0:	c4 26 40 00 	st  %g2, [ %i1 ]
4000b1d4:	c2 27 bf 54 	st  %g1, [ %fp + -172 ]
4000b1d8:	80 a0 e0 07 	cmp  %g3, 7
4000b1dc:	04 bf ff f2 	ble  4000b1a4 <_vfiprintf_r+0xf20>
4000b1e0:	c6 27 bf 50 	st  %g3, [ %fp + -176 ]
4000b1e4:	80 a0 60 00 	cmp  %g1, 0
4000b1e8:	02 80 00 3b 	be  4000b2d4 <_vfiprintf_r+0x1050>
4000b1ec:	07 00 00 08 	sethi  %hi(0x2000), %g3
4000b1f0:	c4 05 60 60 	ld  [ %l5 + 0x60 ], %g2
4000b1f4:	80 88 80 03 	btst  %g2, %g3
4000b1f8:	02 80 00 16 	be  4000b250 <_vfiprintf_r+0xfcc>
4000b1fc:	f2 07 bf 4c 	ld  [ %fp + -180 ], %i1
4000b200:	f6 06 60 04 	ld  [ %i1 + 4 ], %i3
4000b204:	bb 36 e0 02 	srl  %i3, 2, %i5
4000b208:	80 a7 60 00 	cmp  %i5, 0
4000b20c:	02 80 00 2c 	be  4000b2bc <_vfiprintf_r+0x1038>
4000b210:	f8 06 40 00 	ld  [ %i1 ], %i4
4000b214:	10 80 00 05 	b  4000b228 <_vfiprintf_r+0xfa4>
4000b218:	ac 10 20 00 	clr  %l6
4000b21c:	80 a7 40 16 	cmp  %i5, %l6
4000b220:	02 80 00 27 	be  4000b2bc <_vfiprintf_r+0x1038>
4000b224:	c2 07 bf 54 	ld  [ %fp + -172 ], %g1
4000b228:	83 2d a0 02 	sll  %l6, 2, %g1
4000b22c:	94 10 00 15 	mov  %l5, %o2
4000b230:	d2 07 00 01 	ld  [ %i4 + %g1 ], %o1
4000b234:	40 00 04 47 	call  4000c350 <_fputwc_r>
4000b238:	90 10 00 12 	mov  %l2, %o0
4000b23c:	80 a2 3f ff 	cmp  %o0, -1
4000b240:	32 bf ff f7 	bne,a   4000b21c <_vfiprintf_r+0xf98>
4000b244:	ac 05 a0 01 	inc  %l6
4000b248:	10 bf fc 8c 	b  4000a478 <_vfiprintf_r+0x1f4>
4000b24c:	c2 15 60 0c 	lduh  [ %l5 + 0xc ], %g1
4000b250:	94 07 bf 4c 	add  %fp, -180, %o2
4000b254:	92 10 00 15 	mov  %l5, %o1
4000b258:	40 00 04 8a 	call  4000c480 <__sfvwrite_r>
4000b25c:	90 10 00 12 	mov  %l2, %o0
4000b260:	c0 27 bf 54 	clr  [ %fp + -172 ]
4000b264:	80 a2 20 00 	cmp  %o0, 0
4000b268:	12 bf fc 83 	bne  4000a474 <_vfiprintf_r+0x1f0>
4000b26c:	c0 27 bf 50 	clr  [ %fp + -176 ]
4000b270:	a6 04 ff f0 	add  %l3, -16, %l3
4000b274:	88 10 20 01 	mov  1, %g4
4000b278:	82 10 20 00 	clr  %g1
4000b27c:	80 a4 e0 10 	cmp  %l3, 0x10
4000b280:	14 bf ff d0 	bg  4000b1c0 <_vfiprintf_r+0xf3c>
4000b284:	b2 07 bf 58 	add  %fp, -168, %i1
4000b288:	f6 07 be d8 	ld  [ %fp + -296 ], %i3
4000b28c:	82 00 40 13 	add  %g1, %l3, %g1
4000b290:	c4 07 bf 10 	ld  [ %fp + -240 ], %g2
4000b294:	e6 26 60 04 	st  %l3, [ %i1 + 4 ]
4000b298:	c4 26 40 00 	st  %g2, [ %i1 ]
4000b29c:	c2 27 bf 54 	st  %g1, [ %fp + -172 ]
4000b2a0:	80 a1 20 07 	cmp  %g4, 7
4000b2a4:	14 80 01 51 	bg  4000b7e8 <_vfiprintf_r+0x1564>
4000b2a8:	c8 27 bf 50 	st  %g4, [ %fp + -176 ]
4000b2ac:	b2 06 60 08 	add  %i1, 8, %i1
4000b2b0:	84 01 20 01 	add  %g4, 1, %g2
4000b2b4:	10 bf fc bd 	b  4000a5a8 <_vfiprintf_r+0x324>
4000b2b8:	90 10 00 04 	mov  %g4, %o0
4000b2bc:	b6 0e ff fc 	and  %i3, -4, %i3
4000b2c0:	82 20 40 1b 	sub  %g1, %i3, %g1
4000b2c4:	c2 27 bf 54 	st  %g1, [ %fp + -172 ]
4000b2c8:	80 a0 60 00 	cmp  %g1, 0
4000b2cc:	12 bf ff cd 	bne  4000b200 <_vfiprintf_r+0xf7c>
4000b2d0:	b2 06 60 08 	add  %i1, 8, %i1
4000b2d4:	90 10 20 00 	clr  %o0
4000b2d8:	88 10 20 01 	mov  1, %g4
4000b2dc:	10 bf ff b5 	b  4000b1b0 <_vfiprintf_r+0xf2c>
4000b2e0:	b2 07 bf 58 	add  %fp, -168, %i1
4000b2e4:	b2 0e 7f fc 	and  %i1, -4, %i1
4000b2e8:	82 20 40 19 	sub  %g1, %i1, %g1
4000b2ec:	c2 27 bf 54 	st  %g1, [ %fp + -172 ]
4000b2f0:	80 a0 60 00 	cmp  %g1, 0
4000b2f4:	12 bf fe 71 	bne  4000acb8 <_vfiprintf_r+0xa34>
4000b2f8:	b6 06 e0 08 	add  %i3, 8, %i3
4000b2fc:	c0 27 bf 50 	clr  [ %fp + -176 ]
4000b300:	10 bf fc 24 	b  4000a390 <_vfiprintf_r+0x10c>
4000b304:	b2 07 bf 58 	add  %fp, -168, %i1
4000b308:	da 07 be ec 	ld  [ %fp + -276 ], %o5
4000b30c:	c4 1f be f8 	ldd  [ %fp + -264 ], %g2
4000b310:	82 08 e0 0f 	and  %g3, 0xf, %g1
4000b314:	b0 06 3f ff 	add  %i0, -1, %i0
4000b318:	c2 0b 40 01 	ldub  [ %o5 + %g1 ], %g1
4000b31c:	c2 2e 00 00 	stb  %g1, [ %i0 ]
4000b320:	89 28 a0 1c 	sll  %g2, 0x1c, %g4
4000b324:	9f 30 a0 04 	srl  %g2, 4, %o7
4000b328:	83 30 e0 04 	srl  %g3, 4, %g1
4000b32c:	86 11 00 01 	or  %g4, %g1, %g3
4000b330:	80 93 c0 03 	orcc  %o7, %g3, %g0
4000b334:	12 bf ff f7 	bne  4000b310 <_vfiprintf_r+0x108c>
4000b338:	84 10 00 0f 	mov  %o7, %g2
4000b33c:	82 27 00 18 	sub  %i4, %i0, %g1
4000b340:	c4 3f be f8 	std  %g2, [ %fp + -264 ]
4000b344:	c2 27 bf 0c 	st  %g1, [ %fp + -244 ]
4000b348:	10 bf fd 05 	b  4000a75c <_vfiprintf_r+0x4d8>
4000b34c:	a0 10 00 1d 	mov  %i5, %l0
4000b350:	82 10 20 00 	clr  %g1
4000b354:	86 07 bf 58 	add  %fp, -168, %g3
4000b358:	80 a6 e0 10 	cmp  %i3, 0x10
4000b35c:	24 80 00 3f 	ble,a   4000b458 <_vfiprintf_r+0x11d4>
4000b360:	ba 00 a0 01 	add  %g2, 1, %i5
4000b364:	a0 10 20 10 	mov  0x10, %l0
4000b368:	27 00 00 08 	sethi  %hi(0x2000), %l3
4000b36c:	10 80 00 09 	b  4000b390 <_vfiprintf_r+0x110c>
4000b370:	90 10 00 02 	mov  %g2, %o0
4000b374:	ba 02 20 02 	add  %o0, 2, %i5
4000b378:	86 00 e0 08 	add  %g3, 8, %g3
4000b37c:	90 10 00 04 	mov  %g4, %o0
4000b380:	b6 06 ff f0 	add  %i3, -16, %i3
4000b384:	80 a6 e0 10 	cmp  %i3, 0x10
4000b388:	24 80 00 35 	ble,a   4000b45c <_vfiprintf_r+0x11d8>
4000b38c:	82 00 40 1b 	add  %g1, %i3, %g1
4000b390:	88 02 20 01 	add  %o0, 1, %g4
4000b394:	82 00 60 10 	add  %g1, 0x10, %g1
4000b398:	c4 07 bf 10 	ld  [ %fp + -240 ], %g2
4000b39c:	e0 20 e0 04 	st  %l0, [ %g3 + 4 ]
4000b3a0:	c4 20 c0 00 	st  %g2, [ %g3 ]
4000b3a4:	c2 27 bf 54 	st  %g1, [ %fp + -172 ]
4000b3a8:	80 a1 20 08 	cmp  %g4, 8
4000b3ac:	12 bf ff f2 	bne  4000b374 <_vfiprintf_r+0x10f0>
4000b3b0:	c8 27 bf 50 	st  %g4, [ %fp + -176 ]
4000b3b4:	80 a0 60 00 	cmp  %g1, 0
4000b3b8:	22 80 00 53 	be,a   4000b504 <_vfiprintf_r+0x1280>
4000b3bc:	ba 10 20 01 	mov  1, %i5
4000b3c0:	c4 05 60 60 	ld  [ %l5 + 0x60 ], %g2
4000b3c4:	80 88 80 13 	btst  %g2, %l3
4000b3c8:	02 80 00 16 	be  4000b420 <_vfiprintf_r+0x119c>
4000b3cc:	f2 07 bf 4c 	ld  [ %fp + -180 ], %i1
4000b3d0:	ec 06 60 04 	ld  [ %i1 + 4 ], %l6
4000b3d4:	b9 35 a0 02 	srl  %l6, 2, %i4
4000b3d8:	80 a7 20 00 	cmp  %i4, 0
4000b3dc:	02 80 00 43 	be  4000b4e8 <_vfiprintf_r+0x1264>
4000b3e0:	f0 06 40 00 	ld  [ %i1 ], %i0
4000b3e4:	10 80 00 05 	b  4000b3f8 <_vfiprintf_r+0x1174>
4000b3e8:	ba 10 20 00 	clr  %i5
4000b3ec:	80 a7 00 1d 	cmp  %i4, %i5
4000b3f0:	02 80 00 3e 	be  4000b4e8 <_vfiprintf_r+0x1264>
4000b3f4:	c2 07 bf 54 	ld  [ %fp + -172 ], %g1
4000b3f8:	83 2f 60 02 	sll  %i5, 2, %g1
4000b3fc:	94 10 00 15 	mov  %l5, %o2
4000b400:	d2 06 00 01 	ld  [ %i0 + %g1 ], %o1
4000b404:	40 00 03 d3 	call  4000c350 <_fputwc_r>
4000b408:	90 10 00 12 	mov  %l2, %o0
4000b40c:	80 a2 3f ff 	cmp  %o0, -1
4000b410:	32 bf ff f7 	bne,a   4000b3ec <_vfiprintf_r+0x1168>
4000b414:	ba 07 60 01 	inc  %i5
4000b418:	10 bf fc 18 	b  4000a478 <_vfiprintf_r+0x1f4>
4000b41c:	c2 15 60 0c 	lduh  [ %l5 + 0xc ], %g1
4000b420:	94 07 bf 4c 	add  %fp, -180, %o2
4000b424:	92 10 00 15 	mov  %l5, %o1
4000b428:	40 00 04 16 	call  4000c480 <__sfvwrite_r>
4000b42c:	90 10 00 12 	mov  %l2, %o0
4000b430:	c0 27 bf 54 	clr  [ %fp + -172 ]
4000b434:	80 a2 20 00 	cmp  %o0, 0
4000b438:	12 bf fc 0f 	bne  4000a474 <_vfiprintf_r+0x1f0>
4000b43c:	c0 27 bf 50 	clr  [ %fp + -176 ]
4000b440:	b6 06 ff f0 	add  %i3, -16, %i3
4000b444:	ba 10 20 01 	mov  1, %i5
4000b448:	82 10 20 00 	clr  %g1
4000b44c:	80 a6 e0 10 	cmp  %i3, 0x10
4000b450:	14 bf ff d0 	bg  4000b390 <_vfiprintf_r+0x110c>
4000b454:	86 07 bf 58 	add  %fp, -168, %g3
4000b458:	82 00 40 1b 	add  %g1, %i3, %g1
4000b45c:	c4 07 bf 10 	ld  [ %fp + -240 ], %g2
4000b460:	f6 20 e0 04 	st  %i3, [ %g3 + 4 ]
4000b464:	c4 20 c0 00 	st  %g2, [ %g3 ]
4000b468:	c2 27 bf 54 	st  %g1, [ %fp + -172 ]
4000b46c:	80 a7 60 08 	cmp  %i5, 8
4000b470:	12 bf fe 05 	bne  4000ac84 <_vfiprintf_r+0xa00>
4000b474:	fa 27 bf 50 	st  %i5, [ %fp + -176 ]
4000b478:	80 a0 60 00 	cmp  %g1, 0
4000b47c:	02 bf fe 32 	be  4000ad44 <_vfiprintf_r+0xac0>
4000b480:	05 00 00 08 	sethi  %hi(0x2000), %g2
4000b484:	c6 05 60 60 	ld  [ %l5 + 0x60 ], %g3
4000b488:	80 88 c0 02 	btst  %g3, %g2
4000b48c:	02 80 01 7a 	be  4000ba74 <_vfiprintf_r+0x17f0>
4000b490:	94 07 bf 4c 	add  %fp, -180, %o2
4000b494:	f6 07 bf 4c 	ld  [ %fp + -180 ], %i3
4000b498:	f0 06 e0 04 	ld  [ %i3 + 4 ], %i0
4000b49c:	b3 36 20 02 	srl  %i0, 2, %i1
4000b4a0:	80 a6 60 00 	cmp  %i1, 0
4000b4a4:	02 80 01 a3 	be  4000bb30 <_vfiprintf_r+0x18ac>
4000b4a8:	f8 06 c0 00 	ld  [ %i3 ], %i4
4000b4ac:	10 80 00 05 	b  4000b4c0 <_vfiprintf_r+0x123c>
4000b4b0:	ba 10 20 00 	clr  %i5
4000b4b4:	80 a6 40 1d 	cmp  %i1, %i5
4000b4b8:	02 80 01 9e 	be  4000bb30 <_vfiprintf_r+0x18ac>
4000b4bc:	c2 07 bf 54 	ld  [ %fp + -172 ], %g1
4000b4c0:	83 2f 60 02 	sll  %i5, 2, %g1
4000b4c4:	94 10 00 15 	mov  %l5, %o2
4000b4c8:	d2 07 00 01 	ld  [ %i4 + %g1 ], %o1
4000b4cc:	40 00 03 a1 	call  4000c350 <_fputwc_r>
4000b4d0:	90 10 00 12 	mov  %l2, %o0
4000b4d4:	80 a2 3f ff 	cmp  %o0, -1
4000b4d8:	32 bf ff f7 	bne,a   4000b4b4 <_vfiprintf_r+0x1230>
4000b4dc:	ba 07 60 01 	inc  %i5
4000b4e0:	10 bf fb e6 	b  4000a478 <_vfiprintf_r+0x1f4>
4000b4e4:	c2 15 60 0c 	lduh  [ %l5 + 0xc ], %g1
4000b4e8:	ac 0d bf fc 	and  %l6, -4, %l6
4000b4ec:	82 20 40 16 	sub  %g1, %l6, %g1
4000b4f0:	c2 27 bf 54 	st  %g1, [ %fp + -172 ]
4000b4f4:	80 a0 60 00 	cmp  %g1, 0
4000b4f8:	12 bf ff b6 	bne  4000b3d0 <_vfiprintf_r+0x114c>
4000b4fc:	b2 06 60 08 	add  %i1, 8, %i1
4000b500:	ba 10 20 01 	mov  1, %i5
4000b504:	90 10 20 00 	clr  %o0
4000b508:	10 bf ff 9e 	b  4000b380 <_vfiprintf_r+0x10fc>
4000b50c:	86 07 bf 58 	add  %fp, -168, %g3
4000b510:	94 07 bf 4c 	add  %fp, -180, %o2
4000b514:	92 10 00 15 	mov  %l5, %o1
4000b518:	40 00 03 da 	call  4000c480 <__sfvwrite_r>
4000b51c:	90 10 00 12 	mov  %l2, %o0
4000b520:	c0 27 bf 54 	clr  [ %fp + -172 ]
4000b524:	80 a2 20 00 	cmp  %o0, 0
4000b528:	12 bf fb d3 	bne  4000a474 <_vfiprintf_r+0x1f0>
4000b52c:	c0 27 bf 50 	clr  [ %fp + -176 ]
4000b530:	86 07 bf 60 	add  %fp, -160, %g3
4000b534:	84 10 20 01 	mov  1, %g2
4000b538:	82 10 20 00 	clr  %g1
4000b53c:	10 bf fd 90 	b  4000ab7c <_vfiprintf_r+0x8f8>
4000b540:	b2 07 bf 58 	add  %fp, -168, %i1
4000b544:	7f ff e7 1d 	call  400051b8 <__swsetup_r>
4000b548:	90 10 00 12 	mov  %l2, %o0
4000b54c:	80 a2 20 00 	cmp  %o0, 0
4000b550:	12 80 02 07 	bne  4000bd6c <_vfiprintf_r+0x1ae8>
4000b554:	82 10 3f ff 	mov  -1, %g1
4000b558:	c2 15 60 0c 	lduh  [ %l5 + 0xc ], %g1
4000b55c:	82 08 60 1a 	and  %g1, 0x1a, %g1
4000b560:	80 a0 60 0a 	cmp  %g1, 0xa
4000b564:	12 bf fb 76 	bne  4000a33c <_vfiprintf_r+0xb8>
4000b568:	82 07 bf 58 	add  %fp, -168, %g1
4000b56c:	c2 55 60 0e 	ldsh  [ %l5 + 0xe ], %g1
4000b570:	80 a0 60 00 	cmp  %g1, 0
4000b574:	06 bf fb 72 	bl  4000a33c <_vfiprintf_r+0xb8>
4000b578:	82 07 bf 58 	add  %fp, -168, %g1
4000b57c:	f6 07 bf 04 	ld  [ %fp + -252 ], %i3
4000b580:	b4 10 00 11 	mov  %l1, %i2
4000b584:	b2 10 00 15 	mov  %l5, %i1
4000b588:	40 00 02 1d 	call  4000bdfc <__sbprintf>
4000b58c:	91 e8 00 12 	restore  %g0, %l2, %o0
4000b590:	ba 10 00 10 	mov  %l0, %i5
4000b594:	c4 1f be f8 	ldd  [ %fp + -264 ], %g2
4000b598:	82 90 a0 00 	orcc  %g2, 0, %g1
4000b59c:	12 80 01 10 	bne  4000b9dc <_vfiprintf_r+0x1758>
4000b5a0:	80 a0 e0 09 	cmp  %g3, 9
4000b5a4:	18 80 01 0e 	bgu  4000b9dc <_vfiprintf_r+0x1758>
4000b5a8:	c2 07 be fc 	ld  [ %fp + -260 ], %g1
4000b5ac:	82 00 60 30 	add  %g1, 0x30, %g1
4000b5b0:	a0 10 00 1d 	mov  %i5, %l0
4000b5b4:	c2 2f bf fb 	stb  %g1, [ %fp + -5 ]
4000b5b8:	b0 07 bf fb 	add  %fp, -5, %i0
4000b5bc:	82 10 20 01 	mov  1, %g1
4000b5c0:	10 bf fc 67 	b  4000a75c <_vfiprintf_r+0x4d8>
4000b5c4:	c2 27 bf 0c 	st  %g1, [ %fp + -244 ]
4000b5c8:	80 a0 60 00 	cmp  %g1, 0
4000b5cc:	02 bf fd a0 	be  4000ac4c <_vfiprintf_r+0x9c8>
4000b5d0:	05 00 00 08 	sethi  %hi(0x2000), %g2
4000b5d4:	c6 05 60 60 	ld  [ %l5 + 0x60 ], %g3
4000b5d8:	80 88 c0 02 	btst  %g3, %g2
4000b5dc:	02 bf fd 94 	be  4000ac2c <_vfiprintf_r+0x9a8>
4000b5e0:	f6 07 bf 4c 	ld  [ %fp + -180 ], %i3
4000b5e4:	e6 06 e0 04 	ld  [ %i3 + 4 ], %l3
4000b5e8:	b9 34 e0 02 	srl  %l3, 2, %i4
4000b5ec:	80 a7 20 00 	cmp  %i4, 0
4000b5f0:	02 80 00 99 	be  4000b854 <_vfiprintf_r+0x15d0>
4000b5f4:	f2 06 c0 00 	ld  [ %i3 ], %i1
4000b5f8:	10 80 00 05 	b  4000b60c <_vfiprintf_r+0x1388>
4000b5fc:	ba 10 20 00 	clr  %i5
4000b600:	80 a7 00 1d 	cmp  %i4, %i5
4000b604:	02 80 00 94 	be  4000b854 <_vfiprintf_r+0x15d0>
4000b608:	c2 07 bf 54 	ld  [ %fp + -172 ], %g1
4000b60c:	83 2f 60 02 	sll  %i5, 2, %g1
4000b610:	94 10 00 15 	mov  %l5, %o2
4000b614:	d2 06 40 01 	ld  [ %i1 + %g1 ], %o1
4000b618:	40 00 03 4e 	call  4000c350 <_fputwc_r>
4000b61c:	90 10 00 12 	mov  %l2, %o0
4000b620:	80 a2 3f ff 	cmp  %o0, -1
4000b624:	32 bf ff f7 	bne,a   4000b600 <_vfiprintf_r+0x137c>
4000b628:	ba 07 60 01 	inc  %i5
4000b62c:	10 bf fb 93 	b  4000a478 <_vfiprintf_r+0x1f4>
4000b630:	c2 15 60 0c 	lduh  [ %l5 + 0xc ], %g1
4000b634:	b2 07 bf 60 	add  %fp, -160, %i1
4000b638:	c2 27 bf 58 	st  %g1, [ %fp + -168 ]
4000b63c:	90 10 20 01 	mov  1, %o0
4000b640:	82 10 20 02 	mov  2, %g1
4000b644:	84 02 20 01 	add  %o0, 1, %g2
4000b648:	c2 27 bf 5c 	st  %g1, [ %fp + -164 ]
4000b64c:	10 bf fd 4c 	b  4000ab7c <_vfiprintf_r+0x8f8>
4000b650:	86 06 60 08 	add  %i1, 8, %g3
4000b654:	a2 0c 7f fc 	and  %l1, -4, %l1
4000b658:	82 20 40 11 	sub  %g1, %l1, %g1
4000b65c:	c2 27 bf 54 	st  %g1, [ %fp + -172 ]
4000b660:	80 a0 60 00 	cmp  %g1, 0
4000b664:	12 bf fb 72 	bne  4000a42c <_vfiprintf_r+0x1a8>
4000b668:	b0 06 20 08 	add  %i0, 8, %i0
4000b66c:	c4 07 bf 08 	ld  [ %fp + -248 ], %g2
4000b670:	c0 27 bf 50 	clr  [ %fp + -176 ]
4000b674:	84 00 80 1b 	add  %g2, %i3, %g2
4000b678:	c2 0f 20 01 	ldub  [ %i4 + 1 ], %g1
4000b67c:	b2 07 bf 58 	add  %fp, -168, %i1
4000b680:	c4 27 bf 08 	st  %g2, [ %fp + -248 ]
4000b684:	10 bf fb 9c 	b  4000a4f4 <_vfiprintf_r+0x270>
4000b688:	83 28 60 18 	sll  %g1, 0x18, %g1
4000b68c:	ac 0d bf fc 	and  %l6, -4, %l6
4000b690:	82 20 40 16 	sub  %g1, %l6, %g1
4000b694:	c2 27 bf 54 	st  %g1, [ %fp + -172 ]
4000b698:	80 a0 60 00 	cmp  %g1, 0
4000b69c:	12 bf fb d7 	bne  4000a5f8 <_vfiprintf_r+0x374>
4000b6a0:	b2 06 60 08 	add  %i1, 8, %i1
4000b6a4:	10 bf fe ab 	b  4000b150 <_vfiprintf_r+0xecc>
4000b6a8:	c2 07 be f4 	ld  [ %fp + -268 ], %g1
4000b6ac:	ac 0d bf fc 	and  %l6, -4, %l6
4000b6b0:	82 20 40 16 	sub  %g1, %l6, %g1
4000b6b4:	c2 27 bf 54 	st  %g1, [ %fp + -172 ]
4000b6b8:	80 a0 60 00 	cmp  %g1, 0
4000b6bc:	12 bf fd 13 	bne  4000ab08 <_vfiprintf_r+0x884>
4000b6c0:	b2 06 60 08 	add  %i1, 8, %i1
4000b6c4:	86 07 bf 60 	add  %fp, -160, %g3
4000b6c8:	84 10 20 01 	mov  1, %g2
4000b6cc:	90 10 20 00 	clr  %o0
4000b6d0:	10 bf fd 2b 	b  4000ab7c <_vfiprintf_r+0x8f8>
4000b6d4:	b2 07 bf 58 	add  %fp, -168, %i1
4000b6d8:	80 8c 20 10 	btst  0x10, %l0
4000b6dc:	12 80 00 0f 	bne  4000b718 <_vfiprintf_r+0x1494>
4000b6e0:	82 00 a0 04 	add  %g2, 4, %g1
4000b6e4:	80 8c 20 40 	btst  0x40, %l0
4000b6e8:	02 80 00 0a 	be  4000b710 <_vfiprintf_r+0x148c>
4000b6ec:	80 8c 22 00 	btst  0x200, %l0
4000b6f0:	c4 10 a0 02 	lduh  [ %g2 + 2 ], %g2
4000b6f4:	c2 27 bf 04 	st  %g1, [ %fp + -252 ]
4000b6f8:	86 10 00 02 	mov  %g2, %g3
4000b6fc:	ba 0c 3b ff 	and  %l0, -1025, %i5
4000b700:	84 10 20 00 	clr  %g2
4000b704:	82 10 20 00 	clr  %g1
4000b708:	10 bf fc 4b 	b  4000a834 <_vfiprintf_r+0x5b0>
4000b70c:	c4 3f be f8 	std  %g2, [ %fp + -264 ]
4000b710:	32 80 01 70 	bne,a   4000bcd0 <_vfiprintf_r+0x1a4c>
4000b714:	c4 08 a0 03 	ldub  [ %g2 + 3 ], %g2
4000b718:	c4 00 80 00 	ld  [ %g2 ], %g2
4000b71c:	ba 0c 3b ff 	and  %l0, -1025, %i5
4000b720:	86 10 00 02 	mov  %g2, %g3
4000b724:	c2 27 bf 04 	st  %g1, [ %fp + -252 ]
4000b728:	84 10 20 00 	clr  %g2
4000b72c:	82 10 20 00 	clr  %g1
4000b730:	10 bf fc 41 	b  4000a834 <_vfiprintf_r+0x5b0>
4000b734:	c4 3f be f8 	std  %g2, [ %fp + -264 ]
4000b738:	80 8c 20 10 	btst  0x10, %l0
4000b73c:	12 80 00 10 	bne  4000b77c <_vfiprintf_r+0x14f8>
4000b740:	82 00 a0 04 	add  %g2, 4, %g1
4000b744:	80 8c 20 40 	btst  0x40, %l0
4000b748:	02 80 00 0b 	be  4000b774 <_vfiprintf_r+0x14f0>
4000b74c:	80 8c 22 00 	btst  0x200, %l0
4000b750:	c4 00 80 00 	ld  [ %g2 ], %g2
4000b754:	c2 27 bf 04 	st  %g1, [ %fp + -252 ]
4000b758:	83 28 a0 10 	sll  %g2, 0x10, %g1
4000b75c:	85 38 60 1f 	sra  %g1, 0x1f, %g2
4000b760:	83 38 60 10 	sra  %g1, 0x10, %g1
4000b764:	c4 27 be f8 	st  %g2, [ %fp + -264 ]
4000b768:	c2 27 be fc 	st  %g1, [ %fp + -260 ]
4000b76c:	10 bf fb ed 	b  4000a720 <_vfiprintf_r+0x49c>
4000b770:	82 10 00 02 	mov  %g2, %g1
4000b774:	32 80 01 4f 	bne,a   4000bcb0 <_vfiprintf_r+0x1a2c>
4000b778:	c4 00 80 00 	ld  [ %g2 ], %g2
4000b77c:	c6 00 80 00 	ld  [ %g2 ], %g3
4000b780:	c2 27 bf 04 	st  %g1, [ %fp + -252 ]
4000b784:	85 38 e0 1f 	sra  %g3, 0x1f, %g2
4000b788:	c6 27 be fc 	st  %g3, [ %fp + -260 ]
4000b78c:	82 10 00 02 	mov  %g2, %g1
4000b790:	80 a0 60 00 	cmp  %g1, 0
4000b794:	16 bf fb e6 	bge  4000a72c <_vfiprintf_r+0x4a8>
4000b798:	c4 27 be f8 	st  %g2, [ %fp + -264 ]
4000b79c:	f8 1f be f8 	ldd  [ %fp + -264 ], %i4
4000b7a0:	82 10 20 2d 	mov  0x2d, %g1
4000b7a4:	86 a0 00 1d 	subcc  %g0, %i5, %g3
4000b7a8:	c2 2f bf 1f 	stb  %g1, [ %fp + -225 ]
4000b7ac:	84 60 00 1c 	subx  %g0, %i4, %g2
4000b7b0:	ba 10 00 10 	mov  %l0, %i5
4000b7b4:	c4 3f be f8 	std  %g2, [ %fp + -264 ]
4000b7b8:	10 bf fc 20 	b  4000a838 <_vfiprintf_r+0x5b4>
4000b7bc:	82 10 20 01 	mov  1, %g1
4000b7c0:	80 8f 60 10 	btst  0x10, %i5
4000b7c4:	02 80 00 31 	be  4000b888 <_vfiprintf_r+0x1604>
4000b7c8:	84 00 60 04 	add  %g1, 4, %g2
4000b7cc:	c6 00 40 00 	ld  [ %g1 ], %g3
4000b7d0:	9a 10 00 03 	mov  %g3, %o5
4000b7d4:	98 10 20 00 	clr  %o4
4000b7d8:	82 10 20 01 	mov  1, %g1
4000b7dc:	d8 3f be f8 	std  %o4, [ %fp + -264 ]
4000b7e0:	10 bf fc 15 	b  4000a834 <_vfiprintf_r+0x5b0>
4000b7e4:	c4 27 bf 04 	st  %g2, [ %fp + -252 ]
4000b7e8:	80 a0 60 00 	cmp  %g1, 0
4000b7ec:	02 bf fc a4 	be  4000aa7c <_vfiprintf_r+0x7f8>
4000b7f0:	05 00 00 08 	sethi  %hi(0x2000), %g2
4000b7f4:	c6 05 60 60 	ld  [ %l5 + 0x60 ], %g3
4000b7f8:	80 88 c0 02 	btst  %g3, %g2
4000b7fc:	02 bf fc 98 	be  4000aa5c <_vfiprintf_r+0x7d8>
4000b800:	e6 07 bf 4c 	ld  [ %fp + -180 ], %l3
4000b804:	ec 04 e0 04 	ld  [ %l3 + 4 ], %l6
4000b808:	b9 35 a0 02 	srl  %l6, 2, %i4
4000b80c:	80 a7 20 00 	cmp  %i4, 0
4000b810:	02 80 00 aa 	be  4000bab8 <_vfiprintf_r+0x1834>
4000b814:	f2 04 c0 00 	ld  [ %l3 ], %i1
4000b818:	10 80 00 05 	b  4000b82c <_vfiprintf_r+0x15a8>
4000b81c:	ba 10 20 00 	clr  %i5
4000b820:	80 a7 00 1d 	cmp  %i4, %i5
4000b824:	02 80 00 a5 	be  4000bab8 <_vfiprintf_r+0x1834>
4000b828:	c2 07 bf 54 	ld  [ %fp + -172 ], %g1
4000b82c:	83 2f 60 02 	sll  %i5, 2, %g1
4000b830:	94 10 00 15 	mov  %l5, %o2
4000b834:	d2 06 40 01 	ld  [ %i1 + %g1 ], %o1
4000b838:	40 00 02 c6 	call  4000c350 <_fputwc_r>
4000b83c:	90 10 00 12 	mov  %l2, %o0
4000b840:	80 a2 3f ff 	cmp  %o0, -1
4000b844:	32 bf ff f7 	bne,a   4000b820 <_vfiprintf_r+0x159c>
4000b848:	ba 07 60 01 	inc  %i5
4000b84c:	10 bf fb 0b 	b  4000a478 <_vfiprintf_r+0x1f4>
4000b850:	c2 15 60 0c 	lduh  [ %l5 + 0xc ], %g1
4000b854:	a6 0c ff fc 	and  %l3, -4, %l3
4000b858:	82 20 40 13 	sub  %g1, %l3, %g1
4000b85c:	c2 27 bf 54 	st  %g1, [ %fp + -172 ]
4000b860:	80 a0 60 00 	cmp  %g1, 0
4000b864:	12 bf ff 60 	bne  4000b5e4 <_vfiprintf_r+0x1360>
4000b868:	b6 06 e0 08 	add  %i3, 8, %i3
4000b86c:	10 bf fc f9 	b  4000ac50 <_vfiprintf_r+0x9cc>
4000b870:	c2 07 bf 0c 	ld  [ %fp + -244 ], %g1
4000b874:	84 01 20 01 	add  %g4, 1, %g2
4000b878:	86 07 60 08 	add  %i5, 8, %g3
4000b87c:	90 10 00 04 	mov  %g4, %o0
4000b880:	10 bf fc c3 	b  4000ab8c <_vfiprintf_r+0x908>
4000b884:	b2 10 00 1d 	mov  %i5, %i1
4000b888:	80 8f 60 40 	btst  0x40, %i5
4000b88c:	02 80 00 cf 	be  4000bbc8 <_vfiprintf_r+0x1944>
4000b890:	80 8f 62 00 	btst  0x200, %i5
4000b894:	10 bf ff cf 	b  4000b7d0 <_vfiprintf_r+0x154c>
4000b898:	c6 10 60 02 	lduh  [ %g1 + 2 ], %g3
4000b89c:	82 27 00 0f 	sub  %i4, %o7, %g1
4000b8a0:	a0 10 00 1d 	mov  %i5, %l0
4000b8a4:	c2 27 bf 0c 	st  %g1, [ %fp + -244 ]
4000b8a8:	82 10 20 30 	mov  0x30, %g1
4000b8ac:	c2 2e 3f ff 	stb  %g1, [ %i0 + -1 ]
4000b8b0:	10 bf fb ab 	b  4000a75c <_vfiprintf_r+0x4d8>
4000b8b4:	b0 10 00 0f 	mov  %o7, %i0
4000b8b8:	c6 07 bf 08 	ld  [ %fp + -248 ], %g3
4000b8bc:	85 38 e0 1f 	sra  %g3, 0x1f, %g2
4000b8c0:	c6 20 60 04 	st  %g3, [ %g1 + 4 ]
4000b8c4:	10 bf fa b3 	b  4000a390 <_vfiprintf_r+0x10c>
4000b8c8:	c4 20 40 00 	st  %g2, [ %g1 ]
4000b8cc:	c4 0c 40 00 	ldub  [ %l1 ], %g2
4000b8d0:	80 a0 e0 00 	cmp  %g3, 0
4000b8d4:	02 bf fb 13 	be  4000a520 <_vfiprintf_r+0x29c>
4000b8d8:	83 28 a0 18 	sll  %g2, 0x18, %g1
4000b8dc:	10 bf fb 11 	b  4000a520 <_vfiprintf_r+0x29c>
4000b8e0:	a0 14 24 00 	or  %l0, 0x400, %l0
4000b8e4:	80 a0 60 00 	cmp  %g1, 0
4000b8e8:	32 bf fc 9c 	bne,a   4000ab58 <_vfiprintf_r+0x8d4>
4000b8ec:	82 07 bf 20 	add  %fp, -224, %g1
4000b8f0:	90 10 20 00 	clr  %o0
4000b8f4:	86 07 bf 60 	add  %fp, -160, %g3
4000b8f8:	84 10 20 01 	mov  1, %g2
4000b8fc:	10 bf fc a4 	b  4000ab8c <_vfiprintf_r+0x908>
4000b900:	b2 07 bf 58 	add  %fp, -168, %i1
4000b904:	c2 07 be e4 	ld  [ %fp + -284 ], %g1
4000b908:	c2 27 be ec 	st  %g1, [ %fp + -276 ]
4000b90c:	80 8c 20 20 	btst  0x20, %l0
4000b910:	02 80 00 21 	be  4000b994 <_vfiprintf_r+0x1710>
4000b914:	ba 10 20 78 	mov  0x78, %i5
4000b918:	c2 07 bf 04 	ld  [ %fp + -252 ], %g1
4000b91c:	92 10 00 01 	mov  %g1, %o1
4000b920:	82 00 60 08 	add  %g1, 8, %g1
4000b924:	94 10 20 08 	mov  8, %o2
4000b928:	90 07 bf 40 	add  %fp, -192, %o0
4000b92c:	7f ff da 39 	call  40002210 <memcpy>
4000b930:	c2 27 bf 04 	st  %g1, [ %fp + -252 ]
4000b934:	c4 1f bf 40 	ldd  [ %fp + -192 ], %g2
4000b938:	c4 3f be f8 	std  %g2, [ %fp + -264 ]
4000b93c:	80 90 80 03 	orcc  %g2, %g3, %g0
4000b940:	02 80 00 04 	be  4000b950 <_vfiprintf_r+0x16cc>
4000b944:	80 8c 20 01 	btst  1, %l0
4000b948:	32 80 00 05 	bne,a   4000b95c <_vfiprintf_r+0x16d8>
4000b94c:	82 10 20 30 	mov  0x30, %g1
4000b950:	ba 0c 3b ff 	and  %l0, -1025, %i5
4000b954:	10 bf fb b8 	b  4000a834 <_vfiprintf_r+0x5b0>
4000b958:	82 10 20 02 	mov  2, %g1
4000b95c:	fa 2f bf 21 	stb  %i5, [ %fp + -223 ]
4000b960:	c2 2f bf 20 	stb  %g1, [ %fp + -224 ]
4000b964:	a0 14 20 02 	or  %l0, 2, %l0
4000b968:	82 10 20 02 	mov  2, %g1
4000b96c:	10 bf fb b2 	b  4000a834 <_vfiprintf_r+0x5b0>
4000b970:	ba 0c 3b ff 	and  %l0, -1025, %i5
4000b974:	10 bf fc 16 	b  4000a9cc <_vfiprintf_r+0x748>
4000b978:	ba 10 00 10 	mov  %l0, %i5
4000b97c:	03 10 00 3b 	sethi  %hi(0x4000ec00), %g1
4000b980:	82 10 61 10 	or  %g1, 0x110, %g1	! 4000ed10 <_global_impure_ptr+0x3c>
4000b984:	c2 27 be ec 	st  %g1, [ %fp + -276 ]
4000b988:	80 8c 20 20 	btst  0x20, %l0
4000b98c:	12 bf ff e3 	bne  4000b918 <_vfiprintf_r+0x1694>
4000b990:	ba 10 20 58 	mov  0x58, %i5
4000b994:	c4 07 bf 04 	ld  [ %fp + -252 ], %g2
4000b998:	80 8c 20 10 	btst  0x10, %l0
4000b99c:	12 80 00 30 	bne  4000ba5c <_vfiprintf_r+0x17d8>
4000b9a0:	82 00 a0 04 	add  %g2, 4, %g1
4000b9a4:	80 8c 20 40 	btst  0x40, %l0
4000b9a8:	02 80 00 2b 	be  4000ba54 <_vfiprintf_r+0x17d0>
4000b9ac:	80 8c 22 00 	btst  0x200, %l0
4000b9b0:	c4 10 a0 02 	lduh  [ %g2 + 2 ], %g2
4000b9b4:	c2 27 bf 04 	st  %g1, [ %fp + -252 ]
4000b9b8:	86 10 00 02 	mov  %g2, %g3
4000b9bc:	84 10 20 00 	clr  %g2
4000b9c0:	10 bf ff df 	b  4000b93c <_vfiprintf_r+0x16b8>
4000b9c4:	c4 3f be f8 	std  %g2, [ %fp + -264 ]
4000b9c8:	90 10 00 18 	mov  %i0, %o0
4000b9cc:	7f ff f9 0a 	call  40009df4 <strlen>
4000b9d0:	b6 10 20 00 	clr  %i3
4000b9d4:	10 bf fb 62 	b  4000a75c <_vfiprintf_r+0x4d8>
4000b9d8:	d0 27 bf 0c 	st  %o0, [ %fp + -244 ]
4000b9dc:	80 8f 64 00 	btst  0x400, %i5
4000b9e0:	12 80 00 7e 	bne  4000bbd8 <_vfiprintf_r+0x1954>
4000b9e4:	b8 07 bf fc 	add  %fp, -4, %i4
4000b9e8:	a6 10 00 11 	mov  %l1, %l3
4000b9ec:	b0 10 00 1c 	mov  %i4, %i0
4000b9f0:	e0 1f be f8 	ldd  [ %fp + -264 ], %l0
4000b9f4:	94 10 20 00 	clr  %o2
4000b9f8:	96 10 20 0a 	mov  0xa, %o3
4000b9fc:	90 10 00 10 	mov  %l0, %o0
4000ba00:	40 00 0b 90 	call  4000e840 <__umoddi3>
4000ba04:	92 10 00 11 	mov  %l1, %o1
4000ba08:	82 02 60 30 	add  %o1, 0x30, %g1
4000ba0c:	90 10 00 10 	mov  %l0, %o0
4000ba10:	92 10 00 11 	mov  %l1, %o1
4000ba14:	94 10 20 00 	clr  %o2
4000ba18:	96 10 20 0a 	mov  0xa, %o3
4000ba1c:	40 00 0a b4 	call  4000e4ec <__udivdi3>
4000ba20:	c2 2e 3f ff 	stb  %g1, [ %i0 + -1 ]
4000ba24:	b0 06 3f ff 	add  %i0, -1, %i0
4000ba28:	84 10 00 11 	mov  %l1, %g2
4000ba2c:	80 a4 20 00 	cmp  %l0, 0
4000ba30:	a2 10 00 09 	mov  %o1, %l1
4000ba34:	12 bf ff f0 	bne  4000b9f4 <_vfiprintf_r+0x1770>
4000ba38:	a0 10 00 08 	mov  %o0, %l0
4000ba3c:	80 a0 a0 09 	cmp  %g2, 9
4000ba40:	18 bf ff ee 	bgu  4000b9f8 <_vfiprintf_r+0x1774>
4000ba44:	94 10 20 00 	clr  %o2
4000ba48:	e0 3f be f8 	std  %l0, [ %fp + -264 ]
4000ba4c:	10 bf fc e3 	b  4000add8 <_vfiprintf_r+0xb54>
4000ba50:	a2 10 00 13 	mov  %l3, %l1
4000ba54:	32 80 00 a6 	bne,a   4000bcec <_vfiprintf_r+0x1a68>
4000ba58:	c4 08 a0 03 	ldub  [ %g2 + 3 ], %g2
4000ba5c:	c4 00 80 00 	ld  [ %g2 ], %g2
4000ba60:	c2 27 bf 04 	st  %g1, [ %fp + -252 ]
4000ba64:	86 10 00 02 	mov  %g2, %g3
4000ba68:	84 10 20 00 	clr  %g2
4000ba6c:	10 bf ff b4 	b  4000b93c <_vfiprintf_r+0x16b8>
4000ba70:	c4 3f be f8 	std  %g2, [ %fp + -264 ]
4000ba74:	92 10 00 15 	mov  %l5, %o1
4000ba78:	40 00 02 82 	call  4000c480 <__sfvwrite_r>
4000ba7c:	90 10 00 12 	mov  %l2, %o0
4000ba80:	c0 27 bf 54 	clr  [ %fp + -172 ]
4000ba84:	80 a2 20 00 	cmp  %o0, 0
4000ba88:	02 bf fc af 	be  4000ad44 <_vfiprintf_r+0xac0>
4000ba8c:	c0 27 bf 50 	clr  [ %fp + -176 ]
4000ba90:	10 bf fa 7a 	b  4000a478 <_vfiprintf_r+0x1f4>
4000ba94:	c2 15 60 0c 	lduh  [ %l5 + 0xc ], %g1
4000ba98:	a0 14 20 20 	or  %l0, 0x20, %l0
4000ba9c:	a2 04 60 01 	inc  %l1
4000baa0:	10 bf fa a0 	b  4000a520 <_vfiprintf_r+0x29c>
4000baa4:	83 28 a0 18 	sll  %g2, 0x18, %g1
4000baa8:	a0 14 22 00 	or  %l0, 0x200, %l0
4000baac:	a2 04 60 01 	inc  %l1
4000bab0:	10 bf fa 9c 	b  4000a520 <_vfiprintf_r+0x29c>
4000bab4:	83 28 a0 18 	sll  %g2, 0x18, %g1
4000bab8:	ac 0d bf fc 	and  %l6, -4, %l6
4000babc:	82 20 40 16 	sub  %g1, %l6, %g1
4000bac0:	c2 27 bf 54 	st  %g1, [ %fp + -172 ]
4000bac4:	80 a0 60 00 	cmp  %g1, 0
4000bac8:	12 bf ff 4f 	bne  4000b804 <_vfiprintf_r+0x1580>
4000bacc:	a6 04 e0 08 	add  %l3, 8, %l3
4000bad0:	10 bf fb ec 	b  4000aa80 <_vfiprintf_r+0x7fc>
4000bad4:	c2 4f bf 1f 	ldsb  [ %fp + -225 ], %g1
4000bad8:	80 a6 e0 06 	cmp  %i3, 6
4000badc:	18 80 00 72 	bgu  4000bca4 <_vfiprintf_r+0x1a20>
4000bae0:	f6 27 bf 0c 	st  %i3, [ %fp + -244 ]
4000bae4:	31 10 00 3b 	sethi  %hi(0x4000ec00), %i0
4000bae8:	e8 07 bf 0c 	ld  [ %fp + -244 ], %l4
4000baec:	10 bf fa 9f 	b  4000a568 <_vfiprintf_r+0x2e4>
4000baf0:	b0 16 21 28 	or  %i0, 0x128, %i0
4000baf4:	94 07 bf 4c 	add  %fp, -180, %o2
4000baf8:	92 10 00 15 	mov  %l5, %o1
4000bafc:	40 00 02 61 	call  4000c480 <__sfvwrite_r>
4000bb00:	90 10 00 12 	mov  %l2, %o0
4000bb04:	c0 27 bf 54 	clr  [ %fp + -172 ]
4000bb08:	80 a2 20 00 	cmp  %o0, 0
4000bb0c:	12 bf fa 5a 	bne  4000a474 <_vfiprintf_r+0x1f0>
4000bb10:	c0 27 bf 50 	clr  [ %fp + -176 ]
4000bb14:	86 07 bf 60 	add  %fp, -160, %g3
4000bb18:	84 10 20 01 	mov  1, %g2
4000bb1c:	82 10 20 00 	clr  %g1
4000bb20:	10 bf fc 1b 	b  4000ab8c <_vfiprintf_r+0x908>
4000bb24:	b2 07 bf 58 	add  %fp, -168, %i1
4000bb28:	10 bf fa 1a 	b  4000a390 <_vfiprintf_r+0x10c>
4000bb2c:	c4 20 40 00 	st  %g2, [ %g1 ]
4000bb30:	b0 0e 3f fc 	and  %i0, -4, %i0
4000bb34:	82 20 40 18 	sub  %g1, %i0, %g1
4000bb38:	c2 27 bf 54 	st  %g1, [ %fp + -172 ]
4000bb3c:	80 a0 60 00 	cmp  %g1, 0
4000bb40:	12 bf fe 56 	bne  4000b498 <_vfiprintf_r+0x1214>
4000bb44:	b6 06 e0 08 	add  %i3, 8, %i3
4000bb48:	10 bf fc 80 	b  4000ad48 <_vfiprintf_r+0xac4>
4000bb4c:	80 a6 80 14 	cmp  %i2, %l4
4000bb50:	c2 07 bf 54 	ld  [ %fp + -172 ], %g1
4000bb54:	80 a0 60 00 	cmp  %g1, 0
4000bb58:	22 bf fa 48 	be,a   4000a478 <_vfiprintf_r+0x1f4>
4000bb5c:	c2 15 60 0c 	lduh  [ %l5 + 0xc ], %g1
4000bb60:	c6 05 60 60 	ld  [ %l5 + 0x60 ], %g3
4000bb64:	05 00 00 08 	sethi  %hi(0x2000), %g2
4000bb68:	80 88 c0 02 	btst  %g3, %g2
4000bb6c:	02 80 00 8c 	be  4000bd9c <_vfiprintf_r+0x1b18>
4000bb70:	94 07 bf 4c 	add  %fp, -180, %o2
4000bb74:	f4 07 bf 4c 	ld  [ %fp + -180 ], %i2
4000bb78:	f2 06 a0 04 	ld  [ %i2 + 4 ], %i1
4000bb7c:	b9 36 60 02 	srl  %i1, 2, %i4
4000bb80:	80 a7 20 00 	cmp  %i4, 0
4000bb84:	02 80 00 7e 	be  4000bd7c <_vfiprintf_r+0x1af8>
4000bb88:	f6 06 80 00 	ld  [ %i2 ], %i3
4000bb8c:	10 80 00 05 	b  4000bba0 <_vfiprintf_r+0x191c>
4000bb90:	ba 10 20 00 	clr  %i5
4000bb94:	80 a7 00 1d 	cmp  %i4, %i5
4000bb98:	02 80 00 79 	be  4000bd7c <_vfiprintf_r+0x1af8>
4000bb9c:	c2 07 bf 54 	ld  [ %fp + -172 ], %g1
4000bba0:	83 2f 60 02 	sll  %i5, 2, %g1
4000bba4:	94 10 00 15 	mov  %l5, %o2
4000bba8:	d2 06 c0 01 	ld  [ %i3 + %g1 ], %o1
4000bbac:	40 00 01 e9 	call  4000c350 <_fputwc_r>
4000bbb0:	90 10 00 12 	mov  %l2, %o0
4000bbb4:	80 a2 3f ff 	cmp  %o0, -1
4000bbb8:	32 bf ff f7 	bne,a   4000bb94 <_vfiprintf_r+0x1910>
4000bbbc:	ba 07 60 01 	inc  %i5
4000bbc0:	10 bf fa 2e 	b  4000a478 <_vfiprintf_r+0x1f4>
4000bbc4:	c2 15 60 0c 	lduh  [ %l5 + 0xc ], %g1
4000bbc8:	22 bf ff 02 	be,a   4000b7d0 <_vfiprintf_r+0x154c>
4000bbcc:	c6 00 40 00 	ld  [ %g1 ], %g3
4000bbd0:	10 bf ff 00 	b  4000b7d0 <_vfiprintf_r+0x154c>
4000bbd4:	c6 08 60 03 	ldub  [ %g1 + 3 ], %g3
4000bbd8:	ae 10 00 15 	mov  %l5, %l7
4000bbdc:	a0 10 20 00 	clr  %l0
4000bbe0:	b0 10 00 1c 	mov  %i4, %i0
4000bbe4:	ec 07 be dc 	ld  [ %fp + -292 ], %l6
4000bbe8:	e6 07 be e8 	ld  [ %fp + -280 ], %l3
4000bbec:	e8 1f be f8 	ldd  [ %fp + -264 ], %l4
4000bbf0:	94 10 20 00 	clr  %o2
4000bbf4:	96 10 20 0a 	mov  0xa, %o3
4000bbf8:	90 10 00 14 	mov  %l4, %o0
4000bbfc:	40 00 0b 11 	call  4000e840 <__umoddi3>
4000bc00:	92 10 00 15 	mov  %l5, %o1
4000bc04:	92 02 60 30 	add  %o1, 0x30, %o1
4000bc08:	d2 2e 3f ff 	stb  %o1, [ %i0 + -1 ]
4000bc0c:	a0 04 20 01 	inc  %l0
4000bc10:	c2 4c c0 00 	ldsb  [ %l3 ], %g1
4000bc14:	80 a0 40 10 	cmp  %g1, %l0
4000bc18:	12 80 00 05 	bne  4000bc2c <_vfiprintf_r+0x19a8>
4000bc1c:	b0 06 3f ff 	add  %i0, -1, %i0
4000bc20:	80 a0 60 7f 	cmp  %g1, 0x7f
4000bc24:	12 80 00 0d 	bne  4000bc58 <_vfiprintf_r+0x19d4>
4000bc28:	80 a5 20 00 	cmp  %l4, 0
4000bc2c:	94 10 20 00 	clr  %o2
4000bc30:	96 10 20 0a 	mov  0xa, %o3
4000bc34:	90 10 00 14 	mov  %l4, %o0
4000bc38:	40 00 0a 2d 	call  4000e4ec <__udivdi3>
4000bc3c:	92 10 00 15 	mov  %l5, %o1
4000bc40:	80 a5 20 00 	cmp  %l4, 0
4000bc44:	02 80 00 40 	be  4000bd44 <_vfiprintf_r+0x1ac0>
4000bc48:	80 a5 60 09 	cmp  %l5, 9
4000bc4c:	a8 10 00 08 	mov  %o0, %l4
4000bc50:	10 bf ff e8 	b  4000bbf0 <_vfiprintf_r+0x196c>
4000bc54:	aa 10 00 09 	mov  %o1, %l5
4000bc58:	12 80 00 2a 	bne  4000bd00 <_vfiprintf_r+0x1a7c>
4000bc5c:	80 a5 60 09 	cmp  %l5, 9
4000bc60:	18 80 00 29 	bgu  4000bd04 <_vfiprintf_r+0x1a80>
4000bc64:	94 10 00 16 	mov  %l6, %o2
4000bc68:	e8 3f be f8 	std  %l4, [ %fp + -264 ]
4000bc6c:	e6 27 be e8 	st  %l3, [ %fp + -280 ]
4000bc70:	10 bf fc 5a 	b  4000add8 <_vfiprintf_r+0xb54>
4000bc74:	aa 10 00 17 	mov  %l7, %l5
4000bc78:	ac 0d bf fc 	and  %l6, -4, %l6
4000bc7c:	82 20 40 16 	sub  %g1, %l6, %g1
4000bc80:	c2 27 bf 54 	st  %g1, [ %fp + -172 ]
4000bc84:	80 a0 60 00 	cmp  %g1, 0
4000bc88:	12 bf fc ac 	bne  4000af38 <_vfiprintf_r+0xcb4>
4000bc8c:	a6 04 e0 08 	add  %l3, 8, %l3
4000bc90:	86 07 bf 60 	add  %fp, -160, %g3
4000bc94:	84 10 20 01 	mov  1, %g2
4000bc98:	90 10 20 00 	clr  %o0
4000bc9c:	10 bf fb bc 	b  4000ab8c <_vfiprintf_r+0x908>
4000bca0:	b2 07 bf 58 	add  %fp, -168, %i1
4000bca4:	82 10 20 06 	mov  6, %g1
4000bca8:	10 bf ff 8f 	b  4000bae4 <_vfiprintf_r+0x1860>
4000bcac:	c2 27 bf 0c 	st  %g1, [ %fp + -244 ]
4000bcb0:	c2 27 bf 04 	st  %g1, [ %fp + -252 ]
4000bcb4:	83 28 a0 18 	sll  %g2, 0x18, %g1
4000bcb8:	85 38 60 1f 	sra  %g1, 0x1f, %g2
4000bcbc:	83 38 60 18 	sra  %g1, 0x18, %g1
4000bcc0:	c4 27 be f8 	st  %g2, [ %fp + -264 ]
4000bcc4:	c2 27 be fc 	st  %g1, [ %fp + -260 ]
4000bcc8:	10 bf fa 96 	b  4000a720 <_vfiprintf_r+0x49c>
4000bccc:	82 10 00 02 	mov  %g2, %g1
4000bcd0:	c2 27 bf 04 	st  %g1, [ %fp + -252 ]
4000bcd4:	86 10 00 02 	mov  %g2, %g3
4000bcd8:	ba 0c 3b ff 	and  %l0, -1025, %i5
4000bcdc:	84 10 20 00 	clr  %g2
4000bce0:	82 10 20 00 	clr  %g1
4000bce4:	10 bf fa d4 	b  4000a834 <_vfiprintf_r+0x5b0>
4000bce8:	c4 3f be f8 	std  %g2, [ %fp + -264 ]
4000bcec:	c2 27 bf 04 	st  %g1, [ %fp + -252 ]
4000bcf0:	86 10 00 02 	mov  %g2, %g3
4000bcf4:	84 10 20 00 	clr  %g2
4000bcf8:	10 bf ff 11 	b  4000b93c <_vfiprintf_r+0x16b8>
4000bcfc:	c4 3f be f8 	std  %g2, [ %fp + -264 ]
4000bd00:	94 10 00 16 	mov  %l6, %o2
4000bd04:	d2 07 be e0 	ld  [ %fp + -288 ], %o1
4000bd08:	b0 26 00 16 	sub  %i0, %l6, %i0
4000bd0c:	7f ff f8 65 	call  40009ea0 <strncpy>
4000bd10:	90 10 00 18 	mov  %i0, %o0
4000bd14:	c2 4c e0 01 	ldsb  [ %l3 + 1 ], %g1
4000bd18:	80 a0 00 01 	cmp  %g0, %g1
4000bd1c:	90 10 00 14 	mov  %l4, %o0
4000bd20:	92 10 00 15 	mov  %l5, %o1
4000bd24:	94 10 20 00 	clr  %o2
4000bd28:	96 10 20 0a 	mov  0xa, %o3
4000bd2c:	a6 40 00 13 	addx  %g0, %l3, %l3
4000bd30:	40 00 09 ef 	call  4000e4ec <__udivdi3>
4000bd34:	a0 10 20 00 	clr  %l0
4000bd38:	a8 10 00 08 	mov  %o0, %l4
4000bd3c:	10 bf ff ad 	b  4000bbf0 <_vfiprintf_r+0x196c>
4000bd40:	aa 10 00 09 	mov  %o1, %l5
4000bd44:	28 bf ff ca 	bleu,a   4000bc6c <_vfiprintf_r+0x19e8>
4000bd48:	e8 3f be f8 	std  %l4, [ %fp + -264 ]
4000bd4c:	a8 10 00 08 	mov  %o0, %l4
4000bd50:	10 bf ff a8 	b  4000bbf0 <_vfiprintf_r+0x196c>
4000bd54:	aa 10 00 09 	mov  %o1, %l5
4000bd58:	f6 27 bf 0c 	st  %i3, [ %fp + -244 ]
4000bd5c:	10 bf fa 80 	b  4000a75c <_vfiprintf_r+0x4d8>
4000bd60:	b6 10 20 00 	clr  %i3
4000bd64:	10 bf fd bd 	b  4000b458 <_vfiprintf_r+0x11d4>
4000bd68:	ba 00 a0 01 	add  %g2, 1, %i5
4000bd6c:	10 bf f9 c6 	b  4000a484 <_vfiprintf_r+0x200>
4000bd70:	c2 27 bf 08 	st  %g1, [ %fp + -248 ]
4000bd74:	10 bf fc 61 	b  4000aef8 <_vfiprintf_r+0xc74>
4000bd78:	88 10 00 02 	mov  %g2, %g4
4000bd7c:	b2 0e 7f fc 	and  %i1, -4, %i1
4000bd80:	82 20 40 19 	sub  %g1, %i1, %g1
4000bd84:	c2 27 bf 54 	st  %g1, [ %fp + -172 ]
4000bd88:	80 a0 60 00 	cmp  %g1, 0
4000bd8c:	12 bf ff 7b 	bne  4000bb78 <_vfiprintf_r+0x18f4>
4000bd90:	b4 06 a0 08 	add  %i2, 8, %i2
4000bd94:	10 bf f9 b9 	b  4000a478 <_vfiprintf_r+0x1f4>
4000bd98:	c2 15 60 0c 	lduh  [ %l5 + 0xc ], %g1
4000bd9c:	92 10 00 15 	mov  %l5, %o1
4000bda0:	40 00 01 b8 	call  4000c480 <__sfvwrite_r>
4000bda4:	90 10 00 12 	mov  %l2, %o0
4000bda8:	10 bf f9 b4 	b  4000a478 <_vfiprintf_r+0x1f4>
4000bdac:	c2 15 60 0c 	lduh  [ %l5 + 0xc ], %g1
4000bdb0:	c2 07 bf 04 	ld  [ %fp + -252 ], %g1
4000bdb4:	f6 00 40 00 	ld  [ %g1 ], %i3
4000bdb8:	82 00 60 04 	add  %g1, 4, %g1
4000bdbc:	80 a6 e0 00 	cmp  %i3, 0
4000bdc0:	16 80 00 03 	bge  4000bdcc <_vfiprintf_r+0x1b48>
4000bdc4:	c2 27 bf 04 	st  %g1, [ %fp + -252 ]
4000bdc8:	b6 10 3f ff 	mov  -1, %i3
4000bdcc:	c4 0c 60 01 	ldub  [ %l1 + 1 ], %g2
4000bdd0:	a2 10 00 03 	mov  %g3, %l1
4000bdd4:	10 bf f9 d3 	b  4000a520 <_vfiprintf_r+0x29c>
4000bdd8:	83 28 a0 18 	sll  %g2, 0x18, %g1

4000bddc <vfiprintf>:
4000bddc:	96 10 00 0a 	mov  %o2, %o3
4000bde0:	03 10 00 3c 	sethi  %hi(0x4000f000), %g1
4000bde4:	94 10 00 09 	mov  %o1, %o2
4000bde8:	92 10 00 08 	mov  %o0, %o1
4000bdec:	d0 00 63 5c 	ld  [ %g1 + 0x35c ], %o0
4000bdf0:	82 13 c0 00 	mov  %o7, %g1
4000bdf4:	7f ff f9 24 	call  4000a284 <_vfiprintf_r>
4000bdf8:	9e 10 40 00 	mov  %g1, %o7

4000bdfc <__sbprintf>:
4000bdfc:	9d e3 bb 38 	save  %sp, -1224, %sp
4000be00:	84 10 24 00 	mov  0x400, %g2
4000be04:	86 07 bc 00 	add  %fp, -1024, %g3
4000be08:	fa 06 60 20 	ld  [ %i1 + 0x20 ], %i5
4000be0c:	c2 16 60 0c 	lduh  [ %i1 + 0xc ], %g1
4000be10:	de 06 60 60 	ld  [ %i1 + 0x60 ], %o7
4000be14:	82 08 7f fd 	and  %g1, -3, %g1
4000be18:	c8 06 60 28 	ld  [ %i1 + 0x28 ], %g4
4000be1c:	f8 16 60 0e 	lduh  [ %i1 + 0xe ], %i4
4000be20:	fa 27 bb bc 	st  %i5, [ %fp + -1092 ]
4000be24:	c2 37 bb a8 	sth  %g1, [ %fp + -1112 ]
4000be28:	de 27 bb fc 	st  %o7, [ %fp + -1028 ]
4000be2c:	f8 37 bb aa 	sth  %i4, [ %fp + -1110 ]
4000be30:	c8 27 bb c4 	st  %g4, [ %fp + -1084 ]
4000be34:	c6 27 bb 9c 	st  %g3, [ %fp + -1124 ]
4000be38:	c6 27 bb ac 	st  %g3, [ %fp + -1108 ]
4000be3c:	c4 27 bb a4 	st  %g2, [ %fp + -1116 ]
4000be40:	c4 27 bb b0 	st  %g2, [ %fp + -1104 ]
4000be44:	c0 27 bb b4 	clr  [ %fp + -1100 ]
4000be48:	96 10 00 1b 	mov  %i3, %o3
4000be4c:	94 10 00 1a 	mov  %i2, %o2
4000be50:	92 07 bb 9c 	add  %fp, -1124, %o1
4000be54:	7f ff f9 0c 	call  4000a284 <_vfiprintf_r>
4000be58:	90 10 00 18 	mov  %i0, %o0
4000be5c:	ba 92 20 00 	orcc  %o0, 0, %i5
4000be60:	16 80 00 0b 	bge  4000be8c <__sbprintf+0x90>
4000be64:	92 07 bb 9c 	add  %fp, -1124, %o1
4000be68:	c2 17 bb a8 	lduh  [ %fp + -1112 ], %g1
4000be6c:	80 88 60 40 	btst  0x40, %g1
4000be70:	02 80 00 05 	be  4000be84 <__sbprintf+0x88>
4000be74:	01 00 00 00 	nop 
4000be78:	c2 16 60 0c 	lduh  [ %i1 + 0xc ], %g1
4000be7c:	82 10 60 40 	or  %g1, 0x40, %g1
4000be80:	c2 36 60 0c 	sth  %g1, [ %i1 + 0xc ]
4000be84:	81 c7 e0 08 	ret 
4000be88:	91 e8 00 1d 	restore  %g0, %i5, %o0
4000be8c:	7f ff ec 1c 	call  40006efc <_fflush_r>
4000be90:	90 10 00 18 	mov  %i0, %o0
4000be94:	80 a2 20 00 	cmp  %o0, 0
4000be98:	32 bf ff f4 	bne,a   4000be68 <__sbprintf+0x6c>
4000be9c:	ba 10 3f ff 	mov  -1, %i5
4000bea0:	10 bf ff f3 	b  4000be6c <__sbprintf+0x70>
4000bea4:	c2 17 bb a8 	lduh  [ %fp + -1112 ], %g1

4000bea8 <_write_r>:
4000bea8:	9d e3 bf a0 	save  %sp, -96, %sp
4000beac:	3b 10 00 3e 	sethi  %hi(0x4000f800), %i5
4000beb0:	94 10 00 1b 	mov  %i3, %o2
4000beb4:	c0 27 62 e8 	clr  [ %i5 + 0x2e8 ]
4000beb8:	92 10 00 1a 	mov  %i2, %o1
4000bebc:	40 00 07 a8 	call  4000dd5c <write>
4000bec0:	90 10 00 19 	mov  %i1, %o0
4000bec4:	80 a2 3f ff 	cmp  %o0, -1
4000bec8:	02 80 00 04 	be  4000bed8 <_write_r+0x30>
4000becc:	c2 07 62 e8 	ld  [ %i5 + 0x2e8 ], %g1
4000bed0:	81 c7 e0 08 	ret 
4000bed4:	91 e8 00 08 	restore  %g0, %o0, %o0
4000bed8:	80 a0 60 00 	cmp  %g1, 0
4000bedc:	02 bf ff fd 	be  4000bed0 <_write_r+0x28>
4000bee0:	01 00 00 00 	nop 
4000bee4:	c2 26 00 00 	st  %g1, [ %i0 ]
4000bee8:	81 c7 e0 08 	ret 
4000beec:	91 e8 00 08 	restore  %g0, %o0, %o0

4000bef0 <_calloc_r>:
4000bef0:	9d e3 bf a0 	save  %sp, -96, %sp
4000bef4:	92 10 00 1a 	mov  %i2, %o1
4000bef8:	40 00 07 eb 	call  4000dea4 <.umul>
4000befc:	90 10 00 19 	mov  %i1, %o0
4000bf00:	92 10 00 08 	mov  %o0, %o1
4000bf04:	7f ff ef 03 	call  40007b10 <_malloc_r>
4000bf08:	90 10 00 18 	mov  %i0, %o0
4000bf0c:	b0 92 20 00 	orcc  %o0, 0, %i0
4000bf10:	02 80 00 16 	be  4000bf68 <_calloc_r+0x78>
4000bf14:	01 00 00 00 	nop 
4000bf18:	d4 06 3f fc 	ld  [ %i0 + -4 ], %o2
4000bf1c:	94 0a bf fc 	and  %o2, -4, %o2
4000bf20:	94 02 bf fc 	add  %o2, -4, %o2
4000bf24:	80 a2 a0 24 	cmp  %o2, 0x24
4000bf28:	18 80 00 0e 	bgu  4000bf60 <_calloc_r+0x70>
4000bf2c:	80 a2 a0 13 	cmp  %o2, 0x13
4000bf30:	08 80 00 07 	bleu  4000bf4c <_calloc_r+0x5c>
4000bf34:	82 10 00 18 	mov  %i0, %g1
4000bf38:	c0 26 00 00 	clr  [ %i0 ]
4000bf3c:	c0 26 20 04 	clr  [ %i0 + 4 ]
4000bf40:	80 a2 a0 1b 	cmp  %o2, 0x1b
4000bf44:	18 80 00 0b 	bgu  4000bf70 <_calloc_r+0x80>
4000bf48:	82 06 20 08 	add  %i0, 8, %g1
4000bf4c:	c0 20 40 00 	clr  [ %g1 ]
4000bf50:	c0 20 60 04 	clr  [ %g1 + 4 ]
4000bf54:	c0 20 60 08 	clr  [ %g1 + 8 ]
4000bf58:	81 c7 e0 08 	ret 
4000bf5c:	81 e8 00 00 	restore 
4000bf60:	7f ff f1 1f 	call  400083dc <memset>
4000bf64:	92 10 20 00 	clr  %o1
4000bf68:	81 c7 e0 08 	ret 
4000bf6c:	81 e8 00 00 	restore 
4000bf70:	c0 26 20 08 	clr  [ %i0 + 8 ]
4000bf74:	c0 26 20 0c 	clr  [ %i0 + 0xc ]
4000bf78:	80 a2 a0 24 	cmp  %o2, 0x24
4000bf7c:	12 bf ff f4 	bne  4000bf4c <_calloc_r+0x5c>
4000bf80:	82 06 20 10 	add  %i0, 0x10, %g1
4000bf84:	c0 26 20 10 	clr  [ %i0 + 0x10 ]
4000bf88:	82 06 20 18 	add  %i0, 0x18, %g1
4000bf8c:	10 bf ff f0 	b  4000bf4c <_calloc_r+0x5c>
4000bf90:	c0 26 20 14 	clr  [ %i0 + 0x14 ]

4000bf94 <_close_r>:
4000bf94:	9d e3 bf a0 	save  %sp, -96, %sp
4000bf98:	3b 10 00 3e 	sethi  %hi(0x4000f800), %i5
4000bf9c:	90 10 00 19 	mov  %i1, %o0
4000bfa0:	40 00 07 88 	call  4000ddc0 <close>
4000bfa4:	c0 27 62 e8 	clr  [ %i5 + 0x2e8 ]
4000bfa8:	80 a2 3f ff 	cmp  %o0, -1
4000bfac:	02 80 00 04 	be  4000bfbc <_close_r+0x28>
4000bfb0:	c2 07 62 e8 	ld  [ %i5 + 0x2e8 ], %g1
4000bfb4:	81 c7 e0 08 	ret 
4000bfb8:	91 e8 00 08 	restore  %g0, %o0, %o0
4000bfbc:	80 a0 60 00 	cmp  %g1, 0
4000bfc0:	02 bf ff fd 	be  4000bfb4 <_close_r+0x20>
4000bfc4:	01 00 00 00 	nop 
4000bfc8:	c2 26 00 00 	st  %g1, [ %i0 ]
4000bfcc:	81 c7 e0 08 	ret 
4000bfd0:	91 e8 00 08 	restore  %g0, %o0, %o0

4000bfd4 <_fclose_r>:
4000bfd4:	9d e3 bf a0 	save  %sp, -96, %sp
4000bfd8:	80 a6 60 00 	cmp  %i1, 0
4000bfdc:	02 80 00 3e 	be  4000c0d4 <_fclose_r+0x100>
4000bfe0:	ba 10 00 18 	mov  %i0, %i5
4000bfe4:	80 a6 20 00 	cmp  %i0, 0
4000bfe8:	02 80 00 07 	be  4000c004 <_fclose_r+0x30>
4000bfec:	03 10 00 3b 	sethi  %hi(0x4000ec00), %g1
4000bff0:	c2 06 20 18 	ld  [ %i0 + 0x18 ], %g1
4000bff4:	80 a0 60 00 	cmp  %g1, 0
4000bff8:	02 80 00 3b 	be  4000c0e4 <_fclose_r+0x110>
4000bffc:	01 00 00 00 	nop 
4000c000:	03 10 00 3b 	sethi  %hi(0x4000ec00), %g1
4000c004:	82 10 62 20 	or  %g1, 0x220, %g1	! 4000ee20 <__sf_fake_stdin>
4000c008:	80 a6 40 01 	cmp  %i1, %g1
4000c00c:	02 80 00 34 	be  4000c0dc <_fclose_r+0x108>
4000c010:	03 10 00 3b 	sethi  %hi(0x4000ec00), %g1
4000c014:	82 10 62 00 	or  %g1, 0x200, %g1	! 4000ee00 <__sf_fake_stdout>
4000c018:	80 a6 40 01 	cmp  %i1, %g1
4000c01c:	02 80 00 36 	be  4000c0f4 <_fclose_r+0x120>
4000c020:	03 10 00 3b 	sethi  %hi(0x4000ec00), %g1
4000c024:	82 10 61 e0 	or  %g1, 0x1e0, %g1	! 4000ede0 <__sf_fake_stderr>
4000c028:	80 a6 40 01 	cmp  %i1, %g1
4000c02c:	22 80 00 02 	be,a   4000c034 <_fclose_r+0x60>
4000c030:	f2 07 60 0c 	ld  [ %i5 + 0xc ], %i1
4000c034:	c2 56 60 0c 	ldsh  [ %i1 + 0xc ], %g1
4000c038:	80 a0 60 00 	cmp  %g1, 0
4000c03c:	02 80 00 26 	be  4000c0d4 <_fclose_r+0x100>
4000c040:	92 10 00 19 	mov  %i1, %o1
4000c044:	7f ff eb 18 	call  40006ca4 <__sflush_r>
4000c048:	90 10 00 1d 	mov  %i5, %o0
4000c04c:	c2 06 60 30 	ld  [ %i1 + 0x30 ], %g1
4000c050:	80 a0 60 00 	cmp  %g1, 0
4000c054:	02 80 00 08 	be  4000c074 <_fclose_r+0xa0>
4000c058:	b0 10 00 08 	mov  %o0, %i0
4000c05c:	d2 06 60 20 	ld  [ %i1 + 0x20 ], %o1
4000c060:	9f c0 40 00 	call  %g1
4000c064:	90 10 00 1d 	mov  %i5, %o0
4000c068:	80 a2 20 00 	cmp  %o0, 0
4000c06c:	26 80 00 24 	bl,a   4000c0fc <_fclose_r+0x128>
4000c070:	c2 16 60 0c 	lduh  [ %i1 + 0xc ], %g1
4000c074:	c2 16 60 0c 	lduh  [ %i1 + 0xc ], %g1
4000c078:	80 88 60 80 	btst  0x80, %g1
4000c07c:	32 80 00 24 	bne,a   4000c10c <_fclose_r+0x138>
4000c080:	d2 06 60 10 	ld  [ %i1 + 0x10 ], %o1
4000c084:	d2 06 60 34 	ld  [ %i1 + 0x34 ], %o1
4000c088:	80 a2 60 00 	cmp  %o1, 0
4000c08c:	02 80 00 08 	be  4000c0ac <_fclose_r+0xd8>
4000c090:	82 06 60 44 	add  %i1, 0x44, %g1
4000c094:	80 a2 40 01 	cmp  %o1, %g1
4000c098:	22 80 00 05 	be,a   4000c0ac <_fclose_r+0xd8>
4000c09c:	c0 26 60 34 	clr  [ %i1 + 0x34 ]
4000c0a0:	7f ff ed 03 	call  400074ac <_free_r>
4000c0a4:	90 10 00 1d 	mov  %i5, %o0
4000c0a8:	c0 26 60 34 	clr  [ %i1 + 0x34 ]
4000c0ac:	d2 06 60 48 	ld  [ %i1 + 0x48 ], %o1
4000c0b0:	80 a2 60 00 	cmp  %o1, 0
4000c0b4:	22 80 00 06 	be,a   4000c0cc <_fclose_r+0xf8>
4000c0b8:	c0 36 60 0c 	clrh  [ %i1 + 0xc ]
4000c0bc:	7f ff ec fc 	call  400074ac <_free_r>
4000c0c0:	90 10 00 1d 	mov  %i5, %o0
4000c0c4:	c0 26 60 48 	clr  [ %i1 + 0x48 ]
4000c0c8:	c0 36 60 0c 	clrh  [ %i1 + 0xc ]
4000c0cc:	81 c7 e0 08 	ret 
4000c0d0:	81 e8 00 00 	restore 
4000c0d4:	81 c7 e0 08 	ret 
4000c0d8:	91 e8 20 00 	restore  %g0, 0, %o0
4000c0dc:	10 bf ff d6 	b  4000c034 <_fclose_r+0x60>
4000c0e0:	f2 07 60 04 	ld  [ %i5 + 4 ], %i1
4000c0e4:	7f ff ec ad 	call  40007398 <__sinit>
4000c0e8:	90 10 00 18 	mov  %i0, %o0
4000c0ec:	10 bf ff c6 	b  4000c004 <_fclose_r+0x30>
4000c0f0:	03 10 00 3b 	sethi  %hi(0x4000ec00), %g1
4000c0f4:	10 bf ff d0 	b  4000c034 <_fclose_r+0x60>
4000c0f8:	f2 07 60 08 	ld  [ %i5 + 8 ], %i1
4000c0fc:	80 88 60 80 	btst  0x80, %g1
4000c100:	02 bf ff e1 	be  4000c084 <_fclose_r+0xb0>
4000c104:	b0 10 3f ff 	mov  -1, %i0
4000c108:	d2 06 60 10 	ld  [ %i1 + 0x10 ], %o1
4000c10c:	7f ff ec e8 	call  400074ac <_free_r>
4000c110:	90 10 00 1d 	mov  %i5, %o0
4000c114:	10 bf ff dd 	b  4000c088 <_fclose_r+0xb4>
4000c118:	d2 06 60 34 	ld  [ %i1 + 0x34 ], %o1

4000c11c <fclose>:
4000c11c:	9d e3 bf a0 	save  %sp, -96, %sp
4000c120:	ba 96 20 00 	orcc  %i0, 0, %i5
4000c124:	02 80 00 3f 	be  4000c220 <fclose+0x104>
4000c128:	03 10 00 3c 	sethi  %hi(0x4000f000), %g1
4000c12c:	f8 00 63 5c 	ld  [ %g1 + 0x35c ], %i4	! 4000f35c <_impure_ptr>
4000c130:	80 a7 20 00 	cmp  %i4, 0
4000c134:	02 80 00 07 	be  4000c150 <fclose+0x34>
4000c138:	03 10 00 3b 	sethi  %hi(0x4000ec00), %g1
4000c13c:	c2 07 20 18 	ld  [ %i4 + 0x18 ], %g1
4000c140:	80 a0 60 00 	cmp  %g1, 0
4000c144:	02 80 00 3b 	be  4000c230 <fclose+0x114>
4000c148:	01 00 00 00 	nop 
4000c14c:	03 10 00 3b 	sethi  %hi(0x4000ec00), %g1
4000c150:	82 10 62 20 	or  %g1, 0x220, %g1	! 4000ee20 <__sf_fake_stdin>
4000c154:	80 a7 40 01 	cmp  %i5, %g1
4000c158:	02 80 00 34 	be  4000c228 <fclose+0x10c>
4000c15c:	03 10 00 3b 	sethi  %hi(0x4000ec00), %g1
4000c160:	82 10 62 00 	or  %g1, 0x200, %g1	! 4000ee00 <__sf_fake_stdout>
4000c164:	80 a7 40 01 	cmp  %i5, %g1
4000c168:	02 80 00 36 	be  4000c240 <fclose+0x124>
4000c16c:	03 10 00 3b 	sethi  %hi(0x4000ec00), %g1
4000c170:	82 10 61 e0 	or  %g1, 0x1e0, %g1	! 4000ede0 <__sf_fake_stderr>
4000c174:	80 a7 40 01 	cmp  %i5, %g1
4000c178:	22 80 00 02 	be,a   4000c180 <fclose+0x64>
4000c17c:	fa 07 20 0c 	ld  [ %i4 + 0xc ], %i5
4000c180:	c2 57 60 0c 	ldsh  [ %i5 + 0xc ], %g1
4000c184:	80 a0 60 00 	cmp  %g1, 0
4000c188:	02 80 00 26 	be  4000c220 <fclose+0x104>
4000c18c:	92 10 00 1d 	mov  %i5, %o1
4000c190:	7f ff ea c5 	call  40006ca4 <__sflush_r>
4000c194:	90 10 00 1c 	mov  %i4, %o0
4000c198:	c2 07 60 30 	ld  [ %i5 + 0x30 ], %g1
4000c19c:	80 a0 60 00 	cmp  %g1, 0
4000c1a0:	02 80 00 08 	be  4000c1c0 <fclose+0xa4>
4000c1a4:	b0 10 00 08 	mov  %o0, %i0
4000c1a8:	d2 07 60 20 	ld  [ %i5 + 0x20 ], %o1
4000c1ac:	9f c0 40 00 	call  %g1
4000c1b0:	90 10 00 1c 	mov  %i4, %o0
4000c1b4:	80 a2 20 00 	cmp  %o0, 0
4000c1b8:	26 80 00 24 	bl,a   4000c248 <fclose+0x12c>
4000c1bc:	c2 17 60 0c 	lduh  [ %i5 + 0xc ], %g1
4000c1c0:	c2 17 60 0c 	lduh  [ %i5 + 0xc ], %g1
4000c1c4:	80 88 60 80 	btst  0x80, %g1
4000c1c8:	32 80 00 24 	bne,a   4000c258 <fclose+0x13c>
4000c1cc:	d2 07 60 10 	ld  [ %i5 + 0x10 ], %o1
4000c1d0:	d2 07 60 34 	ld  [ %i5 + 0x34 ], %o1
4000c1d4:	80 a2 60 00 	cmp  %o1, 0
4000c1d8:	02 80 00 08 	be  4000c1f8 <fclose+0xdc>
4000c1dc:	82 07 60 44 	add  %i5, 0x44, %g1
4000c1e0:	80 a2 40 01 	cmp  %o1, %g1
4000c1e4:	22 80 00 05 	be,a   4000c1f8 <fclose+0xdc>
4000c1e8:	c0 27 60 34 	clr  [ %i5 + 0x34 ]
4000c1ec:	7f ff ec b0 	call  400074ac <_free_r>
4000c1f0:	90 10 00 1c 	mov  %i4, %o0
4000c1f4:	c0 27 60 34 	clr  [ %i5 + 0x34 ]
4000c1f8:	d2 07 60 48 	ld  [ %i5 + 0x48 ], %o1
4000c1fc:	80 a2 60 00 	cmp  %o1, 0
4000c200:	22 80 00 06 	be,a   4000c218 <fclose+0xfc>
4000c204:	c0 37 60 0c 	clrh  [ %i5 + 0xc ]
4000c208:	7f ff ec a9 	call  400074ac <_free_r>
4000c20c:	90 10 00 1c 	mov  %i4, %o0
4000c210:	c0 27 60 48 	clr  [ %i5 + 0x48 ]
4000c214:	c0 37 60 0c 	clrh  [ %i5 + 0xc ]
4000c218:	81 c7 e0 08 	ret 
4000c21c:	81 e8 00 00 	restore 
4000c220:	81 c7 e0 08 	ret 
4000c224:	91 e8 20 00 	restore  %g0, 0, %o0
4000c228:	10 bf ff d6 	b  4000c180 <fclose+0x64>
4000c22c:	fa 07 20 04 	ld  [ %i4 + 4 ], %i5
4000c230:	7f ff ec 5a 	call  40007398 <__sinit>
4000c234:	90 10 00 1c 	mov  %i4, %o0
4000c238:	10 bf ff c6 	b  4000c150 <fclose+0x34>
4000c23c:	03 10 00 3b 	sethi  %hi(0x4000ec00), %g1
4000c240:	10 bf ff d0 	b  4000c180 <fclose+0x64>
4000c244:	fa 07 20 08 	ld  [ %i4 + 8 ], %i5
4000c248:	80 88 60 80 	btst  0x80, %g1
4000c24c:	02 bf ff e1 	be  4000c1d0 <fclose+0xb4>
4000c250:	b0 10 3f ff 	mov  -1, %i0
4000c254:	d2 07 60 10 	ld  [ %i5 + 0x10 ], %o1
4000c258:	7f ff ec 95 	call  400074ac <_free_r>
4000c25c:	90 10 00 1c 	mov  %i4, %o0
4000c260:	10 bf ff dd 	b  4000c1d4 <fclose+0xb8>
4000c264:	d2 07 60 34 	ld  [ %i5 + 0x34 ], %o1

4000c268 <__fputwc>:
4000c268:	9d e3 bf 98 	save  %sp, -104, %sp
4000c26c:	40 00 01 ee 	call  4000ca24 <__locale_mb_cur_max>
4000c270:	01 00 00 00 	nop 
4000c274:	80 a2 20 01 	cmp  %o0, 1
4000c278:	12 80 00 05 	bne  4000c28c <__fputwc+0x24>
4000c27c:	82 06 7f ff 	add  %i1, -1, %g1
4000c280:	80 a0 60 fe 	cmp  %g1, 0xfe
4000c284:	28 80 00 0d 	bleu,a   4000c2b8 <__fputwc+0x50>
4000c288:	f2 2f bf f8 	stb  %i1, [ %fp + -8 ]
4000c28c:	96 06 a0 58 	add  %i2, 0x58, %o3
4000c290:	94 10 00 19 	mov  %i1, %o2
4000c294:	92 07 bf f8 	add  %fp, -8, %o1
4000c298:	40 00 05 f6 	call  4000da70 <_wcrtomb_r>
4000c29c:	90 10 00 18 	mov  %i0, %o0
4000c2a0:	80 a2 3f ff 	cmp  %o0, -1
4000c2a4:	22 80 00 28 	be,a   4000c344 <__fputwc+0xdc>
4000c2a8:	c2 16 a0 0c 	lduh  [ %i2 + 0xc ], %g1
4000c2ac:	80 a2 20 00 	cmp  %o0, 0
4000c2b0:	02 80 00 19 	be  4000c314 <__fputwc+0xac>
4000c2b4:	90 10 00 19 	mov  %i1, %o0
4000c2b8:	c2 06 a0 08 	ld  [ %i2 + 8 ], %g1
4000c2bc:	82 00 7f ff 	add  %g1, -1, %g1
4000c2c0:	c2 26 a0 08 	st  %g1, [ %i2 + 8 ]
4000c2c4:	80 a0 60 00 	cmp  %g1, 0
4000c2c8:	16 80 00 0e 	bge  4000c300 <__fputwc+0x98>
4000c2cc:	d2 0f bf f8 	ldub  [ %fp + -8 ], %o1
4000c2d0:	c6 06 a0 18 	ld  [ %i2 + 0x18 ], %g3
4000c2d4:	80 a0 40 03 	cmp  %g1, %g3
4000c2d8:	16 80 00 03 	bge  4000c2e4 <__fputwc+0x7c>
4000c2dc:	84 10 20 01 	mov  1, %g2
4000c2e0:	84 10 20 00 	clr  %g2
4000c2e4:	80 88 a0 ff 	btst  0xff, %g2
4000c2e8:	02 80 00 0d 	be  4000c31c <__fputwc+0xb4>
4000c2ec:	83 2a 60 18 	sll  %o1, 0x18, %g1
4000c2f0:	83 38 60 18 	sra  %g1, 0x18, %g1
4000c2f4:	80 a0 60 0a 	cmp  %g1, 0xa
4000c2f8:	02 80 00 0a 	be  4000c320 <__fputwc+0xb8>
4000c2fc:	94 10 00 1a 	mov  %i2, %o2
4000c300:	c2 06 80 00 	ld  [ %i2 ], %g1
4000c304:	84 00 60 01 	add  %g1, 1, %g2
4000c308:	c4 26 80 00 	st  %g2, [ %i2 ]
4000c30c:	d2 28 40 00 	stb  %o1, [ %g1 ]
4000c310:	90 10 00 19 	mov  %i1, %o0
4000c314:	81 c7 e0 08 	ret 
4000c318:	91 e8 00 08 	restore  %g0, %o0, %o0
4000c31c:	94 10 00 1a 	mov  %i2, %o2
4000c320:	92 0a 60 ff 	and  %o1, 0xff, %o1
4000c324:	40 00 04 fe 	call  4000d71c <__swbuf_r>
4000c328:	90 10 00 18 	mov  %i0, %o0
4000c32c:	80 a2 3f ff 	cmp  %o0, -1
4000c330:	12 bf ff f9 	bne  4000c314 <__fputwc+0xac>
4000c334:	90 10 00 19 	mov  %i1, %o0
4000c338:	90 10 3f ff 	mov  -1, %o0
4000c33c:	81 c7 e0 08 	ret 
4000c340:	91 e8 00 08 	restore  %g0, %o0, %o0
4000c344:	82 10 60 40 	or  %g1, 0x40, %g1
4000c348:	10 bf ff f3 	b  4000c314 <__fputwc+0xac>
4000c34c:	c2 36 a0 0c 	sth  %g1, [ %i2 + 0xc ]

4000c350 <_fputwc_r>:
4000c350:	05 00 00 08 	sethi  %hi(0x2000), %g2
4000c354:	c2 12 a0 0c 	lduh  [ %o2 + 0xc ], %g1
4000c358:	80 88 80 01 	btst  %g2, %g1
4000c35c:	12 80 00 06 	bne  4000c374 <_fputwc_r+0x24>
4000c360:	82 10 40 02 	or  %g1, %g2, %g1
4000c364:	c6 02 a0 60 	ld  [ %o2 + 0x60 ], %g3
4000c368:	84 10 c0 02 	or  %g3, %g2, %g2
4000c36c:	c2 32 a0 0c 	sth  %g1, [ %o2 + 0xc ]
4000c370:	c4 22 a0 60 	st  %g2, [ %o2 + 0x60 ]
4000c374:	82 13 c0 00 	mov  %o7, %g1
4000c378:	7f ff ff bc 	call  4000c268 <__fputwc>
4000c37c:	9e 10 40 00 	mov  %g1, %o7

4000c380 <fputwc>:
4000c380:	9d e3 bf a0 	save  %sp, -96, %sp
4000c384:	03 10 00 3c 	sethi  %hi(0x4000f000), %g1
4000c388:	fa 00 63 5c 	ld  [ %g1 + 0x35c ], %i5	! 4000f35c <_impure_ptr>
4000c38c:	80 a7 60 00 	cmp  %i5, 0
4000c390:	02 80 00 06 	be  4000c3a8 <fputwc+0x28>
4000c394:	b4 10 00 19 	mov  %i1, %i2
4000c398:	c2 07 60 18 	ld  [ %i5 + 0x18 ], %g1
4000c39c:	80 a0 60 00 	cmp  %g1, 0
4000c3a0:	02 80 00 1c 	be  4000c410 <fputwc+0x90>
4000c3a4:	01 00 00 00 	nop 
4000c3a8:	03 10 00 3b 	sethi  %hi(0x4000ec00), %g1
4000c3ac:	82 10 62 20 	or  %g1, 0x220, %g1	! 4000ee20 <__sf_fake_stdin>
4000c3b0:	80 a6 80 01 	cmp  %i2, %g1
4000c3b4:	22 80 00 0b 	be,a   4000c3e0 <fputwc+0x60>
4000c3b8:	f4 07 60 04 	ld  [ %i5 + 4 ], %i2
4000c3bc:	03 10 00 3b 	sethi  %hi(0x4000ec00), %g1
4000c3c0:	82 10 62 00 	or  %g1, 0x200, %g1	! 4000ee00 <__sf_fake_stdout>
4000c3c4:	80 a6 80 01 	cmp  %i2, %g1
4000c3c8:	02 80 00 1b 	be  4000c434 <fputwc+0xb4>
4000c3cc:	03 10 00 3b 	sethi  %hi(0x4000ec00), %g1
4000c3d0:	82 10 61 e0 	or  %g1, 0x1e0, %g1	! 4000ede0 <__sf_fake_stderr>
4000c3d4:	80 a6 80 01 	cmp  %i2, %g1
4000c3d8:	22 80 00 02 	be,a   4000c3e0 <fputwc+0x60>
4000c3dc:	f4 07 60 0c 	ld  [ %i5 + 0xc ], %i2
4000c3e0:	c2 16 a0 0c 	lduh  [ %i2 + 0xc ], %g1
4000c3e4:	05 00 00 08 	sethi  %hi(0x2000), %g2
4000c3e8:	80 88 80 01 	btst  %g2, %g1
4000c3ec:	12 80 00 07 	bne  4000c408 <fputwc+0x88>
4000c3f0:	b2 10 00 18 	mov  %i0, %i1
4000c3f4:	c6 06 a0 60 	ld  [ %i2 + 0x60 ], %g3
4000c3f8:	82 10 40 02 	or  %g1, %g2, %g1
4000c3fc:	84 10 c0 02 	or  %g3, %g2, %g2
4000c400:	c2 36 a0 0c 	sth  %g1, [ %i2 + 0xc ]
4000c404:	c4 26 a0 60 	st  %g2, [ %i2 + 0x60 ]
4000c408:	7f ff ff 98 	call  4000c268 <__fputwc>
4000c40c:	91 e8 00 1d 	restore  %g0, %i5, %o0
4000c410:	7f ff eb e2 	call  40007398 <__sinit>
4000c414:	90 10 00 1d 	mov  %i5, %o0
4000c418:	03 10 00 3b 	sethi  %hi(0x4000ec00), %g1
4000c41c:	82 10 62 20 	or  %g1, 0x220, %g1	! 4000ee20 <__sf_fake_stdin>
4000c420:	80 a6 80 01 	cmp  %i2, %g1
4000c424:	12 bf ff e7 	bne  4000c3c0 <fputwc+0x40>
4000c428:	03 10 00 3b 	sethi  %hi(0x4000ec00), %g1
4000c42c:	10 bf ff ed 	b  4000c3e0 <fputwc+0x60>
4000c430:	f4 07 60 04 	ld  [ %i5 + 4 ], %i2
4000c434:	10 bf ff eb 	b  4000c3e0 <fputwc+0x60>
4000c438:	f4 07 60 08 	ld  [ %i5 + 8 ], %i2

4000c43c <_fstat_r>:
4000c43c:	9d e3 bf a0 	save  %sp, -96, %sp
4000c440:	3b 10 00 3e 	sethi  %hi(0x4000f800), %i5
4000c444:	92 10 00 1a 	mov  %i2, %o1
4000c448:	c0 27 62 e8 	clr  [ %i5 + 0x2e8 ]
4000c44c:	40 00 06 5d 	call  4000ddc0 <close>
4000c450:	90 10 00 19 	mov  %i1, %o0
4000c454:	80 a2 3f ff 	cmp  %o0, -1
4000c458:	02 80 00 04 	be  4000c468 <_fstat_r+0x2c>
4000c45c:	c2 07 62 e8 	ld  [ %i5 + 0x2e8 ], %g1
4000c460:	81 c7 e0 08 	ret 
4000c464:	91 e8 00 08 	restore  %g0, %o0, %o0
4000c468:	80 a0 60 00 	cmp  %g1, 0
4000c46c:	02 bf ff fd 	be  4000c460 <_fstat_r+0x24>
4000c470:	01 00 00 00 	nop 
4000c474:	c2 26 00 00 	st  %g1, [ %i0 ]
4000c478:	81 c7 e0 08 	ret 
4000c47c:	91 e8 00 08 	restore  %g0, %o0, %o0

4000c480 <__sfvwrite_r>:
4000c480:	9d e3 bf a0 	save  %sp, -96, %sp
4000c484:	c2 06 a0 08 	ld  [ %i2 + 8 ], %g1
4000c488:	80 a0 60 00 	cmp  %g1, 0
4000c48c:	02 80 00 63 	be  4000c618 <__sfvwrite_r+0x198>
4000c490:	01 00 00 00 	nop 
4000c494:	c2 16 60 0c 	lduh  [ %i1 + 0xc ], %g1
4000c498:	80 88 60 08 	btst  8, %g1
4000c49c:	02 80 00 61 	be  4000c620 <__sfvwrite_r+0x1a0>
4000c4a0:	92 10 00 19 	mov  %i1, %o1
4000c4a4:	c4 06 60 10 	ld  [ %i1 + 0x10 ], %g2
4000c4a8:	80 a0 a0 00 	cmp  %g2, 0
4000c4ac:	02 80 00 5d 	be  4000c620 <__sfvwrite_r+0x1a0>
4000c4b0:	01 00 00 00 	nop 
4000c4b4:	80 88 60 02 	btst  2, %g1
4000c4b8:	02 80 00 24 	be  4000c548 <__sfvwrite_r+0xc8>
4000c4bc:	fa 06 80 00 	ld  [ %i2 ], %i5
4000c4c0:	c2 06 60 28 	ld  [ %i1 + 0x28 ], %g1
4000c4c4:	d2 06 60 20 	ld  [ %i1 + 0x20 ], %o1
4000c4c8:	b6 10 20 00 	clr  %i3
4000c4cc:	b8 10 20 00 	clr  %i4
4000c4d0:	21 1f ff ff 	sethi  %hi(0x7ffffc00), %l0
4000c4d4:	94 10 00 1b 	mov  %i3, %o2
4000c4d8:	80 a7 20 00 	cmp  %i4, 0
4000c4dc:	02 80 00 17 	be  4000c538 <__sfvwrite_r+0xb8>
4000c4e0:	90 10 00 18 	mov  %i0, %o0
4000c4e4:	80 a7 00 10 	cmp  %i4, %l0
4000c4e8:	08 80 00 03 	bleu  4000c4f4 <__sfvwrite_r+0x74>
4000c4ec:	96 10 00 1c 	mov  %i4, %o3
4000c4f0:	96 10 00 10 	mov  %l0, %o3
4000c4f4:	9f c0 40 00 	call  %g1
4000c4f8:	01 00 00 00 	nop 
4000c4fc:	80 a2 20 00 	cmp  %o0, 0
4000c500:	04 80 00 55 	ble  4000c654 <__sfvwrite_r+0x1d4>
4000c504:	b6 06 c0 08 	add  %i3, %o0, %i3
4000c508:	c2 06 a0 08 	ld  [ %i2 + 8 ], %g1
4000c50c:	82 20 40 08 	sub  %g1, %o0, %g1
4000c510:	c2 26 a0 08 	st  %g1, [ %i2 + 8 ]
4000c514:	80 a0 60 00 	cmp  %g1, 0
4000c518:	02 80 00 40 	be  4000c618 <__sfvwrite_r+0x198>
4000c51c:	b8 27 00 08 	sub  %i4, %o0, %i4
4000c520:	c2 06 60 28 	ld  [ %i1 + 0x28 ], %g1
4000c524:	d2 06 60 20 	ld  [ %i1 + 0x20 ], %o1
4000c528:	94 10 00 1b 	mov  %i3, %o2
4000c52c:	80 a7 20 00 	cmp  %i4, 0
4000c530:	12 bf ff ed 	bne  4000c4e4 <__sfvwrite_r+0x64>
4000c534:	90 10 00 18 	mov  %i0, %o0
4000c538:	f6 07 40 00 	ld  [ %i5 ], %i3
4000c53c:	f8 07 60 04 	ld  [ %i5 + 4 ], %i4
4000c540:	10 bf ff e5 	b  4000c4d4 <__sfvwrite_r+0x54>
4000c544:	ba 07 60 08 	add  %i5, 8, %i5
4000c548:	80 88 60 01 	btst  1, %g1
4000c54c:	02 80 00 55 	be  4000c6a0 <__sfvwrite_r+0x220>
4000c550:	25 1f ff ff 	sethi  %hi(0x7ffffc00), %l2
4000c554:	a4 10 20 00 	clr  %l2
4000c558:	90 10 20 00 	clr  %o0
4000c55c:	a2 10 20 00 	clr  %l1
4000c560:	a0 10 20 00 	clr  %l0
4000c564:	80 a4 20 00 	cmp  %l0, 0
4000c568:	22 80 00 41 	be,a   4000c66c <__sfvwrite_r+0x1ec>
4000c56c:	e0 07 60 04 	ld  [ %i5 + 4 ], %l0
4000c570:	80 a2 20 00 	cmp  %o0, 0
4000c574:	02 80 00 43 	be  4000c680 <__sfvwrite_r+0x200>
4000c578:	94 10 00 10 	mov  %l0, %o2
4000c57c:	82 10 00 12 	mov  %l2, %g1
4000c580:	80 a4 00 01 	cmp  %l0, %g1
4000c584:	08 80 00 03 	bleu  4000c590 <__sfvwrite_r+0x110>
4000c588:	b6 10 00 10 	mov  %l0, %i3
4000c58c:	b6 10 00 01 	mov  %g1, %i3
4000c590:	d6 06 60 14 	ld  [ %i1 + 0x14 ], %o3
4000c594:	f8 06 60 08 	ld  [ %i1 + 8 ], %i4
4000c598:	d0 06 40 00 	ld  [ %i1 ], %o0
4000c59c:	c2 06 60 10 	ld  [ %i1 + 0x10 ], %g1
4000c5a0:	80 a0 40 08 	cmp  %g1, %o0
4000c5a4:	1a 80 00 09 	bcc  4000c5c8 <__sfvwrite_r+0x148>
4000c5a8:	b8 02 c0 1c 	add  %o3, %i4, %i4
4000c5ac:	80 a6 c0 1c 	cmp  %i3, %i4
4000c5b0:	14 80 00 03 	bg  4000c5bc <__sfvwrite_r+0x13c>
4000c5b4:	82 10 20 01 	mov  1, %g1
4000c5b8:	82 10 20 00 	clr  %g1
4000c5bc:	80 88 60 ff 	btst  0xff, %g1
4000c5c0:	12 80 00 c9 	bne  4000c8e4 <__sfvwrite_r+0x464>
4000c5c4:	94 10 00 1c 	mov  %i4, %o2
4000c5c8:	80 a2 c0 1b 	cmp  %o3, %i3
4000c5cc:	14 80 00 bb 	bg  4000c8b8 <__sfvwrite_r+0x438>
4000c5d0:	94 10 00 11 	mov  %l1, %o2
4000c5d4:	c2 06 60 28 	ld  [ %i1 + 0x28 ], %g1
4000c5d8:	d2 06 60 20 	ld  [ %i1 + 0x20 ], %o1
4000c5dc:	9f c0 40 00 	call  %g1
4000c5e0:	90 10 00 18 	mov  %i0, %o0
4000c5e4:	b8 92 20 00 	orcc  %o0, 0, %i4
4000c5e8:	24 80 00 1c 	ble,a   4000c658 <__sfvwrite_r+0x1d8>
4000c5ec:	c2 16 60 0c 	lduh  [ %i1 + 0xc ], %g1
4000c5f0:	a4 a4 80 1c 	subcc  %l2, %i4, %l2
4000c5f4:	02 80 00 12 	be  4000c63c <__sfvwrite_r+0x1bc>
4000c5f8:	90 10 20 01 	mov  1, %o0
4000c5fc:	c2 06 a0 08 	ld  [ %i2 + 8 ], %g1
4000c600:	82 20 40 1c 	sub  %g1, %i4, %g1
4000c604:	c2 26 a0 08 	st  %g1, [ %i2 + 8 ]
4000c608:	a2 04 40 1c 	add  %l1, %i4, %l1
4000c60c:	80 a0 60 00 	cmp  %g1, 0
4000c610:	12 bf ff d5 	bne  4000c564 <__sfvwrite_r+0xe4>
4000c614:	a0 24 00 1c 	sub  %l0, %i4, %l0
4000c618:	81 c7 e0 08 	ret 
4000c61c:	91 e8 20 00 	restore  %g0, 0, %o0
4000c620:	7f ff e2 e6 	call  400051b8 <__swsetup_r>
4000c624:	90 10 00 18 	mov  %i0, %o0
4000c628:	80 a2 20 00 	cmp  %o0, 0
4000c62c:	12 80 00 cf 	bne  4000c968 <__sfvwrite_r+0x4e8>
4000c630:	01 00 00 00 	nop 
4000c634:	10 bf ff a0 	b  4000c4b4 <__sfvwrite_r+0x34>
4000c638:	c2 16 60 0c 	lduh  [ %i1 + 0xc ], %g1
4000c63c:	92 10 00 19 	mov  %i1, %o1
4000c640:	7f ff ea 2f 	call  40006efc <_fflush_r>
4000c644:	90 10 00 18 	mov  %i0, %o0
4000c648:	80 a2 20 00 	cmp  %o0, 0
4000c64c:	22 bf ff ed 	be,a   4000c600 <__sfvwrite_r+0x180>
4000c650:	c2 06 a0 08 	ld  [ %i2 + 8 ], %g1
4000c654:	c2 16 60 0c 	lduh  [ %i1 + 0xc ], %g1
4000c658:	82 10 60 40 	or  %g1, 0x40, %g1
4000c65c:	c2 36 60 0c 	sth  %g1, [ %i1 + 0xc ]
4000c660:	81 c7 e0 08 	ret 
4000c664:	91 e8 3f ff 	restore  %g0, -1, %o0
4000c668:	e0 07 60 04 	ld  [ %i5 + 4 ], %l0
4000c66c:	e2 07 40 00 	ld  [ %i5 ], %l1
4000c670:	80 a4 20 00 	cmp  %l0, 0
4000c674:	02 bf ff fd 	be  4000c668 <__sfvwrite_r+0x1e8>
4000c678:	ba 07 60 08 	add  %i5, 8, %i5
4000c67c:	94 10 00 10 	mov  %l0, %o2
4000c680:	92 10 20 0a 	mov  0xa, %o1
4000c684:	7f ff ef 18 	call  400082e4 <memchr>
4000c688:	90 10 00 11 	mov  %l1, %o0
4000c68c:	80 a2 20 00 	cmp  %o0, 0
4000c690:	02 80 00 af 	be  4000c94c <__sfvwrite_r+0x4cc>
4000c694:	90 02 20 01 	inc  %o0
4000c698:	10 bf ff b9 	b  4000c57c <__sfvwrite_r+0xfc>
4000c69c:	a4 22 00 11 	sub  %o0, %l1, %l2
4000c6a0:	e2 06 60 08 	ld  [ %i1 + 8 ], %l1
4000c6a4:	a6 14 a3 fe 	or  %l2, 0x3fe, %l3
4000c6a8:	d0 06 40 00 	ld  [ %i1 ], %o0
4000c6ac:	a0 10 20 00 	clr  %l0
4000c6b0:	b8 10 20 00 	clr  %i4
4000c6b4:	a4 14 a3 ff 	or  %l2, 0x3ff, %l2
4000c6b8:	80 a7 20 00 	cmp  %i4, 0
4000c6bc:	22 80 00 49 	be,a   4000c7e0 <__sfvwrite_r+0x360>
4000c6c0:	e0 07 40 00 	ld  [ %i5 ], %l0
4000c6c4:	80 88 62 00 	btst  0x200, %g1
4000c6c8:	22 80 00 49 	be,a   4000c7ec <__sfvwrite_r+0x36c>
4000c6cc:	c2 06 60 10 	ld  [ %i1 + 0x10 ], %g1
4000c6d0:	80 a4 40 1c 	cmp  %l1, %i4
4000c6d4:	18 80 00 76 	bgu  4000c8ac <__sfvwrite_r+0x42c>
4000c6d8:	a8 10 00 11 	mov  %l1, %l4
4000c6dc:	84 08 64 80 	and  %g1, 0x480, %g2
4000c6e0:	80 a0 a0 00 	cmp  %g2, 0
4000c6e4:	22 80 00 29 	be,a   4000c788 <__sfvwrite_r+0x308>
4000c6e8:	94 10 00 14 	mov  %l4, %o2
4000c6ec:	f6 06 60 14 	ld  [ %i1 + 0x14 ], %i3
4000c6f0:	d2 06 60 10 	ld  [ %i1 + 0x10 ], %o1
4000c6f4:	87 2e e0 01 	sll  %i3, 1, %g3
4000c6f8:	a8 22 00 09 	sub  %o0, %o1, %l4
4000c6fc:	86 00 c0 1b 	add  %g3, %i3, %g3
4000c700:	84 07 20 01 	add  %i4, 1, %g2
4000c704:	b7 30 e0 1f 	srl  %g3, 0x1f, %i3
4000c708:	84 00 80 14 	add  %g2, %l4, %g2
4000c70c:	b6 06 c0 03 	add  %i3, %g3, %i3
4000c710:	b7 3e e0 01 	sra  %i3, 1, %i3
4000c714:	80 a0 80 1b 	cmp  %g2, %i3
4000c718:	08 80 00 04 	bleu  4000c728 <__sfvwrite_r+0x2a8>
4000c71c:	94 10 00 1b 	mov  %i3, %o2
4000c720:	b6 10 00 02 	mov  %g2, %i3
4000c724:	94 10 00 02 	mov  %g2, %o2
4000c728:	80 88 64 00 	btst  0x400, %g1
4000c72c:	02 80 00 7b 	be  4000c918 <__sfvwrite_r+0x498>
4000c730:	01 00 00 00 	nop 
4000c734:	92 10 00 0a 	mov  %o2, %o1
4000c738:	7f ff ec f6 	call  40007b10 <_malloc_r>
4000c73c:	90 10 00 18 	mov  %i0, %o0
4000c740:	a2 92 20 00 	orcc  %o0, 0, %l1
4000c744:	02 80 00 85 	be  4000c958 <__sfvwrite_r+0x4d8>
4000c748:	94 10 00 14 	mov  %l4, %o2
4000c74c:	7f ff d6 b1 	call  40002210 <memcpy>
4000c750:	d2 06 60 10 	ld  [ %i1 + 0x10 ], %o1
4000c754:	c2 16 60 0c 	lduh  [ %i1 + 0xc ], %g1
4000c758:	82 08 7b 7f 	and  %g1, -1153, %g1
4000c75c:	82 10 60 80 	or  %g1, 0x80, %g1
4000c760:	c2 36 60 0c 	sth  %g1, [ %i1 + 0xc ]
4000c764:	90 04 40 14 	add  %l1, %l4, %o0
4000c768:	82 26 c0 14 	sub  %i3, %l4, %g1
4000c76c:	e2 26 60 10 	st  %l1, [ %i1 + 0x10 ]
4000c770:	d0 26 40 00 	st  %o0, [ %i1 ]
4000c774:	f6 26 60 14 	st  %i3, [ %i1 + 0x14 ]
4000c778:	a2 10 00 1c 	mov  %i4, %l1
4000c77c:	c2 26 60 08 	st  %g1, [ %i1 + 8 ]
4000c780:	a8 10 00 1c 	mov  %i4, %l4
4000c784:	94 10 00 14 	mov  %l4, %o2
4000c788:	40 00 01 1d 	call  4000cbfc <memmove>
4000c78c:	92 10 00 10 	mov  %l0, %o1
4000c790:	c4 06 60 08 	ld  [ %i1 + 8 ], %g2
4000c794:	c2 06 40 00 	ld  [ %i1 ], %g1
4000c798:	b6 10 00 1c 	mov  %i4, %i3
4000c79c:	a2 20 80 11 	sub  %g2, %l1, %l1
4000c7a0:	82 00 40 14 	add  %g1, %l4, %g1
4000c7a4:	b8 10 20 00 	clr  %i4
4000c7a8:	e2 26 60 08 	st  %l1, [ %i1 + 8 ]
4000c7ac:	c2 26 40 00 	st  %g1, [ %i1 ]
4000c7b0:	c2 06 a0 08 	ld  [ %i2 + 8 ], %g1
4000c7b4:	82 20 40 1b 	sub  %g1, %i3, %g1
4000c7b8:	c2 26 a0 08 	st  %g1, [ %i2 + 8 ]
4000c7bc:	80 a0 60 00 	cmp  %g1, 0
4000c7c0:	02 bf ff 96 	be  4000c618 <__sfvwrite_r+0x198>
4000c7c4:	a0 04 00 1b 	add  %l0, %i3, %l0
4000c7c8:	c2 16 60 0c 	lduh  [ %i1 + 0xc ], %g1
4000c7cc:	e2 06 60 08 	ld  [ %i1 + 8 ], %l1
4000c7d0:	80 a7 20 00 	cmp  %i4, 0
4000c7d4:	12 bf ff bc 	bne  4000c6c4 <__sfvwrite_r+0x244>
4000c7d8:	d0 06 40 00 	ld  [ %i1 ], %o0
4000c7dc:	e0 07 40 00 	ld  [ %i5 ], %l0
4000c7e0:	f8 07 60 04 	ld  [ %i5 + 4 ], %i4
4000c7e4:	10 bf ff b5 	b  4000c6b8 <__sfvwrite_r+0x238>
4000c7e8:	ba 07 60 08 	add  %i5, 8, %i5
4000c7ec:	80 a0 40 08 	cmp  %g1, %o0
4000c7f0:	0a 80 00 19 	bcs  4000c854 <__sfvwrite_r+0x3d4>
4000c7f4:	80 a4 40 1c 	cmp  %l1, %i4
4000c7f8:	f6 06 60 14 	ld  [ %i1 + 0x14 ], %i3
4000c7fc:	80 a6 c0 1c 	cmp  %i3, %i4
4000c800:	18 80 00 15 	bgu  4000c854 <__sfvwrite_r+0x3d4>
4000c804:	80 a4 40 1c 	cmp  %l1, %i4
4000c808:	80 a7 00 13 	cmp  %i4, %l3
4000c80c:	08 80 00 03 	bleu  4000c818 <__sfvwrite_r+0x398>
4000c810:	90 10 00 1c 	mov  %i4, %o0
4000c814:	90 10 00 12 	mov  %l2, %o0
4000c818:	40 00 05 df 	call  4000df94 <.div>
4000c81c:	92 10 00 1b 	mov  %i3, %o1
4000c820:	40 00 05 a1 	call  4000dea4 <.umul>
4000c824:	92 10 00 1b 	mov  %i3, %o1
4000c828:	c2 06 60 28 	ld  [ %i1 + 0x28 ], %g1
4000c82c:	96 10 00 08 	mov  %o0, %o3
4000c830:	94 10 00 10 	mov  %l0, %o2
4000c834:	d2 06 60 20 	ld  [ %i1 + 0x20 ], %o1
4000c838:	9f c0 40 00 	call  %g1
4000c83c:	90 10 00 18 	mov  %i0, %o0
4000c840:	b6 92 20 00 	orcc  %o0, 0, %i3
4000c844:	24 bf ff 85 	ble,a   4000c658 <__sfvwrite_r+0x1d8>
4000c848:	c2 16 60 0c 	lduh  [ %i1 + 0xc ], %g1
4000c84c:	10 bf ff d9 	b  4000c7b0 <__sfvwrite_r+0x330>
4000c850:	b8 27 00 1b 	sub  %i4, %i3, %i4
4000c854:	08 80 00 03 	bleu  4000c860 <__sfvwrite_r+0x3e0>
4000c858:	b6 10 00 11 	mov  %l1, %i3
4000c85c:	b6 10 00 1c 	mov  %i4, %i3
4000c860:	94 10 00 1b 	mov  %i3, %o2
4000c864:	40 00 00 e6 	call  4000cbfc <memmove>
4000c868:	92 10 00 10 	mov  %l0, %o1
4000c86c:	c2 06 60 08 	ld  [ %i1 + 8 ], %g1
4000c870:	c4 06 40 00 	ld  [ %i1 ], %g2
4000c874:	82 20 40 1b 	sub  %g1, %i3, %g1
4000c878:	84 00 80 1b 	add  %g2, %i3, %g2
4000c87c:	c2 26 60 08 	st  %g1, [ %i1 + 8 ]
4000c880:	80 a0 60 00 	cmp  %g1, 0
4000c884:	12 bf ff f2 	bne  4000c84c <__sfvwrite_r+0x3cc>
4000c888:	c4 26 40 00 	st  %g2, [ %i1 ]
4000c88c:	92 10 00 19 	mov  %i1, %o1
4000c890:	7f ff e9 9b 	call  40006efc <_fflush_r>
4000c894:	90 10 00 18 	mov  %i0, %o0
4000c898:	80 a2 20 00 	cmp  %o0, 0
4000c89c:	32 bf ff 6f 	bne,a   4000c658 <__sfvwrite_r+0x1d8>
4000c8a0:	c2 16 60 0c 	lduh  [ %i1 + 0xc ], %g1
4000c8a4:	10 bf ff c3 	b  4000c7b0 <__sfvwrite_r+0x330>
4000c8a8:	b8 27 00 1b 	sub  %i4, %i3, %i4
4000c8ac:	a2 10 00 1c 	mov  %i4, %l1
4000c8b0:	10 bf ff b5 	b  4000c784 <__sfvwrite_r+0x304>
4000c8b4:	a8 10 00 1c 	mov  %i4, %l4
4000c8b8:	94 10 00 1b 	mov  %i3, %o2
4000c8bc:	40 00 00 d0 	call  4000cbfc <memmove>
4000c8c0:	92 10 00 11 	mov  %l1, %o1
4000c8c4:	c4 06 60 08 	ld  [ %i1 + 8 ], %g2
4000c8c8:	c2 06 40 00 	ld  [ %i1 ], %g1
4000c8cc:	84 20 80 1b 	sub  %g2, %i3, %g2
4000c8d0:	82 00 40 1b 	add  %g1, %i3, %g1
4000c8d4:	b8 10 00 1b 	mov  %i3, %i4
4000c8d8:	c4 26 60 08 	st  %g2, [ %i1 + 8 ]
4000c8dc:	10 bf ff 45 	b  4000c5f0 <__sfvwrite_r+0x170>
4000c8e0:	c2 26 40 00 	st  %g1, [ %i1 ]
4000c8e4:	40 00 00 c6 	call  4000cbfc <memmove>
4000c8e8:	92 10 00 11 	mov  %l1, %o1
4000c8ec:	c2 06 40 00 	ld  [ %i1 ], %g1
4000c8f0:	82 00 40 1c 	add  %g1, %i4, %g1
4000c8f4:	92 10 00 19 	mov  %i1, %o1
4000c8f8:	90 10 00 18 	mov  %i0, %o0
4000c8fc:	7f ff e9 80 	call  40006efc <_fflush_r>
4000c900:	c2 26 40 00 	st  %g1, [ %i1 ]
4000c904:	80 a2 20 00 	cmp  %o0, 0
4000c908:	22 bf ff 3b 	be,a   4000c5f4 <__sfvwrite_r+0x174>
4000c90c:	a4 a4 80 1c 	subcc  %l2, %i4, %l2
4000c910:	10 bf ff 52 	b  4000c658 <__sfvwrite_r+0x1d8>
4000c914:	c2 16 60 0c 	lduh  [ %i1 + 0xc ], %g1
4000c918:	40 00 01 4a 	call  4000ce40 <_realloc_r>
4000c91c:	90 10 00 18 	mov  %i0, %o0
4000c920:	a2 92 20 00 	orcc  %o0, 0, %l1
4000c924:	32 bf ff 91 	bne,a   4000c768 <__sfvwrite_r+0x2e8>
4000c928:	90 04 40 14 	add  %l1, %l4, %o0
4000c92c:	d2 06 60 10 	ld  [ %i1 + 0x10 ], %o1
4000c930:	7f ff ea df 	call  400074ac <_free_r>
4000c934:	90 10 00 18 	mov  %i0, %o0
4000c938:	c2 16 60 0c 	lduh  [ %i1 + 0xc ], %g1
4000c93c:	84 10 20 0c 	mov  0xc, %g2
4000c940:	82 08 7f 7f 	and  %g1, -129, %g1
4000c944:	10 bf ff 45 	b  4000c658 <__sfvwrite_r+0x1d8>
4000c948:	c4 26 00 00 	st  %g2, [ %i0 ]
4000c94c:	82 04 20 01 	add  %l0, 1, %g1
4000c950:	10 bf ff 0c 	b  4000c580 <__sfvwrite_r+0x100>
4000c954:	a4 10 00 01 	mov  %g1, %l2
4000c958:	c2 16 60 0c 	lduh  [ %i1 + 0xc ], %g1
4000c95c:	84 10 20 0c 	mov  0xc, %g2
4000c960:	10 bf ff 3e 	b  4000c658 <__sfvwrite_r+0x1d8>
4000c964:	c4 26 00 00 	st  %g2, [ %i0 ]
4000c968:	81 c7 e0 08 	ret 
4000c96c:	91 e8 3f ff 	restore  %g0, -1, %o0

4000c970 <_isatty_r>:
4000c970:	9d e3 bf a0 	save  %sp, -96, %sp
4000c974:	3b 10 00 3e 	sethi  %hi(0x4000f800), %i5
4000c978:	90 10 00 19 	mov  %i1, %o0
4000c97c:	40 00 05 17 	call  4000ddd8 <getpid>
4000c980:	c0 27 62 e8 	clr  [ %i5 + 0x2e8 ]
4000c984:	80 a2 3f ff 	cmp  %o0, -1
4000c988:	02 80 00 04 	be  4000c998 <_isatty_r+0x28>
4000c98c:	c2 07 62 e8 	ld  [ %i5 + 0x2e8 ], %g1
4000c990:	81 c7 e0 08 	ret 
4000c994:	91 e8 00 08 	restore  %g0, %o0, %o0
4000c998:	80 a0 60 00 	cmp  %g1, 0
4000c99c:	02 bf ff fd 	be  4000c990 <_isatty_r+0x20>
4000c9a0:	01 00 00 00 	nop 
4000c9a4:	c2 26 00 00 	st  %g1, [ %i0 ]
4000c9a8:	81 c7 e0 08 	ret 
4000c9ac:	91 e8 00 08 	restore  %g0, %o0, %o0

4000c9b0 <_setlocale_r>:
4000c9b0:	9d e3 bf a0 	save  %sp, -96, %sp
4000c9b4:	80 a6 a0 00 	cmp  %i2, 0
4000c9b8:	02 80 00 0b 	be  4000c9e4 <_setlocale_r+0x34>
4000c9bc:	90 10 00 1a 	mov  %i2, %o0
4000c9c0:	13 10 00 3b 	sethi  %hi(0x4000ec00), %o1
4000c9c4:	31 10 00 3b 	sethi  %hi(0x4000ec00), %i0
4000c9c8:	40 00 03 25 	call  4000d65c <strcmp>
4000c9cc:	92 12 63 98 	or  %o1, 0x398, %o1
4000c9d0:	80 a2 20 00 	cmp  %o0, 0
4000c9d4:	12 80 00 07 	bne  4000c9f0 <_setlocale_r+0x40>
4000c9d8:	92 16 23 90 	or  %i0, 0x390, %o1
4000c9dc:	81 c7 e0 08 	ret 
4000c9e0:	91 ee 23 90 	restore  %i0, 0x390, %o0
4000c9e4:	31 10 00 3b 	sethi  %hi(0x4000ec00), %i0
4000c9e8:	81 c7 e0 08 	ret 
4000c9ec:	91 ee 23 90 	restore  %i0, 0x390, %o0
4000c9f0:	40 00 03 1b 	call  4000d65c <strcmp>
4000c9f4:	90 10 00 1a 	mov  %i2, %o0
4000c9f8:	80 a2 20 00 	cmp  %o0, 0
4000c9fc:	02 bf ff f8 	be  4000c9dc <_setlocale_r+0x2c>
4000ca00:	90 10 00 1a 	mov  %i2, %o0
4000ca04:	13 10 00 3b 	sethi  %hi(0x4000ec00), %o1
4000ca08:	40 00 03 15 	call  4000d65c <strcmp>
4000ca0c:	92 12 61 20 	or  %o1, 0x120, %o1	! 4000ed20 <_global_impure_ptr+0x4c>
4000ca10:	80 a2 20 00 	cmp  %o0, 0
4000ca14:	02 bf ff f2 	be  4000c9dc <_setlocale_r+0x2c>
4000ca18:	01 00 00 00 	nop 
4000ca1c:	81 c7 e0 08 	ret 
4000ca20:	91 e8 20 00 	restore  %g0, 0, %o0

4000ca24 <__locale_mb_cur_max>:
4000ca24:	03 10 00 3c 	sethi  %hi(0x4000f000), %g1
4000ca28:	c2 00 63 5c 	ld  [ %g1 + 0x35c ], %g1	! 4000f35c <_impure_ptr>
4000ca2c:	c2 00 60 20 	ld  [ %g1 + 0x20 ], %g1
4000ca30:	80 a0 60 00 	cmp  %g1, 0
4000ca34:	22 80 00 04 	be,a   4000ca44 <__locale_mb_cur_max+0x20>
4000ca38:	03 10 00 3d 	sethi  %hi(0x4000f400), %g1
4000ca3c:	81 c3 e0 08 	retl 
4000ca40:	d0 48 61 28 	ldsb  [ %g1 + 0x128 ], %o0	! 4000f528 <__malloc_av_+0x160>
4000ca44:	82 10 63 d0 	or  %g1, 0x3d0, %g1
4000ca48:	81 c3 e0 08 	retl 
4000ca4c:	d0 48 61 28 	ldsb  [ %g1 + 0x128 ], %o0

4000ca50 <__locale_ctype_ptr_l>:
4000ca50:	81 c3 e0 08 	retl 
4000ca54:	d0 02 20 ec 	ld  [ %o0 + 0xec ], %o0

4000ca58 <__locale_ctype_ptr>:
4000ca58:	03 10 00 3c 	sethi  %hi(0x4000f000), %g1
4000ca5c:	c2 00 63 5c 	ld  [ %g1 + 0x35c ], %g1	! 4000f35c <_impure_ptr>
4000ca60:	c2 00 60 20 	ld  [ %g1 + 0x20 ], %g1
4000ca64:	80 a0 60 00 	cmp  %g1, 0
4000ca68:	22 80 00 04 	be,a   4000ca78 <__locale_ctype_ptr+0x20>
4000ca6c:	03 10 00 3d 	sethi  %hi(0x4000f400), %g1
4000ca70:	81 c3 e0 08 	retl 
4000ca74:	d0 00 60 ec 	ld  [ %g1 + 0xec ], %o0	! 4000f4ec <__malloc_av_+0x124>
4000ca78:	82 10 63 d0 	or  %g1, 0x3d0, %g1
4000ca7c:	81 c3 e0 08 	retl 
4000ca80:	d0 00 60 ec 	ld  [ %g1 + 0xec ], %o0

4000ca84 <setlocale>:
4000ca84:	9d e3 bf a0 	save  %sp, -96, %sp
4000ca88:	80 a6 60 00 	cmp  %i1, 0
4000ca8c:	02 80 00 0b 	be  4000cab8 <setlocale+0x34>
4000ca90:	90 10 00 19 	mov  %i1, %o0
4000ca94:	13 10 00 3b 	sethi  %hi(0x4000ec00), %o1
4000ca98:	31 10 00 3b 	sethi  %hi(0x4000ec00), %i0
4000ca9c:	40 00 02 f0 	call  4000d65c <strcmp>
4000caa0:	92 12 63 98 	or  %o1, 0x398, %o1
4000caa4:	80 a2 20 00 	cmp  %o0, 0
4000caa8:	12 80 00 07 	bne  4000cac4 <setlocale+0x40>
4000caac:	92 16 23 90 	or  %i0, 0x390, %o1
4000cab0:	81 c7 e0 08 	ret 
4000cab4:	91 ee 23 90 	restore  %i0, 0x390, %o0
4000cab8:	31 10 00 3b 	sethi  %hi(0x4000ec00), %i0
4000cabc:	81 c7 e0 08 	ret 
4000cac0:	91 ee 23 90 	restore  %i0, 0x390, %o0
4000cac4:	40 00 02 e6 	call  4000d65c <strcmp>
4000cac8:	90 10 00 19 	mov  %i1, %o0
4000cacc:	80 a2 20 00 	cmp  %o0, 0
4000cad0:	02 bf ff f8 	be  4000cab0 <setlocale+0x2c>
4000cad4:	90 10 00 19 	mov  %i1, %o0
4000cad8:	13 10 00 3b 	sethi  %hi(0x4000ec00), %o1
4000cadc:	40 00 02 e0 	call  4000d65c <strcmp>
4000cae0:	92 12 61 20 	or  %o1, 0x120, %o1	! 4000ed20 <_global_impure_ptr+0x4c>
4000cae4:	80 a2 20 00 	cmp  %o0, 0
4000cae8:	02 bf ff f2 	be  4000cab0 <setlocale+0x2c>
4000caec:	01 00 00 00 	nop 
4000caf0:	81 c7 e0 08 	ret 
4000caf4:	91 e8 20 00 	restore  %g0, 0, %o0

4000caf8 <_lseek_r>:
4000caf8:	9d e3 bf a0 	save  %sp, -96, %sp
4000cafc:	3b 10 00 3e 	sethi  %hi(0x4000f800), %i5
4000cb00:	94 10 00 1b 	mov  %i3, %o2
4000cb04:	c0 27 62 e8 	clr  [ %i5 + 0x2e8 ]
4000cb08:	92 10 00 1a 	mov  %i2, %o1
4000cb0c:	40 00 04 ad 	call  4000ddc0 <close>
4000cb10:	90 10 00 19 	mov  %i1, %o0
4000cb14:	80 a2 3f ff 	cmp  %o0, -1
4000cb18:	02 80 00 04 	be  4000cb28 <_lseek_r+0x30>
4000cb1c:	c2 07 62 e8 	ld  [ %i5 + 0x2e8 ], %g1
4000cb20:	81 c7 e0 08 	ret 
4000cb24:	91 e8 00 08 	restore  %g0, %o0, %o0
4000cb28:	80 a0 60 00 	cmp  %g1, 0
4000cb2c:	02 bf ff fd 	be  4000cb20 <_lseek_r+0x28>
4000cb30:	01 00 00 00 	nop 
4000cb34:	c2 26 00 00 	st  %g1, [ %i0 ]
4000cb38:	81 c7 e0 08 	ret 
4000cb3c:	91 e8 00 08 	restore  %g0, %o0, %o0

4000cb40 <_mbtowc_r>:
4000cb40:	9d e3 bf a0 	save  %sp, -96, %sp
4000cb44:	03 10 00 3c 	sethi  %hi(0x4000f000), %g1
4000cb48:	c2 00 63 5c 	ld  [ %g1 + 0x35c ], %g1	! 4000f35c <_impure_ptr>
4000cb4c:	c2 00 60 20 	ld  [ %g1 + 0x20 ], %g1
4000cb50:	80 a0 60 00 	cmp  %g1, 0
4000cb54:	02 80 00 0a 	be  4000cb7c <_mbtowc_r+0x3c>
4000cb58:	98 10 00 1c 	mov  %i4, %o4
4000cb5c:	c2 00 60 e4 	ld  [ %g1 + 0xe4 ], %g1
4000cb60:	96 10 00 1b 	mov  %i3, %o3
4000cb64:	94 10 00 1a 	mov  %i2, %o2
4000cb68:	92 10 00 19 	mov  %i1, %o1
4000cb6c:	9f c0 40 00 	call  %g1
4000cb70:	90 10 00 18 	mov  %i0, %o0
4000cb74:	81 c7 e0 08 	ret 
4000cb78:	91 e8 00 08 	restore  %g0, %o0, %o0
4000cb7c:	96 10 00 1b 	mov  %i3, %o3
4000cb80:	94 10 00 1a 	mov  %i2, %o2
4000cb84:	92 10 00 19 	mov  %i1, %o1
4000cb88:	03 10 00 3d 	sethi  %hi(0x4000f400), %g1
4000cb8c:	82 10 63 d0 	or  %g1, 0x3d0, %g1	! 4000f7d0 <__global_locale>
4000cb90:	c2 00 60 e4 	ld  [ %g1 + 0xe4 ], %g1
4000cb94:	9f c0 40 00 	call  %g1
4000cb98:	90 10 00 18 	mov  %i0, %o0
4000cb9c:	81 c7 e0 08 	ret 
4000cba0:	91 e8 00 08 	restore  %g0, %o0, %o0

4000cba4 <__ascii_mbtowc>:
4000cba4:	80 a2 60 00 	cmp  %o1, 0
4000cba8:	02 80 00 0f 	be  4000cbe4 <__ascii_mbtowc+0x40>
4000cbac:	9c 03 bf b0 	add  %sp, -80, %sp
4000cbb0:	80 a2 a0 00 	cmp  %o2, 0
4000cbb4:	02 80 00 10 	be  4000cbf4 <__ascii_mbtowc+0x50>
4000cbb8:	90 10 20 00 	clr  %o0
4000cbbc:	80 a2 e0 00 	cmp  %o3, 0
4000cbc0:	22 80 00 07 	be,a   4000cbdc <__ascii_mbtowc+0x38>
4000cbc4:	90 10 3f fe 	mov  -2, %o0
4000cbc8:	c2 0a 80 00 	ldub  [ %o2 ], %g1
4000cbcc:	c2 22 40 00 	st  %g1, [ %o1 ]
4000cbd0:	c2 0a 80 00 	ldub  [ %o2 ], %g1
4000cbd4:	80 a0 00 01 	cmp  %g0, %g1
4000cbd8:	90 40 20 00 	addx  %g0, 0, %o0
4000cbdc:	81 c3 e0 08 	retl 
4000cbe0:	9c 03 a0 50 	add  %sp, 0x50, %sp
4000cbe4:	80 a2 a0 00 	cmp  %o2, 0
4000cbe8:	12 bf ff f5 	bne  4000cbbc <__ascii_mbtowc+0x18>
4000cbec:	92 03 a0 4c 	add  %sp, 0x4c, %o1
4000cbf0:	90 10 20 00 	clr  %o0
4000cbf4:	81 c3 e0 08 	retl 
4000cbf8:	9c 03 a0 50 	add  %sp, 0x50, %sp

4000cbfc <memmove>:
4000cbfc:	80 a2 00 09 	cmp  %o0, %o1
4000cc00:	08 80 00 11 	bleu  4000cc44 <memmove+0x48>
4000cc04:	80 a2 a0 0f 	cmp  %o2, 0xf
4000cc08:	82 02 40 0a 	add  %o1, %o2, %g1
4000cc0c:	80 a2 00 01 	cmp  %o0, %g1
4000cc10:	1a 80 00 0d 	bcc  4000cc44 <memmove+0x48>
4000cc14:	80 a2 a0 0f 	cmp  %o2, 0xf
4000cc18:	80 a2 a0 00 	cmp  %o2, 0
4000cc1c:	02 80 00 08 	be  4000cc3c <memmove+0x40>
4000cc20:	82 02 bf ff 	add  %o2, -1, %g1
4000cc24:	c4 0a 40 01 	ldub  [ %o1 + %g1 ], %g2
4000cc28:	c4 2a 00 01 	stb  %g2, [ %o0 + %g1 ]
4000cc2c:	82 00 7f ff 	add  %g1, -1, %g1
4000cc30:	80 a0 7f ff 	cmp  %g1, -1
4000cc34:	32 bf ff fd 	bne,a   4000cc28 <memmove+0x2c>
4000cc38:	c4 0a 40 01 	ldub  [ %o1 + %g1 ], %g2
4000cc3c:	81 c3 e0 08 	retl 
4000cc40:	01 00 00 00 	nop 
4000cc44:	18 80 00 35 	bgu  4000cd18 <memmove+0x11c>
4000cc48:	82 12 40 08 	or  %o1, %o0, %g1
4000cc4c:	82 10 00 08 	mov  %o0, %g1
4000cc50:	80 a2 a0 00 	cmp  %o2, 0
4000cc54:	02 bf ff fa 	be  4000cc3c <memmove+0x40>
4000cc58:	98 02 bf ff 	add  %o2, -1, %o4
4000cc5c:	84 10 40 09 	or  %g1, %o1, %g2
4000cc60:	84 08 a0 03 	and  %g2, 3, %g2
4000cc64:	80 a0 00 02 	cmp  %g0, %g2
4000cc68:	84 02 60 01 	add  %o1, 1, %g2
4000cc6c:	88 60 3f ff 	subx  %g0, -1, %g4
4000cc70:	84 20 40 02 	sub  %g1, %g2, %g2
4000cc74:	80 a0 a0 02 	cmp  %g2, 2
4000cc78:	18 80 00 03 	bgu  4000cc84 <memmove+0x88>
4000cc7c:	86 10 20 01 	mov  1, %g3
4000cc80:	86 10 20 00 	clr  %g3
4000cc84:	80 89 00 03 	btst  %g4, %g3
4000cc88:	02 80 00 52 	be  4000cdd0 <memmove+0x1d4>
4000cc8c:	80 a3 20 08 	cmp  %o4, 8
4000cc90:	18 80 00 03 	bgu  4000cc9c <memmove+0xa0>
4000cc94:	84 10 20 01 	mov  1, %g2
4000cc98:	84 10 20 00 	clr  %g2
4000cc9c:	80 88 a0 ff 	btst  0xff, %g2
4000cca0:	02 80 00 4c 	be  4000cdd0 <memmove+0x1d4>
4000cca4:	86 03 3f fd 	add  %o4, -3, %g3
4000cca8:	96 03 20 01 	add  %o4, 1, %o3
4000ccac:	87 30 e0 02 	srl  %g3, 2, %g3
4000ccb0:	84 10 20 00 	clr  %g2
4000ccb4:	86 00 e0 01 	inc  %g3
4000ccb8:	88 10 20 00 	clr  %g4
4000ccbc:	da 02 40 02 	ld  [ %o1 + %g2 ], %o5
4000ccc0:	da 20 40 02 	st  %o5, [ %g1 + %g2 ]
4000ccc4:	88 01 20 01 	inc  %g4
4000ccc8:	80 a0 c0 04 	cmp  %g3, %g4
4000cccc:	18 bf ff fc 	bgu  4000ccbc <memmove+0xc0>
4000ccd0:	84 00 a0 04 	add  %g2, 4, %g2
4000ccd4:	87 28 e0 02 	sll  %g3, 2, %g3
4000ccd8:	84 00 40 03 	add  %g1, %g3, %g2
4000ccdc:	88 02 40 03 	add  %o1, %g3, %g4
4000cce0:	80 a2 c0 03 	cmp  %o3, %g3
4000cce4:	02 bf ff d6 	be  4000cc3c <memmove+0x40>
4000cce8:	98 23 00 03 	sub  %o4, %g3, %o4
4000ccec:	da 0a 40 03 	ldub  [ %o1 + %g3 ], %o5
4000ccf0:	80 a3 20 00 	cmp  %o4, 0
4000ccf4:	02 bf ff d2 	be  4000cc3c <memmove+0x40>
4000ccf8:	da 28 40 03 	stb  %o5, [ %g1 + %g3 ]
4000ccfc:	c2 09 20 01 	ldub  [ %g4 + 1 ], %g1
4000cd00:	80 a3 20 01 	cmp  %o4, 1
4000cd04:	02 bf ff ce 	be  4000cc3c <memmove+0x40>
4000cd08:	c2 28 a0 01 	stb  %g1, [ %g2 + 1 ]
4000cd0c:	c2 09 20 02 	ldub  [ %g4 + 2 ], %g1
4000cd10:	81 c3 e0 08 	retl 
4000cd14:	c2 28 a0 02 	stb  %g1, [ %g2 + 2 ]
4000cd18:	80 88 60 03 	btst  3, %g1
4000cd1c:	12 80 00 2b 	bne  4000cdc8 <memmove+0x1cc>
4000cd20:	98 02 bf ff 	add  %o2, -1, %o4
4000cd24:	9a 02 bf f0 	add  %o2, -16, %o5
4000cd28:	84 10 00 09 	mov  %o1, %g2
4000cd2c:	9a 0b 7f f0 	and  %o5, -16, %o5
4000cd30:	82 10 00 08 	mov  %o0, %g1
4000cd34:	9a 03 60 10 	add  %o5, 0x10, %o5
4000cd38:	88 02 00 0d 	add  %o0, %o5, %g4
4000cd3c:	c6 00 80 00 	ld  [ %g2 ], %g3
4000cd40:	84 00 a0 10 	add  %g2, 0x10, %g2
4000cd44:	c6 20 40 00 	st  %g3, [ %g1 ]
4000cd48:	c6 00 bf f4 	ld  [ %g2 + -12 ], %g3
4000cd4c:	c6 20 60 04 	st  %g3, [ %g1 + 4 ]
4000cd50:	c6 00 bf f8 	ld  [ %g2 + -8 ], %g3
4000cd54:	c6 20 60 08 	st  %g3, [ %g1 + 8 ]
4000cd58:	c6 00 bf fc 	ld  [ %g2 + -4 ], %g3
4000cd5c:	c6 20 60 0c 	st  %g3, [ %g1 + 0xc ]
4000cd60:	82 00 60 10 	add  %g1, 0x10, %g1
4000cd64:	80 a1 00 01 	cmp  %g4, %g1
4000cd68:	32 bf ff f6 	bne,a   4000cd40 <memmove+0x144>
4000cd6c:	c6 00 80 00 	ld  [ %g2 ], %g3
4000cd70:	92 02 40 0d 	add  %o1, %o5, %o1
4000cd74:	80 8a a0 0c 	btst  0xc, %o2
4000cd78:	02 80 00 1e 	be  4000cdf0 <memmove+0x1f4>
4000cd7c:	86 0a a0 0f 	and  %o2, 0xf, %g3
4000cd80:	c4 02 40 00 	ld  [ %o1 ], %g2
4000cd84:	c4 20 40 00 	st  %g2, [ %g1 ]
4000cd88:	84 00 ff fc 	add  %g3, -4, %g2
4000cd8c:	80 a0 a0 03 	cmp  %g2, 3
4000cd90:	08 80 00 08 	bleu  4000cdb0 <memmove+0x1b4>
4000cd94:	86 00 ff f8 	add  %g3, -8, %g3
4000cd98:	c8 02 60 04 	ld  [ %o1 + 4 ], %g4
4000cd9c:	80 a0 e0 03 	cmp  %g3, 3
4000cda0:	08 80 00 04 	bleu  4000cdb0 <memmove+0x1b4>
4000cda4:	c8 20 60 04 	st  %g4, [ %g1 + 4 ]
4000cda8:	c6 02 60 08 	ld  [ %o1 + 8 ], %g3
4000cdac:	c6 20 60 08 	st  %g3, [ %g1 + 8 ]
4000cdb0:	84 08 bf fc 	and  %g2, -4, %g2
4000cdb4:	94 0a a0 03 	and  %o2, 3, %o2
4000cdb8:	84 00 a0 04 	add  %g2, 4, %g2
4000cdbc:	82 00 40 02 	add  %g1, %g2, %g1
4000cdc0:	10 bf ff a4 	b  4000cc50 <memmove+0x54>
4000cdc4:	92 02 40 02 	add  %o1, %g2, %o1
4000cdc8:	10 bf ff a5 	b  4000cc5c <memmove+0x60>
4000cdcc:	82 10 00 08 	mov  %o0, %g1
4000cdd0:	84 10 20 00 	clr  %g2
4000cdd4:	c6 0a 40 02 	ldub  [ %o1 + %g2 ], %g3
4000cdd8:	c6 28 40 02 	stb  %g3, [ %g1 + %g2 ]
4000cddc:	80 a3 00 02 	cmp  %o4, %g2
4000cde0:	12 bf ff fd 	bne  4000cdd4 <memmove+0x1d8>
4000cde4:	84 00 a0 01 	inc  %g2
4000cde8:	81 c3 e0 08 	retl 
4000cdec:	01 00 00 00 	nop 
4000cdf0:	10 bf ff 98 	b  4000cc50 <memmove+0x54>
4000cdf4:	94 10 00 03 	mov  %g3, %o2

4000cdf8 <_read_r>:
4000cdf8:	9d e3 bf a0 	save  %sp, -96, %sp
4000cdfc:	3b 10 00 3e 	sethi  %hi(0x4000f800), %i5
4000ce00:	94 10 00 1b 	mov  %i3, %o2
4000ce04:	c0 27 62 e8 	clr  [ %i5 + 0x2e8 ]
4000ce08:	92 10 00 1a 	mov  %i2, %o1
4000ce0c:	40 00 03 95 	call  4000dc60 <read>
4000ce10:	90 10 00 19 	mov  %i1, %o0
4000ce14:	80 a2 3f ff 	cmp  %o0, -1
4000ce18:	02 80 00 04 	be  4000ce28 <_read_r+0x30>
4000ce1c:	c2 07 62 e8 	ld  [ %i5 + 0x2e8 ], %g1
4000ce20:	81 c7 e0 08 	ret 
4000ce24:	91 e8 00 08 	restore  %g0, %o0, %o0
4000ce28:	80 a0 60 00 	cmp  %g1, 0
4000ce2c:	02 bf ff fd 	be  4000ce20 <_read_r+0x28>
4000ce30:	01 00 00 00 	nop 
4000ce34:	c2 26 00 00 	st  %g1, [ %i0 ]
4000ce38:	81 c7 e0 08 	ret 
4000ce3c:	91 e8 00 08 	restore  %g0, %o0, %o0

4000ce40 <_realloc_r>:
4000ce40:	9d e3 bf a0 	save  %sp, -96, %sp
4000ce44:	80 a6 60 00 	cmp  %i1, 0
4000ce48:	02 80 00 74 	be  4000d018 <_realloc_r+0x1d8>
4000ce4c:	01 00 00 00 	nop 
4000ce50:	7f ff ed ac 	call  40008500 <__malloc_lock>
4000ce54:	90 10 00 18 	mov  %i0, %o0
4000ce58:	c2 06 7f fc 	ld  [ %i1 + -4 ], %g1
4000ce5c:	ba 06 a0 0b 	add  %i2, 0xb, %i5
4000ce60:	a0 06 7f f8 	add  %i1, -8, %l0
4000ce64:	80 a7 60 16 	cmp  %i5, 0x16
4000ce68:	18 80 00 4c 	bgu  4000cf98 <_realloc_r+0x158>
4000ce6c:	b8 08 7f fc 	and  %g1, -4, %i4
4000ce70:	84 10 20 00 	clr  %g2
4000ce74:	86 10 20 10 	mov  0x10, %g3
4000ce78:	ba 10 20 10 	mov  0x10, %i5
4000ce7c:	80 a7 40 1a 	cmp  %i5, %i2
4000ce80:	0a 80 00 75 	bcs  4000d054 <_realloc_r+0x214>
4000ce84:	80 88 a0 ff 	btst  0xff, %g2
4000ce88:	12 80 00 73 	bne  4000d054 <_realloc_r+0x214>
4000ce8c:	80 a7 00 03 	cmp  %i4, %g3
4000ce90:	16 80 00 4c 	bge  4000cfc0 <_realloc_r+0x180>
4000ce94:	b6 04 00 1c 	add  %l0, %i4, %i3
4000ce98:	25 10 00 3c 	sethi  %hi(0x4000f000), %l2
4000ce9c:	a4 14 a3 c8 	or  %l2, 0x3c8, %l2	! 4000f3c8 <__malloc_av_>
4000cea0:	c8 04 a0 08 	ld  [ %l2 + 8 ], %g4
4000cea4:	80 a1 00 1b 	cmp  %g4, %i3
4000cea8:	02 80 00 91 	be  4000d0ec <_realloc_r+0x2ac>
4000ceac:	c4 06 e0 04 	ld  [ %i3 + 4 ], %g2
4000ceb0:	88 08 bf fe 	and  %g2, -2, %g4
4000ceb4:	88 06 c0 04 	add  %i3, %g4, %g4
4000ceb8:	c8 01 20 04 	ld  [ %g4 + 4 ], %g4
4000cebc:	80 89 20 01 	btst  1, %g4
4000cec0:	12 80 00 4f 	bne  4000cffc <_realloc_r+0x1bc>
4000cec4:	80 88 60 01 	btst  1, %g1
4000cec8:	84 08 bf fc 	and  %g2, -4, %g2
4000cecc:	88 07 00 02 	add  %i4, %g2, %g4
4000ced0:	80 a1 00 03 	cmp  %g4, %g3
4000ced4:	16 80 00 35 	bge  4000cfa8 <_realloc_r+0x168>
4000ced8:	80 88 60 01 	btst  1, %g1
4000cedc:	12 80 00 10 	bne  4000cf1c <_realloc_r+0xdc>
4000cee0:	92 10 00 1a 	mov  %i2, %o1
4000cee4:	e6 06 7f f8 	ld  [ %i1 + -8 ], %l3
4000cee8:	a6 24 00 13 	sub  %l0, %l3, %l3
4000ceec:	c2 04 e0 04 	ld  [ %l3 + 4 ], %g1
4000cef0:	82 08 7f fc 	and  %g1, -4, %g1
4000cef4:	84 00 40 02 	add  %g1, %g2, %g2
4000cef8:	a2 00 80 1c 	add  %g2, %i4, %l1
4000cefc:	80 a4 40 03 	cmp  %l1, %g3
4000cf00:	36 80 00 5a 	bge,a   4000d068 <_realloc_r+0x228>
4000cf04:	c2 06 e0 0c 	ld  [ %i3 + 0xc ], %g1
4000cf08:	a2 07 00 01 	add  %i4, %g1, %l1
4000cf0c:	80 a4 40 03 	cmp  %l1, %g3
4000cf10:	36 80 00 5a 	bge,a   4000d078 <_realloc_r+0x238>
4000cf14:	c2 04 e0 0c 	ld  [ %l3 + 0xc ], %g1
4000cf18:	92 10 00 1a 	mov  %i2, %o1
4000cf1c:	7f ff ea fd 	call  40007b10 <_malloc_r>
4000cf20:	90 10 00 18 	mov  %i0, %o0
4000cf24:	b6 92 20 00 	orcc  %o0, 0, %i3
4000cf28:	02 80 00 17 	be  4000cf84 <_realloc_r+0x144>
4000cf2c:	84 06 ff f8 	add  %i3, -8, %g2
4000cf30:	c2 06 7f fc 	ld  [ %i1 + -4 ], %g1
4000cf34:	82 08 7f fe 	and  %g1, -2, %g1
4000cf38:	82 04 00 01 	add  %l0, %g1, %g1
4000cf3c:	80 a0 40 02 	cmp  %g1, %g2
4000cf40:	02 80 00 a1 	be  4000d1c4 <_realloc_r+0x384>
4000cf44:	94 07 3f fc 	add  %i4, -4, %o2
4000cf48:	80 a2 a0 24 	cmp  %o2, 0x24
4000cf4c:	18 80 00 ac 	bgu  4000d1fc <_realloc_r+0x3bc>
4000cf50:	80 a2 a0 13 	cmp  %o2, 0x13
4000cf54:	18 80 00 a1 	bgu  4000d1d8 <_realloc_r+0x398>
4000cf58:	c6 06 40 00 	ld  [ %i1 ], %g3
4000cf5c:	82 10 00 1b 	mov  %i3, %g1
4000cf60:	84 10 00 19 	mov  %i1, %g2
4000cf64:	c6 20 40 00 	st  %g3, [ %g1 ]
4000cf68:	c6 00 a0 04 	ld  [ %g2 + 4 ], %g3
4000cf6c:	c6 20 60 04 	st  %g3, [ %g1 + 4 ]
4000cf70:	c4 00 a0 08 	ld  [ %g2 + 8 ], %g2
4000cf74:	c4 20 60 08 	st  %g2, [ %g1 + 8 ]
4000cf78:	92 10 00 19 	mov  %i1, %o1
4000cf7c:	7f ff e9 4c 	call  400074ac <_free_r>
4000cf80:	90 10 00 18 	mov  %i0, %o0
4000cf84:	90 10 00 18 	mov  %i0, %o0
4000cf88:	7f ff ed 60 	call  40008508 <__malloc_unlock>
4000cf8c:	b0 10 00 1b 	mov  %i3, %i0
4000cf90:	81 c7 e0 08 	ret 
4000cf94:	81 e8 00 00 	restore 
4000cf98:	ba 0f 7f f8 	and  %i5, -8, %i5
4000cf9c:	86 10 00 1d 	mov  %i5, %g3
4000cfa0:	10 bf ff b7 	b  4000ce7c <_realloc_r+0x3c>
4000cfa4:	85 37 60 1f 	srl  %i5, 0x1f, %g2
4000cfa8:	c2 06 e0 0c 	ld  [ %i3 + 0xc ], %g1
4000cfac:	c4 06 e0 08 	ld  [ %i3 + 8 ], %g2
4000cfb0:	c2 20 a0 0c 	st  %g1, [ %g2 + 0xc ]
4000cfb4:	c4 20 60 08 	st  %g2, [ %g1 + 8 ]
4000cfb8:	b6 04 00 04 	add  %l0, %g4, %i3
4000cfbc:	b8 10 00 04 	mov  %g4, %i4
4000cfc0:	84 27 00 1d 	sub  %i4, %i5, %g2
4000cfc4:	c2 04 20 04 	ld  [ %l0 + 4 ], %g1
4000cfc8:	80 a0 a0 0f 	cmp  %g2, 0xf
4000cfcc:	18 80 00 15 	bgu  4000d020 <_realloc_r+0x1e0>
4000cfd0:	82 08 60 01 	and  %g1, 1, %g1
4000cfd4:	82 17 00 01 	or  %i4, %g1, %g1
4000cfd8:	c2 24 20 04 	st  %g1, [ %l0 + 4 ]
4000cfdc:	c2 06 e0 04 	ld  [ %i3 + 4 ], %g1
4000cfe0:	82 10 60 01 	or  %g1, 1, %g1
4000cfe4:	c2 26 e0 04 	st  %g1, [ %i3 + 4 ]
4000cfe8:	90 10 00 18 	mov  %i0, %o0
4000cfec:	7f ff ed 47 	call  40008508 <__malloc_unlock>
4000cff0:	b6 10 00 19 	mov  %i1, %i3
4000cff4:	81 c7 e0 08 	ret 
4000cff8:	91 e8 00 1b 	restore  %g0, %i3, %o0
4000cffc:	12 bf ff c8 	bne  4000cf1c <_realloc_r+0xdc>
4000d000:	92 10 00 1a 	mov  %i2, %o1
4000d004:	e6 06 7f f8 	ld  [ %i1 + -8 ], %l3
4000d008:	a6 24 00 13 	sub  %l0, %l3, %l3
4000d00c:	c2 04 e0 04 	ld  [ %l3 + 4 ], %g1
4000d010:	10 bf ff be 	b  4000cf08 <_realloc_r+0xc8>
4000d014:	82 08 7f fc 	and  %g1, -4, %g1
4000d018:	7f ff ea be 	call  40007b10 <_malloc_r>
4000d01c:	93 e8 00 1a 	restore  %g0, %i2, %o1
4000d020:	82 17 40 01 	or  %i5, %g1, %g1
4000d024:	c2 24 20 04 	st  %g1, [ %l0 + 4 ]
4000d028:	92 04 00 1d 	add  %l0, %i5, %o1
4000d02c:	84 10 a0 01 	or  %g2, 1, %g2
4000d030:	c4 22 60 04 	st  %g2, [ %o1 + 4 ]
4000d034:	c2 06 e0 04 	ld  [ %i3 + 4 ], %g1
4000d038:	82 10 60 01 	or  %g1, 1, %g1
4000d03c:	92 02 60 08 	add  %o1, 8, %o1
4000d040:	90 10 00 18 	mov  %i0, %o0
4000d044:	7f ff e9 1a 	call  400074ac <_free_r>
4000d048:	c2 26 e0 04 	st  %g1, [ %i3 + 4 ]
4000d04c:	10 bf ff e8 	b  4000cfec <_realloc_r+0x1ac>
4000d050:	90 10 00 18 	mov  %i0, %o0
4000d054:	b6 10 20 00 	clr  %i3
4000d058:	82 10 20 0c 	mov  0xc, %g1
4000d05c:	c2 26 00 00 	st  %g1, [ %i0 ]
4000d060:	81 c7 e0 08 	ret 
4000d064:	91 e8 00 1b 	restore  %g0, %i3, %o0
4000d068:	c4 06 e0 08 	ld  [ %i3 + 8 ], %g2
4000d06c:	c2 20 a0 0c 	st  %g1, [ %g2 + 0xc ]
4000d070:	c4 20 60 08 	st  %g2, [ %g1 + 8 ]
4000d074:	c2 04 e0 0c 	ld  [ %l3 + 0xc ], %g1
4000d078:	c4 04 e0 08 	ld  [ %l3 + 8 ], %g2
4000d07c:	c2 20 a0 0c 	st  %g1, [ %g2 + 0xc ]
4000d080:	c4 20 60 08 	st  %g2, [ %g1 + 8 ]
4000d084:	94 07 3f fc 	add  %i4, -4, %o2
4000d088:	90 04 e0 08 	add  %l3, 8, %o0
4000d08c:	80 a2 a0 24 	cmp  %o2, 0x24
4000d090:	18 80 00 5f 	bgu  4000d20c <_realloc_r+0x3cc>
4000d094:	b6 04 c0 11 	add  %l3, %l1, %i3
4000d098:	c4 06 40 00 	ld  [ %i1 ], %g2
4000d09c:	80 a2 a0 13 	cmp  %o2, 0x13
4000d0a0:	08 80 00 0a 	bleu  4000d0c8 <_realloc_r+0x288>
4000d0a4:	82 10 00 08 	mov  %o0, %g1
4000d0a8:	c4 24 e0 08 	st  %g2, [ %l3 + 8 ]
4000d0ac:	c2 06 60 04 	ld  [ %i1 + 4 ], %g1
4000d0b0:	80 a2 a0 1b 	cmp  %o2, 0x1b
4000d0b4:	18 80 00 74 	bgu  4000d284 <_realloc_r+0x444>
4000d0b8:	c2 24 e0 0c 	st  %g1, [ %l3 + 0xc ]
4000d0bc:	c4 06 60 08 	ld  [ %i1 + 8 ], %g2
4000d0c0:	82 04 e0 10 	add  %l3, 0x10, %g1
4000d0c4:	b2 06 60 08 	add  %i1, 8, %i1
4000d0c8:	c4 20 40 00 	st  %g2, [ %g1 ]
4000d0cc:	c4 06 60 04 	ld  [ %i1 + 4 ], %g2
4000d0d0:	b8 10 00 11 	mov  %l1, %i4
4000d0d4:	c4 20 60 04 	st  %g2, [ %g1 + 4 ]
4000d0d8:	a0 10 00 13 	mov  %l3, %l0
4000d0dc:	c4 06 60 08 	ld  [ %i1 + 8 ], %g2
4000d0e0:	b2 10 00 08 	mov  %o0, %i1
4000d0e4:	10 bf ff b7 	b  4000cfc0 <_realloc_r+0x180>
4000d0e8:	c4 20 60 08 	st  %g2, [ %g1 + 8 ]
4000d0ec:	84 08 bf fc 	and  %g2, -4, %g2
4000d0f0:	b6 07 60 10 	add  %i5, 0x10, %i3
4000d0f4:	88 07 00 02 	add  %i4, %g2, %g4
4000d0f8:	80 a1 00 1b 	cmp  %g4, %i3
4000d0fc:	16 80 00 55 	bge  4000d250 <_realloc_r+0x410>
4000d100:	80 88 60 01 	btst  1, %g1
4000d104:	12 bf ff 86 	bne  4000cf1c <_realloc_r+0xdc>
4000d108:	92 10 00 1a 	mov  %i2, %o1
4000d10c:	e6 06 7f f8 	ld  [ %i1 + -8 ], %l3
4000d110:	a6 24 00 13 	sub  %l0, %l3, %l3
4000d114:	c2 04 e0 04 	ld  [ %l3 + 4 ], %g1
4000d118:	82 08 7f fc 	and  %g1, -4, %g1
4000d11c:	84 00 40 02 	add  %g1, %g2, %g2
4000d120:	a2 00 80 1c 	add  %g2, %i4, %l1
4000d124:	80 a6 c0 11 	cmp  %i3, %l1
4000d128:	34 bf ff 79 	bg,a   4000cf0c <_realloc_r+0xcc>
4000d12c:	a2 07 00 01 	add  %i4, %g1, %l1
4000d130:	c2 04 e0 0c 	ld  [ %l3 + 0xc ], %g1
4000d134:	c4 04 e0 08 	ld  [ %l3 + 8 ], %g2
4000d138:	c2 20 a0 0c 	st  %g1, [ %g2 + 0xc ]
4000d13c:	c4 20 60 08 	st  %g2, [ %g1 + 8 ]
4000d140:	94 07 3f fc 	add  %i4, -4, %o2
4000d144:	80 a2 a0 24 	cmp  %o2, 0x24
4000d148:	18 80 00 68 	bgu  4000d2e8 <_realloc_r+0x4a8>
4000d14c:	b6 04 e0 08 	add  %l3, 8, %i3
4000d150:	c4 06 40 00 	ld  [ %i1 ], %g2
4000d154:	80 a2 a0 13 	cmp  %o2, 0x13
4000d158:	08 80 00 0a 	bleu  4000d180 <_realloc_r+0x340>
4000d15c:	82 10 00 1b 	mov  %i3, %g1
4000d160:	c4 24 e0 08 	st  %g2, [ %l3 + 8 ]
4000d164:	c2 06 60 04 	ld  [ %i1 + 4 ], %g1
4000d168:	80 a2 a0 1b 	cmp  %o2, 0x1b
4000d16c:	18 80 00 64 	bgu  4000d2fc <_realloc_r+0x4bc>
4000d170:	c2 24 e0 0c 	st  %g1, [ %l3 + 0xc ]
4000d174:	c4 06 60 08 	ld  [ %i1 + 8 ], %g2
4000d178:	82 04 e0 10 	add  %l3, 0x10, %g1
4000d17c:	b2 06 60 08 	add  %i1, 8, %i1
4000d180:	c4 20 40 00 	st  %g2, [ %g1 ]
4000d184:	c4 06 60 04 	ld  [ %i1 + 4 ], %g2
4000d188:	c4 20 60 04 	st  %g2, [ %g1 + 4 ]
4000d18c:	c4 06 60 08 	ld  [ %i1 + 8 ], %g2
4000d190:	c4 20 60 08 	st  %g2, [ %g1 + 8 ]
4000d194:	84 04 c0 1d 	add  %l3, %i5, %g2
4000d198:	82 24 40 1d 	sub  %l1, %i5, %g1
4000d19c:	c4 24 a0 08 	st  %g2, [ %l2 + 8 ]
4000d1a0:	82 10 60 01 	or  %g1, 1, %g1
4000d1a4:	c2 20 a0 04 	st  %g1, [ %g2 + 4 ]
4000d1a8:	c2 04 e0 04 	ld  [ %l3 + 4 ], %g1
4000d1ac:	82 08 60 01 	and  %g1, 1, %g1
4000d1b0:	90 10 00 18 	mov  %i0, %o0
4000d1b4:	ba 10 40 1d 	or  %g1, %i5, %i5
4000d1b8:	7f ff ec d4 	call  40008508 <__malloc_unlock>
4000d1bc:	fa 24 e0 04 	st  %i5, [ %l3 + 4 ]
4000d1c0:	30 bf ff 8d 	b,a   4000cff4 <_realloc_r+0x1b4>
4000d1c4:	c2 06 ff fc 	ld  [ %i3 + -4 ], %g1
4000d1c8:	82 08 7f fc 	and  %g1, -4, %g1
4000d1cc:	b8 07 00 01 	add  %i4, %g1, %i4
4000d1d0:	10 bf ff 7c 	b  4000cfc0 <_realloc_r+0x180>
4000d1d4:	b6 04 00 1c 	add  %l0, %i4, %i3
4000d1d8:	c6 26 c0 00 	st  %g3, [ %i3 ]
4000d1dc:	c2 06 60 04 	ld  [ %i1 + 4 ], %g1
4000d1e0:	80 a2 a0 1b 	cmp  %o2, 0x1b
4000d1e4:	18 80 00 11 	bgu  4000d228 <_realloc_r+0x3e8>
4000d1e8:	c2 26 e0 04 	st  %g1, [ %i3 + 4 ]
4000d1ec:	84 06 60 08 	add  %i1, 8, %g2
4000d1f0:	82 06 e0 08 	add  %i3, 8, %g1
4000d1f4:	10 bf ff 5c 	b  4000cf64 <_realloc_r+0x124>
4000d1f8:	c6 06 60 08 	ld  [ %i1 + 8 ], %g3
4000d1fc:	7f ff fe 80 	call  4000cbfc <memmove>
4000d200:	92 10 00 19 	mov  %i1, %o1
4000d204:	10 bf ff 5e 	b  4000cf7c <_realloc_r+0x13c>
4000d208:	92 10 00 19 	mov  %i1, %o1
4000d20c:	92 10 00 19 	mov  %i1, %o1
4000d210:	b8 10 00 11 	mov  %l1, %i4
4000d214:	b2 10 00 08 	mov  %o0, %i1
4000d218:	7f ff fe 79 	call  4000cbfc <memmove>
4000d21c:	a0 10 00 13 	mov  %l3, %l0
4000d220:	10 bf ff 69 	b  4000cfc4 <_realloc_r+0x184>
4000d224:	84 27 00 1d 	sub  %i4, %i5, %g2
4000d228:	c2 06 60 08 	ld  [ %i1 + 8 ], %g1
4000d22c:	c2 26 e0 08 	st  %g1, [ %i3 + 8 ]
4000d230:	c2 06 60 0c 	ld  [ %i1 + 0xc ], %g1
4000d234:	80 a2 a0 24 	cmp  %o2, 0x24
4000d238:	02 80 00 1d 	be  4000d2ac <_realloc_r+0x46c>
4000d23c:	c2 26 e0 0c 	st  %g1, [ %i3 + 0xc ]
4000d240:	84 06 60 10 	add  %i1, 0x10, %g2
4000d244:	82 06 e0 10 	add  %i3, 0x10, %g1
4000d248:	10 bf ff 47 	b  4000cf64 <_realloc_r+0x124>
4000d24c:	c6 06 60 10 	ld  [ %i1 + 0x10 ], %g3
4000d250:	a0 04 00 1d 	add  %l0, %i5, %l0
4000d254:	82 21 00 1d 	sub  %g4, %i5, %g1
4000d258:	e0 24 a0 08 	st  %l0, [ %l2 + 8 ]
4000d25c:	82 10 60 01 	or  %g1, 1, %g1
4000d260:	c2 24 20 04 	st  %g1, [ %l0 + 4 ]
4000d264:	c2 06 7f fc 	ld  [ %i1 + -4 ], %g1
4000d268:	82 08 60 01 	and  %g1, 1, %g1
4000d26c:	90 10 00 18 	mov  %i0, %o0
4000d270:	ba 10 40 1d 	or  %g1, %i5, %i5
4000d274:	b6 10 00 19 	mov  %i1, %i3
4000d278:	7f ff ec a4 	call  40008508 <__malloc_unlock>
4000d27c:	fa 26 7f fc 	st  %i5, [ %i1 + -4 ]
4000d280:	30 bf ff 5d 	b,a   4000cff4 <_realloc_r+0x1b4>
4000d284:	c2 06 60 08 	ld  [ %i1 + 8 ], %g1
4000d288:	c2 24 e0 10 	st  %g1, [ %l3 + 0x10 ]
4000d28c:	c2 06 60 0c 	ld  [ %i1 + 0xc ], %g1
4000d290:	c2 24 e0 14 	st  %g1, [ %l3 + 0x14 ]
4000d294:	80 a2 a0 24 	cmp  %o2, 0x24
4000d298:	02 80 00 0d 	be  4000d2cc <_realloc_r+0x48c>
4000d29c:	c4 06 60 10 	ld  [ %i1 + 0x10 ], %g2
4000d2a0:	82 04 e0 18 	add  %l3, 0x18, %g1
4000d2a4:	10 bf ff 89 	b  4000d0c8 <_realloc_r+0x288>
4000d2a8:	b2 06 60 10 	add  %i1, 0x10, %i1
4000d2ac:	c2 06 60 10 	ld  [ %i1 + 0x10 ], %g1
4000d2b0:	c2 26 e0 10 	st  %g1, [ %i3 + 0x10 ]
4000d2b4:	c6 06 60 14 	ld  [ %i1 + 0x14 ], %g3
4000d2b8:	84 06 60 18 	add  %i1, 0x18, %g2
4000d2bc:	c6 26 e0 14 	st  %g3, [ %i3 + 0x14 ]
4000d2c0:	82 06 e0 18 	add  %i3, 0x18, %g1
4000d2c4:	10 bf ff 28 	b  4000cf64 <_realloc_r+0x124>
4000d2c8:	c6 06 60 18 	ld  [ %i1 + 0x18 ], %g3
4000d2cc:	c4 24 e0 18 	st  %g2, [ %l3 + 0x18 ]
4000d2d0:	c4 06 60 14 	ld  [ %i1 + 0x14 ], %g2
4000d2d4:	82 04 e0 20 	add  %l3, 0x20, %g1
4000d2d8:	c4 24 e0 1c 	st  %g2, [ %l3 + 0x1c ]
4000d2dc:	b2 06 60 18 	add  %i1, 0x18, %i1
4000d2e0:	10 bf ff 7a 	b  4000d0c8 <_realloc_r+0x288>
4000d2e4:	c4 06 40 00 	ld  [ %i1 ], %g2
4000d2e8:	92 10 00 19 	mov  %i1, %o1
4000d2ec:	7f ff fe 44 	call  4000cbfc <memmove>
4000d2f0:	90 10 00 1b 	mov  %i3, %o0
4000d2f4:	10 bf ff a9 	b  4000d198 <_realloc_r+0x358>
4000d2f8:	84 04 c0 1d 	add  %l3, %i5, %g2
4000d2fc:	c2 06 60 08 	ld  [ %i1 + 8 ], %g1
4000d300:	c2 24 e0 10 	st  %g1, [ %l3 + 0x10 ]
4000d304:	c2 06 60 0c 	ld  [ %i1 + 0xc ], %g1
4000d308:	c2 24 e0 14 	st  %g1, [ %l3 + 0x14 ]
4000d30c:	80 a2 a0 24 	cmp  %o2, 0x24
4000d310:	02 80 00 05 	be  4000d324 <_realloc_r+0x4e4>
4000d314:	c4 06 60 10 	ld  [ %i1 + 0x10 ], %g2
4000d318:	82 04 e0 18 	add  %l3, 0x18, %g1
4000d31c:	10 bf ff 99 	b  4000d180 <_realloc_r+0x340>
4000d320:	b2 06 60 10 	add  %i1, 0x10, %i1
4000d324:	c4 24 e0 18 	st  %g2, [ %l3 + 0x18 ]
4000d328:	c4 06 60 14 	ld  [ %i1 + 0x14 ], %g2
4000d32c:	82 04 e0 20 	add  %l3, 0x20, %g1
4000d330:	c4 24 e0 1c 	st  %g2, [ %l3 + 0x1c ]
4000d334:	b2 06 60 18 	add  %i1, 0x18, %i1
4000d338:	10 bf ff 92 	b  4000d180 <_realloc_r+0x340>
4000d33c:	c4 06 40 00 	ld  [ %i1 ], %g2

4000d340 <cleanup_glue>:
4000d340:	9d e3 bf a0 	save  %sp, -96, %sp
4000d344:	fa 06 40 00 	ld  [ %i1 ], %i5
4000d348:	80 a7 60 00 	cmp  %i5, 0
4000d34c:	02 80 00 19 	be  4000d3b0 <cleanup_glue+0x70>
4000d350:	01 00 00 00 	nop 
4000d354:	f8 07 40 00 	ld  [ %i5 ], %i4
4000d358:	80 a7 20 00 	cmp  %i4, 0
4000d35c:	02 80 00 13 	be  4000d3a8 <cleanup_glue+0x68>
4000d360:	92 10 00 1d 	mov  %i5, %o1
4000d364:	f6 07 00 00 	ld  [ %i4 ], %i3
4000d368:	80 a6 e0 00 	cmp  %i3, 0
4000d36c:	02 80 00 0c 	be  4000d39c <cleanup_glue+0x5c>
4000d370:	92 10 00 1c 	mov  %i4, %o1
4000d374:	d2 06 c0 00 	ld  [ %i3 ], %o1
4000d378:	80 a2 60 00 	cmp  %o1, 0
4000d37c:	22 80 00 05 	be,a   4000d390 <cleanup_glue+0x50>
4000d380:	92 10 00 1b 	mov  %i3, %o1
4000d384:	7f ff ff ef 	call  4000d340 <cleanup_glue>
4000d388:	90 10 00 18 	mov  %i0, %o0
4000d38c:	92 10 00 1b 	mov  %i3, %o1
4000d390:	7f ff e8 47 	call  400074ac <_free_r>
4000d394:	90 10 00 18 	mov  %i0, %o0
4000d398:	92 10 00 1c 	mov  %i4, %o1
4000d39c:	7f ff e8 44 	call  400074ac <_free_r>
4000d3a0:	90 10 00 18 	mov  %i0, %o0
4000d3a4:	92 10 00 1d 	mov  %i5, %o1
4000d3a8:	7f ff e8 41 	call  400074ac <_free_r>
4000d3ac:	90 10 00 18 	mov  %i0, %o0
4000d3b0:	7f ff e8 3f 	call  400074ac <_free_r>
4000d3b4:	81 e8 00 00 	restore 

4000d3b8 <_reclaim_reent>:
4000d3b8:	9d e3 bf a0 	save  %sp, -96, %sp
4000d3bc:	03 10 00 3c 	sethi  %hi(0x4000f000), %g1
4000d3c0:	c2 00 63 5c 	ld  [ %g1 + 0x35c ], %g1	! 4000f35c <_impure_ptr>
4000d3c4:	80 a0 40 18 	cmp  %g1, %i0
4000d3c8:	02 80 00 99 	be  4000d62c <_reclaim_reent+0x274>
4000d3cc:	01 00 00 00 	nop 
4000d3d0:	c4 06 20 24 	ld  [ %i0 + 0x24 ], %g2
4000d3d4:	80 a0 a0 00 	cmp  %g2, 0
4000d3d8:	22 80 00 97 	be,a   4000d634 <_reclaim_reent+0x27c>
4000d3dc:	d2 06 20 14 	ld  [ %i0 + 0x14 ], %o1
4000d3e0:	d2 00 a0 0c 	ld  [ %g2 + 0xc ], %o1
4000d3e4:	80 a2 60 00 	cmp  %o1, 0
4000d3e8:	22 80 00 18 	be,a   4000d448 <_reclaim_reent+0x90>
4000d3ec:	d2 00 80 00 	ld  [ %g2 ], %o1
4000d3f0:	b8 10 20 00 	clr  %i4
4000d3f4:	fa 02 40 1c 	ld  [ %o1 + %i4 ], %i5
4000d3f8:	80 a7 60 00 	cmp  %i5, 0
4000d3fc:	22 80 00 0c 	be,a   4000d42c <_reclaim_reent+0x74>
4000d400:	b8 07 20 04 	add  %i4, 4, %i4
4000d404:	92 10 00 1d 	mov  %i5, %o1
4000d408:	90 10 00 18 	mov  %i0, %o0
4000d40c:	7f ff e8 28 	call  400074ac <_free_r>
4000d410:	fa 07 40 00 	ld  [ %i5 ], %i5
4000d414:	80 a7 60 00 	cmp  %i5, 0
4000d418:	12 bf ff fc 	bne  4000d408 <_reclaim_reent+0x50>
4000d41c:	92 10 00 1d 	mov  %i5, %o1
4000d420:	c2 06 20 24 	ld  [ %i0 + 0x24 ], %g1
4000d424:	d2 00 60 0c 	ld  [ %g1 + 0xc ], %o1
4000d428:	b8 07 20 04 	add  %i4, 4, %i4
4000d42c:	80 a7 20 80 	cmp  %i4, 0x80
4000d430:	32 bf ff f2 	bne,a   4000d3f8 <_reclaim_reent+0x40>
4000d434:	fa 02 40 1c 	ld  [ %o1 + %i4 ], %i5
4000d438:	7f ff e8 1d 	call  400074ac <_free_r>
4000d43c:	90 10 00 18 	mov  %i0, %o0
4000d440:	c4 06 20 24 	ld  [ %i0 + 0x24 ], %g2
4000d444:	d2 00 80 00 	ld  [ %g2 ], %o1
4000d448:	80 a2 60 00 	cmp  %o1, 0
4000d44c:	22 80 00 7f 	be,a   4000d648 <_reclaim_reent+0x290>
4000d450:	d2 06 20 14 	ld  [ %i0 + 0x14 ], %o1
4000d454:	7f ff e8 16 	call  400074ac <_free_r>
4000d458:	90 10 00 18 	mov  %i0, %o0
4000d45c:	d2 06 20 14 	ld  [ %i0 + 0x14 ], %o1
4000d460:	80 a2 60 00 	cmp  %o1, 0
4000d464:	22 80 00 05 	be,a   4000d478 <_reclaim_reent+0xc0>
4000d468:	c4 06 20 24 	ld  [ %i0 + 0x24 ], %g2
4000d46c:	7f ff e8 10 	call  400074ac <_free_r>
4000d470:	90 10 00 18 	mov  %i0, %o0
4000d474:	c4 06 20 24 	ld  [ %i0 + 0x24 ], %g2
4000d478:	80 a0 a0 00 	cmp  %g2, 0
4000d47c:	02 80 00 04 	be  4000d48c <_reclaim_reent+0xd4>
4000d480:	92 10 00 02 	mov  %g2, %o1
4000d484:	7f ff e8 0a 	call  400074ac <_free_r>
4000d488:	90 10 00 18 	mov  %i0, %o0
4000d48c:	d2 06 20 38 	ld  [ %i0 + 0x38 ], %o1
4000d490:	80 a2 60 00 	cmp  %o1, 0
4000d494:	22 80 00 05 	be,a   4000d4a8 <_reclaim_reent+0xf0>
4000d498:	d2 06 20 3c 	ld  [ %i0 + 0x3c ], %o1
4000d49c:	7f ff e8 04 	call  400074ac <_free_r>
4000d4a0:	90 10 00 18 	mov  %i0, %o0
4000d4a4:	d2 06 20 3c 	ld  [ %i0 + 0x3c ], %o1
4000d4a8:	80 a2 60 00 	cmp  %o1, 0
4000d4ac:	22 80 00 05 	be,a   4000d4c0 <_reclaim_reent+0x108>
4000d4b0:	d2 06 20 40 	ld  [ %i0 + 0x40 ], %o1
4000d4b4:	7f ff e7 fe 	call  400074ac <_free_r>
4000d4b8:	90 10 00 18 	mov  %i0, %o0
4000d4bc:	d2 06 20 40 	ld  [ %i0 + 0x40 ], %o1
4000d4c0:	80 a2 60 00 	cmp  %o1, 0
4000d4c4:	22 80 00 05 	be,a   4000d4d8 <_reclaim_reent+0x120>
4000d4c8:	d2 06 20 5c 	ld  [ %i0 + 0x5c ], %o1
4000d4cc:	7f ff e7 f8 	call  400074ac <_free_r>
4000d4d0:	90 10 00 18 	mov  %i0, %o0
4000d4d4:	d2 06 20 5c 	ld  [ %i0 + 0x5c ], %o1
4000d4d8:	80 a2 60 00 	cmp  %o1, 0
4000d4dc:	22 80 00 05 	be,a   4000d4f0 <_reclaim_reent+0x138>
4000d4e0:	d2 06 20 58 	ld  [ %i0 + 0x58 ], %o1
4000d4e4:	7f ff e7 f2 	call  400074ac <_free_r>
4000d4e8:	90 10 00 18 	mov  %i0, %o0
4000d4ec:	d2 06 20 58 	ld  [ %i0 + 0x58 ], %o1
4000d4f0:	80 a2 60 00 	cmp  %o1, 0
4000d4f4:	22 80 00 05 	be,a   4000d508 <_reclaim_reent+0x150>
4000d4f8:	d2 06 20 34 	ld  [ %i0 + 0x34 ], %o1
4000d4fc:	7f ff e7 ec 	call  400074ac <_free_r>
4000d500:	90 10 00 18 	mov  %i0, %o0
4000d504:	d2 06 20 34 	ld  [ %i0 + 0x34 ], %o1
4000d508:	80 a2 60 00 	cmp  %o1, 0
4000d50c:	22 80 00 05 	be,a   4000d520 <_reclaim_reent+0x168>
4000d510:	c2 06 20 18 	ld  [ %i0 + 0x18 ], %g1
4000d514:	7f ff e7 e6 	call  400074ac <_free_r>
4000d518:	90 10 00 18 	mov  %i0, %o0
4000d51c:	c2 06 20 18 	ld  [ %i0 + 0x18 ], %g1
4000d520:	80 a0 60 00 	cmp  %g1, 0
4000d524:	02 80 00 42 	be  4000d62c <_reclaim_reent+0x274>
4000d528:	01 00 00 00 	nop 
4000d52c:	c2 06 20 28 	ld  [ %i0 + 0x28 ], %g1
4000d530:	9f c0 40 00 	call  %g1
4000d534:	90 10 00 18 	mov  %i0, %o0
4000d538:	f2 06 20 48 	ld  [ %i0 + 0x48 ], %i1
4000d53c:	80 a6 60 00 	cmp  %i1, 0
4000d540:	02 80 00 3b 	be  4000d62c <_reclaim_reent+0x274>
4000d544:	01 00 00 00 	nop 
4000d548:	fa 06 40 00 	ld  [ %i1 ], %i5
4000d54c:	80 a7 60 00 	cmp  %i5, 0
4000d550:	02 80 00 35 	be  4000d624 <_reclaim_reent+0x26c>
4000d554:	01 00 00 00 	nop 
4000d558:	f8 07 40 00 	ld  [ %i5 ], %i4
4000d55c:	80 a7 20 00 	cmp  %i4, 0
4000d560:	02 80 00 2f 	be  4000d61c <_reclaim_reent+0x264>
4000d564:	92 10 00 1d 	mov  %i5, %o1
4000d568:	f6 07 00 00 	ld  [ %i4 ], %i3
4000d56c:	80 a6 e0 00 	cmp  %i3, 0
4000d570:	02 80 00 28 	be  4000d610 <_reclaim_reent+0x258>
4000d574:	92 10 00 1c 	mov  %i4, %o1
4000d578:	f4 06 c0 00 	ld  [ %i3 ], %i2
4000d57c:	80 a6 a0 00 	cmp  %i2, 0
4000d580:	02 80 00 21 	be  4000d604 <_reclaim_reent+0x24c>
4000d584:	92 10 00 1b 	mov  %i3, %o1
4000d588:	e0 06 80 00 	ld  [ %i2 ], %l0
4000d58c:	80 a4 20 00 	cmp  %l0, 0
4000d590:	02 80 00 1a 	be  4000d5f8 <_reclaim_reent+0x240>
4000d594:	92 10 00 1a 	mov  %i2, %o1
4000d598:	e2 04 00 00 	ld  [ %l0 ], %l1
4000d59c:	80 a4 60 00 	cmp  %l1, 0
4000d5a0:	02 80 00 13 	be  4000d5ec <_reclaim_reent+0x234>
4000d5a4:	92 10 00 10 	mov  %l0, %o1
4000d5a8:	e4 04 40 00 	ld  [ %l1 ], %l2
4000d5ac:	80 a4 a0 00 	cmp  %l2, 0
4000d5b0:	02 80 00 0c 	be  4000d5e0 <_reclaim_reent+0x228>
4000d5b4:	92 10 00 11 	mov  %l1, %o1
4000d5b8:	d2 04 80 00 	ld  [ %l2 ], %o1
4000d5bc:	80 a2 60 00 	cmp  %o1, 0
4000d5c0:	22 80 00 05 	be,a   4000d5d4 <_reclaim_reent+0x21c>
4000d5c4:	92 10 00 12 	mov  %l2, %o1
4000d5c8:	7f ff ff 5e 	call  4000d340 <cleanup_glue>
4000d5cc:	90 10 00 18 	mov  %i0, %o0
4000d5d0:	92 10 00 12 	mov  %l2, %o1
4000d5d4:	7f ff e7 b6 	call  400074ac <_free_r>
4000d5d8:	90 10 00 18 	mov  %i0, %o0
4000d5dc:	92 10 00 11 	mov  %l1, %o1
4000d5e0:	7f ff e7 b3 	call  400074ac <_free_r>
4000d5e4:	90 10 00 18 	mov  %i0, %o0
4000d5e8:	92 10 00 10 	mov  %l0, %o1
4000d5ec:	7f ff e7 b0 	call  400074ac <_free_r>
4000d5f0:	90 10 00 18 	mov  %i0, %o0
4000d5f4:	92 10 00 1a 	mov  %i2, %o1
4000d5f8:	7f ff e7 ad 	call  400074ac <_free_r>
4000d5fc:	90 10 00 18 	mov  %i0, %o0
4000d600:	92 10 00 1b 	mov  %i3, %o1
4000d604:	7f ff e7 aa 	call  400074ac <_free_r>
4000d608:	90 10 00 18 	mov  %i0, %o0
4000d60c:	92 10 00 1c 	mov  %i4, %o1
4000d610:	7f ff e7 a7 	call  400074ac <_free_r>
4000d614:	90 10 00 18 	mov  %i0, %o0
4000d618:	92 10 00 1d 	mov  %i5, %o1
4000d61c:	7f ff e7 a4 	call  400074ac <_free_r>
4000d620:	90 10 00 18 	mov  %i0, %o0
4000d624:	7f ff e7 a2 	call  400074ac <_free_r>
4000d628:	81 e8 00 00 	restore 
4000d62c:	81 c7 e0 08 	ret 
4000d630:	81 e8 00 00 	restore 
4000d634:	80 a2 60 00 	cmp  %o1, 0
4000d638:	12 bf ff 8d 	bne  4000d46c <_reclaim_reent+0xb4>
4000d63c:	01 00 00 00 	nop 
4000d640:	10 bf ff 94 	b  4000d490 <_reclaim_reent+0xd8>
4000d644:	d2 06 20 38 	ld  [ %i0 + 0x38 ], %o1
4000d648:	80 a2 60 00 	cmp  %o1, 0
4000d64c:	12 bf ff 88 	bne  4000d46c <_reclaim_reent+0xb4>
4000d650:	01 00 00 00 	nop 
4000d654:	10 bf ff 8c 	b  4000d484 <_reclaim_reent+0xcc>
4000d658:	92 10 00 02 	mov  %g2, %o1

4000d65c <strcmp>:
4000d65c:	82 12 00 09 	or  %o0, %o1, %g1
4000d660:	80 88 60 03 	btst  3, %g1
4000d664:	32 80 00 23 	bne,a   4000d6f0 <strcmp+0x94>
4000d668:	c4 0a 00 00 	ldub  [ %o0 ], %g2
4000d66c:	c2 02 00 00 	ld  [ %o0 ], %g1
4000d670:	c4 02 40 00 	ld  [ %o1 ], %g2
4000d674:	09 3f bf bf 	sethi  %hi(0xfefefc00), %g4
4000d678:	07 20 20 20 	sethi  %hi(0x80808000), %g3
4000d67c:	88 11 22 ff 	or  %g4, 0x2ff, %g4
4000d680:	80 a0 40 02 	cmp  %g1, %g2
4000d684:	12 80 00 1a 	bne  4000d6ec <strcmp+0x90>
4000d688:	86 10 e0 80 	or  %g3, 0x80, %g3
4000d68c:	84 00 40 04 	add  %g1, %g4, %g2
4000d690:	82 28 80 01 	andn  %g2, %g1, %g1
4000d694:	80 88 40 03 	btst  %g1, %g3
4000d698:	12 80 00 0d 	bne  4000d6cc <strcmp+0x70>
4000d69c:	01 00 00 00 	nop 
4000d6a0:	90 02 20 04 	add  %o0, 4, %o0
4000d6a4:	92 02 60 04 	add  %o1, 4, %o1
4000d6a8:	c2 02 00 00 	ld  [ %o0 ], %g1
4000d6ac:	c4 02 40 00 	ld  [ %o1 ], %g2
4000d6b0:	80 a0 40 02 	cmp  %g1, %g2
4000d6b4:	12 80 00 0e 	bne  4000d6ec <strcmp+0x90>
4000d6b8:	84 00 40 04 	add  %g1, %g4, %g2
4000d6bc:	82 28 80 01 	andn  %g2, %g1, %g1
4000d6c0:	80 88 40 03 	btst  %g1, %g3
4000d6c4:	22 bf ff f8 	be,a   4000d6a4 <strcmp+0x48>
4000d6c8:	90 02 20 04 	add  %o0, 4, %o0
4000d6cc:	81 c3 e0 08 	retl 
4000d6d0:	90 10 20 00 	clr  %o0
4000d6d4:	83 38 60 18 	sra  %g1, 0x18, %g1
4000d6d8:	80 a0 c0 01 	cmp  %g3, %g1
4000d6dc:	32 80 00 0d 	bne,a   4000d710 <strcmp+0xb4>
4000d6e0:	90 08 a0 ff 	and  %g2, 0xff, %o0
4000d6e4:	90 02 20 01 	inc  %o0
4000d6e8:	92 02 60 01 	inc  %o1
4000d6ec:	c4 0a 00 00 	ldub  [ %o0 ], %g2
4000d6f0:	83 28 a0 18 	sll  %g2, 0x18, %g1
4000d6f4:	80 a0 60 00 	cmp  %g1, 0
4000d6f8:	32 bf ff f7 	bne,a   4000d6d4 <strcmp+0x78>
4000d6fc:	c6 4a 40 00 	ldsb  [ %o1 ], %g3
4000d700:	c4 0a 40 00 	ldub  [ %o1 ], %g2
4000d704:	90 10 20 00 	clr  %o0
4000d708:	81 c3 e0 08 	retl 
4000d70c:	90 22 00 02 	sub  %o0, %g2, %o0
4000d710:	c4 0a 40 00 	ldub  [ %o1 ], %g2
4000d714:	81 c3 e0 08 	retl 
4000d718:	90 22 00 02 	sub  %o0, %g2, %o0

4000d71c <__swbuf_r>:
4000d71c:	9d e3 bf a0 	save  %sp, -96, %sp
4000d720:	ba 96 20 00 	orcc  %i0, 0, %i5
4000d724:	02 80 00 06 	be  4000d73c <__swbuf_r+0x20>
4000d728:	03 10 00 3b 	sethi  %hi(0x4000ec00), %g1
4000d72c:	c2 07 60 18 	ld  [ %i5 + 0x18 ], %g1
4000d730:	80 a0 60 00 	cmp  %g1, 0
4000d734:	02 80 00 3a 	be  4000d81c <__swbuf_r+0x100>
4000d738:	03 10 00 3b 	sethi  %hi(0x4000ec00), %g1
4000d73c:	82 10 62 20 	or  %g1, 0x220, %g1	! 4000ee20 <__sf_fake_stdin>
4000d740:	80 a6 80 01 	cmp  %i2, %g1
4000d744:	22 80 00 3e 	be,a   4000d83c <__swbuf_r+0x120>
4000d748:	f4 07 60 04 	ld  [ %i5 + 4 ], %i2
4000d74c:	03 10 00 3b 	sethi  %hi(0x4000ec00), %g1
4000d750:	82 10 62 00 	or  %g1, 0x200, %g1	! 4000ee00 <__sf_fake_stdout>
4000d754:	80 a6 80 01 	cmp  %i2, %g1
4000d758:	02 80 00 48 	be  4000d878 <__swbuf_r+0x15c>
4000d75c:	03 10 00 3b 	sethi  %hi(0x4000ec00), %g1
4000d760:	82 10 61 e0 	or  %g1, 0x1e0, %g1	! 4000ede0 <__sf_fake_stderr>
4000d764:	80 a6 80 01 	cmp  %i2, %g1
4000d768:	22 80 00 02 	be,a   4000d770 <__swbuf_r+0x54>
4000d76c:	f4 07 60 0c 	ld  [ %i5 + 0xc ], %i2
4000d770:	c2 06 a0 18 	ld  [ %i2 + 0x18 ], %g1
4000d774:	c2 26 a0 08 	st  %g1, [ %i2 + 8 ]
4000d778:	c4 16 a0 0c 	lduh  [ %i2 + 0xc ], %g2
4000d77c:	80 88 a0 08 	btst  8, %g2
4000d780:	02 80 00 36 	be  4000d858 <__swbuf_r+0x13c>
4000d784:	92 10 00 1a 	mov  %i2, %o1
4000d788:	c2 06 a0 10 	ld  [ %i2 + 0x10 ], %g1
4000d78c:	80 a0 60 00 	cmp  %g1, 0
4000d790:	02 80 00 32 	be  4000d858 <__swbuf_r+0x13c>
4000d794:	92 10 00 1a 	mov  %i2, %o1
4000d798:	07 00 00 08 	sethi  %hi(0x2000), %g3
4000d79c:	80 88 c0 02 	btst  %g3, %g2
4000d7a0:	12 80 00 07 	bne  4000d7bc <__swbuf_r+0xa0>
4000d7a4:	b0 0e 60 ff 	and  %i1, 0xff, %i0
4000d7a8:	84 10 80 03 	or  %g2, %g3, %g2
4000d7ac:	c8 06 a0 60 	ld  [ %i2 + 0x60 ], %g4
4000d7b0:	c4 36 a0 0c 	sth  %g2, [ %i2 + 0xc ]
4000d7b4:	84 29 00 03 	andn  %g4, %g3, %g2
4000d7b8:	c4 26 a0 60 	st  %g2, [ %i2 + 0x60 ]
4000d7bc:	c4 06 80 00 	ld  [ %i2 ], %g2
4000d7c0:	c6 06 a0 14 	ld  [ %i2 + 0x14 ], %g3
4000d7c4:	82 20 80 01 	sub  %g2, %g1, %g1
4000d7c8:	80 a0 c0 01 	cmp  %g3, %g1
4000d7cc:	04 80 00 35 	ble  4000d8a0 <__swbuf_r+0x184>
4000d7d0:	82 00 60 01 	inc  %g1
4000d7d4:	c6 06 a0 08 	ld  [ %i2 + 8 ], %g3
4000d7d8:	88 00 a0 01 	add  %g2, 1, %g4
4000d7dc:	86 00 ff ff 	add  %g3, -1, %g3
4000d7e0:	c8 26 80 00 	st  %g4, [ %i2 ]
4000d7e4:	c6 26 a0 08 	st  %g3, [ %i2 + 8 ]
4000d7e8:	f2 28 80 00 	stb  %i1, [ %g2 ]
4000d7ec:	c4 06 a0 14 	ld  [ %i2 + 0x14 ], %g2
4000d7f0:	80 a0 80 01 	cmp  %g2, %g1
4000d7f4:	02 80 00 23 	be  4000d880 <__swbuf_r+0x164>
4000d7f8:	80 a6 20 0a 	cmp  %i0, 0xa
4000d7fc:	12 80 00 06 	bne  4000d814 <__swbuf_r+0xf8>
4000d800:	01 00 00 00 	nop 
4000d804:	c2 16 a0 0c 	lduh  [ %i2 + 0xc ], %g1
4000d808:	80 88 60 01 	btst  1, %g1
4000d80c:	12 80 00 1e 	bne  4000d884 <__swbuf_r+0x168>
4000d810:	92 10 00 1a 	mov  %i2, %o1
4000d814:	81 c7 e0 08 	ret 
4000d818:	81 e8 00 00 	restore 
4000d81c:	7f ff e6 df 	call  40007398 <__sinit>
4000d820:	90 10 00 1d 	mov  %i5, %o0
4000d824:	03 10 00 3b 	sethi  %hi(0x4000ec00), %g1
4000d828:	82 10 62 20 	or  %g1, 0x220, %g1	! 4000ee20 <__sf_fake_stdin>
4000d82c:	80 a6 80 01 	cmp  %i2, %g1
4000d830:	12 bf ff c8 	bne  4000d750 <__swbuf_r+0x34>
4000d834:	03 10 00 3b 	sethi  %hi(0x4000ec00), %g1
4000d838:	f4 07 60 04 	ld  [ %i5 + 4 ], %i2
4000d83c:	c2 06 a0 18 	ld  [ %i2 + 0x18 ], %g1
4000d840:	c2 26 a0 08 	st  %g1, [ %i2 + 8 ]
4000d844:	c4 16 a0 0c 	lduh  [ %i2 + 0xc ], %g2
4000d848:	80 88 a0 08 	btst  8, %g2
4000d84c:	32 bf ff d0 	bne,a   4000d78c <__swbuf_r+0x70>
4000d850:	c2 06 a0 10 	ld  [ %i2 + 0x10 ], %g1
4000d854:	92 10 00 1a 	mov  %i2, %o1
4000d858:	7f ff de 58 	call  400051b8 <__swsetup_r>
4000d85c:	90 10 00 1d 	mov  %i5, %o0
4000d860:	80 a2 20 00 	cmp  %o0, 0
4000d864:	12 80 00 0d 	bne  4000d898 <__swbuf_r+0x17c>
4000d868:	01 00 00 00 	nop 
4000d86c:	c4 16 a0 0c 	lduh  [ %i2 + 0xc ], %g2
4000d870:	10 bf ff ca 	b  4000d798 <__swbuf_r+0x7c>
4000d874:	c2 06 a0 10 	ld  [ %i2 + 0x10 ], %g1
4000d878:	10 bf ff be 	b  4000d770 <__swbuf_r+0x54>
4000d87c:	f4 07 60 08 	ld  [ %i5 + 8 ], %i2
4000d880:	92 10 00 1a 	mov  %i2, %o1
4000d884:	7f ff e5 9e 	call  40006efc <_fflush_r>
4000d888:	90 10 00 1d 	mov  %i5, %o0
4000d88c:	80 a2 20 00 	cmp  %o0, 0
4000d890:	02 bf ff e1 	be  4000d814 <__swbuf_r+0xf8>
4000d894:	01 00 00 00 	nop 
4000d898:	81 c7 e0 08 	ret 
4000d89c:	91 e8 3f ff 	restore  %g0, -1, %o0
4000d8a0:	92 10 00 1a 	mov  %i2, %o1
4000d8a4:	7f ff e5 96 	call  40006efc <_fflush_r>
4000d8a8:	90 10 00 1d 	mov  %i5, %o0
4000d8ac:	80 a2 20 00 	cmp  %o0, 0
4000d8b0:	12 bf ff fa 	bne  4000d898 <__swbuf_r+0x17c>
4000d8b4:	82 10 20 01 	mov  1, %g1
4000d8b8:	10 bf ff c7 	b  4000d7d4 <__swbuf_r+0xb8>
4000d8bc:	c4 06 80 00 	ld  [ %i2 ], %g2

4000d8c0 <__swbuf>:
4000d8c0:	9d e3 bf a0 	save  %sp, -96, %sp
4000d8c4:	03 10 00 3c 	sethi  %hi(0x4000f000), %g1
4000d8c8:	fa 00 63 5c 	ld  [ %g1 + 0x35c ], %i5	! 4000f35c <_impure_ptr>
4000d8cc:	80 a7 60 00 	cmp  %i5, 0
4000d8d0:	02 80 00 06 	be  4000d8e8 <__swbuf+0x28>
4000d8d4:	b8 10 00 18 	mov  %i0, %i4
4000d8d8:	c2 07 60 18 	ld  [ %i5 + 0x18 ], %g1
4000d8dc:	80 a0 60 00 	cmp  %g1, 0
4000d8e0:	02 80 00 3b 	be  4000d9cc <__swbuf+0x10c>
4000d8e4:	01 00 00 00 	nop 
4000d8e8:	03 10 00 3b 	sethi  %hi(0x4000ec00), %g1
4000d8ec:	82 10 62 20 	or  %g1, 0x220, %g1	! 4000ee20 <__sf_fake_stdin>
4000d8f0:	80 a6 40 01 	cmp  %i1, %g1
4000d8f4:	22 80 00 3e 	be,a   4000d9ec <__swbuf+0x12c>
4000d8f8:	f2 07 60 04 	ld  [ %i5 + 4 ], %i1
4000d8fc:	03 10 00 3b 	sethi  %hi(0x4000ec00), %g1
4000d900:	82 10 62 00 	or  %g1, 0x200, %g1	! 4000ee00 <__sf_fake_stdout>
4000d904:	80 a6 40 01 	cmp  %i1, %g1
4000d908:	02 80 00 48 	be  4000da28 <__swbuf+0x168>
4000d90c:	03 10 00 3b 	sethi  %hi(0x4000ec00), %g1
4000d910:	82 10 61 e0 	or  %g1, 0x1e0, %g1	! 4000ede0 <__sf_fake_stderr>
4000d914:	80 a6 40 01 	cmp  %i1, %g1
4000d918:	22 80 00 02 	be,a   4000d920 <__swbuf+0x60>
4000d91c:	f2 07 60 0c 	ld  [ %i5 + 0xc ], %i1
4000d920:	c2 06 60 18 	ld  [ %i1 + 0x18 ], %g1
4000d924:	c2 26 60 08 	st  %g1, [ %i1 + 8 ]
4000d928:	c4 16 60 0c 	lduh  [ %i1 + 0xc ], %g2
4000d92c:	80 88 a0 08 	btst  8, %g2
4000d930:	02 80 00 36 	be  4000da08 <__swbuf+0x148>
4000d934:	92 10 00 19 	mov  %i1, %o1
4000d938:	c2 06 60 10 	ld  [ %i1 + 0x10 ], %g1
4000d93c:	80 a0 60 00 	cmp  %g1, 0
4000d940:	02 80 00 32 	be  4000da08 <__swbuf+0x148>
4000d944:	92 10 00 19 	mov  %i1, %o1
4000d948:	07 00 00 08 	sethi  %hi(0x2000), %g3
4000d94c:	80 88 c0 02 	btst  %g3, %g2
4000d950:	12 80 00 07 	bne  4000d96c <__swbuf+0xac>
4000d954:	b0 0f 20 ff 	and  %i4, 0xff, %i0
4000d958:	84 10 80 03 	or  %g2, %g3, %g2
4000d95c:	c8 06 60 60 	ld  [ %i1 + 0x60 ], %g4
4000d960:	c4 36 60 0c 	sth  %g2, [ %i1 + 0xc ]
4000d964:	84 29 00 03 	andn  %g4, %g3, %g2
4000d968:	c4 26 60 60 	st  %g2, [ %i1 + 0x60 ]
4000d96c:	c4 06 40 00 	ld  [ %i1 ], %g2
4000d970:	c6 06 60 14 	ld  [ %i1 + 0x14 ], %g3
4000d974:	82 20 80 01 	sub  %g2, %g1, %g1
4000d978:	80 a0 40 03 	cmp  %g1, %g3
4000d97c:	16 80 00 35 	bge  4000da50 <__swbuf+0x190>
4000d980:	82 00 60 01 	inc  %g1
4000d984:	c6 06 60 08 	ld  [ %i1 + 8 ], %g3
4000d988:	88 00 a0 01 	add  %g2, 1, %g4
4000d98c:	86 00 ff ff 	add  %g3, -1, %g3
4000d990:	c8 26 40 00 	st  %g4, [ %i1 ]
4000d994:	c6 26 60 08 	st  %g3, [ %i1 + 8 ]
4000d998:	f8 28 80 00 	stb  %i4, [ %g2 ]
4000d99c:	c4 06 60 14 	ld  [ %i1 + 0x14 ], %g2
4000d9a0:	80 a0 80 01 	cmp  %g2, %g1
4000d9a4:	02 80 00 23 	be  4000da30 <__swbuf+0x170>
4000d9a8:	80 a6 20 0a 	cmp  %i0, 0xa
4000d9ac:	12 80 00 06 	bne  4000d9c4 <__swbuf+0x104>
4000d9b0:	01 00 00 00 	nop 
4000d9b4:	c2 16 60 0c 	lduh  [ %i1 + 0xc ], %g1
4000d9b8:	80 88 60 01 	btst  1, %g1
4000d9bc:	12 80 00 1e 	bne  4000da34 <__swbuf+0x174>
4000d9c0:	92 10 00 19 	mov  %i1, %o1
4000d9c4:	81 c7 e0 08 	ret 
4000d9c8:	81 e8 00 00 	restore 
4000d9cc:	7f ff e6 73 	call  40007398 <__sinit>
4000d9d0:	90 10 00 1d 	mov  %i5, %o0
4000d9d4:	03 10 00 3b 	sethi  %hi(0x4000ec00), %g1
4000d9d8:	82 10 62 20 	or  %g1, 0x220, %g1	! 4000ee20 <__sf_fake_stdin>
4000d9dc:	80 a6 40 01 	cmp  %i1, %g1
4000d9e0:	12 bf ff c8 	bne  4000d900 <__swbuf+0x40>
4000d9e4:	03 10 00 3b 	sethi  %hi(0x4000ec00), %g1
4000d9e8:	f2 07 60 04 	ld  [ %i5 + 4 ], %i1
4000d9ec:	c2 06 60 18 	ld  [ %i1 + 0x18 ], %g1
4000d9f0:	c2 26 60 08 	st  %g1, [ %i1 + 8 ]
4000d9f4:	c4 16 60 0c 	lduh  [ %i1 + 0xc ], %g2
4000d9f8:	80 88 a0 08 	btst  8, %g2
4000d9fc:	32 bf ff d0 	bne,a   4000d93c <__swbuf+0x7c>
4000da00:	c2 06 60 10 	ld  [ %i1 + 0x10 ], %g1
4000da04:	92 10 00 19 	mov  %i1, %o1
4000da08:	7f ff dd ec 	call  400051b8 <__swsetup_r>
4000da0c:	90 10 00 1d 	mov  %i5, %o0
4000da10:	80 a2 20 00 	cmp  %o0, 0
4000da14:	12 80 00 0d 	bne  4000da48 <__swbuf+0x188>
4000da18:	01 00 00 00 	nop 
4000da1c:	c4 16 60 0c 	lduh  [ %i1 + 0xc ], %g2
4000da20:	10 bf ff ca 	b  4000d948 <__swbuf+0x88>
4000da24:	c2 06 60 10 	ld  [ %i1 + 0x10 ], %g1
4000da28:	10 bf ff be 	b  4000d920 <__swbuf+0x60>
4000da2c:	f2 07 60 08 	ld  [ %i5 + 8 ], %i1
4000da30:	92 10 00 19 	mov  %i1, %o1
4000da34:	7f ff e5 32 	call  40006efc <_fflush_r>
4000da38:	90 10 00 1d 	mov  %i5, %o0
4000da3c:	80 a2 20 00 	cmp  %o0, 0
4000da40:	02 bf ff e1 	be  4000d9c4 <__swbuf+0x104>
4000da44:	01 00 00 00 	nop 
4000da48:	81 c7 e0 08 	ret 
4000da4c:	91 e8 3f ff 	restore  %g0, -1, %o0
4000da50:	92 10 00 19 	mov  %i1, %o1
4000da54:	7f ff e5 2a 	call  40006efc <_fflush_r>
4000da58:	90 10 00 1d 	mov  %i5, %o0
4000da5c:	80 a2 20 00 	cmp  %o0, 0
4000da60:	12 bf ff fa 	bne  4000da48 <__swbuf+0x188>
4000da64:	82 10 20 01 	mov  1, %g1
4000da68:	10 bf ff c7 	b  4000d984 <__swbuf+0xc4>
4000da6c:	c4 06 40 00 	ld  [ %i1 ], %g2

4000da70 <_wcrtomb_r>:
4000da70:	9d e3 bf 90 	save  %sp, -112, %sp
4000da74:	03 10 00 3c 	sethi  %hi(0x4000f000), %g1
4000da78:	80 a6 60 00 	cmp  %i1, 0
4000da7c:	c2 00 63 5c 	ld  [ %g1 + 0x35c ], %g1
4000da80:	02 80 00 12 	be  4000dac8 <_wcrtomb_r+0x58>
4000da84:	c2 00 60 20 	ld  [ %g1 + 0x20 ], %g1
4000da88:	80 a0 60 00 	cmp  %g1, 0
4000da8c:	22 80 00 0d 	be,a   4000dac0 <_wcrtomb_r+0x50>
4000da90:	03 10 00 3d 	sethi  %hi(0x4000f400), %g1
4000da94:	c2 00 60 e0 	ld  [ %g1 + 0xe0 ], %g1	! 4000f4e0 <__malloc_av_+0x118>
4000da98:	96 10 00 1b 	mov  %i3, %o3
4000da9c:	94 10 00 1a 	mov  %i2, %o2
4000daa0:	92 10 00 19 	mov  %i1, %o1
4000daa4:	9f c0 40 00 	call  %g1
4000daa8:	90 10 00 18 	mov  %i0, %o0
4000daac:	80 a2 3f ff 	cmp  %o0, -1
4000dab0:	22 80 00 13 	be,a   4000dafc <_wcrtomb_r+0x8c>
4000dab4:	c0 26 c0 00 	clr  [ %i3 ]
4000dab8:	81 c7 e0 08 	ret 
4000dabc:	91 e8 00 08 	restore  %g0, %o0, %o0
4000dac0:	10 bf ff f5 	b  4000da94 <_wcrtomb_r+0x24>
4000dac4:	82 10 63 d0 	or  %g1, 0x3d0, %g1
4000dac8:	80 a0 60 00 	cmp  %g1, 0
4000dacc:	22 80 00 10 	be,a   4000db0c <_wcrtomb_r+0x9c>
4000dad0:	03 10 00 3d 	sethi  %hi(0x4000f400), %g1
4000dad4:	c2 00 60 e0 	ld  [ %g1 + 0xe0 ], %g1	! 4000f4e0 <__malloc_av_+0x118>
4000dad8:	96 10 00 1b 	mov  %i3, %o3
4000dadc:	94 10 20 00 	clr  %o2
4000dae0:	92 07 bf f0 	add  %fp, -16, %o1
4000dae4:	9f c0 40 00 	call  %g1
4000dae8:	90 10 00 18 	mov  %i0, %o0
4000daec:	80 a2 3f ff 	cmp  %o0, -1
4000daf0:	12 bf ff f2 	bne  4000dab8 <_wcrtomb_r+0x48>
4000daf4:	01 00 00 00 	nop 
4000daf8:	c0 26 c0 00 	clr  [ %i3 ]
4000dafc:	82 10 20 8a 	mov  0x8a, %g1
4000db00:	c2 26 00 00 	st  %g1, [ %i0 ]
4000db04:	81 c7 e0 08 	ret 
4000db08:	91 e8 00 08 	restore  %g0, %o0, %o0
4000db0c:	10 bf ff f2 	b  4000dad4 <_wcrtomb_r+0x64>
4000db10:	82 10 63 d0 	or  %g1, 0x3d0, %g1

4000db14 <wcrtomb>:
4000db14:	9d e3 bf 90 	save  %sp, -112, %sp
4000db18:	03 10 00 3c 	sethi  %hi(0x4000f000), %g1
4000db1c:	80 a6 20 00 	cmp  %i0, 0
4000db20:	fa 00 63 5c 	ld  [ %g1 + 0x35c ], %i5
4000db24:	02 80 00 17 	be  4000db80 <wcrtomb+0x6c>
4000db28:	c2 07 60 20 	ld  [ %i5 + 0x20 ], %g1
4000db2c:	80 a0 60 00 	cmp  %g1, 0
4000db30:	22 80 00 12 	be,a   4000db78 <wcrtomb+0x64>
4000db34:	03 10 00 3d 	sethi  %hi(0x4000f400), %g1
4000db38:	92 10 00 18 	mov  %i0, %o1
4000db3c:	c2 00 60 e0 	ld  [ %g1 + 0xe0 ], %g1
4000db40:	96 10 00 1a 	mov  %i2, %o3
4000db44:	94 10 00 19 	mov  %i1, %o2
4000db48:	9f c0 40 00 	call  %g1
4000db4c:	90 10 00 1d 	mov  %i5, %o0
4000db50:	b0 10 00 08 	mov  %o0, %i0
4000db54:	80 a6 3f ff 	cmp  %i0, -1
4000db58:	22 80 00 04 	be,a   4000db68 <wcrtomb+0x54>
4000db5c:	c0 26 80 00 	clr  [ %i2 ]
4000db60:	81 c7 e0 08 	ret 
4000db64:	81 e8 00 00 	restore 
4000db68:	82 10 20 8a 	mov  0x8a, %g1
4000db6c:	c2 27 40 00 	st  %g1, [ %i5 ]
4000db70:	81 c7 e0 08 	ret 
4000db74:	81 e8 00 00 	restore 
4000db78:	10 bf ff f0 	b  4000db38 <wcrtomb+0x24>
4000db7c:	82 10 63 d0 	or  %g1, 0x3d0, %g1
4000db80:	80 a0 60 00 	cmp  %g1, 0
4000db84:	22 80 00 0a 	be,a   4000dbac <wcrtomb+0x98>
4000db88:	03 10 00 3d 	sethi  %hi(0x4000f400), %g1
4000db8c:	c2 00 60 e0 	ld  [ %g1 + 0xe0 ], %g1	! 4000f4e0 <__malloc_av_+0x118>
4000db90:	96 10 00 1a 	mov  %i2, %o3
4000db94:	94 10 20 00 	clr  %o2
4000db98:	92 07 bf f0 	add  %fp, -16, %o1
4000db9c:	9f c0 40 00 	call  %g1
4000dba0:	90 10 00 1d 	mov  %i5, %o0
4000dba4:	10 bf ff ec 	b  4000db54 <wcrtomb+0x40>
4000dba8:	b0 10 00 08 	mov  %o0, %i0
4000dbac:	10 bf ff f8 	b  4000db8c <wcrtomb+0x78>
4000dbb0:	82 10 63 d0 	or  %g1, 0x3d0, %g1

4000dbb4 <_wctomb_r>:
4000dbb4:	9d e3 bf a0 	save  %sp, -96, %sp
4000dbb8:	03 10 00 3c 	sethi  %hi(0x4000f000), %g1
4000dbbc:	c2 00 63 5c 	ld  [ %g1 + 0x35c ], %g1	! 4000f35c <_impure_ptr>
4000dbc0:	c2 00 60 20 	ld  [ %g1 + 0x20 ], %g1
4000dbc4:	80 a0 60 00 	cmp  %g1, 0
4000dbc8:	02 80 00 09 	be  4000dbec <_wctomb_r+0x38>
4000dbcc:	96 10 00 1b 	mov  %i3, %o3
4000dbd0:	c2 00 60 e0 	ld  [ %g1 + 0xe0 ], %g1
4000dbd4:	94 10 00 1a 	mov  %i2, %o2
4000dbd8:	92 10 00 19 	mov  %i1, %o1
4000dbdc:	9f c0 40 00 	call  %g1
4000dbe0:	90 10 00 18 	mov  %i0, %o0
4000dbe4:	81 c7 e0 08 	ret 
4000dbe8:	91 e8 00 08 	restore  %g0, %o0, %o0
4000dbec:	94 10 00 1a 	mov  %i2, %o2
4000dbf0:	92 10 00 19 	mov  %i1, %o1
4000dbf4:	03 10 00 3d 	sethi  %hi(0x4000f400), %g1
4000dbf8:	82 10 63 d0 	or  %g1, 0x3d0, %g1	! 4000f7d0 <__global_locale>
4000dbfc:	c2 00 60 e0 	ld  [ %g1 + 0xe0 ], %g1
4000dc00:	9f c0 40 00 	call  %g1
4000dc04:	90 10 00 18 	mov  %i0, %o0
4000dc08:	81 c7 e0 08 	ret 
4000dc0c:	91 e8 00 08 	restore  %g0, %o0, %o0

4000dc10 <__ascii_wctomb>:
4000dc10:	80 a2 60 00 	cmp  %o1, 0
4000dc14:	02 80 00 0c 	be  4000dc44 <__ascii_wctomb+0x34>
4000dc18:	80 a2 a0 ff 	cmp  %o2, 0xff
4000dc1c:	18 80 00 05 	bgu  4000dc30 <__ascii_wctomb+0x20>
4000dc20:	82 10 20 01 	mov  1, %g1
4000dc24:	d4 2a 40 00 	stb  %o2, [ %o1 ]
4000dc28:	81 c3 e0 08 	retl 
4000dc2c:	90 10 00 01 	mov  %g1, %o0
4000dc30:	82 10 3f ff 	mov  -1, %g1
4000dc34:	84 10 20 8a 	mov  0x8a, %g2
4000dc38:	c4 22 00 00 	st  %g2, [ %o0 ]
4000dc3c:	81 c3 e0 08 	retl 
4000dc40:	90 10 00 01 	mov  %g1, %o0
4000dc44:	82 10 20 00 	clr  %g1
4000dc48:	81 c3 e0 08 	retl 
4000dc4c:	90 10 00 01 	mov  %g1, %o0

4000dc50 <_exit>:
4000dc50:	80 10 00 08 	mov  %o0, %g0
4000dc54:	80 10 00 01 	mov  %g1, %g0
4000dc58:	82 10 20 01 	mov  1, %g1
4000dc5c:	91 d0 20 00 	ta  0

4000dc60 <read>:
4000dc60:	9d e3 bf a0 	save  %sp, -96, %sp
4000dc64:	80 a6 a0 00 	cmp  %i2, 0
4000dc68:	02 80 00 0f 	be  4000dca4 <read+0x44>
4000dc6c:	b0 10 20 00 	clr  %i0
4000dc70:	40 00 00 80 	call  4000de70 <__bcc_con_inbyte>
4000dc74:	01 00 00 00 	nop 
4000dc78:	d0 2e 40 18 	stb  %o0, [ %i1 + %i0 ]
4000dc7c:	91 2a 20 18 	sll  %o0, 0x18, %o0
4000dc80:	91 3a 20 18 	sra  %o0, 0x18, %o0
4000dc84:	80 a2 20 0a 	cmp  %o0, 0xa
4000dc88:	02 80 00 07 	be  4000dca4 <read+0x44>
4000dc8c:	b0 06 20 01 	inc  %i0
4000dc90:	80 a2 20 0d 	cmp  %o0, 0xd
4000dc94:	02 80 00 04 	be  4000dca4 <read+0x44>
4000dc98:	80 a6 00 1a 	cmp  %i0, %i2
4000dc9c:	12 bf ff f5 	bne  4000dc70 <read+0x10>
4000dca0:	01 00 00 00 	nop 
4000dca4:	81 c7 e0 08 	ret 
4000dca8:	81 e8 00 00 	restore 

4000dcac <sbrk>:
4000dcac:	03 10 00 3e 	sethi  %hi(0x4000f800), %g1
4000dcb0:	c4 00 62 f4 	ld  [ %g1 + 0x2f4 ], %g2	! 4000faf4 <__bcc_heap_min>
4000dcb4:	80 a0 a0 00 	cmp  %g2, 0
4000dcb8:	22 80 00 15 	be,a   4000dd0c <sbrk+0x60>
4000dcbc:	05 10 00 3e 	sethi  %hi(0x4000f800), %g2
4000dcc0:	03 10 00 3e 	sethi  %hi(0x4000f800), %g1
4000dcc4:	c6 00 62 f0 	ld  [ %g1 + 0x2f0 ], %g3	! 4000faf0 <__bcc_heap_max>
4000dcc8:	80 a0 e0 00 	cmp  %g3, 0
4000dccc:	02 80 00 18 	be  4000dd2c <sbrk+0x80>
4000dcd0:	09 3f ff f8 	sethi  %hi(0xffffe000), %g4
4000dcd4:	09 10 00 3e 	sethi  %hi(0x4000f800), %g4
4000dcd8:	c2 01 22 ec 	ld  [ %g4 + 0x2ec ], %g1	! 4000faec <__sbrk_heap_end>
4000dcdc:	80 a0 60 00 	cmp  %g1, 0
4000dce0:	22 80 00 1d 	be,a   4000dd54 <sbrk+0xa8>
4000dce4:	c4 21 22 ec 	st  %g2, [ %g4 + 0x2ec ]
4000dce8:	90 00 40 08 	add  %g1, %o0, %o0
4000dcec:	80 a2 00 03 	cmp  %o0, %g3
4000dcf0:	3a 80 00 05 	bcc,a   4000dd04 <sbrk+0x58>
4000dcf4:	82 10 3f ff 	mov  -1, %g1
4000dcf8:	d0 21 22 ec 	st  %o0, [ %g4 + 0x2ec ]
4000dcfc:	81 c3 e0 08 	retl 
4000dd00:	90 10 00 01 	mov  %g1, %o0
4000dd04:	81 c3 e0 08 	retl 
4000dd08:	90 10 00 01 	mov  %g1, %o0
4000dd0c:	84 10 a3 00 	or  %g2, 0x300, %g2
4000dd10:	c4 20 62 f4 	st  %g2, [ %g1 + 0x2f4 ]
4000dd14:	03 10 00 3e 	sethi  %hi(0x4000f800), %g1
4000dd18:	c6 00 62 f0 	ld  [ %g1 + 0x2f0 ], %g3	! 4000faf0 <__bcc_heap_max>
4000dd1c:	80 a0 e0 00 	cmp  %g3, 0
4000dd20:	12 bf ff ee 	bne  4000dcd8 <sbrk+0x2c>
4000dd24:	09 10 00 3e 	sethi  %hi(0x4000f800), %g4
4000dd28:	09 3f ff f8 	sethi  %hi(0xffffe000), %g4
4000dd2c:	07 10 00 3e 	sethi  %hi(0x4000f800), %g3
4000dd30:	c6 00 e1 40 	ld  [ %g3 + 0x140 ], %g3	! 4000f940 <__TMC_END__>
4000dd34:	86 00 c0 04 	add  %g3, %g4, %g3
4000dd38:	c6 20 62 f0 	st  %g3, [ %g1 + 0x2f0 ]
4000dd3c:	09 10 00 3e 	sethi  %hi(0x4000f800), %g4
4000dd40:	c2 01 22 ec 	ld  [ %g4 + 0x2ec ], %g1	! 4000faec <__sbrk_heap_end>
4000dd44:	80 a0 60 00 	cmp  %g1, 0
4000dd48:	32 bf ff e9 	bne,a   4000dcec <sbrk+0x40>
4000dd4c:	90 00 40 08 	add  %g1, %o0, %o0
4000dd50:	c4 21 22 ec 	st  %g2, [ %g4 + 0x2ec ]
4000dd54:	10 bf ff e5 	b  4000dce8 <sbrk+0x3c>
4000dd58:	82 10 00 02 	mov  %g2, %g1

4000dd5c <write>:
4000dd5c:	9d e3 bf a0 	save  %sp, -96, %sp
4000dd60:	80 a6 a0 00 	cmp  %i2, 0
4000dd64:	02 80 00 0b 	be  4000dd90 <write+0x34>
4000dd68:	ba 06 40 1a 	add  %i1, %i2, %i5
4000dd6c:	d0 4e 40 00 	ldsb  [ %i1 ], %o0
4000dd70:	80 a2 20 0a 	cmp  %o0, 0xa
4000dd74:	02 80 00 09 	be  4000dd98 <write+0x3c>
4000dd78:	01 00 00 00 	nop 
4000dd7c:	40 00 00 19 	call  4000dde0 <__bcc_con_outbyte>
4000dd80:	b2 06 60 01 	inc  %i1
4000dd84:	80 a6 40 1d 	cmp  %i1, %i5
4000dd88:	32 bf ff fa 	bne,a   4000dd70 <write+0x14>
4000dd8c:	d0 4e 40 00 	ldsb  [ %i1 ], %o0
4000dd90:	81 c7 e0 08 	ret 
4000dd94:	91 e8 00 1a 	restore  %g0, %i2, %o0
4000dd98:	40 00 00 12 	call  4000dde0 <__bcc_con_outbyte>
4000dd9c:	90 10 20 0d 	mov  0xd, %o0
4000dda0:	40 00 00 10 	call  4000dde0 <__bcc_con_outbyte>
4000dda4:	90 10 20 0a 	mov  0xa, %o0
4000dda8:	b2 06 60 01 	inc  %i1
4000ddac:	80 a6 40 1d 	cmp  %i1, %i5
4000ddb0:	32 bf ff f0 	bne,a   4000dd70 <write+0x14>
4000ddb4:	d0 4e 40 00 	ldsb  [ %i1 ], %o0
4000ddb8:	81 c7 e0 08 	ret 
4000ddbc:	91 e8 00 1a 	restore  %g0, %i2, %o0

4000ddc0 <close>:
4000ddc0:	92 10 20 58 	mov  0x58, %o1
4000ddc4:	15 10 00 3e 	sethi  %hi(0x4000f800), %o2
4000ddc8:	94 12 a2 e8 	or  %o2, 0x2e8, %o2	! 4000fae8 <errno>
4000ddcc:	d2 22 80 00 	st  %o1, [ %o2 ]
4000ddd0:	81 c3 e0 08 	retl 
4000ddd4:	90 00 3f ff 	add  %g0, -1, %o0

4000ddd8 <getpid>:
4000ddd8:	81 c3 e0 08 	retl 
4000dddc:	90 00 20 01 	add  %g0, 1, %o0

4000dde0 <__bcc_con_outbyte>:
4000dde0:	03 10 00 3e 	sethi  %hi(0x4000f800), %g1
4000dde4:	c2 00 62 14 	ld  [ %g1 + 0x214 ], %g1	! 4000fa14 <__bcc_con_handle>
4000dde8:	80 a0 60 00 	cmp  %g1, 0
4000ddec:	02 80 00 13 	be  4000de38 <__bcc_con_outbyte+0x58>
4000ddf0:	07 10 00 3e 	sethi  %hi(0x4000f800), %g3
4000ddf4:	c4 00 e2 f8 	ld  [ %g3 + 0x2f8 ], %g2	! 4000faf8 <fifoinfo>
4000ddf8:	80 a0 a0 01 	cmp  %g2, 1
4000ddfc:	02 80 00 13 	be  4000de48 <__bcc_con_outbyte+0x68>
4000de00:	80 a0 a0 02 	cmp  %g2, 2
4000de04:	02 80 00 07 	be  4000de20 <__bcc_con_outbyte+0x40>
4000de08:	01 00 00 00 	nop 
4000de0c:	c4 00 60 08 	ld  [ %g1 + 8 ], %g2
4000de10:	80 a0 a0 00 	cmp  %g2, 0
4000de14:	06 80 00 0b 	bl  4000de40 <__bcc_con_outbyte+0x60>
4000de18:	84 10 20 02 	mov  2, %g2
4000de1c:	c4 20 e2 f8 	st  %g2, [ %g3 + 0x2f8 ]
4000de20:	c4 00 60 04 	ld  [ %g1 + 4 ], %g2
4000de24:	80 88 a0 04 	btst  4, %g2
4000de28:	02 bf ff fe 	be  4000de20 <__bcc_con_outbyte+0x40>
4000de2c:	01 00 00 00 	nop 
4000de30:	90 0a 20 ff 	and  %o0, 0xff, %o0
4000de34:	d0 20 40 00 	st  %o0, [ %g1 ]
4000de38:	81 c3 e0 08 	retl 
4000de3c:	90 10 20 00 	clr  %o0
4000de40:	84 10 20 01 	mov  1, %g2
4000de44:	c4 20 e2 f8 	st  %g2, [ %g3 + 0x2f8 ]
4000de48:	c4 00 60 04 	ld  [ %g1 + 4 ], %g2
4000de4c:	80 88 a2 00 	btst  0x200, %g2
4000de50:	22 bf ff f9 	be,a   4000de34 <__bcc_con_outbyte+0x54>
4000de54:	90 0a 20 ff 	and  %o0, 0xff, %o0
4000de58:	c4 00 60 04 	ld  [ %g1 + 4 ], %g2
4000de5c:	80 88 a2 00 	btst  0x200, %g2
4000de60:	12 bf ff fa 	bne  4000de48 <__bcc_con_outbyte+0x68>
4000de64:	01 00 00 00 	nop 
4000de68:	10 bf ff f3 	b  4000de34 <__bcc_con_outbyte+0x54>
4000de6c:	90 0a 20 ff 	and  %o0, 0xff, %o0

4000de70 <__bcc_con_inbyte>:
4000de70:	03 10 00 3e 	sethi  %hi(0x4000f800), %g1
4000de74:	c4 00 62 14 	ld  [ %g1 + 0x214 ], %g2	! 4000fa14 <__bcc_con_handle>
4000de78:	80 a0 a0 00 	cmp  %g2, 0
4000de7c:	02 80 00 07 	be  4000de98 <__bcc_con_inbyte+0x28>
4000de80:	90 10 20 00 	clr  %o0
4000de84:	c2 00 a0 04 	ld  [ %g2 + 4 ], %g1
4000de88:	80 88 60 01 	btst  1, %g1
4000de8c:	02 bf ff fe 	be  4000de84 <__bcc_con_inbyte+0x14>
4000de90:	01 00 00 00 	nop 
4000de94:	d0 00 80 00 	ld  [ %g2 ], %o0
4000de98:	91 2a 20 18 	sll  %o0, 0x18, %o0
4000de9c:	81 c3 e0 08 	retl 
4000dea0:	91 3a 20 18 	sra  %o0, 0x18, %o0

4000dea4 <.umul>:
4000dea4:	98 12 00 09 	or  %o0, %o1, %o4
4000dea8:	81 80 00 08 	wr  %o0, %y
4000deac:	9a ab 2f ff 	andncc  %o4, 0xfff, %o5
4000deb0:	02 80 00 25 	be  4000df44 <mul_shortway>
4000deb4:	98 88 00 00 	andcc  %g0, %g0, %o4
4000deb8:	99 23 00 09 	mulscc  %o4, %o1, %o4
4000debc:	99 23 00 09 	mulscc  %o4, %o1, %o4
4000dec0:	99 23 00 09 	mulscc  %o4, %o1, %o4
4000dec4:	99 23 00 09 	mulscc  %o4, %o1, %o4
4000dec8:	99 23 00 09 	mulscc  %o4, %o1, %o4
4000decc:	99 23 00 09 	mulscc  %o4, %o1, %o4
4000ded0:	99 23 00 09 	mulscc  %o4, %o1, %o4
4000ded4:	99 23 00 09 	mulscc  %o4, %o1, %o4
4000ded8:	99 23 00 09 	mulscc  %o4, %o1, %o4
4000dedc:	99 23 00 09 	mulscc  %o4, %o1, %o4
4000dee0:	99 23 00 09 	mulscc  %o4, %o1, %o4
4000dee4:	99 23 00 09 	mulscc  %o4, %o1, %o4
4000dee8:	99 23 00 09 	mulscc  %o4, %o1, %o4
4000deec:	99 23 00 09 	mulscc  %o4, %o1, %o4
4000def0:	99 23 00 09 	mulscc  %o4, %o1, %o4
4000def4:	99 23 00 09 	mulscc  %o4, %o1, %o4
4000def8:	99 23 00 09 	mulscc  %o4, %o1, %o4
4000defc:	99 23 00 09 	mulscc  %o4, %o1, %o4
4000df00:	99 23 00 09 	mulscc  %o4, %o1, %o4
4000df04:	99 23 00 09 	mulscc  %o4, %o1, %o4
4000df08:	99 23 00 09 	mulscc  %o4, %o1, %o4
4000df0c:	99 23 00 09 	mulscc  %o4, %o1, %o4
4000df10:	99 23 00 09 	mulscc  %o4, %o1, %o4
4000df14:	99 23 00 09 	mulscc  %o4, %o1, %o4
4000df18:	99 23 00 09 	mulscc  %o4, %o1, %o4
4000df1c:	99 23 00 09 	mulscc  %o4, %o1, %o4
4000df20:	99 23 00 09 	mulscc  %o4, %o1, %o4
4000df24:	99 23 00 09 	mulscc  %o4, %o1, %o4
4000df28:	99 23 00 09 	mulscc  %o4, %o1, %o4
4000df2c:	99 23 00 09 	mulscc  %o4, %o1, %o4
4000df30:	99 23 00 09 	mulscc  %o4, %o1, %o4
4000df34:	99 23 00 09 	mulscc  %o4, %o1, %o4
4000df38:	99 23 00 00 	mulscc  %o4, %g0, %o4
4000df3c:	81 c3 e0 08 	retl 
4000df40:	91 40 00 00 	rd  %y, %o0

4000df44 <mul_shortway>:
4000df44:	99 23 00 09 	mulscc  %o4, %o1, %o4
4000df48:	99 23 00 09 	mulscc  %o4, %o1, %o4
4000df4c:	99 23 00 09 	mulscc  %o4, %o1, %o4
4000df50:	99 23 00 09 	mulscc  %o4, %o1, %o4
4000df54:	99 23 00 09 	mulscc  %o4, %o1, %o4
4000df58:	99 23 00 09 	mulscc  %o4, %o1, %o4
4000df5c:	99 23 00 09 	mulscc  %o4, %o1, %o4
4000df60:	99 23 00 09 	mulscc  %o4, %o1, %o4
4000df64:	99 23 00 09 	mulscc  %o4, %o1, %o4
4000df68:	99 23 00 09 	mulscc  %o4, %o1, %o4
4000df6c:	99 23 00 09 	mulscc  %o4, %o1, %o4
4000df70:	99 23 00 09 	mulscc  %o4, %o1, %o4
4000df74:	99 23 00 00 	mulscc  %o4, %g0, %o4
4000df78:	9b 40 00 00 	rd  %y, %o5
4000df7c:	99 2b 20 0c 	sll  %o4, 0xc, %o4
4000df80:	9b 33 60 14 	srl  %o5, 0x14, %o5
4000df84:	81 c3 e0 08 	retl 
4000df88:	90 13 40 0c 	or  %o5, %o4, %o0

4000df8c <.udiv>:
4000df8c:	10 80 00 0b 	b  4000dfb8 <ready_to_divide>
4000df90:	86 10 20 00 	clr  %g3

4000df94 <.div>:
4000df94:	80 92 40 08 	orcc  %o1, %o0, %g0
4000df98:	16 80 00 08 	bge  4000dfb8 <ready_to_divide>
4000df9c:	86 1a 40 08 	xor  %o1, %o0, %g3
4000dfa0:	80 92 40 00 	tst  %o1
4000dfa4:	16 80 00 04 	bge  4000dfb4 <.div+0x20>
4000dfa8:	80 92 00 00 	tst  %o0
4000dfac:	16 80 00 03 	bge  4000dfb8 <ready_to_divide>
4000dfb0:	92 20 00 09 	neg  %o1
4000dfb4:	90 20 00 08 	neg  %o0

4000dfb8 <ready_to_divide>:
4000dfb8:	9a 92 40 00 	orcc  %o1, %g0, %o5
4000dfbc:	12 80 00 05 	bne  4000dfd0 <ready_to_divide+0x18>
4000dfc0:	96 10 00 08 	mov  %o0, %o3
4000dfc4:	91 d0 20 02 	ta  2
4000dfc8:	81 c3 e0 08 	retl 
4000dfcc:	90 10 00 00 	mov  %g0, %o0
4000dfd0:	80 a2 c0 0d 	cmp  %o3, %o5
4000dfd4:	0a 80 00 95 	bcs  4000e228 <got_result>
4000dfd8:	94 10 00 00 	mov  %g0, %o2
4000dfdc:	03 02 00 00 	sethi  %hi(0x8000000), %g1
4000dfe0:	80 a2 c0 01 	cmp  %o3, %g1
4000dfe4:	0a 80 00 28 	bcs  4000e084 <not_really_big>
4000dfe8:	98 10 00 00 	mov  %g0, %o4
4000dfec:	80 a3 40 01 	cmp  %o5, %g1
4000dff0:	1a 80 00 0d 	bcc  4000e024 <not_too_big>
4000dff4:	84 10 20 01 	mov  1, %g2
4000dff8:	9b 2b 60 04 	sll  %o5, 4, %o5
4000dffc:	10 bf ff fc 	b  4000dfec <ready_to_divide+0x34>
4000e000:	98 03 20 01 	inc  %o4
4000e004:	9a 83 40 0d 	addcc  %o5, %o5, %o5
4000e008:	1a 80 00 07 	bcc  4000e024 <not_too_big>
4000e00c:	84 00 a0 01 	inc  %g2
4000e010:	83 28 60 04 	sll  %g1, 4, %g1
4000e014:	9b 33 60 01 	srl  %o5, 1, %o5
4000e018:	9a 03 40 01 	add  %o5, %g1, %o5
4000e01c:	10 80 00 07 	b  4000e038 <do_single_div>
4000e020:	84 20 a0 01 	dec  %g2

4000e024 <not_too_big>:
4000e024:	80 a3 40 0b 	cmp  %o5, %o3
4000e028:	0a bf ff f7 	bcs  4000e004 <ready_to_divide+0x4c>
4000e02c:	01 00 00 00 	nop 
4000e030:	02 80 00 02 	be  4000e038 <do_single_div>
4000e034:	01 00 00 00 	nop 

4000e038 <do_single_div>:
4000e038:	84 a0 a0 01 	deccc  %g2
4000e03c:	06 80 00 76 	bl  4000e214 <end_regular_divide>
4000e040:	01 00 00 00 	nop 
4000e044:	96 22 c0 0d 	sub  %o3, %o5, %o3
4000e048:	94 10 20 01 	mov  1, %o2
4000e04c:	10 80 00 0a 	b  4000e074 <end_single_divloop>
4000e050:	01 00 00 00 	nop 

4000e054 <single_divloop>:
4000e054:	95 2a a0 01 	sll  %o2, 1, %o2
4000e058:	06 80 00 05 	bl  4000e06c <single_divloop+0x18>
4000e05c:	9b 33 60 01 	srl  %o5, 1, %o5
4000e060:	96 22 c0 0d 	sub  %o3, %o5, %o3
4000e064:	10 80 00 04 	b  4000e074 <end_single_divloop>
4000e068:	94 02 a0 01 	inc  %o2
4000e06c:	96 02 c0 0d 	add  %o3, %o5, %o3
4000e070:	94 22 a0 01 	dec  %o2

4000e074 <end_single_divloop>:
4000e074:	84 a0 a0 01 	deccc  %g2
4000e078:	16 bf ff f7 	bge  4000e054 <single_divloop>
4000e07c:	80 92 c0 00 	tst  %o3
4000e080:	30 80 00 65 	b,a   4000e214 <end_regular_divide>

4000e084 <not_really_big>:
4000e084:	9b 2b 60 04 	sll  %o5, 4, %o5
4000e088:	80 a3 40 0b 	cmp  %o5, %o3
4000e08c:	08 bf ff fe 	bleu  4000e084 <not_really_big>
4000e090:	98 83 20 01 	inccc  %o4
4000e094:	02 80 00 65 	be  4000e228 <got_result>
4000e098:	98 23 20 01 	dec  %o4
4000e09c:	80 92 c0 00 	tst  %o3

4000e0a0 <divloop>:
4000e0a0:	95 2a a0 04 	sll  %o2, 4, %o2
4000e0a4:	06 80 00 2f 	bl  4000e160 <L1.16>
4000e0a8:	9b 33 60 01 	srl  %o5, 1, %o5
4000e0ac:	96 a2 c0 0d 	subcc  %o3, %o5, %o3
4000e0b0:	06 80 00 17 	bl  4000e10c <L2.17>
4000e0b4:	9b 33 60 01 	srl  %o5, 1, %o5
4000e0b8:	96 a2 c0 0d 	subcc  %o3, %o5, %o3
4000e0bc:	06 80 00 0b 	bl  4000e0e8 <L3.19>
4000e0c0:	9b 33 60 01 	srl  %o5, 1, %o5
4000e0c4:	96 a2 c0 0d 	subcc  %o3, %o5, %o3
4000e0c8:	06 80 00 05 	bl  4000e0dc <L4.23>
4000e0cc:	9b 33 60 01 	srl  %o5, 1, %o5
4000e0d0:	96 a2 c0 0d 	subcc  %o3, %o5, %o3
4000e0d4:	10 80 00 50 	b  4000e214 <end_regular_divide>
4000e0d8:	94 02 a0 0f 	add  %o2, 0xf, %o2

4000e0dc <L4.23>:
4000e0dc:	96 82 c0 0d 	addcc  %o3, %o5, %o3
4000e0e0:	10 80 00 4d 	b  4000e214 <end_regular_divide>
4000e0e4:	94 02 a0 0d 	add  %o2, 0xd, %o2

4000e0e8 <L3.19>:
4000e0e8:	96 82 c0 0d 	addcc  %o3, %o5, %o3
4000e0ec:	06 80 00 05 	bl  4000e100 <L4.21>
4000e0f0:	9b 33 60 01 	srl  %o5, 1, %o5
4000e0f4:	96 a2 c0 0d 	subcc  %o3, %o5, %o3
4000e0f8:	10 80 00 47 	b  4000e214 <end_regular_divide>
4000e0fc:	94 02 a0 0b 	add  %o2, 0xb, %o2

4000e100 <L4.21>:
4000e100:	96 82 c0 0d 	addcc  %o3, %o5, %o3
4000e104:	10 80 00 44 	b  4000e214 <end_regular_divide>
4000e108:	94 02 a0 09 	add  %o2, 9, %o2

4000e10c <L2.17>:
4000e10c:	96 82 c0 0d 	addcc  %o3, %o5, %o3
4000e110:	06 80 00 0b 	bl  4000e13c <L3.17>
4000e114:	9b 33 60 01 	srl  %o5, 1, %o5
4000e118:	96 a2 c0 0d 	subcc  %o3, %o5, %o3
4000e11c:	06 80 00 05 	bl  4000e130 <L4.19>
4000e120:	9b 33 60 01 	srl  %o5, 1, %o5
4000e124:	96 a2 c0 0d 	subcc  %o3, %o5, %o3
4000e128:	10 80 00 3b 	b  4000e214 <end_regular_divide>
4000e12c:	94 02 a0 07 	add  %o2, 7, %o2

4000e130 <L4.19>:
4000e130:	96 82 c0 0d 	addcc  %o3, %o5, %o3
4000e134:	10 80 00 38 	b  4000e214 <end_regular_divide>
4000e138:	94 02 a0 05 	add  %o2, 5, %o2

4000e13c <L3.17>:
4000e13c:	96 82 c0 0d 	addcc  %o3, %o5, %o3
4000e140:	06 80 00 05 	bl  4000e154 <L4.17>
4000e144:	9b 33 60 01 	srl  %o5, 1, %o5
4000e148:	96 a2 c0 0d 	subcc  %o3, %o5, %o3
4000e14c:	10 80 00 32 	b  4000e214 <end_regular_divide>
4000e150:	94 02 a0 03 	add  %o2, 3, %o2

4000e154 <L4.17>:
4000e154:	96 82 c0 0d 	addcc  %o3, %o5, %o3
4000e158:	10 80 00 2f 	b  4000e214 <end_regular_divide>
4000e15c:	94 02 a0 01 	inc  %o2

4000e160 <L1.16>:
4000e160:	96 82 c0 0d 	addcc  %o3, %o5, %o3
4000e164:	06 80 00 17 	bl  4000e1c0 <L2.15>
4000e168:	9b 33 60 01 	srl  %o5, 1, %o5
4000e16c:	96 a2 c0 0d 	subcc  %o3, %o5, %o3
4000e170:	06 80 00 0b 	bl  4000e19c <L3.15>
4000e174:	9b 33 60 01 	srl  %o5, 1, %o5
4000e178:	96 a2 c0 0d 	subcc  %o3, %o5, %o3
4000e17c:	06 80 00 05 	bl  4000e190 <L4.15>
4000e180:	9b 33 60 01 	srl  %o5, 1, %o5
4000e184:	96 a2 c0 0d 	subcc  %o3, %o5, %o3
4000e188:	10 80 00 23 	b  4000e214 <end_regular_divide>
4000e18c:	94 02 bf ff 	add  %o2, -1, %o2

4000e190 <L4.15>:
4000e190:	96 82 c0 0d 	addcc  %o3, %o5, %o3
4000e194:	10 80 00 20 	b  4000e214 <end_regular_divide>
4000e198:	94 02 bf fd 	add  %o2, -3, %o2

4000e19c <L3.15>:
4000e19c:	96 82 c0 0d 	addcc  %o3, %o5, %o3
4000e1a0:	06 80 00 05 	bl  4000e1b4 <L4.13>
4000e1a4:	9b 33 60 01 	srl  %o5, 1, %o5
4000e1a8:	96 a2 c0 0d 	subcc  %o3, %o5, %o3
4000e1ac:	10 80 00 1a 	b  4000e214 <end_regular_divide>
4000e1b0:	94 02 bf fb 	add  %o2, -5, %o2

4000e1b4 <L4.13>:
4000e1b4:	96 82 c0 0d 	addcc  %o3, %o5, %o3
4000e1b8:	10 80 00 17 	b  4000e214 <end_regular_divide>
4000e1bc:	94 02 bf f9 	add  %o2, -7, %o2

4000e1c0 <L2.15>:
4000e1c0:	96 82 c0 0d 	addcc  %o3, %o5, %o3
4000e1c4:	06 80 00 0b 	bl  4000e1f0 <L3.13>
4000e1c8:	9b 33 60 01 	srl  %o5, 1, %o5
4000e1cc:	96 a2 c0 0d 	subcc  %o3, %o5, %o3
4000e1d0:	06 80 00 05 	bl  4000e1e4 <L4.11>
4000e1d4:	9b 33 60 01 	srl  %o5, 1, %o5
4000e1d8:	96 a2 c0 0d 	subcc  %o3, %o5, %o3
4000e1dc:	10 80 00 0e 	b  4000e214 <end_regular_divide>
4000e1e0:	94 02 bf f7 	add  %o2, -9, %o2

4000e1e4 <L4.11>:
4000e1e4:	96 82 c0 0d 	addcc  %o3, %o5, %o3
4000e1e8:	10 80 00 0b 	b  4000e214 <end_regular_divide>
4000e1ec:	94 02 bf f5 	add  %o2, -11, %o2

4000e1f0 <L3.13>:
4000e1f0:	96 82 c0 0d 	addcc  %o3, %o5, %o3
4000e1f4:	06 80 00 05 	bl  4000e208 <L4.9>
4000e1f8:	9b 33 60 01 	srl  %o5, 1, %o5
4000e1fc:	96 a2 c0 0d 	subcc  %o3, %o5, %o3
4000e200:	10 80 00 05 	b  4000e214 <end_regular_divide>
4000e204:	94 02 bf f3 	add  %o2, -13, %o2

4000e208 <L4.9>:
4000e208:	96 82 c0 0d 	addcc  %o3, %o5, %o3
4000e20c:	10 80 00 02 	b  4000e214 <end_regular_divide>
4000e210:	94 02 bf f1 	add  %o2, -15, %o2

4000e214 <end_regular_divide>:
4000e214:	98 a3 20 01 	deccc  %o4
4000e218:	16 bf ff a2 	bge  4000e0a0 <divloop>
4000e21c:	80 92 c0 00 	tst  %o3
4000e220:	26 80 00 02 	bl,a   4000e228 <got_result>
4000e224:	94 22 a0 01 	dec  %o2

4000e228 <got_result>:
4000e228:	80 90 c0 00 	tst  %g3
4000e22c:	26 80 00 02 	bl,a   4000e234 <got_result+0xc>
4000e230:	94 20 00 0a 	neg  %o2
4000e234:	81 c3 e0 08 	retl 
4000e238:	90 10 00 0a 	mov  %o2, %o0

4000e23c <.urem>:
4000e23c:	10 80 00 0b 	b  4000e268 <divide>
4000e240:	86 10 20 00 	clr  %g3

4000e244 <.rem>:
4000e244:	80 92 40 08 	orcc  %o1, %o0, %g0
4000e248:	16 80 00 08 	bge  4000e268 <divide>
4000e24c:	86 10 00 08 	mov  %o0, %g3
4000e250:	80 92 40 00 	tst  %o1
4000e254:	16 80 00 04 	bge  4000e264 <.rem+0x20>
4000e258:	80 92 00 00 	tst  %o0
4000e25c:	16 80 00 03 	bge  4000e268 <divide>
4000e260:	92 20 00 09 	neg  %o1
4000e264:	90 20 00 08 	neg  %o0

4000e268 <divide>:
4000e268:	9a 92 40 00 	orcc  %o1, %g0, %o5
4000e26c:	12 80 00 05 	bne  4000e280 <divide+0x18>
4000e270:	96 10 00 08 	mov  %o0, %o3
4000e274:	91 d0 20 02 	ta  2
4000e278:	81 c3 e0 08 	retl 
4000e27c:	90 10 00 00 	mov  %g0, %o0
4000e280:	80 a2 c0 0d 	cmp  %o3, %o5
4000e284:	0a 80 00 95 	bcs  4000e4d8 <got_result>
4000e288:	94 10 00 00 	mov  %g0, %o2
4000e28c:	03 02 00 00 	sethi  %hi(0x8000000), %g1
4000e290:	80 a2 c0 01 	cmp  %o3, %g1
4000e294:	0a 80 00 28 	bcs  4000e334 <not_really_big>
4000e298:	98 10 00 00 	mov  %g0, %o4
4000e29c:	80 a3 40 01 	cmp  %o5, %g1
4000e2a0:	1a 80 00 0d 	bcc  4000e2d4 <not_too_big>
4000e2a4:	84 10 20 01 	mov  1, %g2
4000e2a8:	9b 2b 60 04 	sll  %o5, 4, %o5
4000e2ac:	10 bf ff fc 	b  4000e29c <divide+0x34>
4000e2b0:	98 03 20 01 	inc  %o4
4000e2b4:	9a 83 40 0d 	addcc  %o5, %o5, %o5
4000e2b8:	1a 80 00 07 	bcc  4000e2d4 <not_too_big>
4000e2bc:	84 00 a0 01 	inc  %g2
4000e2c0:	83 28 60 04 	sll  %g1, 4, %g1
4000e2c4:	9b 33 60 01 	srl  %o5, 1, %o5
4000e2c8:	9a 03 40 01 	add  %o5, %g1, %o5
4000e2cc:	10 80 00 07 	b  4000e2e8 <do_single_div>
4000e2d0:	84 20 a0 01 	dec  %g2

4000e2d4 <not_too_big>:
4000e2d4:	80 a3 40 0b 	cmp  %o5, %o3
4000e2d8:	0a bf ff f7 	bcs  4000e2b4 <divide+0x4c>
4000e2dc:	01 00 00 00 	nop 
4000e2e0:	02 80 00 02 	be  4000e2e8 <do_single_div>
4000e2e4:	01 00 00 00 	nop 

4000e2e8 <do_single_div>:
4000e2e8:	84 a0 a0 01 	deccc  %g2
4000e2ec:	06 80 00 76 	bl  4000e4c4 <end_regular_divide>
4000e2f0:	01 00 00 00 	nop 
4000e2f4:	96 22 c0 0d 	sub  %o3, %o5, %o3
4000e2f8:	94 10 20 01 	mov  1, %o2
4000e2fc:	10 80 00 0a 	b  4000e324 <end_single_divloop>
4000e300:	01 00 00 00 	nop 

4000e304 <single_divloop>:
4000e304:	95 2a a0 01 	sll  %o2, 1, %o2
4000e308:	06 80 00 05 	bl  4000e31c <single_divloop+0x18>
4000e30c:	9b 33 60 01 	srl  %o5, 1, %o5
4000e310:	96 22 c0 0d 	sub  %o3, %o5, %o3
4000e314:	10 80 00 04 	b  4000e324 <end_single_divloop>
4000e318:	94 02 a0 01 	inc  %o2
4000e31c:	96 02 c0 0d 	add  %o3, %o5, %o3
4000e320:	94 22 a0 01 	dec  %o2

4000e324 <end_single_divloop>:
4000e324:	84 a0 a0 01 	deccc  %g2
4000e328:	16 bf ff f7 	bge  4000e304 <single_divloop>
4000e32c:	80 92 c0 00 	tst  %o3
4000e330:	30 80 00 65 	b,a   4000e4c4 <end_regular_divide>

4000e334 <not_really_big>:
4000e334:	9b 2b 60 04 	sll  %o5, 4, %o5
4000e338:	80 a3 40 0b 	cmp  %o5, %o3
4000e33c:	08 bf ff fe 	bleu  4000e334 <not_really_big>
4000e340:	98 83 20 01 	inccc  %o4
4000e344:	02 80 00 65 	be  4000e4d8 <got_result>
4000e348:	98 23 20 01 	dec  %o4
4000e34c:	80 92 c0 00 	tst  %o3

4000e350 <divloop>:
4000e350:	95 2a a0 04 	sll  %o2, 4, %o2
4000e354:	06 80 00 2f 	bl  4000e410 <L1.16>
4000e358:	9b 33 60 01 	srl  %o5, 1, %o5
4000e35c:	96 a2 c0 0d 	subcc  %o3, %o5, %o3
4000e360:	06 80 00 17 	bl  4000e3bc <L2.17>
4000e364:	9b 33 60 01 	srl  %o5, 1, %o5
4000e368:	96 a2 c0 0d 	subcc  %o3, %o5, %o3
4000e36c:	06 80 00 0b 	bl  4000e398 <L3.19>
4000e370:	9b 33 60 01 	srl  %o5, 1, %o5
4000e374:	96 a2 c0 0d 	subcc  %o3, %o5, %o3
4000e378:	06 80 00 05 	bl  4000e38c <L4.23>
4000e37c:	9b 33 60 01 	srl  %o5, 1, %o5
4000e380:	96 a2 c0 0d 	subcc  %o3, %o5, %o3
4000e384:	10 80 00 50 	b  4000e4c4 <end_regular_divide>
4000e388:	94 02 a0 0f 	add  %o2, 0xf, %o2

4000e38c <L4.23>:
4000e38c:	96 82 c0 0d 	addcc  %o3, %o5, %o3
4000e390:	10 80 00 4d 	b  4000e4c4 <end_regular_divide>
4000e394:	94 02 a0 0d 	add  %o2, 0xd, %o2

4000e398 <L3.19>:
4000e398:	96 82 c0 0d 	addcc  %o3, %o5, %o3
4000e39c:	06 80 00 05 	bl  4000e3b0 <L4.21>
4000e3a0:	9b 33 60 01 	srl  %o5, 1, %o5
4000e3a4:	96 a2 c0 0d 	subcc  %o3, %o5, %o3
4000e3a8:	10 80 00 47 	b  4000e4c4 <end_regular_divide>
4000e3ac:	94 02 a0 0b 	add  %o2, 0xb, %o2

4000e3b0 <L4.21>:
4000e3b0:	96 82 c0 0d 	addcc  %o3, %o5, %o3
4000e3b4:	10 80 00 44 	b  4000e4c4 <end_regular_divide>
4000e3b8:	94 02 a0 09 	add  %o2, 9, %o2

4000e3bc <L2.17>:
4000e3bc:	96 82 c0 0d 	addcc  %o3, %o5, %o3
4000e3c0:	06 80 00 0b 	bl  4000e3ec <L3.17>
4000e3c4:	9b 33 60 01 	srl  %o5, 1, %o5
4000e3c8:	96 a2 c0 0d 	subcc  %o3, %o5, %o3
4000e3cc:	06 80 00 05 	bl  4000e3e0 <L4.19>
4000e3d0:	9b 33 60 01 	srl  %o5, 1, %o5
4000e3d4:	96 a2 c0 0d 	subcc  %o3, %o5, %o3
4000e3d8:	10 80 00 3b 	b  4000e4c4 <end_regular_divide>
4000e3dc:	94 02 a0 07 	add  %o2, 7, %o2

4000e3e0 <L4.19>:
4000e3e0:	96 82 c0 0d 	addcc  %o3, %o5, %o3
4000e3e4:	10 80 00 38 	b  4000e4c4 <end_regular_divide>
4000e3e8:	94 02 a0 05 	add  %o2, 5, %o2

4000e3ec <L3.17>:
4000e3ec:	96 82 c0 0d 	addcc  %o3, %o5, %o3
4000e3f0:	06 80 00 05 	bl  4000e404 <L4.17>
4000e3f4:	9b 33 60 01 	srl  %o5, 1, %o5
4000e3f8:	96 a2 c0 0d 	subcc  %o3, %o5, %o3
4000e3fc:	10 80 00 32 	b  4000e4c4 <end_regular_divide>
4000e400:	94 02 a0 03 	add  %o2, 3, %o2

4000e404 <L4.17>:
4000e404:	96 82 c0 0d 	addcc  %o3, %o5, %o3
4000e408:	10 80 00 2f 	b  4000e4c4 <end_regular_divide>
4000e40c:	94 02 a0 01 	inc  %o2

4000e410 <L1.16>:
4000e410:	96 82 c0 0d 	addcc  %o3, %o5, %o3
4000e414:	06 80 00 17 	bl  4000e470 <L2.15>
4000e418:	9b 33 60 01 	srl  %o5, 1, %o5
4000e41c:	96 a2 c0 0d 	subcc  %o3, %o5, %o3
4000e420:	06 80 00 0b 	bl  4000e44c <L3.15>
4000e424:	9b 33 60 01 	srl  %o5, 1, %o5
4000e428:	96 a2 c0 0d 	subcc  %o3, %o5, %o3
4000e42c:	06 80 00 05 	bl  4000e440 <L4.15>
4000e430:	9b 33 60 01 	srl  %o5, 1, %o5
4000e434:	96 a2 c0 0d 	subcc  %o3, %o5, %o3
4000e438:	10 80 00 23 	b  4000e4c4 <end_regular_divide>
4000e43c:	94 02 bf ff 	add  %o2, -1, %o2

4000e440 <L4.15>:
4000e440:	96 82 c0 0d 	addcc  %o3, %o5, %o3
4000e444:	10 80 00 20 	b  4000e4c4 <end_regular_divide>
4000e448:	94 02 bf fd 	add  %o2, -3, %o2

4000e44c <L3.15>:
4000e44c:	96 82 c0 0d 	addcc  %o3, %o5, %o3
4000e450:	06 80 00 05 	bl  4000e464 <L4.13>
4000e454:	9b 33 60 01 	srl  %o5, 1, %o5
4000e458:	96 a2 c0 0d 	subcc  %o3, %o5, %o3
4000e45c:	10 80 00 1a 	b  4000e4c4 <end_regular_divide>
4000e460:	94 02 bf fb 	add  %o2, -5, %o2

4000e464 <L4.13>:
4000e464:	96 82 c0 0d 	addcc  %o3, %o5, %o3
4000e468:	10 80 00 17 	b  4000e4c4 <end_regular_divide>
4000e46c:	94 02 bf f9 	add  %o2, -7, %o2

4000e470 <L2.15>:
4000e470:	96 82 c0 0d 	addcc  %o3, %o5, %o3
4000e474:	06 80 00 0b 	bl  4000e4a0 <L3.13>
4000e478:	9b 33 60 01 	srl  %o5, 1, %o5
4000e47c:	96 a2 c0 0d 	subcc  %o3, %o5, %o3
4000e480:	06 80 00 05 	bl  4000e494 <L4.11>
4000e484:	9b 33 60 01 	srl  %o5, 1, %o5
4000e488:	96 a2 c0 0d 	subcc  %o3, %o5, %o3
4000e48c:	10 80 00 0e 	b  4000e4c4 <end_regular_divide>
4000e490:	94 02 bf f7 	add  %o2, -9, %o2

4000e494 <L4.11>:
4000e494:	96 82 c0 0d 	addcc  %o3, %o5, %o3
4000e498:	10 80 00 0b 	b  4000e4c4 <end_regular_divide>
4000e49c:	94 02 bf f5 	add  %o2, -11, %o2

4000e4a0 <L3.13>:
4000e4a0:	96 82 c0 0d 	addcc  %o3, %o5, %o3
4000e4a4:	06 80 00 05 	bl  4000e4b8 <L4.9>
4000e4a8:	9b 33 60 01 	srl  %o5, 1, %o5
4000e4ac:	96 a2 c0 0d 	subcc  %o3, %o5, %o3
4000e4b0:	10 80 00 05 	b  4000e4c4 <end_regular_divide>
4000e4b4:	94 02 bf f3 	add  %o2, -13, %o2

4000e4b8 <L4.9>:
4000e4b8:	96 82 c0 0d 	addcc  %o3, %o5, %o3
4000e4bc:	10 80 00 02 	b  4000e4c4 <end_regular_divide>
4000e4c0:	94 02 bf f1 	add  %o2, -15, %o2

4000e4c4 <end_regular_divide>:
4000e4c4:	98 a3 20 01 	deccc  %o4
4000e4c8:	16 bf ff a2 	bge  4000e350 <divloop>
4000e4cc:	80 92 c0 00 	tst  %o3
4000e4d0:	26 80 00 02 	bl,a   4000e4d8 <got_result>
4000e4d4:	96 02 c0 09 	add  %o3, %o1, %o3

4000e4d8 <got_result>:
4000e4d8:	80 90 c0 00 	tst  %g3
4000e4dc:	26 80 00 02 	bl,a   4000e4e4 <got_result+0xc>
4000e4e0:	96 20 00 0b 	neg  %o3
4000e4e4:	81 c3 e0 08 	retl 
4000e4e8:	90 10 00 0b 	mov  %o3, %o0

4000e4ec <__udivdi3>:
4000e4ec:	9d e3 bf a0 	save  %sp, -96, %sp
4000e4f0:	80 a6 a0 00 	cmp  %i2, 0
4000e4f4:	12 80 00 20 	bne  4000e574 <__udivdi3+0x88>
4000e4f8:	80 a6 80 18 	cmp  %i2, %i0
4000e4fc:	80 a6 c0 18 	cmp  %i3, %i0
4000e500:	08 80 00 40 	bleu  4000e600 <__udivdi3+0x114>
4000e504:	80 a6 e0 00 	cmp  %i3, 0
4000e508:	84 10 00 18 	mov  %i0, %g2
4000e50c:	b0 10 20 00 	clr  %i0
4000e510:	82 10 20 20 	mov  0x20, %g1
4000e514:	80 a0 80 1b 	cmp  %g2, %i3
4000e518:	0a 80 00 0c 	bcs  4000e548 <__udivdi3+0x5c>
4000e51c:	b2 c6 40 19 	addxcc  %i1, %i1, %i1
4000e520:	84 20 80 1b 	sub  %g2, %i3, %g2
4000e524:	84 40 80 02 	addx  %g2, %g2, %g2
4000e528:	82 a0 60 01 	deccc  %g1
4000e52c:	12 bf ff fb 	bne  4000e518 <__udivdi3+0x2c>
4000e530:	80 a0 80 1b 	cmp  %g2, %i3
4000e534:	0a 80 00 0b 	bcs  4000e560 <__udivdi3+0x74>
4000e538:	b2 c6 40 19 	addxcc  %i1, %i1, %i1
4000e53c:	10 80 00 09 	b  4000e560 <__udivdi3+0x74>
4000e540:	84 20 80 1b 	sub  %g2, %i3, %g2
4000e544:	84 20 80 1b 	sub  %g2, %i3, %g2
4000e548:	84 c0 80 02 	addxcc  %g2, %g2, %g2
4000e54c:	1a bf ff f8 	bcc  4000e52c <__udivdi3+0x40>
4000e550:	82 a0 60 01 	deccc  %g1
4000e554:	12 bf ff fc 	bne  4000e544 <__udivdi3+0x58>
4000e558:	b2 86 40 19 	addcc  %i1, %i1, %i1
4000e55c:	84 20 80 1b 	sub  %g2, %i3, %g2
4000e560:	b2 3e 60 00 	xnor  %i1, 0, %i1
4000e564:	82 10 00 19 	mov  %i1, %g1
4000e568:	b2 10 00 01 	mov  %g1, %i1
4000e56c:	81 c7 e0 08 	ret 
4000e570:	81 e8 00 00 	restore 
4000e574:	08 80 00 07 	bleu  4000e590 <__udivdi3+0xa4>
4000e578:	03 00 00 3f 	sethi  %hi(0xfc00), %g1
4000e57c:	82 10 20 00 	clr  %g1
4000e580:	b0 10 20 00 	clr  %i0
4000e584:	b2 10 00 01 	mov  %g1, %i1
4000e588:	81 c7 e0 08 	ret 
4000e58c:	81 e8 00 00 	restore 
4000e590:	82 10 63 ff 	or  %g1, 0x3ff, %g1
4000e594:	80 a6 80 01 	cmp  %i2, %g1
4000e598:	08 80 00 4f 	bleu  4000e6d4 <__udivdi3+0x1e8>
4000e59c:	80 a6 a0 ff 	cmp  %i2, 0xff
4000e5a0:	03 00 3f ff 	sethi  %hi(0xfffc00), %g1
4000e5a4:	82 10 63 ff 	or  %g1, 0x3ff, %g1	! ffffff <__data_size+0xfff9ef>
4000e5a8:	80 a6 80 01 	cmp  %i2, %g1
4000e5ac:	08 80 00 a0 	bleu  4000e82c <__udivdi3+0x340>
4000e5b0:	83 36 a0 10 	srl  %i2, 0x10, %g1
4000e5b4:	83 36 a0 18 	srl  %i2, 0x18, %g1
4000e5b8:	88 10 20 18 	mov  0x18, %g4
4000e5bc:	84 10 20 20 	mov  0x20, %g2
4000e5c0:	07 10 00 3c 	sethi  %hi(0x4000f000), %g3
4000e5c4:	86 10 e2 30 	or  %g3, 0x230, %g3	! 4000f230 <__clz_tab>
4000e5c8:	c2 08 c0 01 	ldub  [ %g3 + %g1 ], %g1
4000e5cc:	82 00 40 04 	add  %g1, %g4, %g1
4000e5d0:	84 a0 80 01 	subcc  %g2, %g1, %g2
4000e5d4:	32 80 00 45 	bne,a   4000e6e8 <__udivdi3+0x1fc>
4000e5d8:	87 36 c0 01 	srl  %i3, %g1, %g3
4000e5dc:	80 a6 80 18 	cmp  %i2, %i0
4000e5e0:	0a 80 00 05 	bcs  4000e5f4 <__udivdi3+0x108>
4000e5e4:	80 a6 40 1b 	cmp  %i1, %i3
4000e5e8:	82 10 20 00 	clr  %g1
4000e5ec:	0a bf ff e6 	bcs  4000e584 <__udivdi3+0x98>
4000e5f0:	b0 10 20 00 	clr  %i0
4000e5f4:	82 10 20 01 	mov  1, %g1
4000e5f8:	10 bf ff e3 	b  4000e584 <__udivdi3+0x98>
4000e5fc:	b0 10 20 00 	clr  %i0
4000e600:	12 80 00 07 	bne  4000e61c <__udivdi3+0x130>
4000e604:	84 10 20 00 	clr  %g2
4000e608:	92 10 20 00 	clr  %o1
4000e60c:	7f ff fe 60 	call  4000df8c <.udiv>
4000e610:	90 10 20 01 	mov  1, %o0
4000e614:	b6 10 00 08 	mov  %o0, %i3
4000e618:	84 10 20 00 	clr  %g2
4000e61c:	82 10 20 20 	mov  0x20, %g1
4000e620:	80 a0 80 1b 	cmp  %g2, %i3
4000e624:	0a 80 00 0c 	bcs  4000e654 <__udivdi3+0x168>
4000e628:	b0 c6 00 18 	addxcc  %i0, %i0, %i0
4000e62c:	84 20 80 1b 	sub  %g2, %i3, %g2
4000e630:	84 40 80 02 	addx  %g2, %g2, %g2
4000e634:	82 a0 60 01 	deccc  %g1
4000e638:	12 bf ff fb 	bne  4000e624 <__udivdi3+0x138>
4000e63c:	80 a0 80 1b 	cmp  %g2, %i3
4000e640:	0a 80 00 0b 	bcs  4000e66c <__udivdi3+0x180>
4000e644:	b0 c6 00 18 	addxcc  %i0, %i0, %i0
4000e648:	10 80 00 09 	b  4000e66c <__udivdi3+0x180>
4000e64c:	84 20 80 1b 	sub  %g2, %i3, %g2
4000e650:	84 20 80 1b 	sub  %g2, %i3, %g2
4000e654:	84 c0 80 02 	addxcc  %g2, %g2, %g2
4000e658:	1a bf ff f8 	bcc  4000e638 <__udivdi3+0x14c>
4000e65c:	82 a0 60 01 	deccc  %g1
4000e660:	12 bf ff fc 	bne  4000e650 <__udivdi3+0x164>
4000e664:	b0 86 00 18 	addcc  %i0, %i0, %i0
4000e668:	84 20 80 1b 	sub  %g2, %i3, %g2
4000e66c:	b0 3e 20 00 	xnor  %i0, 0, %i0
4000e670:	82 10 20 20 	mov  0x20, %g1
4000e674:	80 a0 80 1b 	cmp  %g2, %i3
4000e678:	0a 80 00 0c 	bcs  4000e6a8 <__udivdi3+0x1bc>
4000e67c:	b2 c6 40 19 	addxcc  %i1, %i1, %i1
4000e680:	84 20 80 1b 	sub  %g2, %i3, %g2
4000e684:	84 40 80 02 	addx  %g2, %g2, %g2
4000e688:	82 a0 60 01 	deccc  %g1
4000e68c:	12 bf ff fb 	bne  4000e678 <__udivdi3+0x18c>
4000e690:	80 a0 80 1b 	cmp  %g2, %i3
4000e694:	0a 80 00 0b 	bcs  4000e6c0 <__udivdi3+0x1d4>
4000e698:	b2 c6 40 19 	addxcc  %i1, %i1, %i1
4000e69c:	10 80 00 09 	b  4000e6c0 <__udivdi3+0x1d4>
4000e6a0:	84 20 80 1b 	sub  %g2, %i3, %g2
4000e6a4:	84 20 80 1b 	sub  %g2, %i3, %g2
4000e6a8:	84 c0 80 02 	addxcc  %g2, %g2, %g2
4000e6ac:	1a bf ff f8 	bcc  4000e68c <__udivdi3+0x1a0>
4000e6b0:	82 a0 60 01 	deccc  %g1
4000e6b4:	12 bf ff fc 	bne  4000e6a4 <__udivdi3+0x1b8>
4000e6b8:	b2 86 40 19 	addcc  %i1, %i1, %i1
4000e6bc:	84 20 80 1b 	sub  %g2, %i3, %g2
4000e6c0:	b2 3e 60 00 	xnor  %i1, 0, %i1
4000e6c4:	82 10 00 19 	mov  %i1, %g1
4000e6c8:	b2 10 00 01 	mov  %g1, %i1
4000e6cc:	81 c7 e0 08 	ret 
4000e6d0:	81 e8 00 00 	restore 
4000e6d4:	28 80 00 54 	bleu,a   4000e824 <__udivdi3+0x338>
4000e6d8:	82 10 00 1a 	mov  %i2, %g1
4000e6dc:	83 36 a0 08 	srl  %i2, 8, %g1
4000e6e0:	10 bf ff b7 	b  4000e5bc <__udivdi3+0xd0>
4000e6e4:	88 10 20 08 	mov  8, %g4
4000e6e8:	b5 2e 80 02 	sll  %i2, %g2, %i2
4000e6ec:	b4 10 c0 1a 	or  %g3, %i2, %i2
4000e6f0:	87 36 00 01 	srl  %i0, %g1, %g3
4000e6f4:	b1 2e 00 02 	sll  %i0, %g2, %i0
4000e6f8:	91 2e c0 02 	sll  %i3, %g2, %o0
4000e6fc:	83 36 40 01 	srl  %i1, %g1, %g1
4000e700:	82 10 40 18 	or  %g1, %i0, %g1
4000e704:	b0 10 00 01 	mov  %g1, %i0
4000e708:	82 10 20 20 	mov  0x20, %g1
4000e70c:	80 a0 c0 1a 	cmp  %g3, %i2
4000e710:	0a 80 00 0c 	bcs  4000e740 <__udivdi3+0x254>
4000e714:	b0 c6 00 18 	addxcc  %i0, %i0, %i0
4000e718:	86 20 c0 1a 	sub  %g3, %i2, %g3
4000e71c:	86 40 c0 03 	addx  %g3, %g3, %g3
4000e720:	82 a0 60 01 	deccc  %g1
4000e724:	12 bf ff fb 	bne  4000e710 <__udivdi3+0x224>
4000e728:	80 a0 c0 1a 	cmp  %g3, %i2
4000e72c:	0a 80 00 0b 	bcs  4000e758 <__udivdi3+0x26c>
4000e730:	b0 c6 00 18 	addxcc  %i0, %i0, %i0
4000e734:	10 80 00 09 	b  4000e758 <__udivdi3+0x26c>
4000e738:	86 20 c0 1a 	sub  %g3, %i2, %g3
4000e73c:	86 20 c0 1a 	sub  %g3, %i2, %g3
4000e740:	86 c0 c0 03 	addxcc  %g3, %g3, %g3
4000e744:	1a bf ff f8 	bcc  4000e724 <__udivdi3+0x238>
4000e748:	82 a0 60 01 	deccc  %g1
4000e74c:	12 bf ff fc 	bne  4000e73c <__udivdi3+0x250>
4000e750:	b0 86 00 18 	addcc  %i0, %i0, %i0
4000e754:	86 20 c0 1a 	sub  %g3, %i2, %g3
4000e758:	b0 3e 20 00 	xnor  %i0, 0, %i0
4000e75c:	81 80 00 18 	wr  %i0, %y
4000e760:	9b 3a 20 1f 	sra  %o0, 0x1f, %o5
4000e764:	9a 0e 00 0d 	and  %i0, %o5, %o5
4000e768:	82 88 20 00 	andcc  %g0, 0, %g1
4000e76c:	83 20 40 08 	mulscc  %g1, %o0, %g1
4000e770:	83 20 40 08 	mulscc  %g1, %o0, %g1
4000e774:	83 20 40 08 	mulscc  %g1, %o0, %g1
4000e778:	83 20 40 08 	mulscc  %g1, %o0, %g1
4000e77c:	83 20 40 08 	mulscc  %g1, %o0, %g1
4000e780:	83 20 40 08 	mulscc  %g1, %o0, %g1
4000e784:	83 20 40 08 	mulscc  %g1, %o0, %g1
4000e788:	83 20 40 08 	mulscc  %g1, %o0, %g1
4000e78c:	83 20 40 08 	mulscc  %g1, %o0, %g1
4000e790:	83 20 40 08 	mulscc  %g1, %o0, %g1
4000e794:	83 20 40 08 	mulscc  %g1, %o0, %g1
4000e798:	83 20 40 08 	mulscc  %g1, %o0, %g1
4000e79c:	83 20 40 08 	mulscc  %g1, %o0, %g1
4000e7a0:	83 20 40 08 	mulscc  %g1, %o0, %g1
4000e7a4:	83 20 40 08 	mulscc  %g1, %o0, %g1
4000e7a8:	83 20 40 08 	mulscc  %g1, %o0, %g1
4000e7ac:	83 20 40 08 	mulscc  %g1, %o0, %g1
4000e7b0:	83 20 40 08 	mulscc  %g1, %o0, %g1
4000e7b4:	83 20 40 08 	mulscc  %g1, %o0, %g1
4000e7b8:	83 20 40 08 	mulscc  %g1, %o0, %g1
4000e7bc:	83 20 40 08 	mulscc  %g1, %o0, %g1
4000e7c0:	83 20 40 08 	mulscc  %g1, %o0, %g1
4000e7c4:	83 20 40 08 	mulscc  %g1, %o0, %g1
4000e7c8:	83 20 40 08 	mulscc  %g1, %o0, %g1
4000e7cc:	83 20 40 08 	mulscc  %g1, %o0, %g1
4000e7d0:	83 20 40 08 	mulscc  %g1, %o0, %g1
4000e7d4:	83 20 40 08 	mulscc  %g1, %o0, %g1
4000e7d8:	83 20 40 08 	mulscc  %g1, %o0, %g1
4000e7dc:	83 20 40 08 	mulscc  %g1, %o0, %g1
4000e7e0:	83 20 40 08 	mulscc  %g1, %o0, %g1
4000e7e4:	83 20 40 08 	mulscc  %g1, %o0, %g1
4000e7e8:	83 20 40 08 	mulscc  %g1, %o0, %g1
4000e7ec:	83 20 60 00 	mulscc  %g1, 0, %g1
4000e7f0:	90 00 40 0d 	add  %g1, %o5, %o0
4000e7f4:	b7 40 00 00 	rd  %y, %i3
4000e7f8:	80 a0 c0 08 	cmp  %g3, %o0
4000e7fc:	0a 80 00 08 	bcs  4000e81c <__udivdi3+0x330>
4000e800:	82 06 3f ff 	add  %i0, -1, %g1
4000e804:	b3 2e 40 02 	sll  %i1, %g2, %i1
4000e808:	80 a6 40 1b 	cmp  %i1, %i3
4000e80c:	1a 80 00 0a 	bcc  4000e834 <__udivdi3+0x348>
4000e810:	80 a0 c0 08 	cmp  %g3, %o0
4000e814:	32 80 00 09 	bne,a   4000e838 <__udivdi3+0x34c>
4000e818:	82 10 00 18 	mov  %i0, %g1
4000e81c:	10 bf ff 5a 	b  4000e584 <__udivdi3+0x98>
4000e820:	b0 10 20 00 	clr  %i0
4000e824:	10 bf ff 66 	b  4000e5bc <__udivdi3+0xd0>
4000e828:	88 10 20 00 	clr  %g4
4000e82c:	10 bf ff 64 	b  4000e5bc <__udivdi3+0xd0>
4000e830:	88 10 20 10 	mov  0x10, %g4
4000e834:	82 10 00 18 	mov  %i0, %g1
4000e838:	10 bf ff 53 	b  4000e584 <__udivdi3+0x98>
4000e83c:	b0 10 20 00 	clr  %i0

4000e840 <__umoddi3>:
4000e840:	9d e3 bf a0 	save  %sp, -96, %sp
4000e844:	80 a6 a0 00 	cmp  %i2, 0
4000e848:	12 80 00 1e 	bne  4000e8c0 <__umoddi3+0x80>
4000e84c:	84 10 00 18 	mov  %i0, %g2
4000e850:	80 a6 c0 18 	cmp  %i3, %i0
4000e854:	08 80 00 3b 	bleu  4000e940 <__umoddi3+0x100>
4000e858:	80 a6 e0 00 	cmp  %i3, 0
4000e85c:	82 10 20 20 	mov  0x20, %g1
4000e860:	80 a6 00 1b 	cmp  %i0, %i3
4000e864:	0a 80 00 0c 	bcs  4000e894 <__umoddi3+0x54>
4000e868:	b2 c6 40 19 	addxcc  %i1, %i1, %i1
4000e86c:	b0 26 00 1b 	sub  %i0, %i3, %i0
4000e870:	b0 46 00 18 	addx  %i0, %i0, %i0
4000e874:	82 a0 60 01 	deccc  %g1
4000e878:	12 bf ff fb 	bne  4000e864 <__umoddi3+0x24>
4000e87c:	80 a6 00 1b 	cmp  %i0, %i3
4000e880:	0a 80 00 0b 	bcs  4000e8ac <__umoddi3+0x6c>
4000e884:	b2 c6 40 19 	addxcc  %i1, %i1, %i1
4000e888:	10 80 00 09 	b  4000e8ac <__umoddi3+0x6c>
4000e88c:	b0 26 00 1b 	sub  %i0, %i3, %i0
4000e890:	b0 26 00 1b 	sub  %i0, %i3, %i0
4000e894:	b0 c6 00 18 	addxcc  %i0, %i0, %i0
4000e898:	1a bf ff f8 	bcc  4000e878 <__umoddi3+0x38>
4000e89c:	82 a0 60 01 	deccc  %g1
4000e8a0:	12 bf ff fc 	bne  4000e890 <__umoddi3+0x50>
4000e8a4:	b2 86 40 19 	addcc  %i1, %i1, %i1
4000e8a8:	b0 26 00 1b 	sub  %i0, %i3, %i0
4000e8ac:	b2 3e 60 00 	xnor  %i1, 0, %i1
4000e8b0:	b2 10 00 18 	mov  %i0, %i1
4000e8b4:	b0 10 20 00 	clr  %i0
4000e8b8:	81 c7 e0 08 	ret 
4000e8bc:	81 e8 00 00 	restore 
4000e8c0:	80 a6 80 18 	cmp  %i2, %i0
4000e8c4:	18 bf ff fd 	bgu  4000e8b8 <__umoddi3+0x78>
4000e8c8:	86 10 00 19 	mov  %i1, %g3
4000e8cc:	03 00 00 3f 	sethi  %hi(0xfc00), %g1
4000e8d0:	82 10 63 ff 	or  %g1, 0x3ff, %g1	! ffff <__data_size+0xf9ef>
4000e8d4:	80 a6 80 01 	cmp  %i2, %g1
4000e8d8:	08 80 00 4f 	bleu  4000ea14 <__umoddi3+0x1d4>
4000e8dc:	80 a6 a0 ff 	cmp  %i2, 0xff
4000e8e0:	03 00 3f ff 	sethi  %hi(0xfffc00), %g1
4000e8e4:	82 10 63 ff 	or  %g1, 0x3ff, %g1	! ffffff <__data_size+0xfff9ef>
4000e8e8:	80 a6 80 01 	cmp  %i2, %g1
4000e8ec:	08 80 00 af 	bleu  4000eba8 <__umoddi3+0x368>
4000e8f0:	83 36 a0 10 	srl  %i2, 0x10, %g1
4000e8f4:	83 36 a0 18 	srl  %i2, 0x18, %g1
4000e8f8:	b8 10 20 18 	mov  0x18, %i4
4000e8fc:	09 10 00 3c 	sethi  %hi(0x4000f000), %g4
4000e900:	88 11 22 30 	or  %g4, 0x230, %g4	! 4000f230 <__clz_tab>
4000e904:	ba 10 20 20 	mov  0x20, %i5
4000e908:	c2 09 00 01 	ldub  [ %g4 + %g1 ], %g1
4000e90c:	88 00 40 1c 	add  %g1, %i4, %g4
4000e910:	ba a7 40 04 	subcc  %i5, %g4, %i5
4000e914:	32 80 00 4b 	bne,a   4000ea40 <__umoddi3+0x200>
4000e918:	83 36 c0 04 	srl  %i3, %g4, %g1
4000e91c:	80 a6 80 18 	cmp  %i2, %i0
4000e920:	0a 80 00 42 	bcs  4000ea28 <__umoddi3+0x1e8>
4000e924:	80 a6 40 1b 	cmp  %i1, %i3
4000e928:	1a 80 00 40 	bcc  4000ea28 <__umoddi3+0x1e8>
4000e92c:	01 00 00 00 	nop 
4000e930:	b0 10 00 02 	mov  %g2, %i0
4000e934:	b2 10 00 03 	mov  %g3, %i1
4000e938:	81 c7 e0 08 	ret 
4000e93c:	81 e8 00 00 	restore 
4000e940:	12 80 00 07 	bne  4000e95c <__umoddi3+0x11c>
4000e944:	86 10 00 19 	mov  %i1, %g3
4000e948:	92 10 20 00 	clr  %o1
4000e94c:	7f ff fd 90 	call  4000df8c <.udiv>
4000e950:	90 10 20 01 	mov  1, %o0
4000e954:	b6 10 00 08 	mov  %o0, %i3
4000e958:	86 10 00 19 	mov  %i1, %g3
4000e95c:	84 10 20 00 	clr  %g2
4000e960:	82 10 20 20 	mov  0x20, %g1
4000e964:	80 a0 80 1b 	cmp  %g2, %i3
4000e968:	0a 80 00 0c 	bcs  4000e998 <__umoddi3+0x158>
4000e96c:	b0 c6 00 18 	addxcc  %i0, %i0, %i0
4000e970:	84 20 80 1b 	sub  %g2, %i3, %g2
4000e974:	84 40 80 02 	addx  %g2, %g2, %g2
4000e978:	82 a0 60 01 	deccc  %g1
4000e97c:	12 bf ff fb 	bne  4000e968 <__umoddi3+0x128>
4000e980:	80 a0 80 1b 	cmp  %g2, %i3
4000e984:	0a 80 00 0b 	bcs  4000e9b0 <__umoddi3+0x170>
4000e988:	b0 c6 00 18 	addxcc  %i0, %i0, %i0
4000e98c:	10 80 00 09 	b  4000e9b0 <__umoddi3+0x170>
4000e990:	84 20 80 1b 	sub  %g2, %i3, %g2
4000e994:	84 20 80 1b 	sub  %g2, %i3, %g2
4000e998:	84 c0 80 02 	addxcc  %g2, %g2, %g2
4000e99c:	1a bf ff f8 	bcc  4000e97c <__umoddi3+0x13c>
4000e9a0:	82 a0 60 01 	deccc  %g1
4000e9a4:	12 bf ff fc 	bne  4000e994 <__umoddi3+0x154>
4000e9a8:	b0 86 00 18 	addcc  %i0, %i0, %i0
4000e9ac:	84 20 80 1b 	sub  %g2, %i3, %g2
4000e9b0:	b0 3e 20 00 	xnor  %i0, 0, %i0
4000e9b4:	b0 10 20 00 	clr  %i0
4000e9b8:	b2 10 00 02 	mov  %g2, %i1
4000e9bc:	82 10 20 20 	mov  0x20, %g1
4000e9c0:	80 a6 40 1b 	cmp  %i1, %i3
4000e9c4:	0a 80 00 0c 	bcs  4000e9f4 <__umoddi3+0x1b4>
4000e9c8:	86 c0 c0 03 	addxcc  %g3, %g3, %g3
4000e9cc:	b2 26 40 1b 	sub  %i1, %i3, %i1
4000e9d0:	b2 46 40 19 	addx  %i1, %i1, %i1
4000e9d4:	82 a0 60 01 	deccc  %g1
4000e9d8:	12 bf ff fb 	bne  4000e9c4 <__umoddi3+0x184>
4000e9dc:	80 a6 40 1b 	cmp  %i1, %i3
4000e9e0:	0a 80 00 0b 	bcs  4000ea0c <__umoddi3+0x1cc>
4000e9e4:	86 c0 c0 03 	addxcc  %g3, %g3, %g3
4000e9e8:	10 80 00 09 	b  4000ea0c <__umoddi3+0x1cc>
4000e9ec:	b2 26 40 1b 	sub  %i1, %i3, %i1
4000e9f0:	b2 26 40 1b 	sub  %i1, %i3, %i1
4000e9f4:	b2 c6 40 19 	addxcc  %i1, %i1, %i1
4000e9f8:	1a bf ff f8 	bcc  4000e9d8 <__umoddi3+0x198>
4000e9fc:	82 a0 60 01 	deccc  %g1
4000ea00:	12 bf ff fc 	bne  4000e9f0 <__umoddi3+0x1b0>
4000ea04:	86 80 c0 03 	addcc  %g3, %g3, %g3
4000ea08:	b2 26 40 1b 	sub  %i1, %i3, %i1
4000ea0c:	86 38 e0 00 	xnor  %g3, 0, %g3
4000ea10:	30 bf ff aa 	b,a   4000e8b8 <__umoddi3+0x78>
4000ea14:	28 80 00 63 	bleu,a   4000eba0 <__umoddi3+0x360>
4000ea18:	82 10 00 1a 	mov  %i2, %g1
4000ea1c:	83 36 a0 08 	srl  %i2, 8, %g1
4000ea20:	10 bf ff b7 	b  4000e8fc <__umoddi3+0xbc>
4000ea24:	b8 10 20 08 	mov  8, %i4
4000ea28:	86 a6 40 1b 	subcc  %i1, %i3, %g3
4000ea2c:	b0 66 00 1a 	subx  %i0, %i2, %i0
4000ea30:	84 10 00 18 	mov  %i0, %g2
4000ea34:	b2 10 00 03 	mov  %g3, %i1
4000ea38:	10 bf ff c0 	b  4000e938 <__umoddi3+0xf8>
4000ea3c:	b0 10 00 02 	mov  %g2, %i0
4000ea40:	b5 2e 80 1d 	sll  %i2, %i5, %i2
4000ea44:	b4 10 40 1a 	or  %g1, %i2, %i2
4000ea48:	83 2e 00 1d 	sll  %i0, %i5, %g1
4000ea4c:	87 36 00 04 	srl  %i0, %g4, %g3
4000ea50:	85 36 40 04 	srl  %i1, %g4, %g2
4000ea54:	b7 2e c0 1d 	sll  %i3, %i5, %i3
4000ea58:	b0 10 80 01 	or  %g2, %g1, %i0
4000ea5c:	99 2e 40 1d 	sll  %i1, %i5, %o4
4000ea60:	82 10 20 20 	mov  0x20, %g1
4000ea64:	80 a0 c0 1a 	cmp  %g3, %i2
4000ea68:	0a 80 00 0c 	bcs  4000ea98 <__umoddi3+0x258>
4000ea6c:	b0 c6 00 18 	addxcc  %i0, %i0, %i0
4000ea70:	86 20 c0 1a 	sub  %g3, %i2, %g3
4000ea74:	86 40 c0 03 	addx  %g3, %g3, %g3
4000ea78:	82 a0 60 01 	deccc  %g1
4000ea7c:	12 bf ff fb 	bne  4000ea68 <__umoddi3+0x228>
4000ea80:	80 a0 c0 1a 	cmp  %g3, %i2
4000ea84:	0a 80 00 0b 	bcs  4000eab0 <__umoddi3+0x270>
4000ea88:	b0 c6 00 18 	addxcc  %i0, %i0, %i0
4000ea8c:	10 80 00 09 	b  4000eab0 <__umoddi3+0x270>
4000ea90:	86 20 c0 1a 	sub  %g3, %i2, %g3
4000ea94:	86 20 c0 1a 	sub  %g3, %i2, %g3
4000ea98:	86 c0 c0 03 	addxcc  %g3, %g3, %g3
4000ea9c:	1a bf ff f8 	bcc  4000ea7c <__umoddi3+0x23c>
4000eaa0:	82 a0 60 01 	deccc  %g1
4000eaa4:	12 bf ff fc 	bne  4000ea94 <__umoddi3+0x254>
4000eaa8:	b0 86 00 18 	addcc  %i0, %i0, %i0
4000eaac:	86 20 c0 1a 	sub  %g3, %i2, %g3
4000eab0:	b0 3e 20 00 	xnor  %i0, 0, %i0
4000eab4:	81 80 00 18 	wr  %i0, %y
4000eab8:	9b 3e e0 1f 	sra  %i3, 0x1f, %o5
4000eabc:	9a 0e 00 0d 	and  %i0, %o5, %o5
4000eac0:	82 88 20 00 	andcc  %g0, 0, %g1
4000eac4:	83 20 40 1b 	mulscc  %g1, %i3, %g1
4000eac8:	83 20 40 1b 	mulscc  %g1, %i3, %g1
4000eacc:	83 20 40 1b 	mulscc  %g1, %i3, %g1
4000ead0:	83 20 40 1b 	mulscc  %g1, %i3, %g1
4000ead4:	83 20 40 1b 	mulscc  %g1, %i3, %g1
4000ead8:	83 20 40 1b 	mulscc  %g1, %i3, %g1
4000eadc:	83 20 40 1b 	mulscc  %g1, %i3, %g1
4000eae0:	83 20 40 1b 	mulscc  %g1, %i3, %g1
4000eae4:	83 20 40 1b 	mulscc  %g1, %i3, %g1
4000eae8:	83 20 40 1b 	mulscc  %g1, %i3, %g1
4000eaec:	83 20 40 1b 	mulscc  %g1, %i3, %g1
4000eaf0:	83 20 40 1b 	mulscc  %g1, %i3, %g1
4000eaf4:	83 20 40 1b 	mulscc  %g1, %i3, %g1
4000eaf8:	83 20 40 1b 	mulscc  %g1, %i3, %g1
4000eafc:	83 20 40 1b 	mulscc  %g1, %i3, %g1
4000eb00:	83 20 40 1b 	mulscc  %g1, %i3, %g1
4000eb04:	83 20 40 1b 	mulscc  %g1, %i3, %g1
4000eb08:	83 20 40 1b 	mulscc  %g1, %i3, %g1
4000eb0c:	83 20 40 1b 	mulscc  %g1, %i3, %g1
4000eb10:	83 20 40 1b 	mulscc  %g1, %i3, %g1
4000eb14:	83 20 40 1b 	mulscc  %g1, %i3, %g1
4000eb18:	83 20 40 1b 	mulscc  %g1, %i3, %g1
4000eb1c:	83 20 40 1b 	mulscc  %g1, %i3, %g1
4000eb20:	83 20 40 1b 	mulscc  %g1, %i3, %g1
4000eb24:	83 20 40 1b 	mulscc  %g1, %i3, %g1
4000eb28:	83 20 40 1b 	mulscc  %g1, %i3, %g1
4000eb2c:	83 20 40 1b 	mulscc  %g1, %i3, %g1
4000eb30:	83 20 40 1b 	mulscc  %g1, %i3, %g1
4000eb34:	83 20 40 1b 	mulscc  %g1, %i3, %g1
4000eb38:	83 20 40 1b 	mulscc  %g1, %i3, %g1
4000eb3c:	83 20 40 1b 	mulscc  %g1, %i3, %g1
4000eb40:	83 20 40 1b 	mulscc  %g1, %i3, %g1
4000eb44:	83 20 60 00 	mulscc  %g1, 0, %g1
4000eb48:	84 00 40 0d 	add  %g1, %o5, %g2
4000eb4c:	9f 40 00 00 	rd  %y, %o7
4000eb50:	82 10 00 02 	mov  %g2, %g1
4000eb54:	80 a0 c0 02 	cmp  %g3, %g2
4000eb58:	0a 80 00 06 	bcs  4000eb70 <__umoddi3+0x330>
4000eb5c:	b0 10 00 0f 	mov  %o7, %i0
4000eb60:	12 80 00 08 	bne  4000eb80 <__umoddi3+0x340>
4000eb64:	80 a3 00 0f 	cmp  %o4, %o7
4000eb68:	1a 80 00 06 	bcc  4000eb80 <__umoddi3+0x340>
4000eb6c:	01 00 00 00 	nop 
4000eb70:	b8 a3 c0 1b 	subcc  %o7, %i3, %i4
4000eb74:	b0 60 80 1a 	subx  %g2, %i2, %i0
4000eb78:	82 10 00 18 	mov  %i0, %g1
4000eb7c:	b0 10 00 1c 	mov  %i4, %i0
4000eb80:	b2 a3 00 18 	subcc  %o4, %i0, %i1
4000eb84:	b0 60 c0 01 	subx  %g3, %g1, %i0
4000eb88:	83 2e 00 04 	sll  %i0, %g4, %g1
4000eb8c:	b3 36 40 1d 	srl  %i1, %i5, %i1
4000eb90:	b1 36 00 1d 	srl  %i0, %i5, %i0
4000eb94:	b2 10 40 19 	or  %g1, %i1, %i1
4000eb98:	81 c7 e0 08 	ret 
4000eb9c:	81 e8 00 00 	restore 
4000eba0:	10 bf ff 57 	b  4000e8fc <__umoddi3+0xbc>
4000eba4:	b8 10 20 00 	clr  %i4
4000eba8:	10 bf ff 55 	b  4000e8fc <__umoddi3+0xbc>
4000ebac:	b8 10 20 10 	mov  0x10, %i4

4000ebb0 <__do_global_ctors_aux>:
4000ebb0:	9d e3 bf a0 	save  %sp, -96, %sp
4000ebb4:	3b 10 00 3b 	sethi  %hi(0x4000ec00), %i5
4000ebb8:	ba 17 60 68 	or  %i5, 0x68, %i5	! 4000ec68 <__CTOR_END__>
4000ebbc:	c2 07 7f fc 	ld  [ %i5 + -4 ], %g1
4000ebc0:	80 a0 7f ff 	cmp  %g1, -1
4000ebc4:	02 80 00 08 	be  4000ebe4 <__do_global_ctors_aux+0x34>
4000ebc8:	ba 07 7f fc 	add  %i5, -4, %i5
4000ebcc:	9f c0 40 00 	call  %g1
4000ebd0:	ba 07 7f fc 	add  %i5, -4, %i5
4000ebd4:	c2 07 40 00 	ld  [ %i5 ], %g1
4000ebd8:	80 a0 7f ff 	cmp  %g1, -1
4000ebdc:	12 bf ff fc 	bne  4000ebcc <__do_global_ctors_aux+0x1c>
4000ebe0:	01 00 00 00 	nop 
4000ebe4:	81 c7 e0 08 	ret 
4000ebe8:	81 e8 00 00 	restore 

4000ebec <call___do_global_ctors_aux>:
4000ebec:	9d e3 bf a0 	save  %sp, -96, %sp
4000ebf0:	81 c7 e0 08 	ret 
4000ebf4:	81 e8 00 00 	restore 
	...

4000ec00 <__EH_FRAME_BEGIN__>:
4000ec00:	00 00 00 10 00 00 00 00 01 7a 52 00 04 7c 0f 01     .........zR..|..
4000ec10:	1b 0c 0e 00 00 00 00 14 00 00 00 18 ff ff f8 d0     ................
4000ec20:	00 00 03 54 00 41 2d 09 0f 1f 0d 1e 00 00 00 10     ...T.A-.........
4000ec30:	00 00 00 00 01 7a 52 00 04 7c 0f 01 1b 0c 0e 00     .....zR..|......
4000ec40:	00 00 00 14 00 00 00 18 ff ff fb f8 00 00 03 70     ...............p
4000ec50:	00 41 2d 09 0f 1f 0d 1e                             .A-.....

4000ec58 <__FRAME_END__>:
	...

4000ec60 <___CTOR_LIST__>:
4000ec60:	00 00 00 02 	unimp  0x2

4000ec64 <__CTOR_LIST__>:
4000ec64:	ff ff ff ff                                         ....

4000ec68 <__CTOR_END__>:
	...

4000ec70 <___CTOR_END__>:
4000ec70:	00 00 00 02 	unimp  0x2

4000ec74 <__DTOR_LIST__>:
4000ec74:	ff ff ff ff                                         ....

4000ec78 <__DTOR_END__>:
	...

4000ec80 <_init>:
4000ec80:	9d e3 bf a0 	save  %sp, -96, %sp
4000ec84:	7f ff c9 64 	call  40001214 <frame_dummy>
4000ec88:	01 00 00 00 	nop 
4000ec8c:	7f ff ff c9 	call  4000ebb0 <__do_global_ctors_aux>
4000ec90:	01 00 00 00 	nop 
4000ec94:	81 e8 00 00 	restore 
4000ec98:	81 c3 e0 08 	retl 
4000ec9c:	01 00 00 00 	nop 

4000eca0 <_fini>:
4000eca0:	9d e3 bf a0 	save  %sp, -96, %sp
4000eca4:	7f ff c9 2e 	call  4000115c <__do_global_dtors_aux>
4000eca8:	01 00 00 00 	nop 
4000ecac:	81 e8 00 00 	restore 
4000ecb0:	81 c3 e0 08 	retl 
4000ecb4:	01 00 00 00 	nop 
	...
