
elf/test1_checksum.elf:     file format elf32-sparc


Disassembly of section .text:

40000000 <__bcc_entry_point>:
40000000:	88 10 00 00 	mov  %g0, %g4
40000004:	09 10 00 04 	sethi  %hi(0x40001000), %g4
40000008:	81 c1 22 c0 	jmp  %g4 + 0x2c0	! 400012c0 <__bcc_trap_reset_mvt>
4000000c:	01 00 00 00 	nop 
40000010:	91 d0 20 00 	ta  0
40000014:	01 00 00 00 	nop 
40000018:	01 00 00 00 	nop 
4000001c:	01 00 00 00 	nop 
40000020:	91 d0 20 00 	ta  0
40000024:	01 00 00 00 	nop 
40000028:	01 00 00 00 	nop 
4000002c:	01 00 00 00 	nop 
40000030:	91 d0 20 00 	ta  0
40000034:	01 00 00 00 	nop 
40000038:	01 00 00 00 	nop 
4000003c:	01 00 00 00 	nop 
40000040:	91 d0 20 00 	ta  0
40000044:	01 00 00 00 	nop 
40000048:	01 00 00 00 	nop 
4000004c:	01 00 00 00 	nop 
40000050:	a1 48 00 00 	rd  %psr, %l0
40000054:	29 10 00 04 	sethi  %hi(0x40001000), %l4
40000058:	81 c5 23 50 	jmp  %l4 + 0x350	! 40001350 <__bcc_trap_window_overflow>
4000005c:	01 00 00 00 	nop 
40000060:	a1 48 00 00 	rd  %psr, %l0
40000064:	29 10 00 04 	sethi  %hi(0x40001000), %l4
40000068:	81 c5 23 a0 	jmp  %l4 + 0x3a0	! 400013a0 <__bcc_trap_window_underflow>
4000006c:	01 00 00 00 	nop 
40000070:	91 d0 20 00 	ta  0
40000074:	01 00 00 00 	nop 
40000078:	01 00 00 00 	nop 
4000007c:	01 00 00 00 	nop 
40000080:	91 d0 20 00 	ta  0
40000084:	01 00 00 00 	nop 
40000088:	01 00 00 00 	nop 
4000008c:	01 00 00 00 	nop 
40000090:	91 d0 20 00 	ta  0
40000094:	01 00 00 00 	nop 
40000098:	01 00 00 00 	nop 
4000009c:	01 00 00 00 	nop 
400000a0:	91 d0 20 00 	ta  0
400000a4:	01 00 00 00 	nop 
400000a8:	01 00 00 00 	nop 
400000ac:	01 00 00 00 	nop 
400000b0:	91 d0 20 00 	ta  0
400000b4:	01 00 00 00 	nop 
400000b8:	01 00 00 00 	nop 
400000bc:	01 00 00 00 	nop 
400000c0:	91 d0 20 00 	ta  0
400000c4:	01 00 00 00 	nop 
400000c8:	01 00 00 00 	nop 
400000cc:	01 00 00 00 	nop 
400000d0:	91 d0 20 00 	ta  0
400000d4:	01 00 00 00 	nop 
400000d8:	01 00 00 00 	nop 
400000dc:	01 00 00 00 	nop 
400000e0:	91 d0 20 00 	ta  0
400000e4:	01 00 00 00 	nop 
400000e8:	01 00 00 00 	nop 
400000ec:	01 00 00 00 	nop 
400000f0:	91 d0 20 00 	ta  0
400000f4:	01 00 00 00 	nop 
400000f8:	01 00 00 00 	nop 
400000fc:	01 00 00 00 	nop 
40000100:	91 d0 20 00 	ta  0
40000104:	01 00 00 00 	nop 
40000108:	01 00 00 00 	nop 
4000010c:	01 00 00 00 	nop 
40000110:	a1 48 00 00 	rd  %psr, %l0
40000114:	29 10 00 05 	sethi  %hi(0x40001400), %l4
40000118:	81 c5 20 04 	jmp  %l4 + 4	! 40001404 <__bcc_trap_interrupt>
4000011c:	a6 10 20 01 	mov  1, %l3
40000120:	a1 48 00 00 	rd  %psr, %l0
40000124:	29 10 00 05 	sethi  %hi(0x40001400), %l4
40000128:	81 c5 20 04 	jmp  %l4 + 4	! 40001404 <__bcc_trap_interrupt>
4000012c:	a6 10 20 02 	mov  2, %l3
40000130:	a1 48 00 00 	rd  %psr, %l0
40000134:	29 10 00 05 	sethi  %hi(0x40001400), %l4
40000138:	81 c5 20 04 	jmp  %l4 + 4	! 40001404 <__bcc_trap_interrupt>
4000013c:	a6 10 20 03 	mov  3, %l3
40000140:	a1 48 00 00 	rd  %psr, %l0
40000144:	29 10 00 05 	sethi  %hi(0x40001400), %l4
40000148:	81 c5 20 04 	jmp  %l4 + 4	! 40001404 <__bcc_trap_interrupt>
4000014c:	a6 10 20 04 	mov  4, %l3
40000150:	a1 48 00 00 	rd  %psr, %l0
40000154:	29 10 00 05 	sethi  %hi(0x40001400), %l4
40000158:	81 c5 20 04 	jmp  %l4 + 4	! 40001404 <__bcc_trap_interrupt>
4000015c:	a6 10 20 05 	mov  5, %l3
40000160:	a1 48 00 00 	rd  %psr, %l0
40000164:	29 10 00 05 	sethi  %hi(0x40001400), %l4
40000168:	81 c5 20 04 	jmp  %l4 + 4	! 40001404 <__bcc_trap_interrupt>
4000016c:	a6 10 20 06 	mov  6, %l3
40000170:	a1 48 00 00 	rd  %psr, %l0
40000174:	29 10 00 05 	sethi  %hi(0x40001400), %l4
40000178:	81 c5 20 04 	jmp  %l4 + 4	! 40001404 <__bcc_trap_interrupt>
4000017c:	a6 10 20 07 	mov  7, %l3
40000180:	a1 48 00 00 	rd  %psr, %l0
40000184:	29 10 00 05 	sethi  %hi(0x40001400), %l4
40000188:	81 c5 20 04 	jmp  %l4 + 4	! 40001404 <__bcc_trap_interrupt>
4000018c:	a6 10 20 08 	mov  8, %l3
40000190:	a1 48 00 00 	rd  %psr, %l0
40000194:	29 10 00 05 	sethi  %hi(0x40001400), %l4
40000198:	81 c5 20 04 	jmp  %l4 + 4	! 40001404 <__bcc_trap_interrupt>
4000019c:	a6 10 20 09 	mov  9, %l3
400001a0:	a1 48 00 00 	rd  %psr, %l0
400001a4:	29 10 00 05 	sethi  %hi(0x40001400), %l4
400001a8:	81 c5 20 04 	jmp  %l4 + 4	! 40001404 <__bcc_trap_interrupt>
400001ac:	a6 10 20 0a 	mov  0xa, %l3
400001b0:	a1 48 00 00 	rd  %psr, %l0
400001b4:	29 10 00 05 	sethi  %hi(0x40001400), %l4
400001b8:	81 c5 20 04 	jmp  %l4 + 4	! 40001404 <__bcc_trap_interrupt>
400001bc:	a6 10 20 0b 	mov  0xb, %l3
400001c0:	a1 48 00 00 	rd  %psr, %l0
400001c4:	29 10 00 05 	sethi  %hi(0x40001400), %l4
400001c8:	81 c5 20 04 	jmp  %l4 + 4	! 40001404 <__bcc_trap_interrupt>
400001cc:	a6 10 20 0c 	mov  0xc, %l3
400001d0:	a1 48 00 00 	rd  %psr, %l0
400001d4:	29 10 00 05 	sethi  %hi(0x40001400), %l4
400001d8:	81 c5 20 04 	jmp  %l4 + 4	! 40001404 <__bcc_trap_interrupt>
400001dc:	a6 10 20 0d 	mov  0xd, %l3
400001e0:	a1 48 00 00 	rd  %psr, %l0
400001e4:	29 10 00 05 	sethi  %hi(0x40001400), %l4
400001e8:	81 c5 20 04 	jmp  %l4 + 4	! 40001404 <__bcc_trap_interrupt>
400001ec:	a6 10 20 0e 	mov  0xe, %l3
400001f0:	a1 48 00 00 	rd  %psr, %l0
400001f4:	29 10 00 05 	sethi  %hi(0x40001400), %l4
400001f8:	81 c5 20 04 	jmp  %l4 + 4	! 40001404 <__bcc_trap_interrupt>
400001fc:	a6 10 20 0f 	mov  0xf, %l3
40000200:	91 d0 20 00 	ta  0
40000204:	01 00 00 00 	nop 
40000208:	01 00 00 00 	nop 
4000020c:	01 00 00 00 	nop 
40000210:	91 d0 20 00 	ta  0
40000214:	01 00 00 00 	nop 
40000218:	01 00 00 00 	nop 
4000021c:	01 00 00 00 	nop 
40000220:	91 d0 20 00 	ta  0
40000224:	01 00 00 00 	nop 
40000228:	01 00 00 00 	nop 
4000022c:	01 00 00 00 	nop 
40000230:	91 d0 20 00 	ta  0
40000234:	01 00 00 00 	nop 
40000238:	01 00 00 00 	nop 
4000023c:	01 00 00 00 	nop 
40000240:	91 d0 20 00 	ta  0
40000244:	01 00 00 00 	nop 
40000248:	01 00 00 00 	nop 
4000024c:	01 00 00 00 	nop 
40000250:	91 d0 20 00 	ta  0
40000254:	01 00 00 00 	nop 
40000258:	01 00 00 00 	nop 
4000025c:	01 00 00 00 	nop 
40000260:	91 d0 20 00 	ta  0
40000264:	01 00 00 00 	nop 
40000268:	01 00 00 00 	nop 
4000026c:	01 00 00 00 	nop 
40000270:	91 d0 20 00 	ta  0
40000274:	01 00 00 00 	nop 
40000278:	01 00 00 00 	nop 
4000027c:	01 00 00 00 	nop 
40000280:	91 d0 20 00 	ta  0
40000284:	01 00 00 00 	nop 
40000288:	01 00 00 00 	nop 
4000028c:	01 00 00 00 	nop 
40000290:	91 d0 20 00 	ta  0
40000294:	01 00 00 00 	nop 
40000298:	01 00 00 00 	nop 
4000029c:	01 00 00 00 	nop 
400002a0:	91 d0 20 00 	ta  0
400002a4:	01 00 00 00 	nop 
400002a8:	01 00 00 00 	nop 
400002ac:	01 00 00 00 	nop 
400002b0:	91 d0 20 00 	ta  0
400002b4:	01 00 00 00 	nop 
400002b8:	01 00 00 00 	nop 
400002bc:	01 00 00 00 	nop 
400002c0:	91 d0 20 00 	ta  0
400002c4:	01 00 00 00 	nop 
400002c8:	01 00 00 00 	nop 
400002cc:	01 00 00 00 	nop 
400002d0:	91 d0 20 00 	ta  0
400002d4:	01 00 00 00 	nop 
400002d8:	01 00 00 00 	nop 
400002dc:	01 00 00 00 	nop 
400002e0:	91 d0 20 00 	ta  0
400002e4:	01 00 00 00 	nop 
400002e8:	01 00 00 00 	nop 
400002ec:	01 00 00 00 	nop 
400002f0:	91 d0 20 00 	ta  0
400002f4:	01 00 00 00 	nop 
400002f8:	01 00 00 00 	nop 
400002fc:	01 00 00 00 	nop 
40000300:	91 d0 20 00 	ta  0
40000304:	01 00 00 00 	nop 
40000308:	01 00 00 00 	nop 
4000030c:	01 00 00 00 	nop 
40000310:	91 d0 20 00 	ta  0
40000314:	01 00 00 00 	nop 
40000318:	01 00 00 00 	nop 
4000031c:	01 00 00 00 	nop 
40000320:	91 d0 20 00 	ta  0
40000324:	01 00 00 00 	nop 
40000328:	01 00 00 00 	nop 
4000032c:	01 00 00 00 	nop 
40000330:	91 d0 20 00 	ta  0
40000334:	01 00 00 00 	nop 
40000338:	01 00 00 00 	nop 
4000033c:	01 00 00 00 	nop 
40000340:	91 d0 20 00 	ta  0
40000344:	01 00 00 00 	nop 
40000348:	01 00 00 00 	nop 
4000034c:	01 00 00 00 	nop 
40000350:	91 d0 20 00 	ta  0
40000354:	01 00 00 00 	nop 
40000358:	01 00 00 00 	nop 
4000035c:	01 00 00 00 	nop 
40000360:	91 d0 20 00 	ta  0
40000364:	01 00 00 00 	nop 
40000368:	01 00 00 00 	nop 
4000036c:	01 00 00 00 	nop 
40000370:	91 d0 20 00 	ta  0
40000374:	01 00 00 00 	nop 
40000378:	01 00 00 00 	nop 
4000037c:	01 00 00 00 	nop 
40000380:	91 d0 20 00 	ta  0
40000384:	01 00 00 00 	nop 
40000388:	01 00 00 00 	nop 
4000038c:	01 00 00 00 	nop 
40000390:	91 d0 20 00 	ta  0
40000394:	01 00 00 00 	nop 
40000398:	01 00 00 00 	nop 
4000039c:	01 00 00 00 	nop 
400003a0:	91 d0 20 00 	ta  0
400003a4:	01 00 00 00 	nop 
400003a8:	01 00 00 00 	nop 
400003ac:	01 00 00 00 	nop 
400003b0:	91 d0 20 00 	ta  0
400003b4:	01 00 00 00 	nop 
400003b8:	01 00 00 00 	nop 
400003bc:	01 00 00 00 	nop 
400003c0:	91 d0 20 00 	ta  0
400003c4:	01 00 00 00 	nop 
400003c8:	01 00 00 00 	nop 
400003cc:	01 00 00 00 	nop 
400003d0:	91 d0 20 00 	ta  0
400003d4:	01 00 00 00 	nop 
400003d8:	01 00 00 00 	nop 
400003dc:	01 00 00 00 	nop 
400003e0:	91 d0 20 00 	ta  0
400003e4:	01 00 00 00 	nop 
400003e8:	01 00 00 00 	nop 
400003ec:	01 00 00 00 	nop 
400003f0:	91 d0 20 00 	ta  0
400003f4:	01 00 00 00 	nop 
400003f8:	01 00 00 00 	nop 
400003fc:	01 00 00 00 	nop 
40000400:	91 d0 20 00 	ta  0
40000404:	01 00 00 00 	nop 
40000408:	01 00 00 00 	nop 
4000040c:	01 00 00 00 	nop 
40000410:	91 d0 20 00 	ta  0
40000414:	01 00 00 00 	nop 
40000418:	01 00 00 00 	nop 
4000041c:	01 00 00 00 	nop 
40000420:	91 d0 20 00 	ta  0
40000424:	01 00 00 00 	nop 
40000428:	01 00 00 00 	nop 
4000042c:	01 00 00 00 	nop 
40000430:	91 d0 20 00 	ta  0
40000434:	01 00 00 00 	nop 
40000438:	01 00 00 00 	nop 
4000043c:	01 00 00 00 	nop 
40000440:	91 d0 20 00 	ta  0
40000444:	01 00 00 00 	nop 
40000448:	01 00 00 00 	nop 
4000044c:	01 00 00 00 	nop 
40000450:	91 d0 20 00 	ta  0
40000454:	01 00 00 00 	nop 
40000458:	01 00 00 00 	nop 
4000045c:	01 00 00 00 	nop 
40000460:	91 d0 20 00 	ta  0
40000464:	01 00 00 00 	nop 
40000468:	01 00 00 00 	nop 
4000046c:	01 00 00 00 	nop 
40000470:	91 d0 20 00 	ta  0
40000474:	01 00 00 00 	nop 
40000478:	01 00 00 00 	nop 
4000047c:	01 00 00 00 	nop 
40000480:	91 d0 20 00 	ta  0
40000484:	01 00 00 00 	nop 
40000488:	01 00 00 00 	nop 
4000048c:	01 00 00 00 	nop 
40000490:	91 d0 20 00 	ta  0
40000494:	01 00 00 00 	nop 
40000498:	01 00 00 00 	nop 
4000049c:	01 00 00 00 	nop 
400004a0:	91 d0 20 00 	ta  0
400004a4:	01 00 00 00 	nop 
400004a8:	01 00 00 00 	nop 
400004ac:	01 00 00 00 	nop 
400004b0:	91 d0 20 00 	ta  0
400004b4:	01 00 00 00 	nop 
400004b8:	01 00 00 00 	nop 
400004bc:	01 00 00 00 	nop 
400004c0:	91 d0 20 00 	ta  0
400004c4:	01 00 00 00 	nop 
400004c8:	01 00 00 00 	nop 
400004cc:	01 00 00 00 	nop 
400004d0:	91 d0 20 00 	ta  0
400004d4:	01 00 00 00 	nop 
400004d8:	01 00 00 00 	nop 
400004dc:	01 00 00 00 	nop 
400004e0:	91 d0 20 00 	ta  0
400004e4:	01 00 00 00 	nop 
400004e8:	01 00 00 00 	nop 
400004ec:	01 00 00 00 	nop 
400004f0:	91 d0 20 00 	ta  0
400004f4:	01 00 00 00 	nop 
400004f8:	01 00 00 00 	nop 
400004fc:	01 00 00 00 	nop 
40000500:	91 d0 20 00 	ta  0
40000504:	01 00 00 00 	nop 
40000508:	01 00 00 00 	nop 
4000050c:	01 00 00 00 	nop 
40000510:	91 d0 20 00 	ta  0
40000514:	01 00 00 00 	nop 
40000518:	01 00 00 00 	nop 
4000051c:	01 00 00 00 	nop 
40000520:	91 d0 20 00 	ta  0
40000524:	01 00 00 00 	nop 
40000528:	01 00 00 00 	nop 
4000052c:	01 00 00 00 	nop 
40000530:	91 d0 20 00 	ta  0
40000534:	01 00 00 00 	nop 
40000538:	01 00 00 00 	nop 
4000053c:	01 00 00 00 	nop 
40000540:	91 d0 20 00 	ta  0
40000544:	01 00 00 00 	nop 
40000548:	01 00 00 00 	nop 
4000054c:	01 00 00 00 	nop 
40000550:	91 d0 20 00 	ta  0
40000554:	01 00 00 00 	nop 
40000558:	01 00 00 00 	nop 
4000055c:	01 00 00 00 	nop 
40000560:	91 d0 20 00 	ta  0
40000564:	01 00 00 00 	nop 
40000568:	01 00 00 00 	nop 
4000056c:	01 00 00 00 	nop 
40000570:	91 d0 20 00 	ta  0
40000574:	01 00 00 00 	nop 
40000578:	01 00 00 00 	nop 
4000057c:	01 00 00 00 	nop 
40000580:	91 d0 20 00 	ta  0
40000584:	01 00 00 00 	nop 
40000588:	01 00 00 00 	nop 
4000058c:	01 00 00 00 	nop 
40000590:	91 d0 20 00 	ta  0
40000594:	01 00 00 00 	nop 
40000598:	01 00 00 00 	nop 
4000059c:	01 00 00 00 	nop 
400005a0:	91 d0 20 00 	ta  0
400005a4:	01 00 00 00 	nop 
400005a8:	01 00 00 00 	nop 
400005ac:	01 00 00 00 	nop 
400005b0:	91 d0 20 00 	ta  0
400005b4:	01 00 00 00 	nop 
400005b8:	01 00 00 00 	nop 
400005bc:	01 00 00 00 	nop 
400005c0:	91 d0 20 00 	ta  0
400005c4:	01 00 00 00 	nop 
400005c8:	01 00 00 00 	nop 
400005cc:	01 00 00 00 	nop 
400005d0:	91 d0 20 00 	ta  0
400005d4:	01 00 00 00 	nop 
400005d8:	01 00 00 00 	nop 
400005dc:	01 00 00 00 	nop 
400005e0:	91 d0 20 00 	ta  0
400005e4:	01 00 00 00 	nop 
400005e8:	01 00 00 00 	nop 
400005ec:	01 00 00 00 	nop 
400005f0:	91 d0 20 00 	ta  0
400005f4:	01 00 00 00 	nop 
400005f8:	01 00 00 00 	nop 
400005fc:	01 00 00 00 	nop 
40000600:	91 d0 20 00 	ta  0
40000604:	01 00 00 00 	nop 
40000608:	01 00 00 00 	nop 
4000060c:	01 00 00 00 	nop 
40000610:	91 d0 20 00 	ta  0
40000614:	01 00 00 00 	nop 
40000618:	01 00 00 00 	nop 
4000061c:	01 00 00 00 	nop 
40000620:	91 d0 20 00 	ta  0
40000624:	01 00 00 00 	nop 
40000628:	01 00 00 00 	nop 
4000062c:	01 00 00 00 	nop 
40000630:	91 d0 20 00 	ta  0
40000634:	01 00 00 00 	nop 
40000638:	01 00 00 00 	nop 
4000063c:	01 00 00 00 	nop 
40000640:	91 d0 20 00 	ta  0
40000644:	01 00 00 00 	nop 
40000648:	01 00 00 00 	nop 
4000064c:	01 00 00 00 	nop 
40000650:	91 d0 20 00 	ta  0
40000654:	01 00 00 00 	nop 
40000658:	01 00 00 00 	nop 
4000065c:	01 00 00 00 	nop 
40000660:	91 d0 20 00 	ta  0
40000664:	01 00 00 00 	nop 
40000668:	01 00 00 00 	nop 
4000066c:	01 00 00 00 	nop 
40000670:	91 d0 20 00 	ta  0
40000674:	01 00 00 00 	nop 
40000678:	01 00 00 00 	nop 
4000067c:	01 00 00 00 	nop 
40000680:	91 d0 20 00 	ta  0
40000684:	01 00 00 00 	nop 
40000688:	01 00 00 00 	nop 
4000068c:	01 00 00 00 	nop 
40000690:	91 d0 20 00 	ta  0
40000694:	01 00 00 00 	nop 
40000698:	01 00 00 00 	nop 
4000069c:	01 00 00 00 	nop 
400006a0:	91 d0 20 00 	ta  0
400006a4:	01 00 00 00 	nop 
400006a8:	01 00 00 00 	nop 
400006ac:	01 00 00 00 	nop 
400006b0:	91 d0 20 00 	ta  0
400006b4:	01 00 00 00 	nop 
400006b8:	01 00 00 00 	nop 
400006bc:	01 00 00 00 	nop 
400006c0:	91 d0 20 00 	ta  0
400006c4:	01 00 00 00 	nop 
400006c8:	01 00 00 00 	nop 
400006cc:	01 00 00 00 	nop 
400006d0:	91 d0 20 00 	ta  0
400006d4:	01 00 00 00 	nop 
400006d8:	01 00 00 00 	nop 
400006dc:	01 00 00 00 	nop 
400006e0:	91 d0 20 00 	ta  0
400006e4:	01 00 00 00 	nop 
400006e8:	01 00 00 00 	nop 
400006ec:	01 00 00 00 	nop 
400006f0:	91 d0 20 00 	ta  0
400006f4:	01 00 00 00 	nop 
400006f8:	01 00 00 00 	nop 
400006fc:	01 00 00 00 	nop 
40000700:	91 d0 20 00 	ta  0
40000704:	01 00 00 00 	nop 
40000708:	01 00 00 00 	nop 
4000070c:	01 00 00 00 	nop 
40000710:	91 d0 20 00 	ta  0
40000714:	01 00 00 00 	nop 
40000718:	01 00 00 00 	nop 
4000071c:	01 00 00 00 	nop 
40000720:	91 d0 20 00 	ta  0
40000724:	01 00 00 00 	nop 
40000728:	01 00 00 00 	nop 
4000072c:	01 00 00 00 	nop 
40000730:	91 d0 20 00 	ta  0
40000734:	01 00 00 00 	nop 
40000738:	01 00 00 00 	nop 
4000073c:	01 00 00 00 	nop 
40000740:	91 d0 20 00 	ta  0
40000744:	01 00 00 00 	nop 
40000748:	01 00 00 00 	nop 
4000074c:	01 00 00 00 	nop 
40000750:	91 d0 20 00 	ta  0
40000754:	01 00 00 00 	nop 
40000758:	01 00 00 00 	nop 
4000075c:	01 00 00 00 	nop 
40000760:	91 d0 20 00 	ta  0
40000764:	01 00 00 00 	nop 
40000768:	01 00 00 00 	nop 
4000076c:	01 00 00 00 	nop 
40000770:	91 d0 20 00 	ta  0
40000774:	01 00 00 00 	nop 
40000778:	01 00 00 00 	nop 
4000077c:	01 00 00 00 	nop 
40000780:	91 d0 20 00 	ta  0
40000784:	01 00 00 00 	nop 
40000788:	01 00 00 00 	nop 
4000078c:	01 00 00 00 	nop 
40000790:	91 d0 20 00 	ta  0
40000794:	01 00 00 00 	nop 
40000798:	01 00 00 00 	nop 
4000079c:	01 00 00 00 	nop 
400007a0:	91 d0 20 00 	ta  0
400007a4:	01 00 00 00 	nop 
400007a8:	01 00 00 00 	nop 
400007ac:	01 00 00 00 	nop 
400007b0:	91 d0 20 00 	ta  0
400007b4:	01 00 00 00 	nop 
400007b8:	01 00 00 00 	nop 
400007bc:	01 00 00 00 	nop 
400007c0:	91 d0 20 00 	ta  0
400007c4:	01 00 00 00 	nop 
400007c8:	01 00 00 00 	nop 
400007cc:	01 00 00 00 	nop 
400007d0:	91 d0 20 00 	ta  0
400007d4:	01 00 00 00 	nop 
400007d8:	01 00 00 00 	nop 
400007dc:	01 00 00 00 	nop 
400007e0:	91 d0 20 00 	ta  0
400007e4:	01 00 00 00 	nop 
400007e8:	01 00 00 00 	nop 
400007ec:	01 00 00 00 	nop 
400007f0:	91 d0 20 00 	ta  0
400007f4:	01 00 00 00 	nop 
400007f8:	01 00 00 00 	nop 
400007fc:	01 00 00 00 	nop 
40000800:	91 d0 20 00 	ta  0
40000804:	01 00 00 00 	nop 
40000808:	01 00 00 00 	nop 
4000080c:	01 00 00 00 	nop 
40000810:	91 d0 20 00 	ta  0
40000814:	01 00 00 00 	nop 
40000818:	01 00 00 00 	nop 
4000081c:	01 00 00 00 	nop 
40000820:	91 d0 20 00 	ta  0
40000824:	01 00 00 00 	nop 
40000828:	01 00 00 00 	nop 
4000082c:	01 00 00 00 	nop 
40000830:	a1 48 00 00 	rd  %psr, %l0
40000834:	29 10 00 05 	sethi  %hi(0x40001400), %l4
40000838:	81 c5 21 b0 	jmp  %l4 + 0x1b0	! 400015b0 <__bcc_trap_flush_windows>
4000083c:	01 00 00 00 	nop 
40000840:	91 d0 20 00 	ta  0
40000844:	01 00 00 00 	nop 
40000848:	01 00 00 00 	nop 
4000084c:	01 00 00 00 	nop 
40000850:	91 d0 20 00 	ta  0
40000854:	01 00 00 00 	nop 
40000858:	01 00 00 00 	nop 
4000085c:	01 00 00 00 	nop 
40000860:	91 d0 20 00 	ta  0
40000864:	01 00 00 00 	nop 
40000868:	01 00 00 00 	nop 
4000086c:	01 00 00 00 	nop 
40000870:	91 d0 20 00 	ta  0
40000874:	01 00 00 00 	nop 
40000878:	01 00 00 00 	nop 
4000087c:	01 00 00 00 	nop 
40000880:	91 d0 20 00 	ta  0
40000884:	01 00 00 00 	nop 
40000888:	01 00 00 00 	nop 
4000088c:	01 00 00 00 	nop 
40000890:	a1 48 00 00 	rd  %psr, %l0
40000894:	29 10 00 05 	sethi  %hi(0x40001400), %l4
40000898:	81 c5 22 38 	jmp  %l4 + 0x238	! 40001638 <__bcc_trap_sw_set_pil>
4000089c:	01 00 00 00 	nop 
400008a0:	91 d0 20 00 	ta  0
400008a4:	01 00 00 00 	nop 
400008a8:	01 00 00 00 	nop 
400008ac:	01 00 00 00 	nop 
400008b0:	91 d0 20 00 	ta  0
400008b4:	01 00 00 00 	nop 
400008b8:	01 00 00 00 	nop 
400008bc:	01 00 00 00 	nop 
400008c0:	91 d0 20 00 	ta  0
400008c4:	01 00 00 00 	nop 
400008c8:	01 00 00 00 	nop 
400008cc:	01 00 00 00 	nop 
400008d0:	91 d0 20 00 	ta  0
400008d4:	01 00 00 00 	nop 
400008d8:	01 00 00 00 	nop 
400008dc:	01 00 00 00 	nop 
400008e0:	91 d0 20 00 	ta  0
400008e4:	01 00 00 00 	nop 
400008e8:	01 00 00 00 	nop 
400008ec:	01 00 00 00 	nop 
400008f0:	91 d0 20 00 	ta  0
400008f4:	01 00 00 00 	nop 
400008f8:	01 00 00 00 	nop 
400008fc:	01 00 00 00 	nop 
40000900:	91 d0 20 00 	ta  0
40000904:	01 00 00 00 	nop 
40000908:	01 00 00 00 	nop 
4000090c:	01 00 00 00 	nop 
40000910:	91 d0 20 00 	ta  0
40000914:	01 00 00 00 	nop 
40000918:	01 00 00 00 	nop 
4000091c:	01 00 00 00 	nop 
40000920:	91 d0 20 00 	ta  0
40000924:	01 00 00 00 	nop 
40000928:	01 00 00 00 	nop 
4000092c:	01 00 00 00 	nop 
40000930:	91 d0 20 00 	ta  0
40000934:	01 00 00 00 	nop 
40000938:	01 00 00 00 	nop 
4000093c:	01 00 00 00 	nop 
40000940:	91 d0 20 00 	ta  0
40000944:	01 00 00 00 	nop 
40000948:	01 00 00 00 	nop 
4000094c:	01 00 00 00 	nop 
40000950:	91 d0 20 00 	ta  0
40000954:	01 00 00 00 	nop 
40000958:	01 00 00 00 	nop 
4000095c:	01 00 00 00 	nop 
40000960:	91 d0 20 00 	ta  0
40000964:	01 00 00 00 	nop 
40000968:	01 00 00 00 	nop 
4000096c:	01 00 00 00 	nop 
40000970:	91 d0 20 00 	ta  0
40000974:	01 00 00 00 	nop 
40000978:	01 00 00 00 	nop 
4000097c:	01 00 00 00 	nop 
40000980:	91 d0 20 00 	ta  0
40000984:	01 00 00 00 	nop 
40000988:	01 00 00 00 	nop 
4000098c:	01 00 00 00 	nop 
40000990:	91 d0 20 00 	ta  0
40000994:	01 00 00 00 	nop 
40000998:	01 00 00 00 	nop 
4000099c:	01 00 00 00 	nop 
400009a0:	91 d0 20 00 	ta  0
400009a4:	01 00 00 00 	nop 
400009a8:	01 00 00 00 	nop 
400009ac:	01 00 00 00 	nop 
400009b0:	91 d0 20 00 	ta  0
400009b4:	01 00 00 00 	nop 
400009b8:	01 00 00 00 	nop 
400009bc:	01 00 00 00 	nop 
400009c0:	91 d0 20 00 	ta  0
400009c4:	01 00 00 00 	nop 
400009c8:	01 00 00 00 	nop 
400009cc:	01 00 00 00 	nop 
400009d0:	91 d0 20 00 	ta  0
400009d4:	01 00 00 00 	nop 
400009d8:	01 00 00 00 	nop 
400009dc:	01 00 00 00 	nop 
400009e0:	91 d0 20 00 	ta  0
400009e4:	01 00 00 00 	nop 
400009e8:	01 00 00 00 	nop 
400009ec:	01 00 00 00 	nop 
400009f0:	91 d0 20 00 	ta  0
400009f4:	01 00 00 00 	nop 
400009f8:	01 00 00 00 	nop 
400009fc:	01 00 00 00 	nop 
40000a00:	91 d0 20 00 	ta  0
40000a04:	01 00 00 00 	nop 
40000a08:	01 00 00 00 	nop 
40000a0c:	01 00 00 00 	nop 
40000a10:	91 d0 20 00 	ta  0
40000a14:	01 00 00 00 	nop 
40000a18:	01 00 00 00 	nop 
40000a1c:	01 00 00 00 	nop 
40000a20:	91 d0 20 00 	ta  0
40000a24:	01 00 00 00 	nop 
40000a28:	01 00 00 00 	nop 
40000a2c:	01 00 00 00 	nop 
40000a30:	91 d0 20 00 	ta  0
40000a34:	01 00 00 00 	nop 
40000a38:	01 00 00 00 	nop 
40000a3c:	01 00 00 00 	nop 
40000a40:	91 d0 20 00 	ta  0
40000a44:	01 00 00 00 	nop 
40000a48:	01 00 00 00 	nop 
40000a4c:	01 00 00 00 	nop 
40000a50:	91 d0 20 00 	ta  0
40000a54:	01 00 00 00 	nop 
40000a58:	01 00 00 00 	nop 
40000a5c:	01 00 00 00 	nop 
40000a60:	91 d0 20 00 	ta  0
40000a64:	01 00 00 00 	nop 
40000a68:	01 00 00 00 	nop 
40000a6c:	01 00 00 00 	nop 
40000a70:	91 d0 20 00 	ta  0
40000a74:	01 00 00 00 	nop 
40000a78:	01 00 00 00 	nop 
40000a7c:	01 00 00 00 	nop 
40000a80:	91 d0 20 00 	ta  0
40000a84:	01 00 00 00 	nop 
40000a88:	01 00 00 00 	nop 
40000a8c:	01 00 00 00 	nop 
40000a90:	91 d0 20 00 	ta  0
40000a94:	01 00 00 00 	nop 
40000a98:	01 00 00 00 	nop 
40000a9c:	01 00 00 00 	nop 
40000aa0:	91 d0 20 00 	ta  0
40000aa4:	01 00 00 00 	nop 
40000aa8:	01 00 00 00 	nop 
40000aac:	01 00 00 00 	nop 
40000ab0:	91 d0 20 00 	ta  0
40000ab4:	01 00 00 00 	nop 
40000ab8:	01 00 00 00 	nop 
40000abc:	01 00 00 00 	nop 
40000ac0:	91 d0 20 00 	ta  0
40000ac4:	01 00 00 00 	nop 
40000ac8:	01 00 00 00 	nop 
40000acc:	01 00 00 00 	nop 
40000ad0:	91 d0 20 00 	ta  0
40000ad4:	01 00 00 00 	nop 
40000ad8:	01 00 00 00 	nop 
40000adc:	01 00 00 00 	nop 
40000ae0:	91 d0 20 00 	ta  0
40000ae4:	01 00 00 00 	nop 
40000ae8:	01 00 00 00 	nop 
40000aec:	01 00 00 00 	nop 
40000af0:	91 d0 20 00 	ta  0
40000af4:	01 00 00 00 	nop 
40000af8:	01 00 00 00 	nop 
40000afc:	01 00 00 00 	nop 
40000b00:	91 d0 20 00 	ta  0
40000b04:	01 00 00 00 	nop 
40000b08:	01 00 00 00 	nop 
40000b0c:	01 00 00 00 	nop 
40000b10:	91 d0 20 00 	ta  0
40000b14:	01 00 00 00 	nop 
40000b18:	01 00 00 00 	nop 
40000b1c:	01 00 00 00 	nop 
40000b20:	91 d0 20 00 	ta  0
40000b24:	01 00 00 00 	nop 
40000b28:	01 00 00 00 	nop 
40000b2c:	01 00 00 00 	nop 
40000b30:	91 d0 20 00 	ta  0
40000b34:	01 00 00 00 	nop 
40000b38:	01 00 00 00 	nop 
40000b3c:	01 00 00 00 	nop 
40000b40:	91 d0 20 00 	ta  0
40000b44:	01 00 00 00 	nop 
40000b48:	01 00 00 00 	nop 
40000b4c:	01 00 00 00 	nop 
40000b50:	91 d0 20 00 	ta  0
40000b54:	01 00 00 00 	nop 
40000b58:	01 00 00 00 	nop 
40000b5c:	01 00 00 00 	nop 
40000b60:	91 d0 20 00 	ta  0
40000b64:	01 00 00 00 	nop 
40000b68:	01 00 00 00 	nop 
40000b6c:	01 00 00 00 	nop 
40000b70:	91 d0 20 00 	ta  0
40000b74:	01 00 00 00 	nop 
40000b78:	01 00 00 00 	nop 
40000b7c:	01 00 00 00 	nop 
40000b80:	91 d0 20 00 	ta  0
40000b84:	01 00 00 00 	nop 
40000b88:	01 00 00 00 	nop 
40000b8c:	01 00 00 00 	nop 
40000b90:	91 d0 20 00 	ta  0
40000b94:	01 00 00 00 	nop 
40000b98:	01 00 00 00 	nop 
40000b9c:	01 00 00 00 	nop 
40000ba0:	91 d0 20 00 	ta  0
40000ba4:	01 00 00 00 	nop 
40000ba8:	01 00 00 00 	nop 
40000bac:	01 00 00 00 	nop 
40000bb0:	91 d0 20 00 	ta  0
40000bb4:	01 00 00 00 	nop 
40000bb8:	01 00 00 00 	nop 
40000bbc:	01 00 00 00 	nop 
40000bc0:	91 d0 20 00 	ta  0
40000bc4:	01 00 00 00 	nop 
40000bc8:	01 00 00 00 	nop 
40000bcc:	01 00 00 00 	nop 
40000bd0:	91 d0 20 00 	ta  0
40000bd4:	01 00 00 00 	nop 
40000bd8:	01 00 00 00 	nop 
40000bdc:	01 00 00 00 	nop 
40000be0:	91 d0 20 00 	ta  0
40000be4:	01 00 00 00 	nop 
40000be8:	01 00 00 00 	nop 
40000bec:	01 00 00 00 	nop 
40000bf0:	91 d0 20 00 	ta  0
40000bf4:	01 00 00 00 	nop 
40000bf8:	01 00 00 00 	nop 
40000bfc:	01 00 00 00 	nop 
40000c00:	91 d0 20 00 	ta  0
40000c04:	01 00 00 00 	nop 
40000c08:	01 00 00 00 	nop 
40000c0c:	01 00 00 00 	nop 
40000c10:	91 d0 20 00 	ta  0
40000c14:	01 00 00 00 	nop 
40000c18:	01 00 00 00 	nop 
40000c1c:	01 00 00 00 	nop 
40000c20:	91 d0 20 00 	ta  0
40000c24:	01 00 00 00 	nop 
40000c28:	01 00 00 00 	nop 
40000c2c:	01 00 00 00 	nop 
40000c30:	91 d0 20 00 	ta  0
40000c34:	01 00 00 00 	nop 
40000c38:	01 00 00 00 	nop 
40000c3c:	01 00 00 00 	nop 
40000c40:	91 d0 20 00 	ta  0
40000c44:	01 00 00 00 	nop 
40000c48:	01 00 00 00 	nop 
40000c4c:	01 00 00 00 	nop 
40000c50:	91 d0 20 00 	ta  0
40000c54:	01 00 00 00 	nop 
40000c58:	01 00 00 00 	nop 
40000c5c:	01 00 00 00 	nop 
40000c60:	91 d0 20 00 	ta  0
40000c64:	01 00 00 00 	nop 
40000c68:	01 00 00 00 	nop 
40000c6c:	01 00 00 00 	nop 
40000c70:	91 d0 20 00 	ta  0
40000c74:	01 00 00 00 	nop 
40000c78:	01 00 00 00 	nop 
40000c7c:	01 00 00 00 	nop 
40000c80:	91 d0 20 00 	ta  0
40000c84:	01 00 00 00 	nop 
40000c88:	01 00 00 00 	nop 
40000c8c:	01 00 00 00 	nop 
40000c90:	91 d0 20 00 	ta  0
40000c94:	01 00 00 00 	nop 
40000c98:	01 00 00 00 	nop 
40000c9c:	01 00 00 00 	nop 
40000ca0:	91 d0 20 00 	ta  0
40000ca4:	01 00 00 00 	nop 
40000ca8:	01 00 00 00 	nop 
40000cac:	01 00 00 00 	nop 
40000cb0:	91 d0 20 00 	ta  0
40000cb4:	01 00 00 00 	nop 
40000cb8:	01 00 00 00 	nop 
40000cbc:	01 00 00 00 	nop 
40000cc0:	91 d0 20 00 	ta  0
40000cc4:	01 00 00 00 	nop 
40000cc8:	01 00 00 00 	nop 
40000ccc:	01 00 00 00 	nop 
40000cd0:	91 d0 20 00 	ta  0
40000cd4:	01 00 00 00 	nop 
40000cd8:	01 00 00 00 	nop 
40000cdc:	01 00 00 00 	nop 
40000ce0:	91 d0 20 00 	ta  0
40000ce4:	01 00 00 00 	nop 
40000ce8:	01 00 00 00 	nop 
40000cec:	01 00 00 00 	nop 
40000cf0:	91 d0 20 00 	ta  0
40000cf4:	01 00 00 00 	nop 
40000cf8:	01 00 00 00 	nop 
40000cfc:	01 00 00 00 	nop 
40000d00:	91 d0 20 00 	ta  0
40000d04:	01 00 00 00 	nop 
40000d08:	01 00 00 00 	nop 
40000d0c:	01 00 00 00 	nop 
40000d10:	91 d0 20 00 	ta  0
40000d14:	01 00 00 00 	nop 
40000d18:	01 00 00 00 	nop 
40000d1c:	01 00 00 00 	nop 
40000d20:	91 d0 20 00 	ta  0
40000d24:	01 00 00 00 	nop 
40000d28:	01 00 00 00 	nop 
40000d2c:	01 00 00 00 	nop 
40000d30:	91 d0 20 00 	ta  0
40000d34:	01 00 00 00 	nop 
40000d38:	01 00 00 00 	nop 
40000d3c:	01 00 00 00 	nop 
40000d40:	91 d0 20 00 	ta  0
40000d44:	01 00 00 00 	nop 
40000d48:	01 00 00 00 	nop 
40000d4c:	01 00 00 00 	nop 
40000d50:	91 d0 20 00 	ta  0
40000d54:	01 00 00 00 	nop 
40000d58:	01 00 00 00 	nop 
40000d5c:	01 00 00 00 	nop 
40000d60:	91 d0 20 00 	ta  0
40000d64:	01 00 00 00 	nop 
40000d68:	01 00 00 00 	nop 
40000d6c:	01 00 00 00 	nop 
40000d70:	91 d0 20 00 	ta  0
40000d74:	01 00 00 00 	nop 
40000d78:	01 00 00 00 	nop 
40000d7c:	01 00 00 00 	nop 
40000d80:	91 d0 20 00 	ta  0
40000d84:	01 00 00 00 	nop 
40000d88:	01 00 00 00 	nop 
40000d8c:	01 00 00 00 	nop 
40000d90:	91 d0 20 00 	ta  0
40000d94:	01 00 00 00 	nop 
40000d98:	01 00 00 00 	nop 
40000d9c:	01 00 00 00 	nop 
40000da0:	91 d0 20 00 	ta  0
40000da4:	01 00 00 00 	nop 
40000da8:	01 00 00 00 	nop 
40000dac:	01 00 00 00 	nop 
40000db0:	91 d0 20 00 	ta  0
40000db4:	01 00 00 00 	nop 
40000db8:	01 00 00 00 	nop 
40000dbc:	01 00 00 00 	nop 
40000dc0:	91 d0 20 00 	ta  0
40000dc4:	01 00 00 00 	nop 
40000dc8:	01 00 00 00 	nop 
40000dcc:	01 00 00 00 	nop 
40000dd0:	91 d0 20 00 	ta  0
40000dd4:	01 00 00 00 	nop 
40000dd8:	01 00 00 00 	nop 
40000ddc:	01 00 00 00 	nop 
40000de0:	91 d0 20 00 	ta  0
40000de4:	01 00 00 00 	nop 
40000de8:	01 00 00 00 	nop 
40000dec:	01 00 00 00 	nop 
40000df0:	91 d0 20 00 	ta  0
40000df4:	01 00 00 00 	nop 
40000df8:	01 00 00 00 	nop 
40000dfc:	01 00 00 00 	nop 
40000e00:	91 d0 20 00 	ta  0
40000e04:	01 00 00 00 	nop 
40000e08:	01 00 00 00 	nop 
40000e0c:	01 00 00 00 	nop 
40000e10:	91 d0 20 00 	ta  0
40000e14:	01 00 00 00 	nop 
40000e18:	01 00 00 00 	nop 
40000e1c:	01 00 00 00 	nop 
40000e20:	91 d0 20 00 	ta  0
40000e24:	01 00 00 00 	nop 
40000e28:	01 00 00 00 	nop 
40000e2c:	01 00 00 00 	nop 
40000e30:	91 d0 20 00 	ta  0
40000e34:	01 00 00 00 	nop 
40000e38:	01 00 00 00 	nop 
40000e3c:	01 00 00 00 	nop 
40000e40:	91 d0 20 00 	ta  0
40000e44:	01 00 00 00 	nop 
40000e48:	01 00 00 00 	nop 
40000e4c:	01 00 00 00 	nop 
40000e50:	91 d0 20 00 	ta  0
40000e54:	01 00 00 00 	nop 
40000e58:	01 00 00 00 	nop 
40000e5c:	01 00 00 00 	nop 
40000e60:	91 d0 20 00 	ta  0
40000e64:	01 00 00 00 	nop 
40000e68:	01 00 00 00 	nop 
40000e6c:	01 00 00 00 	nop 
40000e70:	91 d0 20 00 	ta  0
40000e74:	01 00 00 00 	nop 
40000e78:	01 00 00 00 	nop 
40000e7c:	01 00 00 00 	nop 
40000e80:	91 d0 20 00 	ta  0
40000e84:	01 00 00 00 	nop 
40000e88:	01 00 00 00 	nop 
40000e8c:	01 00 00 00 	nop 
40000e90:	91 d0 20 00 	ta  0
40000e94:	01 00 00 00 	nop 
40000e98:	01 00 00 00 	nop 
40000e9c:	01 00 00 00 	nop 
40000ea0:	91 d0 20 00 	ta  0
40000ea4:	01 00 00 00 	nop 
40000ea8:	01 00 00 00 	nop 
40000eac:	01 00 00 00 	nop 
40000eb0:	91 d0 20 00 	ta  0
40000eb4:	01 00 00 00 	nop 
40000eb8:	01 00 00 00 	nop 
40000ebc:	01 00 00 00 	nop 
40000ec0:	91 d0 20 00 	ta  0
40000ec4:	01 00 00 00 	nop 
40000ec8:	01 00 00 00 	nop 
40000ecc:	01 00 00 00 	nop 
40000ed0:	91 d0 20 00 	ta  0
40000ed4:	01 00 00 00 	nop 
40000ed8:	01 00 00 00 	nop 
40000edc:	01 00 00 00 	nop 
40000ee0:	91 d0 20 00 	ta  0
40000ee4:	01 00 00 00 	nop 
40000ee8:	01 00 00 00 	nop 
40000eec:	01 00 00 00 	nop 
40000ef0:	91 d0 20 00 	ta  0
40000ef4:	01 00 00 00 	nop 
40000ef8:	01 00 00 00 	nop 
40000efc:	01 00 00 00 	nop 
40000f00:	91 d0 20 00 	ta  0
40000f04:	01 00 00 00 	nop 
40000f08:	01 00 00 00 	nop 
40000f0c:	01 00 00 00 	nop 
40000f10:	91 d0 20 00 	ta  0
40000f14:	01 00 00 00 	nop 
40000f18:	01 00 00 00 	nop 
40000f1c:	01 00 00 00 	nop 
40000f20:	91 d0 20 00 	ta  0
40000f24:	01 00 00 00 	nop 
40000f28:	01 00 00 00 	nop 
40000f2c:	01 00 00 00 	nop 
40000f30:	91 d0 20 00 	ta  0
40000f34:	01 00 00 00 	nop 
40000f38:	01 00 00 00 	nop 
40000f3c:	01 00 00 00 	nop 
40000f40:	91 d0 20 00 	ta  0
40000f44:	01 00 00 00 	nop 
40000f48:	01 00 00 00 	nop 
40000f4c:	01 00 00 00 	nop 
40000f50:	91 d0 20 00 	ta  0
40000f54:	01 00 00 00 	nop 
40000f58:	01 00 00 00 	nop 
40000f5c:	01 00 00 00 	nop 
40000f60:	91 d0 20 00 	ta  0
40000f64:	01 00 00 00 	nop 
40000f68:	01 00 00 00 	nop 
40000f6c:	01 00 00 00 	nop 
40000f70:	91 d0 20 00 	ta  0
40000f74:	01 00 00 00 	nop 
40000f78:	01 00 00 00 	nop 
40000f7c:	01 00 00 00 	nop 
40000f80:	91 d0 20 00 	ta  0
40000f84:	01 00 00 00 	nop 
40000f88:	01 00 00 00 	nop 
40000f8c:	01 00 00 00 	nop 
40000f90:	91 d0 20 00 	ta  0
40000f94:	01 00 00 00 	nop 
40000f98:	01 00 00 00 	nop 
40000f9c:	01 00 00 00 	nop 
40000fa0:	91 d0 20 00 	ta  0
40000fa4:	01 00 00 00 	nop 
40000fa8:	01 00 00 00 	nop 
40000fac:	01 00 00 00 	nop 
40000fb0:	91 d0 20 00 	ta  0
40000fb4:	01 00 00 00 	nop 
40000fb8:	01 00 00 00 	nop 
40000fbc:	01 00 00 00 	nop 
40000fc0:	91 d0 20 00 	ta  0
40000fc4:	01 00 00 00 	nop 
40000fc8:	01 00 00 00 	nop 
40000fcc:	01 00 00 00 	nop 
40000fd0:	91 d0 20 00 	ta  0
40000fd4:	01 00 00 00 	nop 
40000fd8:	01 00 00 00 	nop 
40000fdc:	01 00 00 00 	nop 
40000fe0:	91 d0 20 00 	ta  0
40000fe4:	01 00 00 00 	nop 
40000fe8:	01 00 00 00 	nop 
40000fec:	01 00 00 00 	nop 
40000ff0:	91 d0 20 00 	ta  0
40000ff4:	01 00 00 00 	nop 
40000ff8:	01 00 00 00 	nop 
40000ffc:	01 00 00 00 	nop 

40001000 <__bcc_crt0>:
40001000:	40 00 01 99 	call  40001664 <__bcc_init40>
40001004:	01 00 00 00 	nop 
40001008:	a0 0b bf f0 	and  %sp, -16, %l0
4000100c:	9c 24 20 60 	sub  %l0, 0x60, %sp
40001010:	bc 10 00 00 	mov  %g0, %fp
40001014:	be 10 00 00 	mov  %g0, %i7
40001018:	19 00 00 00 	sethi  %hi(0), %o4
4000101c:	98 13 20 00 	mov  %o4, %o4	! 0 <__bcc_cfg_skip_clear_bss>
40001020:	80 a3 00 00 	cmp  %o4, %g0
40001024:	12 80 00 09 	bne  40001048 <__bcc_crt0+0x48>
40001028:	11 10 00 3e 	sethi  %hi(0x4000f800), %o0
4000102c:	90 12 21 60 	or  %o0, 0x160, %o0	! 4000f960 <__TMC_END__>
40001030:	15 10 00 3e 	sethi  %hi(0x4000f800), %o2
40001034:	94 12 a3 20 	or  %o2, 0x320, %o2	! 4000fb20 <__bss_end>
40001038:	96 22 80 08 	sub  %o2, %o0, %o3
4000103c:	93 32 e0 03 	srl  %o3, 3, %o1
40001040:	40 00 01 b1 	call  40001704 <bcc_dwzero>
40001044:	01 00 00 00 	nop 
40001048:	23 10 00 3e 	sethi  %hi(0x4000f800), %l1
4000104c:	e0 24 61 60 	st  %l0, [ %l1 + 0x160 ]	! 4000f960 <__TMC_END__>
40001050:	40 00 01 b8 	call  40001730 <__bcc_copy_data>
40001054:	01 00 00 00 	nop 
40001058:	40 00 01 83 	call  40001664 <__bcc_init40>
4000105c:	01 00 00 00 	nop 
40001060:	40 00 01 83 	call  4000166c <__bcc_get_leon_info>
40001064:	01 00 00 00 	nop 
40001068:	40 00 02 47 	call  40001984 <__bcc_con_init>
4000106c:	01 00 00 00 	nop 
40001070:	40 00 02 59 	call  400019d4 <__bcc_timer_init>
40001074:	01 00 00 00 	nop 
40001078:	40 00 01 d7 	call  400017d4 <__bcc_int_init>
4000107c:	01 00 00 00 	nop 
40001080:	11 10 00 3b 	sethi  %hi(0x4000ec00), %o0
40001084:	90 12 20 c0 	or  %o0, 0xc0, %o0	! 4000ecc0 <_fini>
40001088:	40 00 04 56 	call  400021e0 <atexit>
4000108c:	01 00 00 00 	nop 
40001090:	40 00 37 04 	call  4000eca0 <_init>
40001094:	01 00 00 00 	nop 
40001098:	40 00 01 73 	call  40001664 <__bcc_init40>
4000109c:	01 00 00 00 	nop 
400010a0:	21 10 00 3e 	sethi  %hi(0x4000f800), %l0
400010a4:	d0 04 22 20 	ld  [ %l0 + 0x220 ], %o0	! 4000fa20 <__bcc_argc>
400010a8:	23 10 00 3c 	sethi  %hi(0x4000f000), %l1
400010ac:	d2 04 63 78 	ld  [ %l1 + 0x378 ], %o1	! 4000f378 <__bcc_argvp>
400010b0:	40 00 00 68 	call  40001250 <main>
400010b4:	94 10 00 00 	mov  %g0, %o2
400010b8:	40 00 04 51 	call  400021fc <exit>
400010bc:	01 00 00 00 	nop 
400010c0:	82 10 20 02 	mov  2, %g1	! 2 <_CONTEXT_I_+0x1>
400010c4:	91 d0 20 01 	ta  1

400010c8 <deregister_tm_clones>:
400010c8:	9d e3 bf a0 	save  %sp, -96, %sp
400010cc:	11 10 00 3e 	sethi  %hi(0x4000f800), %o0
400010d0:	03 10 00 3e 	sethi  %hi(0x4000f800), %g1
400010d4:	90 12 21 60 	or  %o0, 0x160, %o0
400010d8:	82 10 61 60 	or  %g1, 0x160, %g1
400010dc:	80 a0 40 08 	cmp  %g1, %o0
400010e0:	02 80 00 08 	be  40001100 <deregister_tm_clones+0x38>
400010e4:	03 00 00 00 	sethi  %hi(0), %g1
400010e8:	82 10 60 00 	mov  %g1, %g1	! 0 <__bcc_cfg_skip_clear_bss>
400010ec:	80 a0 60 00 	cmp  %g1, 0
400010f0:	02 80 00 04 	be  40001100 <deregister_tm_clones+0x38>
400010f4:	01 00 00 00 	nop 
400010f8:	9f c0 40 00 	call  %g1
400010fc:	01 00 00 00 	nop 
40001100:	81 c7 e0 08 	ret 
40001104:	81 e8 00 00 	restore 

40001108 <register_tm_clones>:
40001108:	9d e3 bf a0 	save  %sp, -96, %sp
4000110c:	03 10 00 3e 	sethi  %hi(0x4000f800), %g1
40001110:	11 10 00 3e 	sethi  %hi(0x4000f800), %o0
40001114:	92 10 61 60 	or  %g1, 0x160, %o1
40001118:	90 12 21 60 	or  %o0, 0x160, %o0
4000111c:	92 22 40 08 	sub  %o1, %o0, %o1
40001120:	83 3a 60 02 	sra  %o1, 2, %g1
40001124:	93 32 60 1f 	srl  %o1, 0x1f, %o1
40001128:	92 02 40 01 	add  %o1, %g1, %o1
4000112c:	93 3a 60 01 	sra  %o1, 1, %o1
40001130:	80 a2 60 00 	cmp  %o1, 0
40001134:	02 80 00 08 	be  40001154 <register_tm_clones+0x4c>
40001138:	03 00 00 00 	sethi  %hi(0), %g1
4000113c:	82 10 60 00 	mov  %g1, %g1	! 0 <__bcc_cfg_skip_clear_bss>
40001140:	80 a0 60 00 	cmp  %g1, 0
40001144:	02 80 00 04 	be  40001154 <register_tm_clones+0x4c>
40001148:	01 00 00 00 	nop 
4000114c:	9f c0 40 00 	call  %g1
40001150:	01 00 00 00 	nop 
40001154:	81 c7 e0 08 	ret 
40001158:	81 e8 00 00 	restore 

4000115c <__do_global_dtors_aux>:
4000115c:	9d e3 bf a0 	save  %sp, -96, %sp
40001160:	35 10 00 3e 	sethi  %hi(0x4000f800), %i2
40001164:	c2 0e a1 64 	ldub  [ %i2 + 0x164 ], %g1	! 4000f964 <completed.2>
40001168:	80 a0 60 00 	cmp  %g1, 0
4000116c:	12 80 00 25 	bne  40001200 <__do_global_dtors_aux+0xa4>
40001170:	03 10 00 3b 	sethi  %hi(0x4000ec00), %g1
40001174:	82 10 60 94 	or  %g1, 0x94, %g1	! 4000ec94 <__DTOR_LIST__>
40001178:	3b 10 00 3e 	sethi  %hi(0x4000f800), %i5
4000117c:	39 10 00 3b 	sethi  %hi(0x4000ec00), %i4
40001180:	05 10 00 3b 	sethi  %hi(0x4000ec00), %g2
40001184:	b8 17 20 98 	or  %i4, 0x98, %i4
40001188:	b6 10 a0 94 	or  %g2, 0x94, %i3
4000118c:	b8 27 00 01 	sub  %i4, %g1, %i4
40001190:	c2 07 61 68 	ld  [ %i5 + 0x168 ], %g1
40001194:	b9 3f 20 02 	sra  %i4, 2, %i4
40001198:	b8 07 3f ff 	add  %i4, -1, %i4
4000119c:	80 a0 40 1c 	cmp  %g1, %i4
400011a0:	1a 80 00 0c 	bcc  400011d0 <__do_global_dtors_aux+0x74>
400011a4:	82 00 60 01 	inc  %g1
400011a8:	ba 17 61 68 	or  %i5, 0x168, %i5
400011ac:	85 28 60 02 	sll  %g1, 2, %g2
400011b0:	c2 27 40 00 	st  %g1, [ %i5 ]
400011b4:	c2 06 c0 02 	ld  [ %i3 + %g2 ], %g1
400011b8:	9f c0 40 00 	call  %g1
400011bc:	01 00 00 00 	nop 
400011c0:	c2 07 40 00 	ld  [ %i5 ], %g1
400011c4:	80 a0 40 1c 	cmp  %g1, %i4
400011c8:	0a bf ff f9 	bcs  400011ac <__do_global_dtors_aux+0x50>
400011cc:	82 00 60 01 	inc  %g1
400011d0:	7f ff ff be 	call  400010c8 <deregister_tm_clones>
400011d4:	01 00 00 00 	nop 
400011d8:	03 00 00 00 	sethi  %hi(0), %g1
400011dc:	82 10 60 00 	mov  %g1, %g1	! 0 <__bcc_cfg_skip_clear_bss>
400011e0:	80 a0 60 00 	cmp  %g1, 0
400011e4:	02 80 00 06 	be  400011fc <__do_global_dtors_aux+0xa0>
400011e8:	82 10 20 01 	mov  1, %g1
400011ec:	11 10 00 3b 	sethi  %hi(0x4000ec00), %o0
400011f0:	6f ff fb 84 	call  0 <__bcc_cfg_skip_clear_bss>
400011f4:	90 12 20 20 	or  %o0, 0x20, %o0	! 4000ec20 <__EH_FRAME_BEGIN__>
400011f8:	82 10 20 01 	mov  1, %g1
400011fc:	c2 2e a1 64 	stb  %g1, [ %i2 + 0x164 ]
40001200:	81 c7 e0 08 	ret 
40001204:	81 e8 00 00 	restore 

40001208 <call___do_global_dtors_aux>:
40001208:	9d e3 bf a0 	save  %sp, -96, %sp
4000120c:	81 c7 e0 08 	ret 
40001210:	81 e8 00 00 	restore 

40001214 <frame_dummy>:
40001214:	9d e3 bf a0 	save  %sp, -96, %sp
40001218:	03 00 00 00 	sethi  %hi(0), %g1
4000121c:	82 10 60 00 	mov  %g1, %g1	! 0 <__bcc_cfg_skip_clear_bss>
40001220:	80 a0 60 00 	cmp  %g1, 0
40001224:	02 80 00 06 	be  4000123c <frame_dummy+0x28>
40001228:	13 10 00 3e 	sethi  %hi(0x4000f800), %o1
4000122c:	11 10 00 3b 	sethi  %hi(0x4000ec00), %o0
40001230:	92 12 61 6c 	or  %o1, 0x16c, %o1
40001234:	6f ff fb 73 	call  0 <__bcc_cfg_skip_clear_bss>
40001238:	90 12 20 20 	or  %o0, 0x20, %o0
4000123c:	7f ff ff b3 	call  40001108 <register_tm_clones>
40001240:	81 e8 00 00 	restore 

40001244 <call_frame_dummy>:
40001244:	9d e3 bf a0 	save  %sp, -96, %sp
40001248:	81 c7 e0 08 	ret 
4000124c:	81 e8 00 00 	restore 

40001250 <main>:
40001250:	9d e3 bf 90 	save  %sp, -112, %sp
40001254:	82 10 20 19 	mov  0x19, %g1
40001258:	c2 27 bf fc 	st  %g1, [ %fp + -4 ]
4000125c:	c2 07 bf fc 	ld  [ %fp + -4 ], %g1
40001260:	c2 27 bf f8 	st  %g1, [ %fp + -8 ]
40001264:	c2 07 bf fc 	ld  [ %fp + -4 ], %g1
40001268:	82 38 00 01 	xnor  %g0, %g1, %g1
4000126c:	c2 27 bf f4 	st  %g1, [ %fp + -12 ]
40001270:	c4 07 bf f8 	ld  [ %fp + -8 ], %g2
40001274:	c2 07 bf f4 	ld  [ %fp + -12 ], %g1
40001278:	82 18 80 01 	xor  %g2, %g1, %g1
4000127c:	80 a0 60 ff 	cmp  %g1, 0xff
40001280:	02 80 00 08 	be  400012a0 <main+0x50>
40001284:	01 00 00 00 	nop 
40001288:	03 10 00 3b 	sethi  %hi(0x4000ec00), %g1
4000128c:	90 10 60 e0 	or  %g1, 0xe0, %o0	! 4000ece0 <__text_end>
40001290:	40 00 04 72 	call  40002458 <printf>
40001294:	01 00 00 00 	nop 
40001298:	10 80 00 05 	b  400012ac <main+0x5c>
4000129c:	01 00 00 00 	nop 
400012a0:	c2 07 bf f8 	ld  [ %fp + -8 ], %g1
400012a4:	82 00 7f f6 	add  %g1, -10, %g1
400012a8:	c2 27 bf f8 	st  %g1, [ %fp + -8 ]
400012ac:	82 10 20 00 	clr  %g1
400012b0:	b0 10 00 01 	mov  %g1, %i0
400012b4:	81 e8 00 00 	restore 
400012b8:	81 c3 e0 08 	retl 
400012bc:	01 00 00 00 	nop 

400012c0 <__bcc_trap_reset_mvt>:
400012c0:	40 00 00 e9 	call  40001664 <__bcc_init40>
400012c4:	01 00 00 00 	nop 
400012c8:	83 48 00 00 	rd  %psr, %g1
400012cc:	83 30 60 18 	srl  %g1, 0x18, %g1
400012d0:	82 08 60 0f 	and  %g1, 0xf, %g1
400012d4:	80 a0 60 03 	cmp  %g1, 3
400012d8:	02 80 00 07 	be  400012f4 <__bcc_trap_reset_mvt+0x34>
400012dc:	01 00 00 00 	nop 
400012e0:	80 a0 60 05 	cmp  %g1, 5
400012e4:	02 80 00 04 	be  400012f4 <__bcc_trap_reset_mvt+0x34>
400012e8:	01 00 00 00 	nop 
400012ec:	10 80 00 09 	b  40001310 <__bcc_trap_reset_mvt+0x50>
400012f0:	01 00 00 00 	nop 
400012f4:	83 44 40 00 	rd  %asr17, %g1
400012f8:	05 00 00 08 	sethi  %hi(0x2000), %g2
400012fc:	82 28 40 02 	andn  %g1, %g2, %g1
40001300:	a3 80 00 01 	wr  %g1, %asr17
40001304:	01 00 00 00 	nop 
40001308:	01 00 00 00 	nop 
4000130c:	01 00 00 00 	nop 
40001310:	03 10 00 00 	sethi  %hi(0x40000000), %g1
40001314:	82 10 60 00 	mov  %g1, %g1	! 40000000 <__bcc_entry_point>
40001318:	81 98 00 01 	wr  %g1, %tbr
4000131c:	81 90 20 02 	wr  2, %wim
40001320:	88 10 00 0e 	mov  %sp, %g4
40001324:	83 48 00 00 	rd  %psr, %g1
40001328:	86 10 2f 3f 	mov  0xf3f, %g3
4000132c:	84 28 40 03 	andn  %g1, %g3, %g2
40001330:	81 88 a0 20 	wr  %g2, 0x20, %psr
40001334:	01 00 00 00 	nop 
40001338:	01 00 00 00 	nop 
4000133c:	01 00 00 00 	nop 
40001340:	9c 10 00 04 	mov  %g4, %sp
40001344:	03 10 00 04 	sethi  %hi(0x40001000), %g1
40001348:	81 c0 60 00 	jmp  %g1
4000134c:	01 00 00 00 	nop 

40001350 <__bcc_trap_window_overflow>:
40001350:	81 e0 00 00 	save 
40001354:	e0 3b a0 00 	std  %l0, [ %sp ]
40001358:	21 10 00 3c 	sethi  %hi(0x4000f000), %l0
4000135c:	a0 14 23 6c 	or  %l0, 0x36c, %l0	! 4000f36c <__bcc_nwindows_min1>
40001360:	e4 3b a0 08 	std  %l2, [ %sp + 8 ]
40001364:	e2 04 00 00 	ld  [ %l0 ], %l1
40001368:	e8 3b a0 10 	std  %l4, [ %sp + 0x10 ]
4000136c:	a7 50 00 00 	rd  %wim, %l3
40001370:	ec 3b a0 18 	std  %l6, [ %sp + 0x18 ]
40001374:	a5 2c c0 11 	sll  %l3, %l1, %l2
40001378:	f0 3b a0 20 	std  %i0, [ %sp + 0x20 ]
4000137c:	a7 34 e0 01 	srl  %l3, 1, %l3
40001380:	f4 3b a0 28 	std  %i2, [ %sp + 0x28 ]
40001384:	81 94 c0 12 	wr  %l3, %l2, %wim
40001388:	f8 3b a0 30 	std  %i4, [ %sp + 0x30 ]
4000138c:	01 00 00 00 	nop 
40001390:	fc 3b a0 38 	std  %fp, [ %sp + 0x38 ]
40001394:	81 e8 00 00 	restore 
40001398:	81 c4 40 00 	jmp  %l1
4000139c:	81 cc 80 00 	rett  %l2

400013a0 <__bcc_trap_window_underflow>:
400013a0:	2d 10 00 3c 	sethi  %hi(0x4000f000), %l6
400013a4:	ac 15 a3 6c 	or  %l6, 0x36c, %l6	! 4000f36c <__bcc_nwindows_min1>
400013a8:	ee 05 80 00 	ld  [ %l6 ], %l7
400013ac:	a7 50 00 00 	rd  %wim, %l3
400013b0:	a9 2c e0 01 	sll  %l3, 1, %l4
400013b4:	ab 34 c0 17 	srl  %l3, %l7, %l5
400013b8:	81 95 00 15 	wr  %l4, %l5, %wim
400013bc:	01 00 00 00 	nop 
400013c0:	01 00 00 00 	nop 
400013c4:	01 00 00 00 	nop 
400013c8:	81 e8 00 00 	restore 
400013cc:	81 e8 00 00 	restore 
400013d0:	e0 1b a0 00 	ldd  [ %sp ], %l0
400013d4:	e4 1b a0 08 	ldd  [ %sp + 8 ], %l2
400013d8:	e8 1b a0 10 	ldd  [ %sp + 0x10 ], %l4
400013dc:	ec 1b a0 18 	ldd  [ %sp + 0x18 ], %l6
400013e0:	f0 1b a0 20 	ldd  [ %sp + 0x20 ], %i0
400013e4:	f4 1b a0 28 	ldd  [ %sp + 0x28 ], %i2
400013e8:	f8 1b a0 30 	ldd  [ %sp + 0x30 ], %i4
400013ec:	fc 1b a0 38 	ldd  [ %sp + 0x38 ], %fp
400013f0:	81 e0 00 00 	save 
400013f4:	81 e0 00 00 	save 
400013f8:	81 c4 40 00 	jmp  %l1
400013fc:	81 cc 80 00 	rett  %l2

40001400 <__bcc_trap_interrupt_svt>:
40001400:	a6 25 a0 10 	sub  %l6, 0x10, %l3

40001404 <__bcc_trap_interrupt>:
40001404:	a8 10 00 02 	mov  %g2, %l4
40001408:	aa 10 00 03 	mov  %g3, %l5
4000140c:	85 50 00 00 	rd  %wim, %g2
40001410:	87 30 80 10 	srl  %g2, %l0, %g3
40001414:	80 a0 e0 01 	cmp  %g3, 1
40001418:	12 80 00 11 	bne  4000145c <__bcc_trap_interrupt+0x58>
4000141c:	07 10 00 3c 	sethi  %hi(0x4000f000), %g3
40001420:	c6 00 e3 6c 	ld  [ %g3 + 0x36c ], %g3	! 4000f36c <__bcc_nwindows_min1>
40001424:	87 28 80 03 	sll  %g2, %g3, %g3
40001428:	85 30 a0 01 	srl  %g2, 1, %g2
4000142c:	84 10 80 03 	or  %g2, %g3, %g2
40001430:	81 e0 00 00 	save 
40001434:	e0 3b a0 00 	std  %l0, [ %sp ]
40001438:	81 90 00 02 	wr  %g2, %wim
4000143c:	e4 3b a0 08 	std  %l2, [ %sp + 8 ]
40001440:	e8 3b a0 10 	std  %l4, [ %sp + 0x10 ]
40001444:	ec 3b a0 18 	std  %l6, [ %sp + 0x18 ]
40001448:	f0 3b a0 20 	std  %i0, [ %sp + 0x20 ]
4000144c:	f4 3b a0 28 	std  %i2, [ %sp + 0x28 ]
40001450:	f8 3b a0 30 	std  %i4, [ %sp + 0x30 ]
40001454:	fc 3b a0 38 	std  %fp, [ %sp + 0x38 ]
40001458:	81 e8 00 00 	restore 
4000145c:	9c 27 a0 18 	sub  %fp, 0x18, %sp
40001460:	c2 23 a0 04 	st  %g1, [ %sp + 4 ]
40001464:	e8 3b a0 08 	std  %l4, [ %sp + 8 ]
40001468:	83 40 00 00 	rd  %y, %g1
4000146c:	c8 23 a0 10 	st  %g4, [ %sp + 0x10 ]
40001470:	c2 23 a0 00 	st  %g1, [ %sp ]
40001474:	29 10 00 3c 	sethi  %hi(0x4000f000), %l4
40001478:	a8 15 23 58 	or  %l4, 0x358, %l4	! 4000f358 <__bcc_int_nest>
4000147c:	96 2c 2f 00 	andn  %l0, 0xf00, %o3
40001480:	d2 0d 00 13 	ldub  [ %l4 + %l3 ], %o1
40001484:	95 2a 60 08 	sll  %o1, 8, %o2
40001488:	90 12 c0 0a 	or  %o3, %o2, %o0
4000148c:	ea 0d 00 00 	ldub  [ %l4 ], %l5
40001490:	ac 05 60 01 	add  %l5, 1, %l6
40001494:	ec 2d 00 00 	stb  %l6, [ %l4 ]
40001498:	9c 23 a0 60 	sub  %sp, 0x60, %sp
4000149c:	81 8a 20 20 	wr  %o0, 0x20, %psr
400014a0:	01 00 00 00 	nop 
400014a4:	01 00 00 00 	nop 
400014a8:	01 00 00 00 	nop 
400014ac:	40 00 00 b8 	call  4000178c <__bcc_int_get_source>
400014b0:	90 10 00 13 	mov  %l3, %o0
400014b4:	80 a2 00 00 	cmp  %o0, %g0
400014b8:	02 80 00 10 	be  400014f8 <__bcc_trap_interrupt+0xf4>
400014bc:	ac 10 00 08 	mov  %o0, %l6
400014c0:	03 10 00 3e 	sethi  %hi(0x4000f800), %g1
400014c4:	82 10 61 9c 	or  %g1, 0x19c, %g1	! 4000f99c <__bcc_isr_list>
400014c8:	85 2a 20 02 	sll  %o0, 2, %g2
400014cc:	e6 00 40 02 	ld  [ %g1 + %g2 ], %l3
400014d0:	80 a4 c0 00 	cmp  %l3, %g0
400014d4:	02 80 00 09 	be  400014f8 <__bcc_trap_interrupt+0xf4>
400014d8:	92 10 00 16 	mov  %l6, %o1
400014dc:	c8 04 e0 08 	ld  [ %l3 + 8 ], %g4
400014e0:	01 00 00 00 	nop 
400014e4:	d0 04 e0 0c 	ld  [ %l3 + 0xc ], %o0
400014e8:	9f c1 00 00 	call  %g4
400014ec:	01 00 00 00 	nop 
400014f0:	10 bf ff f8 	b  400014d0 <__bcc_trap_interrupt+0xcc>
400014f4:	e6 04 e0 00 	ld  [ %l3 ], %l3
400014f8:	81 88 00 10 	wr  %l0, %psr
400014fc:	01 00 00 00 	nop 
40001500:	01 00 00 00 	nop 
40001504:	01 00 00 00 	nop 
40001508:	9c 03 a0 60 	add  %sp, 0x60, %sp
4000150c:	ea 2d 00 00 	stb  %l5, [ %l4 ]
40001510:	c2 03 a0 00 	ld  [ %sp ], %g1
40001514:	81 80 00 01 	wr  %g1, %y
40001518:	c8 03 a0 10 	ld  [ %sp + 0x10 ], %g4
4000151c:	c4 1b a0 08 	ldd  [ %sp + 8 ], %g2
40001520:	c2 03 a0 04 	ld  [ %sp + 4 ], %g1
40001524:	a9 50 00 00 	rd  %wim, %l4
40001528:	ac 04 20 01 	add  %l0, 1, %l6
4000152c:	ac 0d a0 1f 	and  %l6, 0x1f, %l6
40001530:	2b 10 00 3c 	sethi  %hi(0x4000f000), %l5
40001534:	ee 05 63 70 	ld  [ %l5 + 0x370 ], %l7	! 4000f370 <__bcc_nwindows>
40001538:	80 a5 80 17 	cmp  %l6, %l7
4000153c:	36 80 00 02 	bge,a   40001544 <__bcc_trap_interrupt+0x140>
40001540:	ac 10 20 00 	clr  %l6
40001544:	ab 35 00 16 	srl  %l4, %l6, %l5
40001548:	80 a5 60 01 	cmp  %l5, 1
4000154c:	12 80 00 13 	bne  40001598 <__bcc_trap_interrupt+0x194>
40001550:	01 00 00 00 	nop 
40001554:	ae 25 e0 01 	dec  %l7
40001558:	ab 35 00 17 	srl  %l4, %l7, %l5
4000155c:	a9 2d 20 01 	sll  %l4, 1, %l4
40001560:	81 95 00 15 	wr  %l4, %l5, %wim
40001564:	01 00 00 00 	nop 
40001568:	01 00 00 00 	nop 
4000156c:	01 00 00 00 	nop 
40001570:	81 e8 00 00 	restore 
40001574:	e0 1b a0 00 	ldd  [ %sp ], %l0
40001578:	e4 1b a0 08 	ldd  [ %sp + 8 ], %l2
4000157c:	e8 1b a0 10 	ldd  [ %sp + 0x10 ], %l4
40001580:	ec 1b a0 18 	ldd  [ %sp + 0x18 ], %l6
40001584:	f0 1b a0 20 	ldd  [ %sp + 0x20 ], %i0
40001588:	f4 1b a0 28 	ldd  [ %sp + 0x28 ], %i2
4000158c:	f8 1b a0 30 	ldd  [ %sp + 0x30 ], %i4
40001590:	fc 1b a0 38 	ldd  [ %sp + 0x38 ], %fp
40001594:	81 e0 00 00 	save 
40001598:	81 88 00 10 	wr  %l0, %psr
4000159c:	01 00 00 00 	nop 
400015a0:	01 00 00 00 	nop 
400015a4:	01 00 00 00 	nop 
400015a8:	81 c4 40 00 	jmp  %l1
400015ac:	81 cc 80 00 	rett  %l2

400015b0 <__bcc_trap_flush_windows>:
400015b0:	29 10 00 3e 	sethi  %hi(0x4000f800), %l4
400015b4:	a8 15 21 88 	or  %l4, 0x188, %l4	! 4000f988 <__bcc_winflush_spill_globals>
400015b8:	c4 3d 00 00 	std  %g2, [ %l4 ]
400015bc:	e4 25 20 10 	st  %l2, [ %l4 + 0x10 ]
400015c0:	e0 3d 20 08 	std  %l0, [ %l4 + 8 ]
400015c4:	81 e8 00 00 	restore 
400015c8:	07 10 00 3c 	sethi  %hi(0x4000f000), %g3
400015cc:	c6 00 e3 6c 	ld  [ %g3 + 0x36c ], %g3	! 4000f36c <__bcc_nwindows_min1>
400015d0:	85 48 00 00 	rd  %psr, %g2
400015d4:	84 10 af 00 	or  %g2, 0xf00, %g2
400015d8:	81 88 a0 20 	wr  %g2, 0x20, %psr
400015dc:	01 00 00 00 	nop 
400015e0:	86 20 e0 01 	dec  %g3
400015e4:	84 10 00 03 	mov  %g3, %g2
400015e8:	81 e0 00 00 	save 
400015ec:	80 a0 c0 00 	cmp  %g3, %g0
400015f0:	12 bf ff fe 	bne  400015e8 <__bcc_trap_flush_windows+0x38>
400015f4:	86 20 e0 01 	dec  %g3
400015f8:	81 e8 00 00 	restore 
400015fc:	80 a0 80 00 	cmp  %g2, %g0
40001600:	12 bf ff fe 	bne  400015f8 <__bcc_trap_flush_windows+0x48>
40001604:	84 20 a0 01 	dec  %g2
40001608:	81 e0 00 00 	save 
4000160c:	29 10 00 3e 	sethi  %hi(0x4000f800), %l4
40001610:	a8 15 21 88 	or  %l4, 0x188, %l4	! 4000f988 <__bcc_winflush_spill_globals>
40001614:	c4 1d 00 00 	ldd  [ %l4 ], %g2
40001618:	e0 1d 20 08 	ldd  [ %l4 + 8 ], %l0
4000161c:	e4 05 20 10 	ld  [ %l4 + 0x10 ], %l2
40001620:	81 88 00 10 	wr  %l0, %psr
40001624:	01 00 00 00 	nop 
40001628:	01 00 00 00 	nop 
4000162c:	01 00 00 00 	nop 
40001630:	81 c4 80 00 	jmp  %l2
40001634:	81 cc a0 04 	rett  %l2 + 4

40001638 <__bcc_trap_sw_set_pil>:
40001638:	b1 2e 20 08 	sll  %i0, 8, %i0
4000163c:	aa 2c 2f 00 	andn  %l0, 0xf00, %l5
40001640:	aa 15 40 18 	or  %l5, %i0, %l5
40001644:	81 88 00 15 	wr  %l5, %psr
40001648:	01 00 00 00 	nop 
4000164c:	01 00 00 00 	nop 
40001650:	01 00 00 00 	nop 
40001654:	a6 0c 2f 00 	and  %l0, 0xf00, %l3
40001658:	b1 34 e0 08 	srl  %l3, 8, %i0
4000165c:	81 c4 80 00 	jmp  %l2
40001660:	81 cc a0 04 	rett  %l2 + 4

40001664 <__bcc_init40>:
40001664:	81 c3 e0 08 	retl 
40001668:	01 00 00 00 	nop 

4000166c <__bcc_get_leon_info>:
4000166c:	91 48 00 00 	rd  %psr, %o0
40001670:	93 32 20 18 	srl  %o0, 0x18, %o1
40001674:	90 0a 60 0f 	and  %o1, 0xf, %o0
40001678:	80 a2 20 03 	cmp  %o0, 3
4000167c:	02 80 00 07 	be  40001698 <__bcc_get_leon_info+0x2c>
40001680:	01 00 00 00 	nop 
40001684:	80 a2 20 05 	cmp  %o0, 5
40001688:	02 80 00 04 	be  40001698 <__bcc_get_leon_info+0x2c>
4000168c:	01 00 00 00 	nop 
40001690:	12 80 00 0a 	bne  400016b8 <__bcc_get_leon_info+0x4c>
40001694:	01 00 00 00 	nop 
40001698:	93 44 40 00 	rd  %asr17, %o1
4000169c:	93 32 60 00 	srl  %o1, 0, %o1
400016a0:	95 44 40 00 	rd  %asr17, %o2
400016a4:	17 3c 00 00 	sethi  %hi(0xf0000000), %o3
400016a8:	94 0a 80 0b 	and  %o2, %o3, %o2
400016ac:	95 32 a0 1c 	srl  %o2, 0x1c, %o2
400016b0:	10 80 00 07 	b  400016cc <__bcc_get_leon_info+0x60>
400016b4:	01 00 00 00 	nop 
400016b8:	90 10 20 02 	mov  2, %o0	! 2 <_CONTEXT_I_+0x1>
400016bc:	15 20 00 00 	sethi  %hi(0x80000000), %o2
400016c0:	d6 02 a0 24 	ld  [ %o2 + 0x24 ], %o3	! 80000024 <__bss_end+0x3fff0504>
400016c4:	93 32 e0 14 	srl  %o3, 0x14, %o1
400016c8:	94 10 20 00 	clr  %o2
400016cc:	92 0a 60 1f 	and  %o1, 0x1f, %o1
400016d0:	98 02 60 01 	add  %o1, 1, %o4
400016d4:	17 10 00 3c 	sethi  %hi(0x4000f000), %o3
400016d8:	96 12 e3 68 	or  %o3, 0x368, %o3	! 4000f368 <__bcc_leon_version>
400016dc:	d0 22 e0 00 	st  %o0, [ %o3 ]
400016e0:	d2 22 e0 04 	st  %o1, [ %o3 + 4 ]
400016e4:	d8 22 e0 08 	st  %o4, [ %o3 + 8 ]
400016e8:	d4 22 e0 0c 	st  %o2, [ %o3 + 0xc ]
400016ec:	81 c3 e0 08 	retl 
400016f0:	01 00 00 00 	nop 

400016f4 <bcc_get_cpuid>:
400016f4:	03 10 00 3c 	sethi  %hi(0x4000f000), %g1
400016f8:	d0 00 63 74 	ld  [ %g1 + 0x374 ], %o0	! 4000f374 <__bcc_cpuid>
400016fc:	81 c3 e0 08 	retl 
40001700:	01 00 00 00 	nop 

40001704 <bcc_dwzero>:
40001704:	82 10 00 00 	mov  %g0, %g1
40001708:	88 10 00 00 	mov  %g0, %g4
4000170c:	80 a1 00 09 	cmp  %g4, %o1
40001710:	02 80 00 06 	be  40001728 <bcc_dwzero+0x24>
40001714:	85 29 20 03 	sll  %g4, 3, %g2
40001718:	86 02 00 02 	add  %o0, %g2, %g3
4000171c:	c0 38 c0 00 	std  %g0, [ %g3 ]
40001720:	10 bf ff fb 	b  4000170c <bcc_dwzero+0x8>
40001724:	88 01 20 01 	inc  %g4
40001728:	81 c3 e0 08 	retl 
4000172c:	01 00 00 00 	nop 

40001730 <__bcc_copy_data>:
40001730:	1b 10 00 3c 	sethi  %hi(0x4000f000), %o5
40001734:	09 10 00 3c 	sethi  %hi(0x4000f000), %g4
40001738:	9a 13 63 50 	or  %o5, 0x350, %o5
4000173c:	88 11 23 50 	or  %g4, 0x350, %g4
40001740:	80 a3 40 04 	cmp  %o5, %g4
40001744:	02 80 00 10 	be  40001784 <__bcc_copy_data+0x54>
40001748:	03 10 00 3e 	sethi  %hi(0x4000f800), %g1
4000174c:	82 10 61 60 	or  %g1, 0x160, %g1	! 4000f960 <__TMC_END__>
40001750:	80 a1 00 01 	cmp  %g4, %g1
40001754:	1a 80 00 0c 	bcc  40001784 <__bcc_copy_data+0x54>
40001758:	84 00 7f ff 	add  %g1, -1, %g2
4000175c:	82 10 20 00 	clr  %g1
40001760:	84 20 80 04 	sub  %g2, %g4, %g2
40001764:	84 08 bf fc 	and  %g2, -4, %g2
40001768:	84 00 a0 04 	add  %g2, 4, %g2
4000176c:	c6 03 40 01 	ld  [ %o5 + %g1 ], %g3
40001770:	c6 21 00 01 	st  %g3, [ %g4 + %g1 ]
40001774:	82 00 60 04 	add  %g1, 4, %g1
40001778:	80 a0 40 02 	cmp  %g1, %g2
4000177c:	32 bf ff fd 	bne,a   40001770 <__bcc_copy_data+0x40>
40001780:	c6 03 40 01 	ld  [ %o5 + %g1 ], %g3
40001784:	81 c3 e0 08 	retl 
40001788:	01 00 00 00 	nop 

4000178c <__bcc_int_get_source>:
4000178c:	03 10 00 3e 	sethi  %hi(0x4000f800), %g1
40001790:	c2 00 62 2c 	ld  [ %g1 + 0x22c ], %g1	! 4000fa2c <__bcc_int_irqmp_eirq>
40001794:	80 a0 40 08 	cmp  %g1, %o0
40001798:	02 80 00 04 	be  400017a8 <__bcc_int_get_source+0x1c>
4000179c:	03 10 00 3c 	sethi  %hi(0x4000f000), %g1
400017a0:	81 c3 e0 08 	retl 
400017a4:	01 00 00 00 	nop 
400017a8:	05 10 00 3e 	sethi  %hi(0x4000f800), %g2
400017ac:	c2 00 63 74 	ld  [ %g1 + 0x374 ], %g1
400017b0:	c4 00 a2 30 	ld  [ %g2 + 0x230 ], %g2
400017b4:	82 00 60 30 	add  %g1, 0x30, %g1
400017b8:	83 28 60 02 	sll  %g1, 2, %g1
400017bc:	c2 00 80 01 	ld  [ %g2 + %g1 ], %g1
400017c0:	82 88 60 1f 	andcc  %g1, 0x1f, %g1
400017c4:	02 bf ff f7 	be  400017a0 <__bcc_int_get_source+0x14>
400017c8:	01 00 00 00 	nop 
400017cc:	81 c3 e0 08 	retl 
400017d0:	90 10 00 01 	mov  %g1, %o0

400017d4 <__bcc_int_init>:
400017d4:	9d e3 bf 88 	save  %sp, -120, %sp
400017d8:	3b 10 00 3e 	sethi  %hi(0x4000f800), %i5
400017dc:	c2 07 62 30 	ld  [ %i5 + 0x230 ], %g1	! 4000fa30 <__bcc_int_handle>
400017e0:	80 a0 60 00 	cmp  %g1, 0
400017e4:	02 80 00 0e 	be  4000181c <__bcc_int_init+0x48>
400017e8:	05 10 00 3e 	sethi  %hi(0x4000f800), %g2
400017ec:	f0 00 a2 2c 	ld  [ %g2 + 0x22c ], %i0	! 4000fa2c <__bcc_int_irqmp_eirq>
400017f0:	80 a6 20 00 	cmp  %i0, 0
400017f4:	12 80 00 08 	bne  40001814 <__bcc_int_init+0x40>
400017f8:	01 00 00 00 	nop 
400017fc:	c2 00 60 10 	ld  [ %g1 + 0x10 ], %g1
40001800:	83 30 60 10 	srl  %g1, 0x10, %g1
40001804:	82 08 60 0f 	and  %g1, 0xf, %g1
40001808:	c2 20 a2 2c 	st  %g1, [ %g2 + 0x22c ]
4000180c:	81 c7 e0 08 	ret 
40001810:	81 e8 00 00 	restore 
40001814:	81 c7 e0 08 	ret 
40001818:	91 e8 20 00 	restore  %g0, 0, %o0
4000181c:	82 07 bf f0 	add  %fp, -16, %g1
40001820:	1b 10 00 08 	sethi  %hi(0x40002000), %o5
40001824:	c2 23 a0 5c 	st  %g1, [ %sp + 0x5c ]
40001828:	9a 13 61 6c 	or  %o5, 0x16c, %o5
4000182c:	98 10 20 04 	mov  4, %o4
40001830:	96 10 20 04 	mov  4, %o3
40001834:	94 10 20 0d 	mov  0xd, %o2
40001838:	92 10 20 01 	mov  1, %o1
4000183c:	11 3f fc 00 	sethi  %hi(0xfff00000), %o0
40001840:	40 00 02 3e 	call  40002138 <ambapp_visit>
40001844:	b0 10 20 01 	mov  1, %i0
40001848:	80 a2 20 00 	cmp  %o0, 0
4000184c:	02 80 00 29 	be  400018f0 <__bcc_int_init+0x11c>
40001850:	01 00 00 00 	nop 
40001854:	c4 02 20 20 	ld  [ %o0 + 0x20 ], %g2
40001858:	03 3c 00 00 	sethi  %hi(0xf0000000), %g1
4000185c:	80 88 80 01 	btst  %g2, %g1
40001860:	12 80 00 26 	bne  400018f8 <__bcc_int_init+0x124>
40001864:	03 10 00 3c 	sethi  %hi(0x4000f000), %g1
40001868:	05 10 00 3e 	sethi  %hi(0x4000f800), %g2
4000186c:	c2 02 20 10 	ld  [ %o0 + 0x10 ], %g1
40001870:	d0 27 62 30 	st  %o0, [ %i5 + 0x230 ]
40001874:	83 30 60 10 	srl  %g1, 0x10, %g1
40001878:	82 08 60 0f 	and  %g1, 0xf, %g1
4000187c:	c2 20 a2 2c 	st  %g1, [ %g2 + 0x22c ]
40001880:	c4 07 bf f8 	ld  [ %fp + -8 ], %g2
40001884:	80 a0 a3 00 	cmp  %g2, 0x300
40001888:	08 80 00 32 	bleu  40001950 <__bcc_int_init+0x17c>
4000188c:	03 10 00 3e 	sethi  %hi(0x4000f800), %g1
40001890:	c4 02 23 00 	ld  [ %o0 + 0x300 ], %g2
40001894:	c2 02 22 00 	ld  [ %o0 + 0x200 ], %g1
40001898:	86 38 00 01 	xnor  %g0, %g1, %g3
4000189c:	c6 22 23 00 	st  %g3, [ %o0 + 0x300 ]
400018a0:	c6 02 22 00 	ld  [ %o0 + 0x200 ], %g3
400018a4:	80 a0 40 03 	cmp  %g1, %g3
400018a8:	12 80 00 32 	bne  40001970 <__bcc_int_init+0x19c>
400018ac:	01 00 00 00 	nop 
400018b0:	82 38 00 02 	xnor  %g0, %g2, %g1
400018b4:	c2 22 23 00 	st  %g1, [ %o0 + 0x300 ]
400018b8:	c6 02 23 00 	ld  [ %o0 + 0x300 ], %g3
400018bc:	80 a0 80 03 	cmp  %g2, %g3
400018c0:	02 80 00 04 	be  400018d0 <__bcc_int_init+0xfc>
400018c4:	82 10 20 00 	clr  %g1
400018c8:	c4 22 23 00 	st  %g2, [ %o0 + 0x300 ]
400018cc:	82 10 20 01 	mov  1, %g1
400018d0:	05 10 00 3e 	sethi  %hi(0x4000f800), %g2
400018d4:	c2 20 a2 28 	st  %g1, [ %g2 + 0x228 ]	! 4000fa28 <__bcc_int_irqmp_map>
400018d8:	c2 02 21 04 	ld  [ %o0 + 0x104 ], %g1
400018dc:	05 10 00 3e 	sethi  %hi(0x4000f800), %g2
400018e0:	83 30 60 1b 	srl  %g1, 0x1b, %g1
400018e4:	c2 20 a2 24 	st  %g1, [ %g2 + 0x224 ]
400018e8:	81 c7 e0 08 	ret 
400018ec:	91 e8 20 00 	restore  %g0, 0, %o0
400018f0:	81 c7 e0 08 	ret 
400018f4:	81 e8 00 00 	restore 
400018f8:	c2 00 63 74 	ld  [ %g1 + 0x374 ], %g1
400018fc:	85 30 60 03 	srl  %g1, 3, %g2
40001900:	82 38 00 01 	xnor  %g0, %g1, %g1
40001904:	84 00 a0 08 	add  %g2, 8, %g2
40001908:	87 28 60 02 	sll  %g1, 2, %g3
4000190c:	85 28 a0 02 	sll  %g2, 2, %g2
40001910:	84 02 00 02 	add  %o0, %g2, %g2
40001914:	c2 00 a0 04 	ld  [ %g2 + 4 ], %g1
40001918:	83 30 40 03 	srl  %g1, %g3, %g1
4000191c:	82 08 60 0f 	and  %g1, 0xf, %g1
40001920:	83 28 60 0c 	sll  %g1, 0xc, %g1
40001924:	05 10 00 3e 	sethi  %hi(0x4000f800), %g2
40001928:	90 02 00 01 	add  %o0, %g1, %o0
4000192c:	c2 02 20 10 	ld  [ %o0 + 0x10 ], %g1
40001930:	d0 27 62 30 	st  %o0, [ %i5 + 0x230 ]
40001934:	83 30 60 10 	srl  %g1, 0x10, %g1
40001938:	82 08 60 0f 	and  %g1, 0xf, %g1
4000193c:	c2 20 a2 2c 	st  %g1, [ %g2 + 0x22c ]
40001940:	c4 07 bf f8 	ld  [ %fp + -8 ], %g2
40001944:	80 a0 a3 00 	cmp  %g2, 0x300
40001948:	18 bf ff d2 	bgu  40001890 <__bcc_int_init+0xbc>
4000194c:	03 10 00 3e 	sethi  %hi(0x4000f800), %g1
40001950:	c0 20 62 28 	clr  [ %g1 + 0x228 ]	! 4000fa28 <__bcc_int_irqmp_map>
40001954:	80 a0 a1 00 	cmp  %g2, 0x100
40001958:	18 bf ff e0 	bgu  400018d8 <__bcc_int_init+0x104>
4000195c:	82 10 20 00 	clr  %g1
40001960:	05 10 00 3e 	sethi  %hi(0x4000f800), %g2
40001964:	c2 20 a2 24 	st  %g1, [ %g2 + 0x224 ]	! 4000fa24 <__bcc_int_irqmp_nts>
40001968:	81 c7 e0 08 	ret 
4000196c:	91 e8 20 00 	restore  %g0, 0, %o0
40001970:	c2 22 22 00 	st  %g1, [ %o0 + 0x200 ]
40001974:	05 10 00 3e 	sethi  %hi(0x4000f800), %g2
40001978:	82 10 20 00 	clr  %g1
4000197c:	10 bf ff d7 	b  400018d8 <__bcc_int_init+0x104>
40001980:	c2 20 a2 28 	st  %g1, [ %g2 + 0x228 ]

40001984 <__bcc_con_init>:
40001984:	9d e3 bf 98 	save  %sp, -104, %sp
40001988:	3b 10 00 3e 	sethi  %hi(0x4000f800), %i5
4000198c:	c2 07 62 34 	ld  [ %i5 + 0x234 ], %g1	! 4000fa34 <__bcc_con_handle>
40001990:	80 a0 60 00 	cmp  %g1, 0
40001994:	12 80 00 0e 	bne  400019cc <__bcc_con_init+0x48>
40001998:	b0 10 20 00 	clr  %i0
4000199c:	c0 23 a0 5c 	clr  [ %sp + 0x5c ]
400019a0:	98 10 20 04 	mov  4, %o4
400019a4:	96 10 20 04 	mov  4, %o3
400019a8:	94 10 20 0c 	mov  0xc, %o2
400019ac:	92 10 20 01 	mov  1, %o1
400019b0:	1b 10 00 08 	sethi  %hi(0x40002000), %o5
400019b4:	11 3f fc 00 	sethi  %hi(0xfff00000), %o0
400019b8:	40 00 01 e0 	call  40002138 <ambapp_visit>
400019bc:	9a 13 61 6c 	or  %o5, 0x16c, %o5
400019c0:	80 a0 00 08 	cmp  %g0, %o0
400019c4:	d0 27 62 34 	st  %o0, [ %i5 + 0x234 ]
400019c8:	b0 60 3f ff 	subx  %g0, -1, %i0
400019cc:	81 c7 e0 08 	ret 
400019d0:	81 e8 00 00 	restore 

400019d4 <__bcc_timer_init>:
400019d4:	9d e3 bf 88 	save  %sp, -120, %sp
400019d8:	3b 10 00 3e 	sethi  %hi(0x4000f800), %i5
400019dc:	c2 07 62 3c 	ld  [ %i5 + 0x23c ], %g1	! 4000fa3c <__bcc_timer_handle>
400019e0:	80 a0 60 00 	cmp  %g1, 0
400019e4:	02 80 00 04 	be  400019f4 <__bcc_timer_init+0x20>
400019e8:	b0 10 20 00 	clr  %i0
400019ec:	81 c7 e0 08 	ret 
400019f0:	81 e8 00 00 	restore 
400019f4:	82 07 bf f0 	add  %fp, -16, %g1
400019f8:	1b 10 00 08 	sethi  %hi(0x40002000), %o5
400019fc:	c2 23 a0 5c 	st  %g1, [ %sp + 0x5c ]
40001a00:	9a 13 61 6c 	or  %o5, 0x16c, %o5
40001a04:	98 10 20 04 	mov  4, %o4
40001a08:	96 10 20 04 	mov  4, %o3
40001a0c:	94 10 20 11 	mov  0x11, %o2
40001a10:	92 10 20 01 	mov  1, %o1
40001a14:	40 00 01 c9 	call  40002138 <ambapp_visit>
40001a18:	11 3f fc 00 	sethi  %hi(0xfff00000), %o0
40001a1c:	d0 27 62 3c 	st  %o0, [ %i5 + 0x23c ]
40001a20:	80 a2 20 00 	cmp  %o0, 0
40001a24:	02 bf ff f2 	be  400019ec <__bcc_timer_init+0x18>
40001a28:	b0 10 20 01 	mov  1, %i0
40001a2c:	c4 0f bf f1 	ldub  [ %fp + -15 ], %g2
40001a30:	03 10 00 3e 	sethi  %hi(0x4000f800), %g1
40001a34:	c4 20 62 38 	st  %g2, [ %g1 + 0x238 ]	! 4000fa38 <__bcc_timer_interrupt>
40001a38:	81 c7 e0 08 	ret 
40001a3c:	91 e8 20 00 	restore  %g0, 0, %o0

40001a40 <ambapp_get_ahbinfo>:
40001a40:	80 a2 60 00 	cmp  %o1, 0
40001a44:	02 80 00 80 	be  40001c44 <ambapp_get_ahbinfo+0x204>
40001a48:	80 a2 a0 00 	cmp  %o2, 0
40001a4c:	02 80 00 a8 	be  40001cec <ambapp_get_ahbinfo+0x2ac>
40001a50:	01 00 00 00 	nop 
40001a54:	c4 02 40 00 	ld  [ %o1 ], %g2
40001a58:	d2 22 a0 34 	st  %o1, [ %o2 + 0x34 ]
40001a5c:	83 30 a0 05 	srl  %g2, 5, %g1
40001a60:	84 08 a0 1f 	and  %g2, 0x1f, %g2
40001a64:	86 08 60 1f 	and  %g1, 0x1f, %g3
40001a68:	82 08 60 60 	and  %g1, 0x60, %g1
40001a6c:	c6 2a 80 00 	stb  %g3, [ %o2 ]
40001a70:	82 10 40 02 	or  %g1, %g2, %g1
40001a74:	c2 2a a0 01 	stb  %g1, [ %o2 + 1 ]
40001a78:	c2 02 60 10 	ld  [ %o1 + 0x10 ], %g1
40001a7c:	80 a0 60 00 	cmp  %g1, 0
40001a80:	22 80 00 4c 	be,a   40001bb0 <ambapp_get_ahbinfo+0x170>
40001a84:	82 10 20 00 	clr  %g1
40001a88:	85 28 60 10 	sll  %g1, 0x10, %g2
40001a8c:	86 08 60 0f 	and  %g1, 0xf, %g3
40001a90:	84 08 80 01 	and  %g2, %g1, %g2
40001a94:	09 3f fc 00 	sethi  %hi(0xfff00000), %g4
40001a98:	80 a0 e0 03 	cmp  %g3, 3
40001a9c:	02 80 00 8b 	be  40001cc8 <ambapp_get_ahbinfo+0x288>
40001aa0:	84 08 80 04 	and  %g2, %g4, %g2
40001aa4:	83 30 60 04 	srl  %g1, 4, %g1
40001aa8:	83 28 60 14 	sll  %g1, 0x14, %g1
40001aac:	80 a0 00 01 	cmp  %g0, %g1
40001ab0:	88 60 20 00 	subx  %g0, 0, %g4
40001ab4:	82 29 00 01 	andn  %g4, %g1, %g1
40001ab8:	c6 2a a0 0c 	stb  %g3, [ %o2 + 0xc ]
40001abc:	c2 22 a0 08 	st  %g1, [ %o2 + 8 ]
40001ac0:	c4 22 a0 04 	st  %g2, [ %o2 + 4 ]
40001ac4:	c2 02 60 14 	ld  [ %o1 + 0x14 ], %g1
40001ac8:	80 a0 60 00 	cmp  %g1, 0
40001acc:	22 80 00 43 	be,a   40001bd8 <ambapp_get_ahbinfo+0x198>
40001ad0:	82 10 20 00 	clr  %g1
40001ad4:	85 28 60 10 	sll  %g1, 0x10, %g2
40001ad8:	86 08 60 0f 	and  %g1, 0xf, %g3
40001adc:	84 08 80 01 	and  %g2, %g1, %g2
40001ae0:	09 3f fc 00 	sethi  %hi(0xfff00000), %g4
40001ae4:	80 a0 e0 03 	cmp  %g3, 3
40001ae8:	02 80 00 6f 	be  40001ca4 <ambapp_get_ahbinfo+0x264>
40001aec:	84 08 80 04 	and  %g2, %g4, %g2
40001af0:	83 30 60 04 	srl  %g1, 4, %g1
40001af4:	83 28 60 14 	sll  %g1, 0x14, %g1
40001af8:	80 a0 00 01 	cmp  %g0, %g1
40001afc:	88 60 20 00 	subx  %g0, 0, %g4
40001b00:	82 29 00 01 	andn  %g4, %g1, %g1
40001b04:	c6 2a a0 18 	stb  %g3, [ %o2 + 0x18 ]
40001b08:	c2 22 a0 14 	st  %g1, [ %o2 + 0x14 ]
40001b0c:	c4 22 a0 10 	st  %g2, [ %o2 + 0x10 ]
40001b10:	c2 02 60 18 	ld  [ %o1 + 0x18 ], %g1
40001b14:	80 a0 60 00 	cmp  %g1, 0
40001b18:	22 80 00 3a 	be,a   40001c00 <ambapp_get_ahbinfo+0x1c0>
40001b1c:	82 10 20 00 	clr  %g1
40001b20:	85 28 60 10 	sll  %g1, 0x10, %g2
40001b24:	86 08 60 0f 	and  %g1, 0xf, %g3
40001b28:	84 08 80 01 	and  %g2, %g1, %g2
40001b2c:	09 3f fc 00 	sethi  %hi(0xfff00000), %g4
40001b30:	80 a0 e0 03 	cmp  %g3, 3
40001b34:	02 80 00 53 	be  40001c80 <ambapp_get_ahbinfo+0x240>
40001b38:	84 08 80 04 	and  %g2, %g4, %g2
40001b3c:	83 30 60 04 	srl  %g1, 4, %g1
40001b40:	83 28 60 14 	sll  %g1, 0x14, %g1
40001b44:	80 a0 00 01 	cmp  %g0, %g1
40001b48:	88 60 20 00 	subx  %g0, 0, %g4
40001b4c:	82 29 00 01 	andn  %g4, %g1, %g1
40001b50:	c6 2a a0 24 	stb  %g3, [ %o2 + 0x24 ]
40001b54:	c2 22 a0 20 	st  %g1, [ %o2 + 0x20 ]
40001b58:	c4 22 a0 1c 	st  %g2, [ %o2 + 0x1c ]
40001b5c:	c2 02 60 1c 	ld  [ %o1 + 0x1c ], %g1
40001b60:	80 a0 60 00 	cmp  %g1, 0
40001b64:	22 80 00 31 	be,a   40001c28 <ambapp_get_ahbinfo+0x1e8>
40001b68:	82 10 20 00 	clr  %g1
40001b6c:	85 28 60 10 	sll  %g1, 0x10, %g2
40001b70:	86 08 60 0f 	and  %g1, 0xf, %g3
40001b74:	84 08 80 01 	and  %g2, %g1, %g2
40001b78:	09 3f fc 00 	sethi  %hi(0xfff00000), %g4
40001b7c:	80 a0 e0 03 	cmp  %g3, 3
40001b80:	02 80 00 33 	be  40001c4c <ambapp_get_ahbinfo+0x20c>
40001b84:	84 08 80 04 	and  %g2, %g4, %g2
40001b88:	83 30 60 04 	srl  %g1, 4, %g1
40001b8c:	c4 22 a0 28 	st  %g2, [ %o2 + 0x28 ]
40001b90:	83 28 60 14 	sll  %g1, 0x14, %g1
40001b94:	c6 2a a0 30 	stb  %g3, [ %o2 + 0x30 ]
40001b98:	80 a0 00 01 	cmp  %g0, %g1
40001b9c:	90 10 20 00 	clr  %o0
40001ba0:	88 60 20 00 	subx  %g0, 0, %g4
40001ba4:	82 29 00 01 	andn  %g4, %g1, %g1
40001ba8:	81 c3 e0 08 	retl 
40001bac:	c2 22 a0 2c 	st  %g1, [ %o2 + 0x2c ]
40001bb0:	84 10 20 00 	clr  %g2
40001bb4:	86 10 20 00 	clr  %g3
40001bb8:	c2 22 a0 08 	st  %g1, [ %o2 + 8 ]
40001bbc:	c6 2a a0 0c 	stb  %g3, [ %o2 + 0xc ]
40001bc0:	c4 22 a0 04 	st  %g2, [ %o2 + 4 ]
40001bc4:	c2 02 60 14 	ld  [ %o1 + 0x14 ], %g1
40001bc8:	80 a0 60 00 	cmp  %g1, 0
40001bcc:	12 bf ff c3 	bne  40001ad8 <ambapp_get_ahbinfo+0x98>
40001bd0:	85 28 60 10 	sll  %g1, 0x10, %g2
40001bd4:	82 10 20 00 	clr  %g1
40001bd8:	84 10 20 00 	clr  %g2
40001bdc:	86 10 20 00 	clr  %g3
40001be0:	c2 22 a0 14 	st  %g1, [ %o2 + 0x14 ]
40001be4:	c6 2a a0 18 	stb  %g3, [ %o2 + 0x18 ]
40001be8:	c4 22 a0 10 	st  %g2, [ %o2 + 0x10 ]
40001bec:	c2 02 60 18 	ld  [ %o1 + 0x18 ], %g1
40001bf0:	80 a0 60 00 	cmp  %g1, 0
40001bf4:	12 bf ff cc 	bne  40001b24 <ambapp_get_ahbinfo+0xe4>
40001bf8:	85 28 60 10 	sll  %g1, 0x10, %g2
40001bfc:	82 10 20 00 	clr  %g1
40001c00:	84 10 20 00 	clr  %g2
40001c04:	86 10 20 00 	clr  %g3
40001c08:	c2 22 a0 20 	st  %g1, [ %o2 + 0x20 ]
40001c0c:	c6 2a a0 24 	stb  %g3, [ %o2 + 0x24 ]
40001c10:	c4 22 a0 1c 	st  %g2, [ %o2 + 0x1c ]
40001c14:	c2 02 60 1c 	ld  [ %o1 + 0x1c ], %g1
40001c18:	80 a0 60 00 	cmp  %g1, 0
40001c1c:	12 bf ff d5 	bne  40001b70 <ambapp_get_ahbinfo+0x130>
40001c20:	85 28 60 10 	sll  %g1, 0x10, %g2
40001c24:	82 10 20 00 	clr  %g1
40001c28:	84 10 20 00 	clr  %g2
40001c2c:	86 10 20 00 	clr  %g3
40001c30:	c4 22 a0 28 	st  %g2, [ %o2 + 0x28 ]
40001c34:	c2 22 a0 2c 	st  %g1, [ %o2 + 0x2c ]
40001c38:	c6 2a a0 30 	stb  %g3, [ %o2 + 0x30 ]
40001c3c:	81 c3 e0 08 	retl 
40001c40:	90 10 20 00 	clr  %o0
40001c44:	81 c3 e0 08 	retl 
40001c48:	90 10 20 01 	mov  1, %o0
40001c4c:	85 30 a0 0c 	srl  %g2, 0xc, %g2
40001c50:	82 38 00 01 	xnor  %g0, %g1, %g1
40001c54:	84 12 00 02 	or  %o0, %g2, %g2
40001c58:	83 28 60 04 	sll  %g1, 4, %g1
40001c5c:	09 00 03 ff 	sethi  %hi(0xffc00), %g4
40001c60:	c4 22 a0 28 	st  %g2, [ %o2 + 0x28 ]
40001c64:	88 11 23 00 	or  %g4, 0x300, %g4
40001c68:	c6 2a a0 30 	stb  %g3, [ %o2 + 0x30 ]
40001c6c:	82 08 40 04 	and  %g1, %g4, %g1
40001c70:	90 10 20 00 	clr  %o0
40001c74:	82 10 60 ff 	or  %g1, 0xff, %g1
40001c78:	81 c3 e0 08 	retl 
40001c7c:	c2 22 a0 2c 	st  %g1, [ %o2 + 0x2c ]
40001c80:	85 30 a0 0c 	srl  %g2, 0xc, %g2
40001c84:	82 38 00 01 	xnor  %g0, %g1, %g1
40001c88:	09 00 03 ff 	sethi  %hi(0xffc00), %g4
40001c8c:	83 28 60 04 	sll  %g1, 4, %g1
40001c90:	88 11 23 00 	or  %g4, 0x300, %g4
40001c94:	84 12 00 02 	or  %o0, %g2, %g2
40001c98:	82 08 40 04 	and  %g1, %g4, %g1
40001c9c:	10 bf ff ad 	b  40001b50 <ambapp_get_ahbinfo+0x110>
40001ca0:	82 10 60 ff 	or  %g1, 0xff, %g1
40001ca4:	85 30 a0 0c 	srl  %g2, 0xc, %g2
40001ca8:	82 38 00 01 	xnor  %g0, %g1, %g1
40001cac:	09 00 03 ff 	sethi  %hi(0xffc00), %g4
40001cb0:	83 28 60 04 	sll  %g1, 4, %g1
40001cb4:	88 11 23 00 	or  %g4, 0x300, %g4
40001cb8:	84 12 00 02 	or  %o0, %g2, %g2
40001cbc:	82 08 40 04 	and  %g1, %g4, %g1
40001cc0:	10 bf ff 91 	b  40001b04 <ambapp_get_ahbinfo+0xc4>
40001cc4:	82 10 60 ff 	or  %g1, 0xff, %g1
40001cc8:	85 30 a0 0c 	srl  %g2, 0xc, %g2
40001ccc:	82 38 00 01 	xnor  %g0, %g1, %g1
40001cd0:	09 00 03 ff 	sethi  %hi(0xffc00), %g4
40001cd4:	83 28 60 04 	sll  %g1, 4, %g1
40001cd8:	88 11 23 00 	or  %g4, 0x300, %g4
40001cdc:	84 12 00 02 	or  %o0, %g2, %g2
40001ce0:	82 08 40 04 	and  %g1, %g4, %g1
40001ce4:	10 bf ff 75 	b  40001ab8 <ambapp_get_ahbinfo+0x78>
40001ce8:	82 10 60 ff 	or  %g1, 0xff, %g1
40001cec:	81 c3 e0 08 	retl 
40001cf0:	90 10 20 02 	mov  2, %o0

40001cf4 <ambapp_visit_ahbctrl>:
40001cf4:	9d e3 bf 50 	save  %sp, -176, %sp
40001cf8:	f6 27 bf bc 	st  %i3, [ %fp + -68 ]
40001cfc:	f0 27 bf b8 	st  %i0, [ %fp + -72 ]
40001d00:	ec 07 a0 5c 	ld  [ %fp + 0x5c ], %l6
40001d04:	80 8e e0 01 	btst  1, %i3
40001d08:	02 80 00 35 	be  40001ddc <ambapp_visit_ahbctrl+0xe8>
40001d0c:	ea 07 a0 60 	ld  [ %fp + 0x60 ], %l5
40001d10:	80 a0 00 19 	cmp  %g0, %i1
40001d14:	a4 60 3f ff 	subx  %g0, -1, %l2
40001d18:	80 a0 00 1a 	cmp  %g0, %i2
40001d1c:	21 00 03 fc 	sethi  %hi(0xff000), %l0
40001d20:	a6 60 3f ff 	subx  %g0, -1, %l3
40001d24:	a0 16 00 10 	or  %i0, %l0, %l0
40001d28:	80 a0 00 16 	cmp  %g0, %l6
40001d2c:	ae 10 00 18 	mov  %i0, %l7
40001d30:	a2 04 28 00 	add  %l0, 0x800, %l1
40001d34:	10 80 00 06 	b  40001d4c <ambapp_visit_ahbctrl+0x58>
40001d38:	a8 40 20 00 	addx  %g0, 0, %l4
40001d3c:	a0 04 20 20 	add  %l0, 0x20, %l0
40001d40:	80 a4 00 11 	cmp  %l0, %l1
40001d44:	02 80 00 27 	be  40001de0 <ambapp_visit_ahbctrl+0xec>
40001d48:	c2 07 bf b8 	ld  [ %fp + -72 ], %g1
40001d4c:	c2 04 00 00 	ld  [ %l0 ], %g1
40001d50:	b1 30 60 18 	srl  %g1, 0x18, %i0
40001d54:	83 30 60 0c 	srl  %g1, 0xc, %g1
40001d58:	b6 08 6f ff 	and  %g1, 0xfff, %i3
40001d5c:	80 96 00 1b 	orcc  %i0, %i3, %g0
40001d60:	22 bf ff f8 	be,a   40001d40 <ambapp_visit_ahbctrl+0x4c>
40001d64:	a0 04 20 20 	add  %l0, 0x20, %l0
40001d68:	80 a4 a0 00 	cmp  %l2, 0
40001d6c:	12 80 00 05 	bne  40001d80 <ambapp_visit_ahbctrl+0x8c>
40001d70:	82 1e c0 1a 	xor  %i3, %i2, %g1
40001d74:	80 a6 00 19 	cmp  %i0, %i1
40001d78:	32 bf ff f2 	bne,a   40001d40 <ambapp_visit_ahbctrl+0x4c>
40001d7c:	a0 04 20 20 	add  %l0, 0x20, %l0
40001d80:	80 a0 00 01 	cmp  %g0, %g1
40001d84:	82 60 3f ff 	subx  %g0, -1, %g1
40001d88:	80 94 c0 01 	orcc  %l3, %g1, %g0
40001d8c:	02 bf ff ec 	be  40001d3c <ambapp_visit_ahbctrl+0x48>
40001d90:	92 10 00 10 	mov  %l0, %o1
40001d94:	94 07 bf c8 	add  %fp, -56, %o2
40001d98:	80 a5 20 00 	cmp  %l4, 0
40001d9c:	02 bf ff e8 	be  40001d3c <ambapp_visit_ahbctrl+0x48>
40001da0:	90 10 00 17 	mov  %l7, %o0
40001da4:	7f ff ff 27 	call  40001a40 <ambapp_get_ahbinfo>
40001da8:	01 00 00 00 	nop 
40001dac:	9a 10 00 15 	mov  %l5, %o5
40001db0:	98 10 00 1c 	mov  %i4, %o4
40001db4:	96 10 20 01 	mov  1, %o3
40001db8:	94 10 00 1b 	mov  %i3, %o2
40001dbc:	92 10 00 18 	mov  %i0, %o1
40001dc0:	9f c5 80 00 	call  %l6
40001dc4:	90 07 bf c8 	add  %fp, -56, %o0
40001dc8:	80 a2 20 00 	cmp  %o0, 0
40001dcc:	02 bf ff dd 	be  40001d40 <ambapp_visit_ahbctrl+0x4c>
40001dd0:	a0 04 20 20 	add  %l0, 0x20, %l0
40001dd4:	81 c7 e0 08 	ret 
40001dd8:	91 e8 00 08 	restore  %g0, %o0, %o0
40001ddc:	c2 07 bf b8 	ld  [ %fp + -72 ], %g1
40001de0:	80 a0 00 19 	cmp  %g0, %i1
40001de4:	21 00 03 fe 	sethi  %hi(0xff800), %l0
40001de8:	a0 10 40 10 	or  %g1, %l0, %l0
40001dec:	c2 07 bf bc 	ld  [ %fp + -68 ], %g1
40001df0:	a6 08 60 02 	and  %g1, 2, %l3
40001df4:	82 08 60 04 	and  %g1, 4, %g1
40001df8:	a4 60 3f ff 	subx  %g0, -1, %l2
40001dfc:	c2 27 bf c4 	st  %g1, [ %fp + -60 ]
40001e00:	80 a0 00 16 	cmp  %g0, %l6
40001e04:	86 07 20 01 	add  %i4, 1, %g3
40001e08:	82 40 20 00 	addx  %g0, 0, %g1
40001e0c:	ec 27 a0 5c 	st  %l6, [ %fp + 0x5c ]
40001e10:	a8 04 28 00 	add  %l0, 0x800, %l4
40001e14:	c2 27 bf c0 	st  %g1, [ %fp + -64 ]
40001e18:	a2 10 00 15 	mov  %l5, %l1
40001e1c:	ac 10 00 03 	mov  %g3, %l6
40001e20:	f6 04 00 00 	ld  [ %l0 ], %i3
40001e24:	80 a4 e0 00 	cmp  %l3, 0
40001e28:	b1 36 e0 0c 	srl  %i3, 0xc, %i0
40001e2c:	b7 36 e0 18 	srl  %i3, 0x18, %i3
40001e30:	02 80 00 0a 	be  40001e58 <ambapp_visit_ahbctrl+0x164>
40001e34:	aa 0e 2f ff 	and  %i0, 0xfff, %l5
40001e38:	80 96 c0 15 	orcc  %i3, %l5, %g0
40001e3c:	22 80 00 6d 	be,a   40001ff0 <ambapp_visit_ahbctrl+0x2fc>
40001e40:	a0 04 20 20 	add  %l0, 0x20, %l0
40001e44:	80 a4 a0 00 	cmp  %l2, 0
40001e48:	12 80 00 70 	bne  40002008 <ambapp_visit_ahbctrl+0x314>
40001e4c:	80 a6 40 1b 	cmp  %i1, %i3
40001e50:	02 80 00 6f 	be  4000200c <ambapp_visit_ahbctrl+0x318>
40001e54:	80 a0 00 1a 	cmp  %g0, %i2
40001e58:	80 a7 00 1d 	cmp  %i4, %i5
40001e5c:	1a 80 00 64 	bcc  40001fec <ambapp_visit_ahbctrl+0x2f8>
40001e60:	82 1e e0 01 	xor  %i3, 1, %g1
40001e64:	80 a0 00 01 	cmp  %g0, %g1
40001e68:	b0 0e 2f fb 	and  %i0, 0xffb, %i0
40001e6c:	9e 60 3f ff 	subx  %g0, -1, %o7
40001e70:	b0 1e 20 4b 	xor  %i0, 0x4b, %i0
40001e74:	80 a0 00 18 	cmp  %g0, %i0
40001e78:	84 1d 60 20 	xor  %l5, 0x20, %g2
40001e7c:	82 60 3f ff 	subx  %g0, -1, %g1
40001e80:	80 a0 00 02 	cmp  %g0, %g2
40001e84:	84 60 3f ff 	subx  %g0, -1, %g2
40001e88:	82 10 40 02 	or  %g1, %g2, %g1
40001e8c:	80 a0 60 00 	cmp  %g1, 0
40001e90:	02 80 00 86 	be  400020a8 <ambapp_visit_ahbctrl+0x3b4>
40001e94:	b0 10 00 01 	mov  %g1, %i0
40001e98:	80 a6 e0 01 	cmp  %i3, 1
40001e9c:	32 80 00 55 	bne,a   40001ff0 <ambapp_visit_ahbctrl+0x2fc>
40001ea0:	a0 04 20 20 	add  %l0, 0x20, %l0
40001ea4:	d0 04 20 08 	ld  [ %l0 + 8 ], %o0
40001ea8:	80 a2 20 00 	cmp  %o0, 0
40001eac:	12 80 00 72 	bne  40002074 <ambapp_visit_ahbctrl+0x380>
40001eb0:	c2 07 a0 5c 	ld  [ %fp + 0x5c ], %g1
40001eb4:	c2 07 bf c4 	ld  [ %fp + -60 ], %g1
40001eb8:	80 a0 60 00 	cmp  %g1, 0
40001ebc:	22 80 00 4d 	be,a   40001ff0 <ambapp_visit_ahbctrl+0x2fc>
40001ec0:	a0 04 20 20 	add  %l0, 0x20, %l0
40001ec4:	80 a5 60 06 	cmp  %l5, 6
40001ec8:	12 80 00 49 	bne  40001fec <ambapp_visit_ahbctrl+0x2f8>
40001ecc:	80 8e 20 ff 	btst  0xff, %i0
40001ed0:	02 80 00 47 	be  40001fec <ambapp_visit_ahbctrl+0x2f8>
40001ed4:	80 a0 00 1a 	cmp  %g0, %i2
40001ed8:	c2 04 20 10 	ld  [ %l0 + 0x10 ], %g1
40001edc:	af 28 60 10 	sll  %g1, 0x10, %l7
40001ee0:	37 00 03 fc 	sethi  %hi(0xff000), %i3
40001ee4:	ae 0d c0 01 	and  %l7, %g1, %l7
40001ee8:	aa 60 3f ff 	subx  %g0, -1, %l5
40001eec:	03 3f fc 00 	sethi  %hi(0xfff00000), %g1
40001ef0:	ae 0d c0 01 	and  %l7, %g1, %l7
40001ef4:	b6 15 c0 1b 	or  %l7, %i3, %i3
40001ef8:	10 80 00 06 	b  40001f10 <ambapp_visit_ahbctrl+0x21c>
40001efc:	b0 06 e0 80 	add  %i3, 0x80, %i0
40001f00:	b6 06 e0 08 	add  %i3, 8, %i3
40001f04:	80 a6 00 1b 	cmp  %i0, %i3
40001f08:	22 80 00 3a 	be,a   40001ff0 <ambapp_visit_ahbctrl+0x2fc>
40001f0c:	a0 04 20 20 	add  %l0, 0x20, %l0
40001f10:	c2 06 c0 00 	ld  [ %i3 ], %g1
40001f14:	93 30 60 18 	srl  %g1, 0x18, %o1
40001f18:	95 30 60 0c 	srl  %g1, 0xc, %o2
40001f1c:	94 0a af ff 	and  %o2, 0xfff, %o2
40001f20:	80 92 40 0a 	orcc  %o1, %o2, %g0
40001f24:	22 bf ff f8 	be,a   40001f04 <ambapp_visit_ahbctrl+0x210>
40001f28:	b6 06 e0 08 	add  %i3, 8, %i3
40001f2c:	80 a4 a0 00 	cmp  %l2, 0
40001f30:	12 80 00 05 	bne  40001f44 <ambapp_visit_ahbctrl+0x250>
40001f34:	84 1e 80 0a 	xor  %i2, %o2, %g2
40001f38:	80 a6 40 09 	cmp  %i1, %o1
40001f3c:	32 bf ff f2 	bne,a   40001f04 <ambapp_visit_ahbctrl+0x210>
40001f40:	b6 06 e0 08 	add  %i3, 8, %i3
40001f44:	80 a0 00 02 	cmp  %g0, %g2
40001f48:	84 60 3f ff 	subx  %g0, -1, %g2
40001f4c:	80 95 40 02 	orcc  %l5, %g2, %g0
40001f50:	02 bf ff ec 	be  40001f00 <ambapp_visit_ahbctrl+0x20c>
40001f54:	87 30 60 05 	srl  %g1, 5, %g3
40001f58:	84 08 e0 1f 	and  %g3, 0x1f, %g2
40001f5c:	86 08 e0 60 	and  %g3, 0x60, %g3
40001f60:	82 08 60 1f 	and  %g1, 0x1f, %g1
40001f64:	9a 10 00 11 	mov  %l1, %o5
40001f68:	82 10 c0 01 	or  %g3, %g1, %g1
40001f6c:	98 10 00 16 	mov  %l6, %o4
40001f70:	c6 07 bf c0 	ld  [ %fp + -64 ], %g3
40001f74:	96 10 20 04 	mov  4, %o3
40001f78:	80 a0 e0 00 	cmp  %g3, 0
40001f7c:	02 bf ff e1 	be  40001f00 <ambapp_visit_ahbctrl+0x20c>
40001f80:	90 07 bf c8 	add  %fp, -56, %o0
40001f84:	c2 2f bf c9 	stb  %g1, [ %fp + -55 ]
40001f88:	c4 2f bf c8 	stb  %g2, [ %fp + -56 ]
40001f8c:	c4 06 e0 04 	ld  [ %i3 + 4 ], %g2
40001f90:	87 28 a0 04 	sll  %g2, 4, %g3
40001f94:	83 30 a0 0c 	srl  %g2, 0xc, %g1
40001f98:	84 10 00 03 	mov  %g3, %g2
40001f9c:	82 08 40 03 	and  %g1, %g3, %g1
40001fa0:	07 00 03 ff 	sethi  %hi(0xffc00), %g3
40001fa4:	88 10 e3 00 	or  %g3, 0x300, %g4	! fff00 <__data_size+0xff8f0>
40001fa8:	86 10 e3 ff 	or  %g3, 0x3ff, %g3
40001fac:	84 08 80 04 	and  %g2, %g4, %g2
40001fb0:	82 08 40 04 	and  %g1, %g4, %g1
40001fb4:	84 18 80 03 	xor  %g2, %g3, %g2
40001fb8:	82 10 40 17 	or  %g1, %l7, %g1
40001fbc:	f6 27 bf d4 	st  %i3, [ %fp + -44 ]
40001fc0:	c2 27 bf cc 	st  %g1, [ %fp + -52 ]
40001fc4:	c4 27 bf d0 	st  %g2, [ %fp + -48 ]
40001fc8:	c2 07 a0 5c 	ld  [ %fp + 0x5c ], %g1
40001fcc:	9f c0 40 00 	call  %g1
40001fd0:	01 00 00 00 	nop 
40001fd4:	80 a2 20 00 	cmp  %o0, 0
40001fd8:	12 bf ff 7f 	bne  40001dd4 <ambapp_visit_ahbctrl+0xe0>
40001fdc:	b6 06 e0 08 	add  %i3, 8, %i3
40001fe0:	80 a6 00 1b 	cmp  %i0, %i3
40001fe4:	32 bf ff cc 	bne,a   40001f14 <ambapp_visit_ahbctrl+0x220>
40001fe8:	c2 06 c0 00 	ld  [ %i3 ], %g1
40001fec:	a0 04 20 20 	add  %l0, 0x20, %l0
40001ff0:	80 a4 00 14 	cmp  %l0, %l4
40001ff4:	32 bf ff 8c 	bne,a   40001e24 <ambapp_visit_ahbctrl+0x130>
40001ff8:	f6 04 00 00 	ld  [ %l0 ], %i3
40001ffc:	90 10 20 00 	clr  %o0
40002000:	81 c7 e0 08 	ret 
40002004:	91 e8 00 08 	restore  %g0, %o0, %o0
40002008:	80 a0 00 1a 	cmp  %g0, %i2
4000200c:	82 1e 80 15 	xor  %i2, %l5, %g1
40002010:	84 60 3f ff 	subx  %g0, -1, %g2
40002014:	80 a0 00 01 	cmp  %g0, %g1
40002018:	82 60 3f ff 	subx  %g0, -1, %g1
4000201c:	80 90 80 01 	orcc  %g2, %g1, %g0
40002020:	02 bf ff 8e 	be  40001e58 <ambapp_visit_ahbctrl+0x164>
40002024:	c2 07 bf c0 	ld  [ %fp + -64 ], %g1
40002028:	80 a0 60 00 	cmp  %g1, 0
4000202c:	02 bf ff 8c 	be  40001e5c <ambapp_visit_ahbctrl+0x168>
40002030:	80 a7 00 1d 	cmp  %i4, %i5
40002034:	92 10 00 10 	mov  %l0, %o1
40002038:	94 07 bf c8 	add  %fp, -56, %o2
4000203c:	7f ff fe 81 	call  40001a40 <ambapp_get_ahbinfo>
40002040:	d0 07 bf b8 	ld  [ %fp + -72 ], %o0
40002044:	9a 10 00 11 	mov  %l1, %o5
40002048:	98 10 00 1c 	mov  %i4, %o4
4000204c:	96 10 20 02 	mov  2, %o3
40002050:	94 10 00 15 	mov  %l5, %o2
40002054:	92 10 00 1b 	mov  %i3, %o1
40002058:	c2 07 a0 5c 	ld  [ %fp + 0x5c ], %g1
4000205c:	9f c0 40 00 	call  %g1
40002060:	90 07 bf c8 	add  %fp, -56, %o0
40002064:	80 a2 20 00 	cmp  %o0, 0
40002068:	02 bf ff 7d 	be  40001e5c <ambapp_visit_ahbctrl+0x168>
4000206c:	80 a7 00 1d 	cmp  %i4, %i5
40002070:	30 bf ff 59 	b,a   40001dd4 <ambapp_visit_ahbctrl+0xe0>
40002074:	e2 23 a0 60 	st  %l1, [ %sp + 0x60 ]
40002078:	c2 23 a0 5c 	st  %g1, [ %sp + 0x5c ]
4000207c:	9a 10 00 1d 	mov  %i5, %o5
40002080:	98 10 00 16 	mov  %l6, %o4
40002084:	d6 07 bf bc 	ld  [ %fp + -68 ], %o3
40002088:	94 10 00 1a 	mov  %i2, %o2
4000208c:	7f ff ff 1a 	call  40001cf4 <ambapp_visit_ahbctrl>
40002090:	92 10 00 19 	mov  %i1, %o1
40002094:	80 a2 20 00 	cmp  %o0, 0
40002098:	02 bf ff 88 	be  40001eb8 <ambapp_visit_ahbctrl+0x1c4>
4000209c:	c2 07 bf c4 	ld  [ %fp + -60 ], %g1
400020a0:	81 c7 e0 08 	ret 
400020a4:	91 e8 00 08 	restore  %g0, %o0, %o0
400020a8:	10 bf ff 83 	b  40001eb4 <ambapp_visit_ahbctrl+0x1c0>
400020ac:	b0 10 00 0f 	mov  %o7, %i0

400020b0 <ambapp_get_apbinfo>:
400020b0:	80 a2 60 00 	cmp  %o1, 0
400020b4:	02 80 00 1c 	be  40002124 <ambapp_get_apbinfo+0x74>
400020b8:	80 a2 a0 00 	cmp  %o2, 0
400020bc:	02 80 00 1d 	be  40002130 <ambapp_get_apbinfo+0x80>
400020c0:	03 00 03 ff 	sethi  %hi(0xffc00), %g1
400020c4:	c8 02 40 00 	ld  [ %o1 ], %g4
400020c8:	87 31 20 05 	srl  %g4, 5, %g3
400020cc:	98 10 63 00 	or  %g1, 0x300, %o4
400020d0:	84 08 e0 1f 	and  %g3, 0x1f, %g2
400020d4:	9a 09 20 1f 	and  %g4, 0x1f, %o5
400020d8:	c4 2a 80 00 	stb  %g2, [ %o2 ]
400020dc:	88 10 63 ff 	or  %g1, 0x3ff, %g4
400020e0:	86 08 e0 60 	and  %g3, 0x60, %g3
400020e4:	86 10 c0 0d 	or  %g3, %o5, %g3
400020e8:	c6 2a a0 01 	stb  %g3, [ %o2 + 1 ]
400020ec:	c2 02 60 04 	ld  [ %o1 + 4 ], %g1
400020f0:	d2 22 a0 0c 	st  %o1, [ %o2 + 0xc ]
400020f4:	85 30 60 0c 	srl  %g1, 0xc, %g2
400020f8:	9b 28 60 04 	sll  %g1, 4, %o5
400020fc:	86 10 20 00 	clr  %g3
40002100:	84 08 80 0d 	and  %g2, %o5, %g2
40002104:	82 0b 40 0c 	and  %o5, %o4, %g1
40002108:	84 08 80 0c 	and  %g2, %o4, %g2
4000210c:	82 18 40 04 	xor  %g1, %g4, %g1
40002110:	84 10 80 08 	or  %g2, %o0, %g2
40002114:	c2 22 a0 08 	st  %g1, [ %o2 + 8 ]
40002118:	c4 22 a0 04 	st  %g2, [ %o2 + 4 ]
4000211c:	81 c3 e0 08 	retl 
40002120:	90 10 00 03 	mov  %g3, %o0
40002124:	86 10 20 01 	mov  1, %g3
40002128:	81 c3 e0 08 	retl 
4000212c:	90 10 00 03 	mov  %g3, %o0
40002130:	10 bf ff fb 	b  4000211c <ambapp_get_apbinfo+0x6c>
40002134:	86 10 20 02 	mov  2, %g3

40002138 <ambapp_visit>:
40002138:	9d e3 bf 98 	save  %sp, -104, %sp
4000213c:	c2 07 a0 5c 	ld  [ %fp + 0x5c ], %g1
40002140:	fa 23 a0 5c 	st  %i5, [ %sp + 0x5c ]
40002144:	c2 23 a0 60 	st  %g1, [ %sp + 0x60 ]
40002148:	9a 10 00 1c 	mov  %i4, %o5
4000214c:	98 10 20 00 	clr  %o4
40002150:	96 10 00 1b 	mov  %i3, %o3
40002154:	94 10 00 1a 	mov  %i2, %o2
40002158:	92 10 00 19 	mov  %i1, %o1
4000215c:	7f ff fe e6 	call  40001cf4 <ambapp_visit_ahbctrl>
40002160:	90 10 00 18 	mov  %i0, %o0
40002164:	81 c7 e0 08 	ret 
40002168:	91 e8 00 08 	restore  %g0, %o0, %o0

4000216c <ambapp_findfirst_fn>:
4000216c:	9d e3 bf a0 	save  %sp, -96, %sp
40002170:	80 a7 60 00 	cmp  %i5, 0
40002174:	02 80 00 07 	be  40002190 <ambapp_findfirst_fn+0x24>
40002178:	80 a6 e0 04 	cmp  %i3, 4
4000217c:	02 80 00 08 	be  4000219c <ambapp_findfirst_fn+0x30>
40002180:	b6 06 ff ff 	add  %i3, -1, %i3
40002184:	80 a6 e0 01 	cmp  %i3, 1
40002188:	08 80 00 10 	bleu  400021c8 <ambapp_findfirst_fn+0x5c>
4000218c:	92 10 00 18 	mov  %i0, %o1
40002190:	f0 06 20 04 	ld  [ %i0 + 4 ], %i0
40002194:	81 c7 e0 08 	ret 
40002198:	81 e8 00 00 	restore 
4000219c:	c2 06 00 00 	ld  [ %i0 ], %g1
400021a0:	c2 27 40 00 	st  %g1, [ %i5 ]
400021a4:	c2 06 20 04 	ld  [ %i0 + 4 ], %g1
400021a8:	c2 27 60 04 	st  %g1, [ %i5 + 4 ]
400021ac:	c2 06 20 08 	ld  [ %i0 + 8 ], %g1
400021b0:	c2 27 60 08 	st  %g1, [ %i5 + 8 ]
400021b4:	c2 06 20 0c 	ld  [ %i0 + 0xc ], %g1
400021b8:	f0 06 20 04 	ld  [ %i0 + 4 ], %i0
400021bc:	c2 27 60 0c 	st  %g1, [ %i5 + 0xc ]
400021c0:	81 c7 e0 08 	ret 
400021c4:	81 e8 00 00 	restore 
400021c8:	94 10 20 38 	mov  0x38, %o2
400021cc:	40 00 00 1b 	call  40002238 <memcpy>
400021d0:	90 10 00 1d 	mov  %i5, %o0
400021d4:	f0 06 20 04 	ld  [ %i0 + 4 ], %i0
400021d8:	81 c7 e0 08 	ret 
400021dc:	81 e8 00 00 	restore 

400021e0 <atexit>:
400021e0:	92 10 00 08 	mov  %o0, %o1
400021e4:	96 10 20 00 	clr  %o3
400021e8:	94 10 20 00 	clr  %o2
400021ec:	90 10 20 00 	clr  %o0
400021f0:	82 13 c0 00 	mov  %o7, %g1
400021f4:	40 00 0c 6c 	call  400053a4 <__register_exitproc>
400021f8:	9e 10 40 00 	mov  %g1, %o7

400021fc <exit>:
400021fc:	9d e3 bf a0 	save  %sp, -96, %sp
40002200:	92 10 20 00 	clr  %o1
40002204:	40 00 0c be 	call  400054fc <__call_exitprocs>
40002208:	90 10 00 18 	mov  %i0, %o0
4000220c:	03 10 00 3b 	sethi  %hi(0x4000ec00), %g1
40002210:	d0 00 60 f4 	ld  [ %g1 + 0xf4 ], %o0	! 4000ecf4 <_global_impure_ptr>
40002214:	c2 02 20 28 	ld  [ %o0 + 0x28 ], %g1
40002218:	80 a0 60 00 	cmp  %g1, 0
4000221c:	02 80 00 04 	be  4000222c <exit+0x30>
40002220:	01 00 00 00 	nop 
40002224:	9f c0 40 00 	call  %g1
40002228:	01 00 00 00 	nop 
4000222c:	40 00 2e 93 	call  4000dc78 <_exit>
40002230:	90 10 00 18 	mov  %i0, %o0
40002234:	01 00 00 00 	nop 

40002238 <memcpy>:
40002238:	9d e3 bf a0 	save  %sp, -96, %sp
4000223c:	80 a6 a0 0f 	cmp  %i2, 0xf
40002240:	08 80 00 32 	bleu  40002308 <memcpy+0xd0>
40002244:	82 10 00 18 	mov  %i0, %g1
40002248:	82 16 40 18 	or  %i1, %i0, %g1
4000224c:	80 88 60 03 	btst  3, %g1
40002250:	12 80 00 59 	bne  400023b4 <memcpy+0x17c>
40002254:	b8 06 bf ff 	add  %i2, -1, %i4
40002258:	9e 06 bf f0 	add  %i2, -16, %o7
4000225c:	84 10 00 19 	mov  %i1, %g2
40002260:	9e 0b ff f0 	and  %o7, -16, %o7
40002264:	82 10 00 18 	mov  %i0, %g1
40002268:	9e 03 e0 10 	add  %o7, 0x10, %o7
4000226c:	b6 06 00 0f 	add  %i0, %o7, %i3
40002270:	82 00 60 10 	add  %g1, 0x10, %g1
40002274:	f8 00 a0 04 	ld  [ %g2 + 4 ], %i4
40002278:	c8 00 a0 08 	ld  [ %g2 + 8 ], %g4
4000227c:	c6 00 a0 0c 	ld  [ %g2 + 0xc ], %g3
40002280:	fa 00 80 00 	ld  [ %g2 ], %i5
40002284:	f8 20 7f f4 	st  %i4, [ %g1 + -12 ]
40002288:	fa 20 7f f0 	st  %i5, [ %g1 + -16 ]
4000228c:	c8 20 7f f8 	st  %g4, [ %g1 + -8 ]
40002290:	c6 20 7f fc 	st  %g3, [ %g1 + -4 ]
40002294:	80 a6 c0 01 	cmp  %i3, %g1
40002298:	12 bf ff f6 	bne  40002270 <memcpy+0x38>
4000229c:	84 00 a0 10 	add  %g2, 0x10, %g2
400022a0:	b2 06 40 0f 	add  %i1, %o7, %i1
400022a4:	80 8e a0 0c 	btst  0xc, %i2
400022a8:	02 80 00 45 	be  400023bc <memcpy+0x184>
400022ac:	86 0e a0 0f 	and  %i2, 0xf, %g3
400022b0:	c4 06 40 00 	ld  [ %i1 ], %g2
400022b4:	c4 20 40 00 	st  %g2, [ %g1 ]
400022b8:	84 00 ff fc 	add  %g3, -4, %g2
400022bc:	80 a0 a0 03 	cmp  %g2, 3
400022c0:	08 80 00 08 	bleu  400022e0 <memcpy+0xa8>
400022c4:	86 00 ff f8 	add  %g3, -8, %g3
400022c8:	c8 06 60 04 	ld  [ %i1 + 4 ], %g4
400022cc:	80 a0 e0 03 	cmp  %g3, 3
400022d0:	08 80 00 04 	bleu  400022e0 <memcpy+0xa8>
400022d4:	c8 20 60 04 	st  %g4, [ %g1 + 4 ]
400022d8:	c6 06 60 08 	ld  [ %i1 + 8 ], %g3
400022dc:	c6 20 60 08 	st  %g3, [ %g1 + 8 ]
400022e0:	b4 0e a0 03 	and  %i2, 3, %i2
400022e4:	84 08 bf fc 	and  %g2, -4, %g2
400022e8:	b8 06 bf ff 	add  %i2, -1, %i4
400022ec:	84 00 a0 04 	add  %g2, 4, %g2
400022f0:	80 a6 a0 00 	cmp  %i2, 0
400022f4:	82 00 40 02 	add  %g1, %g2, %g1
400022f8:	12 80 00 07 	bne  40002314 <memcpy+0xdc>
400022fc:	b2 06 40 02 	add  %i1, %g2, %i1
40002300:	81 c7 e0 08 	ret 
40002304:	81 e8 00 00 	restore 
40002308:	80 a6 a0 00 	cmp  %i2, 0
4000230c:	02 bf ff fd 	be  40002300 <memcpy+0xc8>
40002310:	b8 06 bf ff 	add  %i2, -1, %i4
40002314:	84 16 40 01 	or  %i1, %g1, %g2
40002318:	80 88 a0 03 	btst  3, %g2
4000231c:	12 80 00 2a 	bne  400023c4 <memcpy+0x18c>
40002320:	80 a7 20 07 	cmp  %i4, 7
40002324:	08 80 00 22 	bleu  400023ac <memcpy+0x174>
40002328:	84 10 20 01 	mov  1, %g2
4000232c:	80 88 a0 ff 	btst  0xff, %g2
40002330:	02 80 00 25 	be  400023c4 <memcpy+0x18c>
40002334:	86 07 3f fd 	add  %i4, -3, %g3
40002338:	b6 07 20 01 	add  %i4, 1, %i3
4000233c:	87 30 e0 02 	srl  %g3, 2, %g3
40002340:	84 10 20 00 	clr  %g2
40002344:	86 00 e0 01 	inc  %g3
40002348:	88 10 20 00 	clr  %g4
4000234c:	fa 06 40 02 	ld  [ %i1 + %g2 ], %i5
40002350:	fa 20 40 02 	st  %i5, [ %g1 + %g2 ]
40002354:	88 01 20 01 	inc  %g4
40002358:	80 a0 c0 04 	cmp  %g3, %g4
4000235c:	18 bf ff fc 	bgu  4000234c <memcpy+0x114>
40002360:	84 00 a0 04 	add  %g2, 4, %g2
40002364:	87 28 e0 02 	sll  %g3, 2, %g3
40002368:	84 00 40 03 	add  %g1, %g3, %g2
4000236c:	88 06 40 03 	add  %i1, %g3, %g4
40002370:	80 a6 c0 03 	cmp  %i3, %g3
40002374:	02 bf ff e3 	be  40002300 <memcpy+0xc8>
40002378:	b8 27 00 03 	sub  %i4, %g3, %i4
4000237c:	fa 0e 40 03 	ldub  [ %i1 + %g3 ], %i5
40002380:	80 a7 20 00 	cmp  %i4, 0
40002384:	02 bf ff df 	be  40002300 <memcpy+0xc8>
40002388:	fa 28 40 03 	stb  %i5, [ %g1 + %g3 ]
4000238c:	c2 09 20 01 	ldub  [ %g4 + 1 ], %g1
40002390:	80 a7 20 01 	cmp  %i4, 1
40002394:	02 bf ff db 	be  40002300 <memcpy+0xc8>
40002398:	c2 28 a0 01 	stb  %g1, [ %g2 + 1 ]
4000239c:	c2 09 20 02 	ldub  [ %g4 + 2 ], %g1
400023a0:	c2 28 a0 02 	stb  %g1, [ %g2 + 2 ]
400023a4:	81 c7 e0 08 	ret 
400023a8:	81 e8 00 00 	restore 
400023ac:	10 bf ff e0 	b  4000232c <memcpy+0xf4>
400023b0:	84 10 20 00 	clr  %g2
400023b4:	10 bf ff d8 	b  40002314 <memcpy+0xdc>
400023b8:	82 10 00 18 	mov  %i0, %g1
400023bc:	10 bf ff d3 	b  40002308 <memcpy+0xd0>
400023c0:	b4 10 00 03 	mov  %g3, %i2
400023c4:	84 10 20 00 	clr  %g2
400023c8:	c6 0e 40 02 	ldub  [ %i1 + %g2 ], %g3
400023cc:	c6 28 40 02 	stb  %g3, [ %g1 + %g2 ]
400023d0:	80 a7 00 02 	cmp  %i4, %g2
400023d4:	12 bf ff fd 	bne  400023c8 <memcpy+0x190>
400023d8:	84 00 a0 01 	inc  %g2
400023dc:	81 c7 e0 08 	ret 
400023e0:	81 e8 00 00 	restore 

400023e4 <_printf_r>:
400023e4:	9d e3 bf 98 	save  %sp, -104, %sp
400023e8:	f4 27 a0 4c 	st  %i2, [ %fp + 0x4c ]
400023ec:	f6 27 a0 50 	st  %i3, [ %fp + 0x50 ]
400023f0:	f8 27 a0 54 	st  %i4, [ %fp + 0x54 ]
400023f4:	80 a6 20 00 	cmp  %i0, 0
400023f8:	02 80 00 06 	be  40002410 <_printf_r+0x2c>
400023fc:	fa 27 a0 58 	st  %i5, [ %fp + 0x58 ]
40002400:	c2 06 20 18 	ld  [ %i0 + 0x18 ], %g1
40002404:	80 a0 60 00 	cmp  %g1, 0
40002408:	02 80 00 0a 	be  40002430 <_printf_r+0x4c>
4000240c:	01 00 00 00 	nop 
40002410:	96 07 a0 4c 	add  %fp, 0x4c, %o3
40002414:	d2 06 20 08 	ld  [ %i0 + 8 ], %o1
40002418:	94 10 00 19 	mov  %i1, %o2
4000241c:	d6 27 bf fc 	st  %o3, [ %fp + -4 ]
40002420:	40 00 00 88 	call  40002640 <_vfprintf_r>
40002424:	90 10 00 18 	mov  %i0, %o0
40002428:	81 c7 e0 08 	ret 
4000242c:	91 e8 00 08 	restore  %g0, %o0, %o0
40002430:	40 00 13 e4 	call  400073c0 <__sinit>
40002434:	90 10 00 18 	mov  %i0, %o0
40002438:	96 07 a0 4c 	add  %fp, 0x4c, %o3
4000243c:	d2 06 20 08 	ld  [ %i0 + 8 ], %o1
40002440:	94 10 00 19 	mov  %i1, %o2
40002444:	d6 27 bf fc 	st  %o3, [ %fp + -4 ]
40002448:	40 00 00 7e 	call  40002640 <_vfprintf_r>
4000244c:	90 10 00 18 	mov  %i0, %o0
40002450:	81 c7 e0 08 	ret 
40002454:	91 e8 00 08 	restore  %g0, %o0, %o0

40002458 <printf>:
40002458:	9d e3 bf 90 	save  %sp, -112, %sp
4000245c:	f2 27 a0 48 	st  %i1, [ %fp + 0x48 ]
40002460:	f4 27 a0 4c 	st  %i2, [ %fp + 0x4c ]
40002464:	f6 27 a0 50 	st  %i3, [ %fp + 0x50 ]
40002468:	f8 27 a0 54 	st  %i4, [ %fp + 0x54 ]
4000246c:	fa 27 a0 58 	st  %i5, [ %fp + 0x58 ]
40002470:	03 10 00 3c 	sethi  %hi(0x4000f000), %g1
40002474:	d0 00 63 7c 	ld  [ %g1 + 0x37c ], %o0	! 4000f37c <_impure_ptr>
40002478:	80 a2 20 00 	cmp  %o0, 0
4000247c:	02 80 00 06 	be  40002494 <printf+0x3c>
40002480:	96 07 a0 48 	add  %fp, 0x48, %o3
40002484:	c2 02 20 18 	ld  [ %o0 + 0x18 ], %g1
40002488:	80 a0 60 00 	cmp  %g1, 0
4000248c:	02 80 00 08 	be  400024ac <printf+0x54>
40002490:	01 00 00 00 	nop 
40002494:	94 10 00 18 	mov  %i0, %o2
40002498:	d6 27 bf fc 	st  %o3, [ %fp + -4 ]
4000249c:	40 00 00 69 	call  40002640 <_vfprintf_r>
400024a0:	d2 02 20 08 	ld  [ %o0 + 8 ], %o1
400024a4:	81 c7 e0 08 	ret 
400024a8:	91 e8 00 08 	restore  %g0, %o0, %o0
400024ac:	40 00 13 c5 	call  400073c0 <__sinit>
400024b0:	d0 27 bf f4 	st  %o0, [ %fp + -12 ]
400024b4:	d0 07 bf f4 	ld  [ %fp + -12 ], %o0
400024b8:	96 07 a0 48 	add  %fp, 0x48, %o3
400024bc:	94 10 00 18 	mov  %i0, %o2
400024c0:	d6 27 bf fc 	st  %o3, [ %fp + -4 ]
400024c4:	40 00 00 5f 	call  40002640 <_vfprintf_r>
400024c8:	d2 02 20 08 	ld  [ %o0 + 8 ], %o1
400024cc:	81 c7 e0 08 	ret 
400024d0:	91 e8 00 08 	restore  %g0, %o0, %o0
400024d4:	40 00 2f a0 	call  4000e354 <end_single_divloop+0x8>
400024d8:	40 00 28 38 	call  4000c5b8 <__sfvwrite_r+0x110>
400024dc:	40 00 28 38 	call  4000c5bc <__sfvwrite_r+0x114>
400024e0:	40 00 2f 90 	call  4000e320 <do_single_div+0x10>
400024e4:	40 00 28 38 	call  4000c5c4 <__sfvwrite_r+0x11c>
400024e8:	40 00 28 38 	call  4000c5c8 <__sfvwrite_r+0x120>
400024ec:	40 00 28 38 	call  4000c5cc <__sfvwrite_r+0x124>
400024f0:	40 00 2b f0 	call  4000d4b0 <_reclaim_reent+0xd0>
400024f4:	40 00 28 38 	call  4000c5d4 <__sfvwrite_r+0x12c>
400024f8:	40 00 28 38 	call  4000c5d8 <__sfvwrite_r+0x130>
400024fc:	40 00 2f 64 	call  4000e28c <.rem+0x20>
40002500:	40 00 2f 54 	call  4000e250 <got_result>
40002504:	40 00 28 38 	call  4000c5e4 <__sfvwrite_r+0x13c>
40002508:	40 00 2f 44 	call  4000e218 <L3.13>
4000250c:	40 00 2e f0 	call  4000e0cc <divloop+0x4>
40002510:	40 00 28 38 	call  4000c5f0 <__sfvwrite_r+0x148>
40002514:	40 00 2e e0 	call  4000e094 <single_divloop+0x18>
40002518:	40 00 29 e4 	call  4000cca8 <memmove+0x84>
4000251c:	40 00 29 e4 	call  4000ccac <memmove+0x88>
40002520:	40 00 29 e4 	call  4000ccb0 <memmove+0x8c>
40002524:	40 00 29 e4 	call  4000ccb4 <memmove+0x90>
40002528:	40 00 29 e4 	call  4000ccb8 <memmove+0x94>
4000252c:	40 00 29 e4 	call  4000ccbc <memmove+0x98>
40002530:	40 00 29 e4 	call  4000ccc0 <memmove+0x9c>
40002534:	40 00 29 e4 	call  4000ccc4 <memmove+0xa0>
40002538:	40 00 29 e4 	call  4000ccc8 <memmove+0xa4>
4000253c:	40 00 28 38 	call  4000c61c <__sfvwrite_r+0x174>
40002540:	40 00 28 38 	call  4000c620 <__sfvwrite_r+0x178>
40002544:	40 00 28 38 	call  4000c624 <__sfvwrite_r+0x17c>
40002548:	40 00 28 38 	call  4000c628 <__sfvwrite_r+0x180>
4000254c:	40 00 28 38 	call  4000c62c <__sfvwrite_r+0x184>
40002550:	40 00 28 38 	call  4000c630 <__sfvwrite_r+0x188>
40002554:	40 00 28 38 	call  4000c634 <__sfvwrite_r+0x18c>
40002558:	40 00 2a 1c 	call  4000cdc8 <memmove+0x1a4>
4000255c:	40 00 28 38 	call  4000c63c <__sfvwrite_r+0x194>
40002560:	40 00 2c b4 	call  4000d830 <__swbuf_r+0xec>
40002564:	40 00 2c 48 	call  4000d684 <strcmp>
40002568:	40 00 2a 1c 	call  4000cdd8 <memmove+0x1b4>
4000256c:	40 00 2a 1c 	call  4000cddc <memmove+0x1b8>
40002570:	40 00 2a 1c 	call  4000cde0 <memmove+0x1bc>
40002574:	40 00 28 38 	call  4000c654 <__sfvwrite_r+0x1ac>
40002578:	40 00 28 38 	call  4000c658 <__sfvwrite_r+0x1b0>
4000257c:	40 00 28 38 	call  4000c65c <__sfvwrite_r+0x1b4>
40002580:	40 00 28 38 	call  4000c660 <__sfvwrite_r+0x1b8>
40002584:	40 00 2f bc 	call  4000e474 <L3.15>
40002588:	40 00 28 38 	call  4000c668 <__sfvwrite_r+0x1c0>
4000258c:	40 00 28 38 	call  4000c66c <__sfvwrite_r+0x1c4>
40002590:	40 00 2d 40 	call  4000da90 <__swbuf+0x1a8>
40002594:	40 00 28 38 	call  4000c674 <__sfvwrite_r+0x1cc>
40002598:	40 00 28 38 	call  4000c678 <__sfvwrite_r+0x1d0>
4000259c:	40 00 28 38 	call  4000c67c <__sfvwrite_r+0x1d4>
400025a0:	40 00 2c d0 	call  4000d8e0 <__swbuf_r+0x19c>
400025a4:	40 00 28 38 	call  4000c684 <__sfvwrite_r+0x1dc>
400025a8:	40 00 2e ac 	call  4000e058 <not_too_big+0xc>
400025ac:	40 00 28 38 	call  4000c68c <__sfvwrite_r+0x1e4>
400025b0:	40 00 28 38 	call  4000c690 <__sfvwrite_r+0x1e8>
400025b4:	40 00 3d bc 	call  40011ca4 <__bss_end+0x2184>
400025b8:	40 00 28 38 	call  4000c698 <__sfvwrite_r+0x1f0>
400025bc:	40 00 28 38 	call  4000c69c <__sfvwrite_r+0x1f4>
400025c0:	40 00 28 38 	call  4000c6a0 <__sfvwrite_r+0x1f8>
400025c4:	40 00 28 38 	call  4000c6a4 <__sfvwrite_r+0x1fc>
400025c8:	40 00 28 38 	call  4000c6a8 <__sfvwrite_r+0x200>
400025cc:	40 00 28 38 	call  4000c6ac <__sfvwrite_r+0x204>
400025d0:	40 00 28 38 	call  4000c6b0 <__sfvwrite_r+0x208>
400025d4:	40 00 28 38 	call  4000c6b4 <__sfvwrite_r+0x20c>
400025d8:	40 00 2a 1c 	call  4000ce48 <_read_r+0x28>
400025dc:	40 00 28 38 	call  4000c6bc <__sfvwrite_r+0x214>
400025e0:	40 00 2c b4 	call  4000d8b0 <__swbuf_r+0x16c>
400025e4:	40 00 2c 4c 	call  4000d714 <strcmp+0x90>
400025e8:	40 00 2a 1c 	call  4000ce58 <_read_r+0x38>
400025ec:	40 00 2a 1c 	call  4000ce5c <_read_r+0x3c>
400025f0:	40 00 2a 1c 	call  4000ce60 <_read_r+0x40>
400025f4:	40 00 2e 8c 	call  4000e024 <ready_to_divide+0x44>
400025f8:	40 00 2c 4c 	call  4000d728 <strcmp+0xa4>
400025fc:	40 00 2c 38 	call  4000d6dc <strcmp+0x58>
40002600:	40 00 28 38 	call  4000c6e0 <__sfvwrite_r+0x238>
40002604:	40 00 2e 6c 	call  4000dfb4 <.udiv>
40002608:	40 00 28 38 	call  4000c6e8 <__sfvwrite_r+0x240>
4000260c:	40 00 2d e4 	call  4000dd9c <write+0x18>
40002610:	40 00 2d 44 	call  4000db20 <_wcrtomb_r+0x88>
40002614:	40 00 2e 2c 	call  4000dec4 <__bcc_con_inbyte+0x2c>
40002618:	40 00 2c 38 	call  4000d6f8 <strcmp+0x74>
4000261c:	40 00 28 38 	call  4000c6fc <__sfvwrite_r+0x254>
40002620:	40 00 2c d0 	call  4000d960 <__swbuf+0x78>
40002624:	40 00 2c 2c 	call  4000d6d4 <strcmp+0x50>
40002628:	40 00 3d b4 	call  40011cf8 <__bss_end+0x21d8>
4000262c:	40 00 28 38 	call  4000c70c <__sfvwrite_r+0x264>
40002630:	40 00 28 38 	call  4000c710 <__sfvwrite_r+0x268>
40002634:	40 00 3d 44 	call  40011b44 <__bss_end+0x2024>
40002638:	40 00 28 38 	call  4000c718 <__sfvwrite_r+0x270>
4000263c:	40 00 2c 2c 	call  4000d6ec <strcmp+0x68>

40002640 <_vfprintf_r>:
40002640:	9d e3 be 20 	save  %sp, -480, %sp
40002644:	40 00 14 a1 	call  400078c8 <_localeconv_r>
40002648:	90 10 00 18 	mov  %i0, %o0
4000264c:	c2 02 00 00 	ld  [ %o0 ], %g1
40002650:	c2 27 be ac 	st  %g1, [ %fp + -340 ]
40002654:	40 00 1d f2 	call  40009e1c <strlen>
40002658:	90 10 00 01 	mov  %g1, %o0
4000265c:	f6 27 be dc 	st  %i3, [ %fp + -292 ]
40002660:	80 a6 20 00 	cmp  %i0, 0
40002664:	02 80 00 06 	be  4000267c <_vfprintf_r+0x3c>
40002668:	d0 27 be b8 	st  %o0, [ %fp + -328 ]
4000266c:	c2 06 20 18 	ld  [ %i0 + 0x18 ], %g1
40002670:	80 a0 60 00 	cmp  %g1, 0
40002674:	02 80 01 54 	be  40002bc4 <_vfprintf_r+0x584>
40002678:	01 00 00 00 	nop 
4000267c:	03 10 00 3b 	sethi  %hi(0x4000ec00), %g1
40002680:	82 10 62 40 	or  %g1, 0x240, %g1	! 4000ee40 <__sf_fake_stdin>
40002684:	80 a6 40 01 	cmp  %i1, %g1
40002688:	22 80 00 0b 	be,a   400026b4 <_vfprintf_r+0x74>
4000268c:	f2 06 20 04 	ld  [ %i0 + 4 ], %i1
40002690:	03 10 00 3b 	sethi  %hi(0x4000ec00), %g1
40002694:	82 10 62 20 	or  %g1, 0x220, %g1	! 4000ee20 <__sf_fake_stdout>
40002698:	80 a6 40 01 	cmp  %i1, %g1
4000269c:	02 80 01 53 	be  40002be8 <_vfprintf_r+0x5a8>
400026a0:	03 10 00 3b 	sethi  %hi(0x4000ec00), %g1
400026a4:	82 10 62 00 	or  %g1, 0x200, %g1	! 4000ee00 <__sf_fake_stderr>
400026a8:	80 a6 40 01 	cmp  %i1, %g1
400026ac:	22 80 00 02 	be,a   400026b4 <_vfprintf_r+0x74>
400026b0:	f2 06 20 0c 	ld  [ %i0 + 0xc ], %i1
400026b4:	c2 16 60 0c 	lduh  [ %i1 + 0xc ], %g1
400026b8:	05 00 00 08 	sethi  %hi(0x2000), %g2
400026bc:	80 88 80 01 	btst  %g2, %g1
400026c0:	12 80 00 08 	bne  400026e0 <_vfprintf_r+0xa0>
400026c4:	80 88 60 08 	btst  8, %g1
400026c8:	82 10 80 01 	or  %g2, %g1, %g1
400026cc:	c6 06 60 60 	ld  [ %i1 + 0x60 ], %g3
400026d0:	c2 36 60 0c 	sth  %g1, [ %i1 + 0xc ]
400026d4:	84 28 c0 02 	andn  %g3, %g2, %g2
400026d8:	c4 26 60 60 	st  %g2, [ %i1 + 0x60 ]
400026dc:	80 88 60 08 	btst  8, %g1
400026e0:	02 80 03 84 	be  400034f0 <_vfprintf_r+0xeb0>
400026e4:	92 10 00 19 	mov  %i1, %o1
400026e8:	c4 06 60 10 	ld  [ %i1 + 0x10 ], %g2
400026ec:	80 a0 a0 00 	cmp  %g2, 0
400026f0:	02 80 03 80 	be  400034f0 <_vfprintf_r+0xeb0>
400026f4:	82 08 60 1a 	and  %g1, 0x1a, %g1
400026f8:	80 a0 60 0a 	cmp  %g1, 0xa
400026fc:	22 80 03 88 	be,a   4000351c <_vfprintf_r+0xedc>
40002700:	c2 56 60 0e 	ldsh  [ %i1 + 0xe ], %g1
40002704:	82 07 bf 58 	add  %fp, -168, %g1
40002708:	21 10 00 3b 	sethi  %hi(0x4000ec00), %l0
4000270c:	c2 27 bf 4c 	st  %g1, [ %fp + -180 ]
40002710:	ba 10 00 01 	mov  %g1, %i5
40002714:	c0 27 be b0 	clr  [ %fp + -336 ]
40002718:	03 10 00 09 	sethi  %hi(0x40002400), %g1
4000271c:	c0 27 be b4 	clr  [ %fp + -332 ]
40002720:	82 10 60 d4 	or  %g1, 0xd4, %g1
40002724:	c0 27 bf 54 	clr  [ %fp + -172 ]
40002728:	c0 27 bf 50 	clr  [ %fp + -176 ]
4000272c:	c0 27 be c4 	clr  [ %fp + -316 ]
40002730:	c0 27 be a8 	clr  [ %fp + -344 ]
40002734:	c0 27 be a4 	clr  [ %fp + -348 ]
40002738:	c0 27 be a0 	clr  [ %fp + -352 ]
4000273c:	c0 27 be 9c 	clr  [ %fp + -356 ]
40002740:	c0 27 be 98 	clr  [ %fp + -360 ]
40002744:	c0 27 be ec 	clr  [ %fp + -276 ]
40002748:	c2 27 be d8 	st  %g1, [ %fp + -296 ]
4000274c:	a0 14 21 80 	or  %l0, 0x180, %l0
40002750:	c2 0e 80 00 	ldub  [ %i2 ], %g1
40002754:	83 28 60 18 	sll  %g1, 0x18, %g1
40002758:	85 38 60 18 	sra  %g1, 0x18, %g2
4000275c:	80 a0 a0 25 	cmp  %g2, 0x25
40002760:	02 80 00 21 	be  400027e4 <_vfprintf_r+0x1a4>
40002764:	b8 10 00 1a 	mov  %i2, %i4
40002768:	80 a0 a0 00 	cmp  %g2, 0
4000276c:	02 80 00 1f 	be  400027e8 <_vfprintf_r+0x1a8>
40002770:	80 a0 60 00 	cmp  %g1, 0
40002774:	b6 10 00 1c 	mov  %i4, %i3
40002778:	b8 07 20 01 	inc  %i4
4000277c:	c2 0f 00 00 	ldub  [ %i4 ], %g1
40002780:	83 28 60 18 	sll  %g1, 0x18, %g1
40002784:	80 a0 60 00 	cmp  %g1, 0
40002788:	02 80 00 05 	be  4000279c <_vfprintf_r+0x15c>
4000278c:	85 38 60 18 	sra  %g1, 0x18, %g2
40002790:	80 a0 a0 25 	cmp  %g2, 0x25
40002794:	32 bf ff f9 	bne,a   40002778 <_vfprintf_r+0x138>
40002798:	b6 10 00 1c 	mov  %i4, %i3
4000279c:	a2 a7 00 1a 	subcc  %i4, %i2, %l1
400027a0:	02 80 00 11 	be  400027e4 <_vfprintf_r+0x1a4>
400027a4:	c4 07 bf 54 	ld  [ %fp + -172 ], %g2
400027a8:	c2 07 bf 50 	ld  [ %fp + -176 ], %g1
400027ac:	84 00 80 11 	add  %g2, %l1, %g2
400027b0:	82 00 60 01 	inc  %g1
400027b4:	f4 27 40 00 	st  %i2, [ %i5 ]
400027b8:	e2 27 60 04 	st  %l1, [ %i5 + 4 ]
400027bc:	c4 27 bf 54 	st  %g2, [ %fp + -172 ]
400027c0:	c2 27 bf 50 	st  %g1, [ %fp + -176 ]
400027c4:	80 a0 60 07 	cmp  %g1, 7
400027c8:	14 80 02 f2 	bg  40003390 <_vfprintf_r+0xd50>
400027cc:	ba 07 60 08 	add  %i5, 8, %i5
400027d0:	c4 07 be ec 	ld  [ %fp + -276 ], %g2
400027d4:	c2 0e e0 01 	ldub  [ %i3 + 1 ], %g1
400027d8:	84 00 80 11 	add  %g2, %l1, %g2
400027dc:	83 28 60 18 	sll  %g1, 0x18, %g1
400027e0:	c4 27 be ec 	st  %g2, [ %fp + -276 ]
400027e4:	80 a0 60 00 	cmp  %g1, 0
400027e8:	02 80 06 33 	be  400040b4 <_vfprintf_r+0x1a74>
400027ec:	b4 07 20 01 	add  %i4, 1, %i2
400027f0:	c2 0f 20 01 	ldub  [ %i4 + 1 ], %g1
400027f4:	c0 2f be f7 	clrb  [ %fp + -265 ]
400027f8:	b8 10 3f ff 	mov  -1, %i4
400027fc:	b6 10 20 00 	clr  %i3
40002800:	a4 10 20 00 	clr  %l2
40002804:	83 28 60 18 	sll  %g1, 0x18, %g1
40002808:	a2 10 20 2b 	mov  0x2b, %l1
4000280c:	a6 10 20 20 	mov  0x20, %l3
40002810:	b4 06 a0 01 	inc  %i2
40002814:	ad 38 60 18 	sra  %g1, 0x18, %l6
40002818:	82 05 bf e0 	add  %l6, -32, %g1
4000281c:	80 a0 60 5a 	cmp  %g1, 0x5a
40002820:	18 80 00 06 	bgu  40002838 <_vfprintf_r+0x1f8>
40002824:	83 28 60 02 	sll  %g1, 2, %g1
40002828:	c4 07 be d8 	ld  [ %fp + -296 ], %g2
4000282c:	c2 00 80 01 	ld  [ %g2 + %g1 ], %g1
40002830:	81 c0 40 00 	jmp  %g1
40002834:	01 00 00 00 	nop 
40002838:	80 a5 a0 00 	cmp  %l6, 0
4000283c:	02 80 06 1f 	be  400040b8 <_vfprintf_r+0x1a78>
40002840:	c2 07 bf 54 	ld  [ %fp + -172 ], %g1
40002844:	ec 2f bf 98 	stb  %l6, [ %fp + -104 ]
40002848:	c0 2f be f7 	clrb  [ %fp + -265 ]
4000284c:	82 10 20 01 	mov  1, %g1
40002850:	a2 10 20 01 	mov  1, %l1
40002854:	9a 10 20 00 	clr  %o5
40002858:	c0 27 be e8 	clr  [ %fp + -280 ]
4000285c:	c2 27 be e0 	st  %g1, [ %fp + -288 ]
40002860:	b8 10 20 00 	clr  %i4
40002864:	c0 27 be bc 	clr  [ %fp + -324 ]
40002868:	c0 27 be c0 	clr  [ %fp + -320 ]
4000286c:	c0 27 be c8 	clr  [ %fp + -312 ]
40002870:	a6 07 bf 98 	add  %fp, -104, %l3
40002874:	9b 2b 60 18 	sll  %o5, 0x18, %o5
40002878:	80 a0 00 0d 	cmp  %g0, %o5
4000287c:	a2 40 00 11 	addx  %g0, %l1, %l1
40002880:	96 8c a0 02 	andcc  %l2, 2, %o3
40002884:	32 80 00 02 	bne,a   4000288c <_vfprintf_r+0x24c>
40002888:	a2 04 60 02 	add  %l1, 2, %l1
4000288c:	82 8c a0 84 	andcc  %l2, 0x84, %g1
40002890:	c2 27 be d0 	st  %g1, [ %fp + -304 ]
40002894:	12 80 00 06 	bne  400028ac <_vfprintf_r+0x26c>
40002898:	de 07 bf 54 	ld  [ %fp + -172 ], %o7
4000289c:	88 26 c0 11 	sub  %i3, %l1, %g4
400028a0:	80 a1 20 00 	cmp  %g4, 0
400028a4:	34 80 02 c4 	bg,a   400033b4 <_vfprintf_r+0xd74>
400028a8:	1b 10 00 3b 	sethi  %hi(0x4000ec00), %o5
400028ac:	80 a3 60 00 	cmp  %o5, 0
400028b0:	02 80 00 0f 	be  400028ec <_vfprintf_r+0x2ac>
400028b4:	80 a2 e0 00 	cmp  %o3, 0
400028b8:	9a 07 be f7 	add  %fp, -265, %o5
400028bc:	c8 07 bf 50 	ld  [ %fp + -176 ], %g4
400028c0:	da 27 40 00 	st  %o5, [ %i5 ]
400028c4:	88 01 20 01 	inc  %g4
400028c8:	9e 03 e0 01 	inc  %o7
400028cc:	9a 10 20 01 	mov  1, %o5
400028d0:	de 27 bf 54 	st  %o7, [ %fp + -172 ]
400028d4:	da 27 60 04 	st  %o5, [ %i5 + 4 ]
400028d8:	c8 27 bf 50 	st  %g4, [ %fp + -176 ]
400028dc:	80 a1 20 07 	cmp  %g4, 7
400028e0:	14 80 02 f9 	bg  400034c4 <_vfprintf_r+0xe84>
400028e4:	ba 07 60 08 	add  %i5, 8, %i5
400028e8:	80 a2 e0 00 	cmp  %o3, 0
400028ec:	02 80 00 0f 	be  40002928 <_vfprintf_r+0x2e8>
400028f0:	c2 07 be d0 	ld  [ %fp + -304 ], %g1
400028f4:	9a 07 be f8 	add  %fp, -264, %o5
400028f8:	c8 07 bf 50 	ld  [ %fp + -176 ], %g4
400028fc:	da 27 40 00 	st  %o5, [ %i5 ]
40002900:	88 01 20 01 	inc  %g4
40002904:	9e 03 e0 02 	add  %o7, 2, %o7
40002908:	9a 10 20 02 	mov  2, %o5
4000290c:	de 27 bf 54 	st  %o7, [ %fp + -172 ]
40002910:	da 27 60 04 	st  %o5, [ %i5 + 4 ]
40002914:	c8 27 bf 50 	st  %g4, [ %fp + -176 ]
40002918:	80 a1 20 07 	cmp  %g4, 7
4000291c:	14 80 02 e1 	bg  400034a0 <_vfprintf_r+0xe60>
40002920:	ba 07 60 08 	add  %i5, 8, %i5
40002924:	c2 07 be d0 	ld  [ %fp + -304 ], %g1
40002928:	80 a0 60 80 	cmp  %g1, 0x80
4000292c:	02 80 01 f0 	be  400030ec <_vfprintf_r+0xaac>
40002930:	ae 26 c0 11 	sub  %i3, %l1, %l7
40002934:	c2 07 be e0 	ld  [ %fp + -288 ], %g1
40002938:	b8 27 00 01 	sub  %i4, %g1, %i4
4000293c:	80 a7 20 00 	cmp  %i4, 0
40002940:	14 80 02 1f 	bg  400031bc <_vfprintf_r+0xb7c>
40002944:	80 a7 20 10 	cmp  %i4, 0x10
40002948:	80 8c a1 00 	btst  0x100, %l2
4000294c:	12 80 01 a0 	bne  40002fcc <_vfprintf_r+0x98c>
40002950:	80 a5 a0 65 	cmp  %l6, 0x65
40002954:	c4 07 be e0 	ld  [ %fp + -288 ], %g2
40002958:	c2 07 bf 50 	ld  [ %fp + -176 ], %g1
4000295c:	9e 03 c0 02 	add  %o7, %g2, %o7
40002960:	82 00 60 01 	inc  %g1
40002964:	e6 27 40 00 	st  %l3, [ %i5 ]
40002968:	c4 27 60 04 	st  %g2, [ %i5 + 4 ]
4000296c:	de 27 bf 54 	st  %o7, [ %fp + -172 ]
40002970:	80 a0 60 07 	cmp  %g1, 7
40002974:	14 80 00 8b 	bg  40002ba0 <_vfprintf_r+0x560>
40002978:	c2 27 bf 50 	st  %g1, [ %fp + -176 ]
4000297c:	ba 07 60 08 	add  %i5, 8, %i5
40002980:	80 8c a0 04 	btst  4, %l2
40002984:	02 80 00 07 	be  400029a0 <_vfprintf_r+0x360>
40002988:	80 a6 c0 11 	cmp  %i3, %l1
4000298c:	b8 26 c0 11 	sub  %i3, %l1, %i4
40002990:	80 a7 20 00 	cmp  %i4, 0
40002994:	14 80 02 e8 	bg  40003534 <_vfprintf_r+0xef4>
40002998:	1b 10 00 3b 	sethi  %hi(0x4000ec00), %o5
4000299c:	80 a6 c0 11 	cmp  %i3, %l1
400029a0:	26 80 00 02 	bl,a   400029a8 <_vfprintf_r+0x368>
400029a4:	b6 10 00 11 	mov  %l1, %i3
400029a8:	c2 07 be ec 	ld  [ %fp + -276 ], %g1
400029ac:	82 00 40 1b 	add  %g1, %i3, %g1
400029b0:	80 a3 e0 00 	cmp  %o7, 0
400029b4:	12 80 02 63 	bne  40003340 <_vfprintf_r+0xd00>
400029b8:	c2 27 be ec 	st  %g1, [ %fp + -276 ]
400029bc:	c0 27 bf 50 	clr  [ %fp + -176 ]
400029c0:	c2 07 be e8 	ld  [ %fp + -280 ], %g1
400029c4:	80 a0 60 00 	cmp  %g1, 0
400029c8:	02 bf ff 62 	be  40002750 <_vfprintf_r+0x110>
400029cc:	ba 07 bf 58 	add  %fp, -168, %i5
400029d0:	92 10 00 01 	mov  %g1, %o1
400029d4:	40 00 12 c0 	call  400074d4 <_free_r>
400029d8:	90 10 00 18 	mov  %i0, %o0
400029dc:	10 bf ff 5e 	b  40002754 <_vfprintf_r+0x114>
400029e0:	c2 0e 80 00 	ldub  [ %i2 ], %g1
400029e4:	b6 10 20 00 	clr  %i3
400029e8:	82 05 bf d0 	add  %l6, -48, %g1
400029ec:	85 2e e0 02 	sll  %i3, 2, %g2
400029f0:	b4 06 a0 01 	inc  %i2
400029f4:	b6 00 80 1b 	add  %g2, %i3, %i3
400029f8:	ec 4e bf ff 	ldsb  [ %i2 + -1 ], %l6
400029fc:	b7 2e e0 01 	sll  %i3, 1, %i3
40002a00:	b6 00 40 1b 	add  %g1, %i3, %i3
40002a04:	82 05 bf d0 	add  %l6, -48, %g1
40002a08:	80 a0 60 09 	cmp  %g1, 9
40002a0c:	08 bf ff f9 	bleu  400029f0 <_vfprintf_r+0x3b0>
40002a10:	85 2e e0 02 	sll  %i3, 2, %g2
40002a14:	10 bf ff 82 	b  4000281c <_vfprintf_r+0x1dc>
40002a18:	82 05 bf e0 	add  %l6, -32, %g1
40002a1c:	d2 07 be dc 	ld  [ %fp + -292 ], %o1
40002a20:	94 10 20 08 	mov  8, %o2
40002a24:	80 8c a0 08 	btst  8, %l2
40002a28:	12 80 03 f0 	bne  400039e8 <_vfprintf_r+0x13a8>
40002a2c:	ae 02 60 08 	add  %o1, 8, %l7
40002a30:	7f ff fe 02 	call  40002238 <memcpy>
40002a34:	90 07 bf 28 	add  %fp, -216, %o0
40002a38:	d1 1f bf 28 	ldd  [ %fp + -216 ], %f8
40002a3c:	d1 3f be b0 	std  %f8, [ %fp + -336 ]
40002a40:	95 a0 00 28 	fmovs  %f8, %f10
40002a44:	97 a0 00 29 	fmovs  %f9, %f11
40002a48:	91 a0 01 2a 	fabss  %f10, %f8
40002a4c:	93 a0 00 2b 	fmovs  %f11, %f9
40002a50:	03 10 00 3b 	sethi  %hi(0x4000ec00), %g1
40002a54:	d9 18 61 60 	ldd  [ %g1 + 0x160 ], %f12	! 4000ed60 <_global_impure_ptr+0x6c>
40002a58:	81 aa 0a 4c 	fcmpd  %f8, %f12
40002a5c:	01 00 00 00 	nop 
40002a60:	1d 80 03 f1 	fbule  40003a24 <_vfprintf_r+0x13e4>
40002a64:	91 a0 00 2a 	fmovs  %f10, %f8
40002a68:	03 10 00 3b 	sethi  %hi(0x4000ec00), %g1
40002a6c:	d1 18 61 58 	ldd  [ %g1 + 0x158 ], %f8	! 4000ed58 <_global_impure_ptr+0x64>
40002a70:	81 aa 8a c8 	fcmped  %f10, %f8
40002a74:	01 00 00 00 	nop 
40002a78:	09 80 06 58 	fbl  400043d8 <_vfprintf_r+0x1d98>
40002a7c:	84 10 20 2d 	mov  0x2d, %g2	! 2d <fpu_state_f11+0x1>
40002a80:	da 0f be f7 	ldub  [ %fp + -265 ], %o5
40002a84:	80 a5 a0 47 	cmp  %l6, 0x47
40002a88:	04 80 05 a2 	ble  40004110 <_vfprintf_r+0x1ad0>
40002a8c:	05 10 00 3b 	sethi  %hi(0x4000ec00), %g2
40002a90:	05 10 00 3b 	sethi  %hi(0x4000ec00), %g2
40002a94:	a6 10 a1 00 	or  %g2, 0x100, %l3	! 4000ed00 <_global_impure_ptr+0xc>
40002a98:	a4 0c bf 7f 	and  %l2, -129, %l2
40002a9c:	82 10 20 03 	mov  3, %g1
40002aa0:	ee 27 be dc 	st  %l7, [ %fp + -292 ]
40002aa4:	a2 10 20 03 	mov  3, %l1
40002aa8:	c0 27 be e8 	clr  [ %fp + -280 ]
40002aac:	c2 27 be e0 	st  %g1, [ %fp + -288 ]
40002ab0:	b8 10 20 00 	clr  %i4
40002ab4:	c0 27 be bc 	clr  [ %fp + -324 ]
40002ab8:	c0 27 be c0 	clr  [ %fp + -320 ]
40002abc:	10 bf ff 6e 	b  40002874 <_vfprintf_r+0x234>
40002ac0:	c0 27 be c8 	clr  [ %fp + -312 ]
40002ac4:	f8 07 bf 50 	ld  [ %fp + -176 ], %i4
40002ac8:	c4 07 be c4 	ld  [ %fp + -316 ], %g2
40002acc:	9e 03 e0 01 	inc  %o7
40002ad0:	82 07 20 01 	add  %i4, 1, %g1
40002ad4:	80 a0 a0 01 	cmp  %g2, 1
40002ad8:	04 80 03 3e 	ble  400037d0 <_vfprintf_r+0x1190>
40002adc:	88 07 60 08 	add  %i5, 8, %g4
40002ae0:	b8 10 20 01 	mov  1, %i4
40002ae4:	de 27 bf 54 	st  %o7, [ %fp + -172 ]
40002ae8:	f8 27 60 04 	st  %i4, [ %i5 + 4 ]
40002aec:	80 a0 60 07 	cmp  %g1, 7
40002af0:	14 80 05 11 	bg  40003f34 <_vfprintf_r+0x18f4>
40002af4:	c2 27 bf 50 	st  %g1, [ %fp + -176 ]
40002af8:	82 00 60 01 	inc  %g1
40002afc:	c4 07 be b8 	ld  [ %fp + -328 ], %g2
40002b00:	c6 07 be ac 	ld  [ %fp + -340 ], %g3
40002b04:	9e 03 c0 02 	add  %o7, %g2, %o7
40002b08:	c6 21 00 00 	st  %g3, [ %g4 ]
40002b0c:	c4 21 20 04 	st  %g2, [ %g4 + 4 ]
40002b10:	de 27 bf 54 	st  %o7, [ %fp + -172 ]
40002b14:	c2 27 bf 50 	st  %g1, [ %fp + -176 ]
40002b18:	80 a0 60 07 	cmp  %g1, 7
40002b1c:	14 80 05 1a 	bg  40003f84 <_vfprintf_r+0x1944>
40002b20:	88 01 20 08 	add  %g4, 8, %g4
40002b24:	c4 07 be c4 	ld  [ %fp + -316 ], %g2
40002b28:	d1 1f be b0 	ldd  [ %fp + -336 ], %f8
40002b2c:	ac 00 bf ff 	add  %g2, -1, %l6
40002b30:	b8 00 60 01 	add  %g1, 1, %i4
40002b34:	05 10 00 3b 	sethi  %hi(0x4000ec00), %g2
40002b38:	d5 18 a1 58 	ldd  [ %g2 + 0x158 ], %f10	! 4000ed58 <_global_impure_ptr+0x64>
40002b3c:	81 aa 0a 4a 	fcmpd  %f8, %f10
40002b40:	01 00 00 00 	nop 
40002b44:	13 80 03 2f 	fbe  40003800 <_vfprintf_r+0x11c0>
40002b48:	ba 01 20 08 	add  %g4, 8, %i5
40002b4c:	84 04 e0 01 	add  %l3, 1, %g2
40002b50:	9e 03 c0 16 	add  %o7, %l6, %o7
40002b54:	c4 21 00 00 	st  %g2, [ %g4 ]
40002b58:	ec 21 20 04 	st  %l6, [ %g4 + 4 ]
40002b5c:	de 27 bf 54 	st  %o7, [ %fp + -172 ]
40002b60:	80 a7 20 07 	cmp  %i4, 7
40002b64:	14 80 04 51 	bg  40003ca8 <_vfprintf_r+0x1668>
40002b68:	f8 27 bf 50 	st  %i4, [ %fp + -176 ]
40002b6c:	84 01 20 10 	add  %g4, 0x10, %g2
40002b70:	b8 00 60 02 	add  %g1, 2, %i4
40002b74:	88 10 00 1d 	mov  %i5, %g4
40002b78:	ba 10 00 02 	mov  %g2, %i5
40002b7c:	c4 07 be a4 	ld  [ %fp + -348 ], %g2
40002b80:	82 07 bf 08 	add  %fp, -248, %g1
40002b84:	9e 00 80 0f 	add  %g2, %o7, %o7
40002b88:	c2 21 00 00 	st  %g1, [ %g4 ]
40002b8c:	c4 21 20 04 	st  %g2, [ %g4 + 4 ]
40002b90:	de 27 bf 54 	st  %o7, [ %fp + -172 ]
40002b94:	80 a7 20 07 	cmp  %i4, 7
40002b98:	04 bf ff 7a 	ble  40002980 <_vfprintf_r+0x340>
40002b9c:	f8 27 bf 50 	st  %i4, [ %fp + -176 ]
40002ba0:	94 07 bf 4c 	add  %fp, -180, %o2
40002ba4:	92 10 00 19 	mov  %i1, %o1
40002ba8:	40 00 1d 8e 	call  4000a1e0 <__sprint_r>
40002bac:	90 10 00 18 	mov  %i0, %o0
40002bb0:	80 a2 20 00 	cmp  %o0, 0
40002bb4:	12 80 01 ea 	bne  4000335c <_vfprintf_r+0xd1c>
40002bb8:	de 07 bf 54 	ld  [ %fp + -172 ], %o7
40002bbc:	10 bf ff 71 	b  40002980 <_vfprintf_r+0x340>
40002bc0:	ba 07 bf 58 	add  %fp, -168, %i5
40002bc4:	40 00 11 ff 	call  400073c0 <__sinit>
40002bc8:	90 10 00 18 	mov  %i0, %o0
40002bcc:	03 10 00 3b 	sethi  %hi(0x4000ec00), %g1
40002bd0:	82 10 62 40 	or  %g1, 0x240, %g1	! 4000ee40 <__sf_fake_stdin>
40002bd4:	80 a6 40 01 	cmp  %i1, %g1
40002bd8:	12 bf fe af 	bne  40002694 <_vfprintf_r+0x54>
40002bdc:	03 10 00 3b 	sethi  %hi(0x4000ec00), %g1
40002be0:	10 bf fe b5 	b  400026b4 <_vfprintf_r+0x74>
40002be4:	f2 06 20 04 	ld  [ %i0 + 4 ], %i1
40002be8:	10 bf fe b3 	b  400026b4 <_vfprintf_r+0x74>
40002bec:	f2 06 20 08 	ld  [ %i0 + 8 ], %i1
40002bf0:	40 00 13 36 	call  400078c8 <_localeconv_r>
40002bf4:	90 10 00 18 	mov  %i0, %o0
40002bf8:	c2 02 20 04 	ld  [ %o0 + 4 ], %g1
40002bfc:	c2 27 be 98 	st  %g1, [ %fp + -360 ]
40002c00:	40 00 1c 87 	call  40009e1c <strlen>
40002c04:	90 10 00 01 	mov  %g1, %o0
40002c08:	82 10 00 08 	mov  %o0, %g1
40002c0c:	90 10 00 18 	mov  %i0, %o0
40002c10:	ac 10 00 01 	mov  %g1, %l6
40002c14:	40 00 13 2d 	call  400078c8 <_localeconv_r>
40002c18:	c2 27 be 9c 	st  %g1, [ %fp + -356 ]
40002c1c:	82 95 a0 00 	orcc  %l6, 0, %g1
40002c20:	c2 02 20 08 	ld  [ %o0 + 8 ], %g1
40002c24:	12 80 03 45 	bne  40003938 <_vfprintf_r+0x12f8>
40002c28:	c2 27 be a0 	st  %g1, [ %fp + -352 ]
40002c2c:	c4 0e 80 00 	ldub  [ %i2 ], %g2
40002c30:	10 bf fe f8 	b  40002810 <_vfprintf_r+0x1d0>
40002c34:	83 28 a0 18 	sll  %g2, 0x18, %g1
40002c38:	c4 0e 80 00 	ldub  [ %i2 ], %g2
40002c3c:	a4 14 a0 20 	or  %l2, 0x20, %l2
40002c40:	10 bf fe f4 	b  40002810 <_vfprintf_r+0x1d0>
40002c44:	83 28 a0 18 	sll  %g2, 0x18, %g1
40002c48:	a4 14 a0 10 	or  %l2, 0x10, %l2
40002c4c:	80 8c a0 20 	btst  0x20, %l2
40002c50:	02 80 03 25 	be  400038e4 <_vfprintf_r+0x12a4>
40002c54:	c2 07 be dc 	ld  [ %fp + -292 ], %g1
40002c58:	92 10 00 01 	mov  %g1, %o1
40002c5c:	82 00 60 08 	add  %g1, 8, %g1
40002c60:	94 10 20 08 	mov  8, %o2
40002c64:	90 07 bf 18 	add  %fp, -232, %o0
40002c68:	7f ff fd 74 	call  40002238 <memcpy>
40002c6c:	c2 27 be dc 	st  %g1, [ %fp + -292 ]
40002c70:	c4 07 bf 18 	ld  [ %fp + -232 ], %g2
40002c74:	ea 07 bf 1c 	ld  [ %fp + -228 ], %l5
40002c78:	a8 10 00 02 	mov  %g2, %l4
40002c7c:	80 a0 a0 00 	cmp  %g2, 0
40002c80:	06 80 03 27 	bl  4000391c <_vfprintf_r+0x12dc>
40002c84:	80 a7 3f ff 	cmp  %i4, -1
40002c88:	02 80 02 5b 	be  400035f4 <_vfprintf_r+0xfb4>
40002c8c:	80 a7 20 00 	cmp  %i4, 0
40002c90:	12 80 02 59 	bne  400035f4 <_vfprintf_r+0xfb4>
40002c94:	a4 0c bf 7f 	and  %l2, -129, %l2
40002c98:	80 95 00 15 	orcc  %l4, %l5, %g0
40002c9c:	32 80 02 57 	bne,a   400035f8 <_vfprintf_r+0xfb8>
40002ca0:	a2 10 00 12 	mov  %l2, %l1
40002ca4:	c0 27 be e0 	clr  [ %fp + -288 ]
40002ca8:	a6 07 bf fc 	add  %fp, -4, %l3
40002cac:	10 80 00 44 	b  40002dbc <_vfprintf_r+0x77c>
40002cb0:	c2 07 be e0 	ld  [ %fp + -288 ], %g1
40002cb4:	c2 07 be dc 	ld  [ %fp + -292 ], %g1
40002cb8:	c0 2f be f7 	clrb  [ %fp + -265 ]
40002cbc:	c4 00 40 00 	ld  [ %g1 ], %g2
40002cc0:	82 00 60 04 	add  %g1, 4, %g1
40002cc4:	c4 2f bf 98 	stb  %g2, [ %fp + -104 ]
40002cc8:	10 bf fe e1 	b  4000284c <_vfprintf_r+0x20c>
40002ccc:	c2 27 be dc 	st  %g1, [ %fp + -292 ]
40002cd0:	c2 07 be dc 	ld  [ %fp + -292 ], %g1
40002cd4:	c0 2f be f7 	clrb  [ %fp + -265 ]
40002cd8:	e6 00 40 00 	ld  [ %g1 ], %l3
40002cdc:	82 00 60 04 	add  %g1, 4, %g1
40002ce0:	80 a4 e0 00 	cmp  %l3, 0
40002ce4:	02 80 04 3b 	be  40003dd0 <_vfprintf_r+0x1790>
40002ce8:	c2 27 be dc 	st  %g1, [ %fp + -292 ]
40002cec:	80 a7 3f ff 	cmp  %i4, -1
40002cf0:	02 80 04 fb 	be  400040dc <_vfprintf_r+0x1a9c>
40002cf4:	94 10 00 1c 	mov  %i4, %o2
40002cf8:	92 10 20 00 	clr  %o1
40002cfc:	40 00 15 84 	call  4000830c <memchr>
40002d00:	90 10 00 13 	mov  %l3, %o0
40002d04:	80 a2 20 00 	cmp  %o0, 0
40002d08:	02 80 08 02 	be  40004d10 <_vfprintf_r+0x26d0>
40002d0c:	d0 27 be e8 	st  %o0, [ %fp + -280 ]
40002d10:	82 22 00 13 	sub  %o0, %l3, %g1
40002d14:	da 0f be f7 	ldub  [ %fp + -265 ], %o5
40002d18:	a2 38 00 01 	xnor  %g0, %g1, %l1
40002d1c:	c2 27 be e0 	st  %g1, [ %fp + -288 ]
40002d20:	a3 3c 60 1f 	sra  %l1, 0x1f, %l1
40002d24:	c0 27 be e8 	clr  [ %fp + -280 ]
40002d28:	b8 10 20 00 	clr  %i4
40002d2c:	a2 08 40 11 	and  %g1, %l1, %l1
40002d30:	c0 27 be bc 	clr  [ %fp + -324 ]
40002d34:	c0 27 be c0 	clr  [ %fp + -320 ]
40002d38:	10 bf fe cf 	b  40002874 <_vfprintf_r+0x234>
40002d3c:	c0 27 be c8 	clr  [ %fp + -312 ]
40002d40:	a4 14 a0 10 	or  %l2, 0x10, %l2
40002d44:	80 8c a0 20 	btst  0x20, %l2
40002d48:	02 80 02 ce 	be  40003880 <_vfprintf_r+0x1240>
40002d4c:	c2 07 be dc 	ld  [ %fp + -292 ], %g1
40002d50:	92 10 00 01 	mov  %g1, %o1
40002d54:	82 00 60 08 	add  %g1, 8, %g1
40002d58:	94 10 20 08 	mov  8, %o2
40002d5c:	90 07 bf 30 	add  %fp, -208, %o0
40002d60:	7f ff fd 36 	call  40002238 <memcpy>
40002d64:	c2 27 be dc 	st  %g1, [ %fp + -292 ]
40002d68:	a2 0c bb ff 	and  %l2, -1025, %l1
40002d6c:	e8 1f bf 30 	ldd  [ %fp + -208 ], %l4
40002d70:	84 10 20 00 	clr  %g2
40002d74:	c0 2f be f7 	clrb  [ %fp + -265 ]
40002d78:	80 a7 3f ff 	cmp  %i4, -1
40002d7c:	02 80 01 40 	be  4000327c <_vfprintf_r+0xc3c>
40002d80:	80 95 00 15 	orcc  %l4, %l5, %g0
40002d84:	12 80 01 3d 	bne  40003278 <_vfprintf_r+0xc38>
40002d88:	a4 0c 7f 7f 	and  %l1, -129, %l2
40002d8c:	80 a7 20 00 	cmp  %i4, 0
40002d90:	12 80 01 3a 	bne  40003278 <_vfprintf_r+0xc38>
40002d94:	80 88 a0 ff 	btst  0xff, %g2
40002d98:	12 bf ff c3 	bne  40002ca4 <_vfprintf_r+0x664>
40002d9c:	b8 10 20 00 	clr  %i4
40002da0:	82 8c 60 01 	andcc  %l1, 1, %g1
40002da4:	c2 27 be e0 	st  %g1, [ %fp + -288 ]
40002da8:	02 80 00 05 	be  40002dbc <_vfprintf_r+0x77c>
40002dac:	a6 07 bf fc 	add  %fp, -4, %l3
40002db0:	84 10 20 30 	mov  0x30, %g2
40002db4:	a6 07 bf fb 	add  %fp, -5, %l3
40002db8:	c4 2f bf fb 	stb  %g2, [ %fp + -5 ]
40002dbc:	da 0f be f7 	ldub  [ %fp + -265 ], %o5
40002dc0:	80 a7 00 01 	cmp  %i4, %g1
40002dc4:	16 80 00 03 	bge  40002dd0 <_vfprintf_r+0x790>
40002dc8:	a2 10 00 1c 	mov  %i4, %l1
40002dcc:	a2 10 00 01 	mov  %g1, %l1
40002dd0:	c0 27 be e8 	clr  [ %fp + -280 ]
40002dd4:	c0 27 be bc 	clr  [ %fp + -324 ]
40002dd8:	c0 27 be c0 	clr  [ %fp + -320 ]
40002ddc:	10 bf fe a6 	b  40002874 <_vfprintf_r+0x234>
40002de0:	c0 27 be c8 	clr  [ %fp + -312 ]
40002de4:	c4 07 be dc 	ld  [ %fp + -292 ], %g2
40002de8:	c2 00 80 00 	ld  [ %g2 ], %g1
40002dec:	84 00 a0 04 	add  %g2, 4, %g2
40002df0:	80 8c a0 20 	btst  0x20, %l2
40002df4:	12 80 02 f8 	bne  400039d4 <_vfprintf_r+0x1394>
40002df8:	c4 27 be dc 	st  %g2, [ %fp + -292 ]
40002dfc:	80 8c a0 10 	btst  0x10, %l2
40002e00:	12 80 04 ab 	bne  400040ac <_vfprintf_r+0x1a6c>
40002e04:	c4 07 be ec 	ld  [ %fp + -276 ], %g2
40002e08:	80 8c a0 40 	btst  0x40, %l2
40002e0c:	32 bf fe 51 	bne,a   40002750 <_vfprintf_r+0x110>
40002e10:	c4 30 40 00 	sth  %g2, [ %g1 ]
40002e14:	80 8c a2 00 	btst  0x200, %l2
40002e18:	22 bf fe 4e 	be,a   40002750 <_vfprintf_r+0x110>
40002e1c:	c4 20 40 00 	st  %g2, [ %g1 ]
40002e20:	c4 07 be ec 	ld  [ %fp + -276 ], %g2
40002e24:	10 bf fe 4b 	b  40002750 <_vfprintf_r+0x110>
40002e28:	c4 28 40 00 	stb  %g2, [ %g1 ]
40002e2c:	c2 07 be dc 	ld  [ %fp + -292 ], %g1
40002e30:	e8 00 40 00 	ld  [ %g1 ], %l4
40002e34:	82 00 60 04 	add  %g1, 4, %g1
40002e38:	c2 27 be dc 	st  %g1, [ %fp + -292 ]
40002e3c:	03 00 00 0c 	sethi  %hi(0x3000), %g1
40002e40:	82 10 60 78 	or  %g1, 0x78, %g1	! 3078 <__data_size+0x2a68>
40002e44:	aa 10 00 14 	mov  %l4, %l5
40002e48:	c2 37 be f8 	sth  %g1, [ %fp + -264 ]
40002e4c:	a8 10 20 00 	clr  %l4
40002e50:	03 10 00 3b 	sethi  %hi(0x4000ec00), %g1
40002e54:	a2 14 a0 02 	or  %l2, 2, %l1
40002e58:	82 10 61 18 	or  %g1, 0x118, %g1
40002e5c:	84 10 20 02 	mov  2, %g2
40002e60:	c2 27 be a8 	st  %g1, [ %fp + -344 ]
40002e64:	10 bf ff c4 	b  40002d74 <_vfprintf_r+0x734>
40002e68:	ac 10 20 78 	mov  0x78, %l6
40002e6c:	c4 0e 80 00 	ldub  [ %i2 ], %g2
40002e70:	83 28 a0 18 	sll  %g2, 0x18, %g1
40002e74:	85 38 60 18 	sra  %g1, 0x18, %g2
40002e78:	80 a0 a0 6c 	cmp  %g2, 0x6c
40002e7c:	22 80 03 a1 	be,a   40003d00 <_vfprintf_r+0x16c0>
40002e80:	c4 0e a0 01 	ldub  [ %i2 + 1 ], %g2
40002e84:	10 bf fe 63 	b  40002810 <_vfprintf_r+0x1d0>
40002e88:	a4 14 a0 10 	or  %l2, 0x10, %l2
40002e8c:	c4 0e 80 00 	ldub  [ %i2 ], %g2
40002e90:	83 28 a0 18 	sll  %g2, 0x18, %g1
40002e94:	85 38 60 18 	sra  %g1, 0x18, %g2
40002e98:	80 a0 a0 68 	cmp  %g2, 0x68
40002e9c:	22 80 03 9d 	be,a   40003d10 <_vfprintf_r+0x16d0>
40002ea0:	c4 0e a0 01 	ldub  [ %i2 + 1 ], %g2
40002ea4:	10 bf fe 5b 	b  40002810 <_vfprintf_r+0x1d0>
40002ea8:	a4 14 a0 40 	or  %l2, 0x40, %l2
40002eac:	a2 14 a0 10 	or  %l2, 0x10, %l1
40002eb0:	80 8c 60 20 	btst  0x20, %l1
40002eb4:	02 80 02 80 	be  400038b4 <_vfprintf_r+0x1274>
40002eb8:	c2 07 be dc 	ld  [ %fp + -292 ], %g1
40002ebc:	92 10 00 01 	mov  %g1, %o1
40002ec0:	82 00 60 08 	add  %g1, 8, %g1
40002ec4:	94 10 20 08 	mov  8, %o2
40002ec8:	90 07 bf 38 	add  %fp, -200, %o0
40002ecc:	7f ff fc db 	call  40002238 <memcpy>
40002ed0:	c2 27 be dc 	st  %g1, [ %fp + -292 ]
40002ed4:	84 10 20 01 	mov  1, %g2
40002ed8:	10 bf ff a7 	b  40002d74 <_vfprintf_r+0x734>
40002edc:	e8 1f bf 38 	ldd  [ %fp + -200 ], %l4
40002ee0:	c4 0e 80 00 	ldub  [ %i2 ], %g2
40002ee4:	a4 14 a0 80 	or  %l2, 0x80, %l2
40002ee8:	10 bf fe 4a 	b  40002810 <_vfprintf_r+0x1d0>
40002eec:	83 28 a0 18 	sll  %g2, 0x18, %g1
40002ef0:	ec 4e 80 00 	ldsb  [ %i2 ], %l6
40002ef4:	80 a5 a0 2a 	cmp  %l6, 0x2a
40002ef8:	02 80 08 5a 	be  40005060 <_vfprintf_r+0x2a20>
40002efc:	86 06 a0 01 	add  %i2, 1, %g3
40002f00:	82 05 bf d0 	add  %l6, -48, %g1
40002f04:	b4 10 00 03 	mov  %g3, %i2
40002f08:	80 a0 60 09 	cmp  %g1, 9
40002f0c:	18 bf fe 43 	bgu  40002818 <_vfprintf_r+0x1d8>
40002f10:	b8 10 20 00 	clr  %i4
40002f14:	85 2f 20 02 	sll  %i4, 2, %g2
40002f18:	b4 06 a0 01 	inc  %i2
40002f1c:	b8 00 80 1c 	add  %g2, %i4, %i4
40002f20:	ec 4e bf ff 	ldsb  [ %i2 + -1 ], %l6
40002f24:	b9 2f 20 01 	sll  %i4, 1, %i4
40002f28:	b8 07 00 01 	add  %i4, %g1, %i4
40002f2c:	82 05 bf d0 	add  %l6, -48, %g1
40002f30:	80 a0 60 09 	cmp  %g1, 9
40002f34:	08 bf ff f9 	bleu  40002f18 <_vfprintf_r+0x8d8>
40002f38:	85 2f 20 02 	sll  %i4, 2, %g2
40002f3c:	10 bf fe 38 	b  4000281c <_vfprintf_r+0x1dc>
40002f40:	82 05 bf e0 	add  %l6, -32, %g1
40002f44:	c4 0e 80 00 	ldub  [ %i2 ], %g2
40002f48:	a4 14 a0 04 	or  %l2, 4, %l2
40002f4c:	10 bf fe 31 	b  40002810 <_vfprintf_r+0x1d0>
40002f50:	83 28 a0 18 	sll  %g2, 0x18, %g1
40002f54:	c4 0e 80 00 	ldub  [ %i2 ], %g2
40002f58:	e2 2f be f7 	stb  %l1, [ %fp + -265 ]
40002f5c:	10 bf fe 2d 	b  40002810 <_vfprintf_r+0x1d0>
40002f60:	83 28 a0 18 	sll  %g2, 0x18, %g1
40002f64:	c2 07 be dc 	ld  [ %fp + -292 ], %g1
40002f68:	f6 00 40 00 	ld  [ %g1 ], %i3
40002f6c:	82 00 60 04 	add  %g1, 4, %g1
40002f70:	c2 27 be dc 	st  %g1, [ %fp + -292 ]
40002f74:	c4 0e 80 00 	ldub  [ %i2 ], %g2
40002f78:	80 a6 e0 00 	cmp  %i3, 0
40002f7c:	16 bf fe 25 	bge  40002810 <_vfprintf_r+0x1d0>
40002f80:	83 28 a0 18 	sll  %g2, 0x18, %g1
40002f84:	b6 20 00 1b 	neg  %i3
40002f88:	10 bf fe 22 	b  40002810 <_vfprintf_r+0x1d0>
40002f8c:	a4 14 a0 04 	or  %l2, 4, %l2
40002f90:	c4 0e 80 00 	ldub  [ %i2 ], %g2
40002f94:	a4 14 a0 01 	or  %l2, 1, %l2
40002f98:	10 bf fe 1e 	b  40002810 <_vfprintf_r+0x1d0>
40002f9c:	83 28 a0 18 	sll  %g2, 0x18, %g1
40002fa0:	c4 0e 80 00 	ldub  [ %i2 ], %g2
40002fa4:	c6 4f be f7 	ldsb  [ %fp + -265 ], %g3
40002fa8:	80 a0 e0 00 	cmp  %g3, 0
40002fac:	12 bf fe 19 	bne  40002810 <_vfprintf_r+0x1d0>
40002fb0:	83 28 a0 18 	sll  %g2, 0x18, %g1
40002fb4:	10 bf fe 17 	b  40002810 <_vfprintf_r+0x1d0>
40002fb8:	e6 2f be f7 	stb  %l3, [ %fp + -265 ]
40002fbc:	c4 0e 80 00 	ldub  [ %i2 ], %g2
40002fc0:	a4 14 a0 08 	or  %l2, 8, %l2
40002fc4:	10 bf fe 13 	b  40002810 <_vfprintf_r+0x1d0>
40002fc8:	83 28 a0 18 	sll  %g2, 0x18, %g1
40002fcc:	24 bf fe be 	ble,a   40002ac4 <_vfprintf_r+0x484>
40002fd0:	e6 27 40 00 	st  %l3, [ %i5 ]
40002fd4:	03 10 00 3b 	sethi  %hi(0x4000ec00), %g1
40002fd8:	d1 1f be b0 	ldd  [ %fp + -336 ], %f8
40002fdc:	d5 18 61 58 	ldd  [ %g1 + 0x158 ], %f10
40002fe0:	81 aa 0a 4a 	fcmpd  %f8, %f10
40002fe4:	01 00 00 00 	nop 
40002fe8:	03 80 01 8f 	fbne  40003624 <_vfprintf_r+0xfe4>
40002fec:	c8 07 bf 00 	ld  [ %fp + -256 ], %g4
40002ff0:	05 10 00 3b 	sethi  %hi(0x4000ec00), %g2
40002ff4:	84 10 a1 50 	or  %g2, 0x150, %g2	! 4000ed50 <_global_impure_ptr+0x5c>
40002ff8:	c2 07 bf 50 	ld  [ %fp + -176 ], %g1
40002ffc:	c4 27 40 00 	st  %g2, [ %i5 ]
40003000:	82 00 60 01 	inc  %g1
40003004:	9e 03 e0 01 	inc  %o7
40003008:	84 10 20 01 	mov  1, %g2
4000300c:	de 27 bf 54 	st  %o7, [ %fp + -172 ]
40003010:	c4 27 60 04 	st  %g2, [ %i5 + 4 ]
40003014:	c2 27 bf 50 	st  %g1, [ %fp + -176 ]
40003018:	80 a0 60 07 	cmp  %g1, 7
4000301c:	14 80 04 1b 	bg  40004088 <_vfprintf_r+0x1a48>
40003020:	ba 07 60 08 	add  %i5, 8, %i5
40003024:	c2 07 bf 00 	ld  [ %fp + -256 ], %g1
40003028:	c4 07 be c4 	ld  [ %fp + -316 ], %g2
4000302c:	80 a0 40 02 	cmp  %g1, %g2
40003030:	16 80 02 4b 	bge  4000395c <_vfprintf_r+0x131c>
40003034:	80 8c a0 01 	btst  1, %l2
40003038:	c4 07 be b8 	ld  [ %fp + -328 ], %g2
4000303c:	c2 07 bf 50 	ld  [ %fp + -176 ], %g1
40003040:	9e 03 c0 02 	add  %o7, %g2, %o7
40003044:	82 00 60 01 	inc  %g1
40003048:	c6 07 be ac 	ld  [ %fp + -340 ], %g3
4000304c:	c4 27 60 04 	st  %g2, [ %i5 + 4 ]
40003050:	c6 27 40 00 	st  %g3, [ %i5 ]
40003054:	de 27 bf 54 	st  %o7, [ %fp + -172 ]
40003058:	c2 27 bf 50 	st  %g1, [ %fp + -176 ]
4000305c:	80 a0 60 07 	cmp  %g1, 7
40003060:	14 80 03 30 	bg  40003d20 <_vfprintf_r+0x16e0>
40003064:	ba 07 60 08 	add  %i5, 8, %i5
40003068:	c2 07 be c4 	ld  [ %fp + -316 ], %g1
4000306c:	b8 00 7f ff 	add  %g1, -1, %i4
40003070:	80 a7 20 00 	cmp  %i4, 0
40003074:	04 bf fe 44 	ble  40002984 <_vfprintf_r+0x344>
40003078:	80 8c a0 04 	btst  4, %l2
4000307c:	80 a7 20 10 	cmp  %i4, 0x10
40003080:	04 80 03 98 	ble  40003ee0 <_vfprintf_r+0x18a0>
40003084:	c2 07 bf 50 	ld  [ %fp + -176 ], %g1
40003088:	10 80 00 06 	b  400030a0 <_vfprintf_r+0xa60>
4000308c:	a6 10 20 10 	mov  0x10, %l3
40003090:	b8 07 3f f0 	add  %i4, -16, %i4
40003094:	80 a7 20 10 	cmp  %i4, 0x10
40003098:	24 80 03 93 	ble,a   40003ee4 <_vfprintf_r+0x18a4>
4000309c:	e0 27 40 00 	st  %l0, [ %i5 ]
400030a0:	82 00 60 01 	inc  %g1
400030a4:	9e 03 e0 10 	add  %o7, 0x10, %o7
400030a8:	e0 27 40 00 	st  %l0, [ %i5 ]
400030ac:	e6 27 60 04 	st  %l3, [ %i5 + 4 ]
400030b0:	de 27 bf 54 	st  %o7, [ %fp + -172 ]
400030b4:	c2 27 bf 50 	st  %g1, [ %fp + -176 ]
400030b8:	80 a0 60 07 	cmp  %g1, 7
400030bc:	04 bf ff f5 	ble  40003090 <_vfprintf_r+0xa50>
400030c0:	ba 07 60 08 	add  %i5, 8, %i5
400030c4:	94 07 bf 4c 	add  %fp, -180, %o2
400030c8:	92 10 00 19 	mov  %i1, %o1
400030cc:	40 00 1c 45 	call  4000a1e0 <__sprint_r>
400030d0:	90 10 00 18 	mov  %i0, %o0
400030d4:	80 a2 20 00 	cmp  %o0, 0
400030d8:	12 80 00 a1 	bne  4000335c <_vfprintf_r+0xd1c>
400030dc:	de 07 bf 54 	ld  [ %fp + -172 ], %o7
400030e0:	c2 07 bf 50 	ld  [ %fp + -176 ], %g1
400030e4:	10 bf ff eb 	b  40003090 <_vfprintf_r+0xa50>
400030e8:	ba 07 bf 58 	add  %fp, -168, %i5
400030ec:	80 a5 e0 00 	cmp  %l7, 0
400030f0:	04 bf fe 12 	ble  40002938 <_vfprintf_r+0x2f8>
400030f4:	c2 07 be e0 	ld  [ %fp + -288 ], %g1
400030f8:	80 a5 e0 10 	cmp  %l7, 0x10
400030fc:	04 80 00 1e 	ble  40003174 <_vfprintf_r+0xb34>
40003100:	da 07 bf 50 	ld  [ %fp + -176 ], %o5
40003104:	10 80 00 06 	b  4000311c <_vfprintf_r+0xadc>
40003108:	88 10 20 10 	mov  0x10, %g4
4000310c:	ae 05 ff f0 	add  %l7, -16, %l7
40003110:	80 a5 e0 10 	cmp  %l7, 0x10
40003114:	24 80 00 19 	ble,a   40003178 <_vfprintf_r+0xb38>
40003118:	9a 03 60 01 	inc  %o5
4000311c:	9a 03 60 01 	inc  %o5
40003120:	9e 03 e0 10 	add  %o7, 0x10, %o7
40003124:	e0 27 40 00 	st  %l0, [ %i5 ]
40003128:	c8 27 60 04 	st  %g4, [ %i5 + 4 ]
4000312c:	de 27 bf 54 	st  %o7, [ %fp + -172 ]
40003130:	da 27 bf 50 	st  %o5, [ %fp + -176 ]
40003134:	80 a3 60 07 	cmp  %o5, 7
40003138:	04 bf ff f5 	ble  4000310c <_vfprintf_r+0xacc>
4000313c:	ba 07 60 08 	add  %i5, 8, %i5
40003140:	94 07 bf 4c 	add  %fp, -180, %o2
40003144:	92 10 00 19 	mov  %i1, %o1
40003148:	40 00 1c 26 	call  4000a1e0 <__sprint_r>
4000314c:	90 10 00 18 	mov  %i0, %o0
40003150:	80 a2 20 00 	cmp  %o0, 0
40003154:	12 80 00 82 	bne  4000335c <_vfprintf_r+0xd1c>
40003158:	ae 05 ff f0 	add  %l7, -16, %l7
4000315c:	de 07 bf 54 	ld  [ %fp + -172 ], %o7
40003160:	da 07 bf 50 	ld  [ %fp + -176 ], %o5
40003164:	ba 07 bf 58 	add  %fp, -168, %i5
40003168:	80 a5 e0 10 	cmp  %l7, 0x10
4000316c:	14 bf ff ec 	bg  4000311c <_vfprintf_r+0xadc>
40003170:	88 10 20 10 	mov  0x10, %g4
40003174:	9a 03 60 01 	inc  %o5
40003178:	9e 03 c0 17 	add  %o7, %l7, %o7
4000317c:	e0 27 40 00 	st  %l0, [ %i5 ]
40003180:	ee 27 60 04 	st  %l7, [ %i5 + 4 ]
40003184:	de 27 bf 54 	st  %o7, [ %fp + -172 ]
40003188:	da 27 bf 50 	st  %o5, [ %fp + -176 ]
4000318c:	80 a3 60 07 	cmp  %o5, 7
40003190:	04 bf fd e9 	ble  40002934 <_vfprintf_r+0x2f4>
40003194:	ba 07 60 08 	add  %i5, 8, %i5
40003198:	94 07 bf 4c 	add  %fp, -180, %o2
4000319c:	92 10 00 19 	mov  %i1, %o1
400031a0:	40 00 1c 10 	call  4000a1e0 <__sprint_r>
400031a4:	90 10 00 18 	mov  %i0, %o0
400031a8:	80 a2 20 00 	cmp  %o0, 0
400031ac:	12 80 00 6c 	bne  4000335c <_vfprintf_r+0xd1c>
400031b0:	de 07 bf 54 	ld  [ %fp + -172 ], %o7
400031b4:	10 bf fd e0 	b  40002934 <_vfprintf_r+0x2f4>
400031b8:	ba 07 bf 58 	add  %fp, -168, %i5
400031bc:	04 80 00 1d 	ble  40003230 <_vfprintf_r+0xbf0>
400031c0:	c8 07 bf 50 	ld  [ %fp + -176 ], %g4
400031c4:	10 80 00 06 	b  400031dc <_vfprintf_r+0xb9c>
400031c8:	ae 10 20 10 	mov  0x10, %l7
400031cc:	b8 07 3f f0 	add  %i4, -16, %i4
400031d0:	80 a7 20 10 	cmp  %i4, 0x10
400031d4:	24 80 00 18 	ble,a   40003234 <_vfprintf_r+0xbf4>
400031d8:	88 01 20 01 	inc  %g4
400031dc:	88 01 20 01 	inc  %g4
400031e0:	9e 03 e0 10 	add  %o7, 0x10, %o7
400031e4:	e0 27 40 00 	st  %l0, [ %i5 ]
400031e8:	ee 27 60 04 	st  %l7, [ %i5 + 4 ]
400031ec:	de 27 bf 54 	st  %o7, [ %fp + -172 ]
400031f0:	c8 27 bf 50 	st  %g4, [ %fp + -176 ]
400031f4:	80 a1 20 07 	cmp  %g4, 7
400031f8:	04 bf ff f5 	ble  400031cc <_vfprintf_r+0xb8c>
400031fc:	ba 07 60 08 	add  %i5, 8, %i5
40003200:	94 07 bf 4c 	add  %fp, -180, %o2
40003204:	92 10 00 19 	mov  %i1, %o1
40003208:	40 00 1b f6 	call  4000a1e0 <__sprint_r>
4000320c:	90 10 00 18 	mov  %i0, %o0
40003210:	80 a2 20 00 	cmp  %o0, 0
40003214:	12 80 00 52 	bne  4000335c <_vfprintf_r+0xd1c>
40003218:	b8 07 3f f0 	add  %i4, -16, %i4
4000321c:	de 07 bf 54 	ld  [ %fp + -172 ], %o7
40003220:	c8 07 bf 50 	ld  [ %fp + -176 ], %g4
40003224:	80 a7 20 10 	cmp  %i4, 0x10
40003228:	14 bf ff ed 	bg  400031dc <_vfprintf_r+0xb9c>
4000322c:	ba 07 bf 58 	add  %fp, -168, %i5
40003230:	88 01 20 01 	inc  %g4
40003234:	9e 03 c0 1c 	add  %o7, %i4, %o7
40003238:	e0 27 40 00 	st  %l0, [ %i5 ]
4000323c:	f8 27 60 04 	st  %i4, [ %i5 + 4 ]
40003240:	de 27 bf 54 	st  %o7, [ %fp + -172 ]
40003244:	c8 27 bf 50 	st  %g4, [ %fp + -176 ]
40003248:	80 a1 20 07 	cmp  %g4, 7
4000324c:	04 bf fd bf 	ble  40002948 <_vfprintf_r+0x308>
40003250:	ba 07 60 08 	add  %i5, 8, %i5
40003254:	94 07 bf 4c 	add  %fp, -180, %o2
40003258:	92 10 00 19 	mov  %i1, %o1
4000325c:	40 00 1b e1 	call  4000a1e0 <__sprint_r>
40003260:	90 10 00 18 	mov  %i0, %o0
40003264:	80 a2 20 00 	cmp  %o0, 0
40003268:	12 80 00 3d 	bne  4000335c <_vfprintf_r+0xd1c>
4000326c:	de 07 bf 54 	ld  [ %fp + -172 ], %o7
40003270:	10 bf fd b6 	b  40002948 <_vfprintf_r+0x308>
40003274:	ba 07 bf 58 	add  %fp, -168, %i5
40003278:	a2 10 00 12 	mov  %l2, %l1
4000327c:	84 08 a0 ff 	and  %g2, 0xff, %g2
40003280:	80 a0 a0 01 	cmp  %g2, 1
40003284:	02 80 00 dd 	be  400035f8 <_vfprintf_r+0xfb8>
40003288:	a4 07 bf fc 	add  %fp, -4, %l2
4000328c:	80 a0 a0 02 	cmp  %g2, 2
40003290:	12 80 00 12 	bne  400032d8 <_vfprintf_r+0xc98>
40003294:	a6 10 00 12 	mov  %l2, %l3
40003298:	c8 07 be a8 	ld  [ %fp + -344 ], %g4
4000329c:	82 0d 60 0f 	and  %l5, 0xf, %g1
400032a0:	a6 04 ff ff 	add  %l3, -1, %l3
400032a4:	c2 09 00 01 	ldub  [ %g4 + %g1 ], %g1
400032a8:	c2 2c c0 00 	stb  %g1, [ %l3 ]
400032ac:	85 2d 20 1c 	sll  %l4, 0x1c, %g2
400032b0:	87 35 20 04 	srl  %l4, 4, %g3
400032b4:	83 35 60 04 	srl  %l5, 4, %g1
400032b8:	aa 10 80 01 	or  %g2, %g1, %l5
400032bc:	80 90 c0 15 	orcc  %g3, %l5, %g0
400032c0:	12 bf ff f7 	bne  4000329c <_vfprintf_r+0xc5c>
400032c4:	a8 10 00 03 	mov  %g3, %l4
400032c8:	82 24 80 13 	sub  %l2, %l3, %g1
400032cc:	a4 10 00 11 	mov  %l1, %l2
400032d0:	10 bf fe bb 	b  40002dbc <_vfprintf_r+0x77c>
400032d4:	c2 27 be e0 	st  %g1, [ %fp + -288 ]
400032d8:	98 10 00 13 	mov  %l3, %o4
400032dc:	86 0d 60 07 	and  %l5, 7, %g3
400032e0:	a6 04 ff ff 	add  %l3, -1, %l3
400032e4:	86 00 e0 30 	add  %g3, 0x30, %g3
400032e8:	c6 2c c0 00 	stb  %g3, [ %l3 ]
400032ec:	85 2d 20 1d 	sll  %l4, 0x1d, %g2
400032f0:	89 35 20 03 	srl  %l4, 3, %g4
400032f4:	83 35 60 03 	srl  %l5, 3, %g1
400032f8:	aa 10 80 01 	or  %g2, %g1, %l5
400032fc:	80 91 00 15 	orcc  %g4, %l5, %g0
40003300:	12 bf ff f6 	bne  400032d8 <_vfprintf_r+0xc98>
40003304:	a8 10 00 04 	mov  %g4, %l4
40003308:	86 08 e0 7f 	and  %g3, 0x7f, %g3
4000330c:	80 a0 e0 30 	cmp  %g3, 0x30
40003310:	02 bf ff ee 	be  400032c8 <_vfprintf_r+0xc88>
40003314:	80 8c 60 01 	btst  1, %l1
40003318:	22 bf ff ed 	be,a   400032cc <_vfprintf_r+0xc8c>
4000331c:	82 24 80 13 	sub  %l2, %l3, %g1
40003320:	98 03 3f fe 	add  %o4, -2, %o4
40003324:	86 10 20 30 	mov  0x30, %g3
40003328:	82 24 80 0c 	sub  %l2, %o4, %g1
4000332c:	c6 2c ff ff 	stb  %g3, [ %l3 + -1 ]
40003330:	c2 27 be e0 	st  %g1, [ %fp + -288 ]
40003334:	a4 10 00 11 	mov  %l1, %l2
40003338:	10 bf fe a1 	b  40002dbc <_vfprintf_r+0x77c>
4000333c:	a6 10 00 0c 	mov  %o4, %l3
40003340:	94 07 bf 4c 	add  %fp, -180, %o2
40003344:	92 10 00 19 	mov  %i1, %o1
40003348:	40 00 1b a6 	call  4000a1e0 <__sprint_r>
4000334c:	90 10 00 18 	mov  %i0, %o0
40003350:	80 a2 20 00 	cmp  %o0, 0
40003354:	22 bf fd 9b 	be,a   400029c0 <_vfprintf_r+0x380>
40003358:	c0 27 bf 50 	clr  [ %fp + -176 ]
4000335c:	c2 07 be e8 	ld  [ %fp + -280 ], %g1
40003360:	80 a0 60 00 	cmp  %g1, 0
40003364:	02 80 00 04 	be  40003374 <_vfprintf_r+0xd34>
40003368:	92 10 00 01 	mov  %g1, %o1
4000336c:	40 00 10 5a 	call  400074d4 <_free_r>
40003370:	90 10 00 18 	mov  %i0, %o0
40003374:	c2 16 60 0c 	lduh  [ %i1 + 0xc ], %g1
40003378:	80 88 60 40 	btst  0x40, %g1
4000337c:	12 80 06 ac 	bne  40004e2c <_vfprintf_r+0x27ec>
40003380:	82 10 3f ff 	mov  -1, %g1
40003384:	f0 07 be ec 	ld  [ %fp + -276 ], %i0
40003388:	81 c7 e0 08 	ret 
4000338c:	81 e8 00 00 	restore 
40003390:	94 07 bf 4c 	add  %fp, -180, %o2
40003394:	92 10 00 19 	mov  %i1, %o1
40003398:	40 00 1b 92 	call  4000a1e0 <__sprint_r>
4000339c:	90 10 00 18 	mov  %i0, %o0
400033a0:	80 a2 20 00 	cmp  %o0, 0
400033a4:	12 bf ff f4 	bne  40003374 <_vfprintf_r+0xd34>
400033a8:	ba 07 bf 58 	add  %fp, -168, %i5
400033ac:	10 bf fd 0a 	b  400027d4 <_vfprintf_r+0x194>
400033b0:	c4 07 be ec 	ld  [ %fp + -276 ], %g2
400033b4:	d4 07 bf 50 	ld  [ %fp + -176 ], %o2
400033b8:	80 a1 20 10 	cmp  %g4, 0x10
400033bc:	04 80 00 2d 	ble  40003470 <_vfprintf_r+0xe30>
400033c0:	ae 13 61 90 	or  %o5, 0x190, %l7
400033c4:	ae 13 61 90 	or  %o5, 0x190, %l7
400033c8:	e8 3f be 88 	std  %l4, [ %fp + -376 ]
400033cc:	82 10 00 17 	mov  %l7, %g1
400033d0:	98 10 20 10 	mov  0x10, %o4
400033d4:	ae 10 00 1a 	mov  %i2, %l7
400033d8:	d6 27 be 94 	st  %o3, [ %fp + -364 ]
400033dc:	b4 10 00 1c 	mov  %i4, %i2
400033e0:	a8 10 00 04 	mov  %g4, %l4
400033e4:	10 80 00 06 	b  400033fc <_vfprintf_r+0xdbc>
400033e8:	b8 10 00 01 	mov  %g1, %i4
400033ec:	a8 05 3f f0 	add  %l4, -16, %l4
400033f0:	80 a5 20 10 	cmp  %l4, 0x10
400033f4:	04 80 00 19 	ble  40003458 <_vfprintf_r+0xe18>
400033f8:	82 10 00 1c 	mov  %i4, %g1
400033fc:	94 02 a0 01 	inc  %o2
40003400:	9e 03 e0 10 	add  %o7, 0x10, %o7
40003404:	f8 27 40 00 	st  %i4, [ %i5 ]
40003408:	d8 27 60 04 	st  %o4, [ %i5 + 4 ]
4000340c:	de 27 bf 54 	st  %o7, [ %fp + -172 ]
40003410:	d4 27 bf 50 	st  %o2, [ %fp + -176 ]
40003414:	80 a2 a0 07 	cmp  %o2, 7
40003418:	04 bf ff f5 	ble  400033ec <_vfprintf_r+0xdac>
4000341c:	ba 07 60 08 	add  %i5, 8, %i5
40003420:	94 07 bf 4c 	add  %fp, -180, %o2
40003424:	92 10 00 19 	mov  %i1, %o1
40003428:	40 00 1b 6e 	call  4000a1e0 <__sprint_r>
4000342c:	90 10 00 18 	mov  %i0, %o0
40003430:	80 a2 20 00 	cmp  %o0, 0
40003434:	12 bf ff ca 	bne  4000335c <_vfprintf_r+0xd1c>
40003438:	de 07 bf 54 	ld  [ %fp + -172 ], %o7
4000343c:	a8 05 3f f0 	add  %l4, -16, %l4
40003440:	d4 07 bf 50 	ld  [ %fp + -176 ], %o2
40003444:	ba 07 bf 58 	add  %fp, -168, %i5
40003448:	80 a5 20 10 	cmp  %l4, 0x10
4000344c:	14 bf ff ec 	bg  400033fc <_vfprintf_r+0xdbc>
40003450:	98 10 20 10 	mov  0x10, %o4
40003454:	82 10 00 1c 	mov  %i4, %g1
40003458:	88 10 00 14 	mov  %l4, %g4
4000345c:	b8 10 00 1a 	mov  %i2, %i4
40003460:	d6 07 be 94 	ld  [ %fp + -364 ], %o3
40003464:	b4 10 00 17 	mov  %l7, %i2
40003468:	e8 1f be 88 	ldd  [ %fp + -376 ], %l4
4000346c:	ae 10 00 01 	mov  %g1, %l7
40003470:	94 02 a0 01 	inc  %o2
40003474:	9e 03 c0 04 	add  %o7, %g4, %o7
40003478:	ee 27 40 00 	st  %l7, [ %i5 ]
4000347c:	c8 27 60 04 	st  %g4, [ %i5 + 4 ]
40003480:	de 27 bf 54 	st  %o7, [ %fp + -172 ]
40003484:	80 a2 a0 07 	cmp  %o2, 7
40003488:	14 80 02 d0 	bg  40003fc8 <_vfprintf_r+0x1988>
4000348c:	d4 27 bf 50 	st  %o2, [ %fp + -176 ]
40003490:	da 0f be f7 	ldub  [ %fp + -265 ], %o5
40003494:	ba 07 60 08 	add  %i5, 8, %i5
40003498:	10 bf fd 05 	b  400028ac <_vfprintf_r+0x26c>
4000349c:	9b 2b 60 18 	sll  %o5, 0x18, %o5
400034a0:	94 07 bf 4c 	add  %fp, -180, %o2
400034a4:	92 10 00 19 	mov  %i1, %o1
400034a8:	40 00 1b 4e 	call  4000a1e0 <__sprint_r>
400034ac:	90 10 00 18 	mov  %i0, %o0
400034b0:	80 a2 20 00 	cmp  %o0, 0
400034b4:	12 bf ff aa 	bne  4000335c <_vfprintf_r+0xd1c>
400034b8:	de 07 bf 54 	ld  [ %fp + -172 ], %o7
400034bc:	10 bf fd 1a 	b  40002924 <_vfprintf_r+0x2e4>
400034c0:	ba 07 bf 58 	add  %fp, -168, %i5
400034c4:	d6 27 be 94 	st  %o3, [ %fp + -364 ]
400034c8:	94 07 bf 4c 	add  %fp, -180, %o2
400034cc:	92 10 00 19 	mov  %i1, %o1
400034d0:	40 00 1b 44 	call  4000a1e0 <__sprint_r>
400034d4:	90 10 00 18 	mov  %i0, %o0
400034d8:	80 a2 20 00 	cmp  %o0, 0
400034dc:	12 bf ff a0 	bne  4000335c <_vfprintf_r+0xd1c>
400034e0:	de 07 bf 54 	ld  [ %fp + -172 ], %o7
400034e4:	ba 07 bf 58 	add  %fp, -168, %i5
400034e8:	10 bf fd 00 	b  400028e8 <_vfprintf_r+0x2a8>
400034ec:	d6 07 be 94 	ld  [ %fp + -364 ], %o3
400034f0:	40 00 07 3c 	call  400051e0 <__swsetup_r>
400034f4:	90 10 00 18 	mov  %i0, %o0
400034f8:	80 a2 20 00 	cmp  %o0, 0
400034fc:	12 80 06 4c 	bne  40004e2c <_vfprintf_r+0x27ec>
40003500:	82 10 3f ff 	mov  -1, %g1
40003504:	c2 16 60 0c 	lduh  [ %i1 + 0xc ], %g1
40003508:	82 08 60 1a 	and  %g1, 0x1a, %g1
4000350c:	80 a0 60 0a 	cmp  %g1, 0xa
40003510:	12 bf fc 7e 	bne  40002708 <_vfprintf_r+0xc8>
40003514:	82 07 bf 58 	add  %fp, -168, %g1
40003518:	c2 56 60 0e 	ldsh  [ %i1 + 0xe ], %g1
4000351c:	80 a0 60 00 	cmp  %g1, 0
40003520:	06 bf fc 7a 	bl  40002708 <_vfprintf_r+0xc8>
40003524:	82 07 bf 58 	add  %fp, -168, %g1
40003528:	f6 07 be dc 	ld  [ %fp + -292 ], %i3
4000352c:	40 00 07 02 	call  40005134 <__sbprintf>
40003530:	81 e8 00 00 	restore 
40003534:	c2 07 bf 50 	ld  [ %fp + -176 ], %g1
40003538:	80 a7 20 10 	cmp  %i4, 0x10
4000353c:	04 80 00 1d 	ble  400035b0 <_vfprintf_r+0xf70>
40003540:	ae 13 61 90 	or  %o5, 0x190, %l7
40003544:	10 80 00 06 	b  4000355c <_vfprintf_r+0xf1c>
40003548:	a4 10 20 10 	mov  0x10, %l2
4000354c:	b8 07 3f f0 	add  %i4, -16, %i4
40003550:	80 a7 20 10 	cmp  %i4, 0x10
40003554:	24 80 00 18 	ble,a   400035b4 <_vfprintf_r+0xf74>
40003558:	82 00 60 01 	inc  %g1
4000355c:	82 00 60 01 	inc  %g1
40003560:	9e 03 e0 10 	add  %o7, 0x10, %o7
40003564:	ee 27 40 00 	st  %l7, [ %i5 ]
40003568:	e4 27 60 04 	st  %l2, [ %i5 + 4 ]
4000356c:	de 27 bf 54 	st  %o7, [ %fp + -172 ]
40003570:	c2 27 bf 50 	st  %g1, [ %fp + -176 ]
40003574:	80 a0 60 07 	cmp  %g1, 7
40003578:	04 bf ff f5 	ble  4000354c <_vfprintf_r+0xf0c>
4000357c:	ba 07 60 08 	add  %i5, 8, %i5
40003580:	94 07 bf 4c 	add  %fp, -180, %o2
40003584:	92 10 00 19 	mov  %i1, %o1
40003588:	40 00 1b 16 	call  4000a1e0 <__sprint_r>
4000358c:	90 10 00 18 	mov  %i0, %o0
40003590:	80 a2 20 00 	cmp  %o0, 0
40003594:	12 bf ff 72 	bne  4000335c <_vfprintf_r+0xd1c>
40003598:	b8 07 3f f0 	add  %i4, -16, %i4
4000359c:	de 07 bf 54 	ld  [ %fp + -172 ], %o7
400035a0:	c2 07 bf 50 	ld  [ %fp + -176 ], %g1
400035a4:	80 a7 20 10 	cmp  %i4, 0x10
400035a8:	14 bf ff ed 	bg  4000355c <_vfprintf_r+0xf1c>
400035ac:	ba 07 bf 58 	add  %fp, -168, %i5
400035b0:	82 00 60 01 	inc  %g1
400035b4:	9e 03 c0 1c 	add  %o7, %i4, %o7
400035b8:	ee 27 40 00 	st  %l7, [ %i5 ]
400035bc:	f8 27 60 04 	st  %i4, [ %i5 + 4 ]
400035c0:	de 27 bf 54 	st  %o7, [ %fp + -172 ]
400035c4:	80 a0 60 07 	cmp  %g1, 7
400035c8:	04 bf fc f5 	ble  4000299c <_vfprintf_r+0x35c>
400035cc:	c2 27 bf 50 	st  %g1, [ %fp + -176 ]
400035d0:	94 07 bf 4c 	add  %fp, -180, %o2
400035d4:	92 10 00 19 	mov  %i1, %o1
400035d8:	40 00 1b 02 	call  4000a1e0 <__sprint_r>
400035dc:	90 10 00 18 	mov  %i0, %o0
400035e0:	80 a2 20 00 	cmp  %o0, 0
400035e4:	12 bf ff 5e 	bne  4000335c <_vfprintf_r+0xd1c>
400035e8:	de 07 bf 54 	ld  [ %fp + -172 ], %o7
400035ec:	10 bf fc ed 	b  400029a0 <_vfprintf_r+0x360>
400035f0:	80 a6 c0 11 	cmp  %i3, %l1
400035f4:	a2 10 00 12 	mov  %l2, %l1
400035f8:	80 a5 20 00 	cmp  %l4, 0
400035fc:	12 80 02 1d 	bne  40003e70 <_vfprintf_r+0x1830>
40003600:	80 a5 60 09 	cmp  %l5, 9
40003604:	18 80 02 1b 	bgu  40003e70 <_vfprintf_r+0x1830>
40003608:	84 05 60 30 	add  %l5, 0x30, %g2
4000360c:	82 10 20 01 	mov  1, %g1
40003610:	a4 10 00 11 	mov  %l1, %l2
40003614:	c4 2f bf fb 	stb  %g2, [ %fp + -5 ]
40003618:	c2 27 be e0 	st  %g1, [ %fp + -288 ]
4000361c:	10 bf fd e8 	b  40002dbc <_vfprintf_r+0x77c>
40003620:	a6 07 bf fb 	add  %fp, -5, %l3
40003624:	80 a1 20 00 	cmp  %g4, 0
40003628:	04 80 02 75 	ble  40003ffc <_vfprintf_r+0x19bc>
4000362c:	c2 07 be c8 	ld  [ %fp + -312 ], %g1
40003630:	c4 07 be c4 	ld  [ %fp + -316 ], %g2
40003634:	80 a0 40 02 	cmp  %g1, %g2
40003638:	14 80 01 8e 	bg  40003c70 <_vfprintf_r+0x1630>
4000363c:	b8 10 00 01 	mov  %g1, %i4
40003640:	80 a7 20 00 	cmp  %i4, 0
40003644:	04 80 00 0d 	ble  40003678 <_vfprintf_r+0x1038>
40003648:	82 38 00 1c 	xnor  %g0, %i4, %g1
4000364c:	c2 07 bf 50 	ld  [ %fp + -176 ], %g1
40003650:	9e 03 c0 1c 	add  %o7, %i4, %o7
40003654:	82 00 60 01 	inc  %g1
40003658:	e6 27 40 00 	st  %l3, [ %i5 ]
4000365c:	f8 27 60 04 	st  %i4, [ %i5 + 4 ]
40003660:	de 27 bf 54 	st  %o7, [ %fp + -172 ]
40003664:	c2 27 bf 50 	st  %g1, [ %fp + -176 ]
40003668:	80 a0 60 07 	cmp  %g1, 7
4000366c:	14 80 04 5b 	bg  400047d8 <_vfprintf_r+0x2198>
40003670:	ba 07 60 08 	add  %i5, 8, %i5
40003674:	82 38 00 1c 	xnor  %g0, %i4, %g1
40003678:	83 38 60 1f 	sra  %g1, 0x1f, %g1
4000367c:	b8 0f 00 01 	and  %i4, %g1, %i4
40003680:	c2 07 be c8 	ld  [ %fp + -312 ], %g1
40003684:	b8 20 40 1c 	sub  %g1, %i4, %i4
40003688:	80 a7 20 00 	cmp  %i4, 0
4000368c:	14 80 01 de 	bg  40003e04 <_vfprintf_r+0x17c4>
40003690:	80 a7 20 10 	cmp  %i4, 0x10
40003694:	c2 07 be c8 	ld  [ %fp + -312 ], %g1
40003698:	80 8c a4 00 	btst  0x400, %l2
4000369c:	12 80 03 70 	bne  4000445c <_vfprintf_r+0x1e1c>
400036a0:	ae 04 c0 01 	add  %l3, %g1, %l7
400036a4:	f8 07 bf 00 	ld  [ %fp + -256 ], %i4
400036a8:	c2 07 be c4 	ld  [ %fp + -316 ], %g1
400036ac:	80 a7 00 01 	cmp  %i4, %g1
400036b0:	26 80 00 06 	bl,a   400036c8 <_vfprintf_r+0x1088>
400036b4:	c2 07 be b8 	ld  [ %fp + -328 ], %g1
400036b8:	80 8c a0 01 	btst  1, %l2
400036bc:	02 80 04 50 	be  400047fc <_vfprintf_r+0x21bc>
400036c0:	88 20 40 1c 	sub  %g1, %i4, %g4
400036c4:	c2 07 be b8 	ld  [ %fp + -328 ], %g1
400036c8:	da 07 bf 50 	ld  [ %fp + -176 ], %o5
400036cc:	9e 03 c0 01 	add  %o7, %g1, %o7
400036d0:	9a 03 60 01 	inc  %o5
400036d4:	c4 07 be ac 	ld  [ %fp + -340 ], %g2
400036d8:	c2 27 60 04 	st  %g1, [ %i5 + 4 ]
400036dc:	c4 27 40 00 	st  %g2, [ %i5 ]
400036e0:	de 27 bf 54 	st  %o7, [ %fp + -172 ]
400036e4:	da 27 bf 50 	st  %o5, [ %fp + -176 ]
400036e8:	80 a3 60 07 	cmp  %o5, 7
400036ec:	14 80 05 4a 	bg  40004c14 <_vfprintf_r+0x25d4>
400036f0:	ba 07 60 08 	add  %i5, 8, %i5
400036f4:	c2 07 be c4 	ld  [ %fp + -316 ], %g1
400036f8:	88 20 40 1c 	sub  %g1, %i4, %g4
400036fc:	84 04 c0 01 	add  %l3, %g1, %g2
40003700:	84 20 80 17 	sub  %g2, %l7, %g2
40003704:	80 a1 00 02 	cmp  %g4, %g2
40003708:	04 80 00 03 	ble  40003714 <_vfprintf_r+0x10d4>
4000370c:	a6 10 00 04 	mov  %g4, %l3
40003710:	a6 10 00 02 	mov  %g2, %l3
40003714:	80 a4 e0 00 	cmp  %l3, 0
40003718:	04 80 00 0b 	ble  40003744 <_vfprintf_r+0x1104>
4000371c:	c4 07 bf 50 	ld  [ %fp + -176 ], %g2
40003720:	9e 03 c0 13 	add  %o7, %l3, %o7
40003724:	84 00 a0 01 	inc  %g2
40003728:	ee 27 40 00 	st  %l7, [ %i5 ]
4000372c:	e6 27 60 04 	st  %l3, [ %i5 + 4 ]
40003730:	de 27 bf 54 	st  %o7, [ %fp + -172 ]
40003734:	c4 27 bf 50 	st  %g2, [ %fp + -176 ]
40003738:	80 a0 a0 07 	cmp  %g2, 7
4000373c:	14 80 05 95 	bg  40004d90 <_vfprintf_r+0x2750>
40003740:	ba 07 60 08 	add  %i5, 8, %i5
40003744:	b8 38 00 13 	xnor  %g0, %l3, %i4
40003748:	b9 3f 20 1f 	sra  %i4, 0x1f, %i4
4000374c:	b8 0c c0 1c 	and  %l3, %i4, %i4
40003750:	b8 21 00 1c 	sub  %g4, %i4, %i4
40003754:	80 a7 20 00 	cmp  %i4, 0
40003758:	04 bf fc 8b 	ble  40002984 <_vfprintf_r+0x344>
4000375c:	80 8c a0 04 	btst  4, %l2
40003760:	80 a7 20 10 	cmp  %i4, 0x10
40003764:	04 80 01 df 	ble  40003ee0 <_vfprintf_r+0x18a0>
40003768:	c2 07 bf 50 	ld  [ %fp + -176 ], %g1
4000376c:	10 80 00 06 	b  40003784 <_vfprintf_r+0x1144>
40003770:	a6 10 20 10 	mov  0x10, %l3
40003774:	b8 07 3f f0 	add  %i4, -16, %i4
40003778:	80 a7 20 10 	cmp  %i4, 0x10
4000377c:	24 80 01 da 	ble,a   40003ee4 <_vfprintf_r+0x18a4>
40003780:	e0 27 40 00 	st  %l0, [ %i5 ]
40003784:	82 00 60 01 	inc  %g1
40003788:	9e 03 e0 10 	add  %o7, 0x10, %o7
4000378c:	e0 27 40 00 	st  %l0, [ %i5 ]
40003790:	e6 27 60 04 	st  %l3, [ %i5 + 4 ]
40003794:	de 27 bf 54 	st  %o7, [ %fp + -172 ]
40003798:	c2 27 bf 50 	st  %g1, [ %fp + -176 ]
4000379c:	80 a0 60 07 	cmp  %g1, 7
400037a0:	04 bf ff f5 	ble  40003774 <_vfprintf_r+0x1134>
400037a4:	ba 07 60 08 	add  %i5, 8, %i5
400037a8:	94 07 bf 4c 	add  %fp, -180, %o2
400037ac:	92 10 00 19 	mov  %i1, %o1
400037b0:	40 00 1a 8c 	call  4000a1e0 <__sprint_r>
400037b4:	90 10 00 18 	mov  %i0, %o0
400037b8:	80 a2 20 00 	cmp  %o0, 0
400037bc:	12 bf fe e8 	bne  4000335c <_vfprintf_r+0xd1c>
400037c0:	de 07 bf 54 	ld  [ %fp + -172 ], %o7
400037c4:	c2 07 bf 50 	ld  [ %fp + -176 ], %g1
400037c8:	10 bf ff eb 	b  40003774 <_vfprintf_r+0x1134>
400037cc:	ba 07 bf 58 	add  %fp, -168, %i5
400037d0:	80 8c a0 01 	btst  1, %l2
400037d4:	32 bf fc c4 	bne,a   40002ae4 <_vfprintf_r+0x4a4>
400037d8:	b8 10 20 01 	mov  1, %i4
400037dc:	84 10 20 01 	mov  1, %g2
400037e0:	de 27 bf 54 	st  %o7, [ %fp + -172 ]
400037e4:	c4 27 60 04 	st  %g2, [ %i5 + 4 ]
400037e8:	80 a0 60 07 	cmp  %g1, 7
400037ec:	14 80 01 2f 	bg  40003ca8 <_vfprintf_r+0x1668>
400037f0:	c2 27 bf 50 	st  %g1, [ %fp + -176 ]
400037f4:	b8 07 20 02 	add  %i4, 2, %i4
400037f8:	10 bf fc e1 	b  40002b7c <_vfprintf_r+0x53c>
400037fc:	ba 07 60 10 	add  %i5, 0x10, %i5
40003800:	80 a5 a0 00 	cmp  %l6, 0
40003804:	04 bf fc df 	ble  40002b80 <_vfprintf_r+0x540>
40003808:	c4 07 be a4 	ld  [ %fp + -348 ], %g2
4000380c:	80 a5 a0 10 	cmp  %l6, 0x10
40003810:	24 80 01 1f 	ble,a   40003c8c <_vfprintf_r+0x164c>
40003814:	82 10 00 1d 	mov  %i5, %g1
40003818:	ba 10 20 10 	mov  0x10, %i5
4000381c:	10 80 00 07 	b  40003838 <_vfprintf_r+0x11f8>
40003820:	82 10 00 1c 	mov  %i4, %g1
40003824:	ac 05 bf f0 	add  %l6, -16, %l6
40003828:	80 a5 a0 10 	cmp  %l6, 0x10
4000382c:	04 80 01 17 	ble  40003c88 <_vfprintf_r+0x1648>
40003830:	b8 00 60 01 	add  %g1, 1, %i4
40003834:	82 00 60 01 	inc  %g1
40003838:	9e 03 e0 10 	add  %o7, 0x10, %o7
4000383c:	e0 21 00 00 	st  %l0, [ %g4 ]
40003840:	fa 21 20 04 	st  %i5, [ %g4 + 4 ]
40003844:	de 27 bf 54 	st  %o7, [ %fp + -172 ]
40003848:	c2 27 bf 50 	st  %g1, [ %fp + -176 ]
4000384c:	80 a0 60 07 	cmp  %g1, 7
40003850:	04 bf ff f5 	ble  40003824 <_vfprintf_r+0x11e4>
40003854:	88 01 20 08 	add  %g4, 8, %g4
40003858:	94 07 bf 4c 	add  %fp, -180, %o2
4000385c:	92 10 00 19 	mov  %i1, %o1
40003860:	40 00 1a 60 	call  4000a1e0 <__sprint_r>
40003864:	90 10 00 18 	mov  %i0, %o0
40003868:	80 a2 20 00 	cmp  %o0, 0
4000386c:	12 bf fe bc 	bne  4000335c <_vfprintf_r+0xd1c>
40003870:	de 07 bf 54 	ld  [ %fp + -172 ], %o7
40003874:	c2 07 bf 50 	ld  [ %fp + -176 ], %g1
40003878:	10 bf ff eb 	b  40003824 <_vfprintf_r+0x11e4>
4000387c:	88 07 bf 58 	add  %fp, -168, %g4
40003880:	80 8c a0 10 	btst  0x10, %l2
40003884:	12 80 00 3c 	bne  40003974 <_vfprintf_r+0x1334>
40003888:	84 00 60 04 	add  %g1, 4, %g2
4000388c:	80 8c a0 40 	btst  0x40, %l2
40003890:	02 80 00 37 	be  4000396c <_vfprintf_r+0x132c>
40003894:	80 8c a2 00 	btst  0x200, %l2
40003898:	e8 10 60 02 	lduh  [ %g1 + 2 ], %l4
4000389c:	c4 27 be dc 	st  %g2, [ %fp + -292 ]
400038a0:	aa 10 00 14 	mov  %l4, %l5
400038a4:	a2 0c bb ff 	and  %l2, -1025, %l1
400038a8:	a8 10 20 00 	clr  %l4
400038ac:	10 bf fd 32 	b  40002d74 <_vfprintf_r+0x734>
400038b0:	84 10 20 00 	clr  %g2
400038b4:	80 8c 60 10 	btst  0x10, %l1
400038b8:	12 80 00 41 	bne  400039bc <_vfprintf_r+0x137c>
400038bc:	86 00 60 04 	add  %g1, 4, %g3
400038c0:	80 8c 60 40 	btst  0x40, %l1
400038c4:	02 80 00 3c 	be  400039b4 <_vfprintf_r+0x1374>
400038c8:	80 8c 62 00 	btst  0x200, %l1
400038cc:	e8 10 60 02 	lduh  [ %g1 + 2 ], %l4
400038d0:	84 10 20 01 	mov  1, %g2
400038d4:	aa 10 00 14 	mov  %l4, %l5
400038d8:	c6 27 be dc 	st  %g3, [ %fp + -292 ]
400038dc:	10 bf fd 26 	b  40002d74 <_vfprintf_r+0x734>
400038e0:	a8 10 20 00 	clr  %l4
400038e4:	80 8c a0 10 	btst  0x10, %l2
400038e8:	12 80 00 2c 	bne  40003998 <_vfprintf_r+0x1358>
400038ec:	84 00 60 04 	add  %g1, 4, %g2
400038f0:	80 8c a0 40 	btst  0x40, %l2
400038f4:	02 80 00 27 	be  40003990 <_vfprintf_r+0x1350>
400038f8:	80 8c a2 00 	btst  0x200, %l2
400038fc:	c8 00 40 00 	ld  [ %g1 ], %g4
40003900:	c4 27 be dc 	st  %g2, [ %fp + -292 ]
40003904:	85 29 20 10 	sll  %g4, 0x10, %g2
40003908:	89 38 a0 1f 	sra  %g2, 0x1f, %g4
4000390c:	ab 38 a0 10 	sra  %g2, 0x10, %l5
40003910:	a8 10 00 04 	mov  %g4, %l4
40003914:	10 bf fc da 	b  40002c7c <_vfprintf_r+0x63c>
40003918:	84 10 00 04 	mov  %g4, %g2
4000391c:	84 10 20 2d 	mov  0x2d, %g2
40003920:	aa a0 00 15 	subcc  %g0, %l5, %l5
40003924:	c4 2f be f7 	stb  %g2, [ %fp + -265 ]
40003928:	a8 60 00 14 	subx  %g0, %l4, %l4
4000392c:	a2 10 00 12 	mov  %l2, %l1
40003930:	10 bf fd 12 	b  40002d78 <_vfprintf_r+0x738>
40003934:	84 10 20 01 	mov  1, %g2
40003938:	80 a0 60 00 	cmp  %g1, 0
4000393c:	02 bf fc bd 	be  40002c30 <_vfprintf_r+0x5f0>
40003940:	c4 0e 80 00 	ldub  [ %i2 ], %g2
40003944:	c6 48 40 00 	ldsb  [ %g1 ], %g3
40003948:	80 a0 e0 00 	cmp  %g3, 0
4000394c:	02 bf fb b1 	be  40002810 <_vfprintf_r+0x1d0>
40003950:	83 28 a0 18 	sll  %g2, 0x18, %g1
40003954:	10 bf fb af 	b  40002810 <_vfprintf_r+0x1d0>
40003958:	a4 14 a4 00 	or  %l2, 0x400, %l2
4000395c:	02 bf fc 0a 	be  40002984 <_vfprintf_r+0x344>
40003960:	80 8c a0 04 	btst  4, %l2
40003964:	10 bf fd b6 	b  4000303c <_vfprintf_r+0x9fc>
40003968:	c4 07 be b8 	ld  [ %fp + -328 ], %g2
4000396c:	32 80 03 b7 	bne,a   40004848 <_vfprintf_r+0x2208>
40003970:	e8 08 60 03 	ldub  [ %g1 + 3 ], %l4
40003974:	e8 00 40 00 	ld  [ %g1 ], %l4
40003978:	a2 0c bb ff 	and  %l2, -1025, %l1
4000397c:	c4 27 be dc 	st  %g2, [ %fp + -292 ]
40003980:	aa 10 00 14 	mov  %l4, %l5
40003984:	84 10 20 00 	clr  %g2
40003988:	10 bf fc fb 	b  40002d74 <_vfprintf_r+0x734>
4000398c:	a8 10 20 00 	clr  %l4
40003990:	32 80 03 a7 	bne,a   4000482c <_vfprintf_r+0x21ec>
40003994:	c8 00 40 00 	ld  [ %g1 ], %g4
40003998:	de 00 40 00 	ld  [ %g1 ], %o7
4000399c:	c4 27 be dc 	st  %g2, [ %fp + -292 ]
400039a0:	89 3b e0 1f 	sra  %o7, 0x1f, %g4
400039a4:	aa 10 00 0f 	mov  %o7, %l5
400039a8:	84 10 00 04 	mov  %g4, %g2
400039ac:	10 bf fc b4 	b  40002c7c <_vfprintf_r+0x63c>
400039b0:	a8 10 00 04 	mov  %g4, %l4
400039b4:	32 80 03 99 	bne,a   40004818 <_vfprintf_r+0x21d8>
400039b8:	e8 08 60 03 	ldub  [ %g1 + 3 ], %l4
400039bc:	e8 00 40 00 	ld  [ %g1 ], %l4
400039c0:	84 10 20 01 	mov  1, %g2
400039c4:	aa 10 00 14 	mov  %l4, %l5
400039c8:	c6 27 be dc 	st  %g3, [ %fp + -292 ]
400039cc:	10 bf fc ea 	b  40002d74 <_vfprintf_r+0x734>
400039d0:	a8 10 20 00 	clr  %l4
400039d4:	c6 07 be ec 	ld  [ %fp + -276 ], %g3
400039d8:	85 38 e0 1f 	sra  %g3, 0x1f, %g2
400039dc:	c6 20 60 04 	st  %g3, [ %g1 + 4 ]
400039e0:	10 bf fb 5c 	b  40002750 <_vfprintf_r+0x110>
400039e4:	c4 20 40 00 	st  %g2, [ %g1 ]
400039e8:	7f ff fa 14 	call  40002238 <memcpy>
400039ec:	90 07 bf 20 	add  %fp, -224, %o0
400039f0:	d1 1f bf 20 	ldd  [ %fp + -224 ], %f8
400039f4:	d1 3f be b0 	std  %f8, [ %fp + -336 ]
400039f8:	95 a0 00 28 	fmovs  %f8, %f10
400039fc:	97 a0 00 29 	fmovs  %f9, %f11
40003a00:	91 a0 01 2a 	fabss  %f10, %f8
40003a04:	93 a0 00 2b 	fmovs  %f11, %f9
40003a08:	03 10 00 3b 	sethi  %hi(0x4000ec00), %g1
40003a0c:	d9 18 61 60 	ldd  [ %g1 + 0x160 ], %f12	! 4000ed60 <_global_impure_ptr+0x6c>
40003a10:	81 aa 0a 4c 	fcmpd  %f8, %f12
40003a14:	01 00 00 00 	nop 
40003a18:	0d bf fc 14 	fbg  40002a68 <_vfprintf_r+0x428>
40003a1c:	01 00 00 00 	nop 
40003a20:	91 a0 00 2a 	fmovs  %f10, %f8
40003a24:	81 aa 0a 48 	fcmpd  %f8, %f8
40003a28:	01 00 00 00 	nop 
40003a2c:	0f 80 05 49 	fbu  40004f50 <_vfprintf_r+0x2910>
40003a30:	a2 0d bf df 	and  %l6, -33, %l1
40003a34:	80 a4 60 41 	cmp  %l1, 0x41
40003a38:	12 80 01 b8 	bne  40004118 <_vfprintf_r+0x1ad8>
40003a3c:	80 a7 3f ff 	cmp  %i4, -1
40003a40:	84 10 20 30 	mov  0x30, %g2
40003a44:	c4 2f be f8 	stb  %g2, [ %fp + -264 ]
40003a48:	80 a5 a0 61 	cmp  %l6, 0x61
40003a4c:	02 80 00 03 	be  40003a58 <_vfprintf_r+0x1418>
40003a50:	84 10 20 78 	mov  0x78, %g2
40003a54:	84 10 20 58 	mov  0x58, %g2
40003a58:	c4 2f be f9 	stb  %g2, [ %fp + -263 ]
40003a5c:	c0 27 be e8 	clr  [ %fp + -280 ]
40003a60:	80 a7 20 63 	cmp  %i4, 0x63
40003a64:	14 80 03 cd 	bg  40004998 <_vfprintf_r+0x2358>
40003a68:	a6 07 bf 98 	add  %fp, -104, %l3
40003a6c:	d1 1f be b0 	ldd  [ %fp + -336 ], %f8
40003a70:	d1 27 be e0 	st  %f8, [ %fp + -288 ]
40003a74:	c8 07 be e0 	ld  [ %fp + -288 ], %g4
40003a78:	80 a1 20 00 	cmp  %g4, 0
40003a7c:	16 80 03 87 	bge  40004898 <_vfprintf_r+0x2258>
40003a80:	82 10 20 2d 	mov  0x2d, %g1
40003a84:	d1 1f be b0 	ldd  [ %fp + -336 ], %f8
40003a88:	91 a0 00 a8 	fnegs  %f8, %f8
40003a8c:	c2 2f be dc 	stb  %g1, [ %fp + -292 ]
40003a90:	d1 3f be e0 	std  %f8, [ %fp + -288 ]
40003a94:	94 07 bf 00 	add  %fp, -256, %o2
40003a98:	40 00 18 66 	call  40009c30 <frexp>
40003a9c:	d0 1f be e0 	ldd  [ %fp + -288 ], %o0
40003aa0:	03 10 00 3b 	sethi  %hi(0x4000ec00), %g1
40003aa4:	d1 18 61 68 	ldd  [ %g1 + 0x168 ], %f8	! 4000ed68 <_global_impure_ptr+0x74>
40003aa8:	03 10 00 3b 	sethi  %hi(0x4000ec00), %g1
40003aac:	81 a0 09 48 	fmuld  %f0, %f8, %f0
40003ab0:	d1 18 61 58 	ldd  [ %g1 + 0x158 ], %f8
40003ab4:	81 a8 0a 48 	fcmpd  %f0, %f8
40003ab8:	01 00 00 00 	nop 
40003abc:	03 80 00 04 	fbne  40003acc <_vfprintf_r+0x148c>
40003ac0:	80 a5 a0 61 	cmp  %l6, 0x61
40003ac4:	88 10 20 01 	mov  1, %g4
40003ac8:	c8 27 bf 00 	st  %g4, [ %fp + -256 ]
40003acc:	22 80 05 63 	be,a   40005058 <_vfprintf_r+0x2a18>
40003ad0:	1b 10 00 3b 	sethi  %hi(0x4000ec00), %o5
40003ad4:	1b 10 00 3b 	sethi  %hi(0x4000ec00), %o5
40003ad8:	9a 13 61 30 	or  %o5, 0x130, %o5	! 4000ed30 <_global_impure_ptr+0x3c>
40003adc:	03 10 00 3b 	sethi  %hi(0x4000ec00), %g1
40003ae0:	b8 07 3f ff 	add  %i4, -1, %i4
40003ae4:	88 10 00 13 	mov  %l3, %g4
40003ae8:	10 80 00 08 	b  40003b08 <_vfprintf_r+0x14c8>
40003aec:	d5 18 61 70 	ldd  [ %g1 + 0x170 ], %f10
40003af0:	03 10 00 3b 	sethi  %hi(0x4000ec00), %g1
40003af4:	d1 18 61 58 	ldd  [ %g1 + 0x158 ], %f8	! 4000ed58 <_global_impure_ptr+0x64>
40003af8:	81 a8 0a 48 	fcmpd  %f0, %f8
40003afc:	01 00 00 00 	nop 
40003b00:	13 80 00 0f 	fbe  40003b3c <_vfprintf_r+0x14fc>
40003b04:	b8 07 3f ff 	add  %i4, -1, %i4
40003b08:	81 a0 09 4a 	fmuld  %f0, %f10, %f0
40003b0c:	96 10 00 04 	mov  %g4, %o3
40003b10:	91 a0 1a 40 	fdtoi  %f0, %f8
40003b14:	88 01 20 01 	inc  %g4
40003b18:	d1 27 be e0 	st  %f8, [ %fp + -288 ]
40003b1c:	de 07 be e0 	ld  [ %fp + -288 ], %o7
40003b20:	c2 0b 40 0f 	ldub  [ %o5 + %o7 ], %g1
40003b24:	c2 29 3f ff 	stb  %g1, [ %g4 + -1 ]
40003b28:	91 a0 19 08 	fitod  %f8, %f8
40003b2c:	98 10 00 1c 	mov  %i4, %o4
40003b30:	80 a7 3f ff 	cmp  %i4, -1
40003b34:	12 bf ff ef 	bne  40003af0 <_vfprintf_r+0x14b0>
40003b38:	81 a0 08 c8 	fsubd  %f0, %f8, %f0
40003b3c:	03 10 00 3b 	sethi  %hi(0x4000ec00), %g1
40003b40:	d1 18 61 78 	ldd  [ %g1 + 0x178 ], %f8	! 4000ed78 <_global_impure_ptr+0x84>
40003b44:	81 a8 0a c8 	fcmped  %f0, %f8
40003b48:	01 00 00 00 	nop 
40003b4c:	2d 80 05 21 	fbg,a   40004fd0 <_vfprintf_r+0x2990>
40003b50:	d8 4b 60 0f 	ldsb  [ %o5 + 0xf ], %o4
40003b54:	81 a8 0a 48 	fcmpd  %f0, %f8
40003b58:	01 00 00 00 	nop 
40003b5c:	03 80 00 06 	fbne  40003b74 <_vfprintf_r+0x1534>
40003b60:	80 a3 20 00 	cmp  %o4, 0
40003b64:	80 8b e0 01 	btst  1, %o7
40003b68:	32 80 05 1a 	bne,a   40004fd0 <_vfprintf_r+0x2990>
40003b6c:	d8 4b 60 0f 	ldsb  [ %o5 + 0xf ], %o4
40003b70:	80 a3 20 00 	cmp  %o4, 0
40003b74:	06 80 00 39 	bl  40003c58 <_vfprintf_r+0x1618>
40003b78:	9e 03 3f ff 	add  %o4, -1, %o7
40003b7c:	b8 20 00 04 	neg  %g4, %i4
40003b80:	9a 03 20 01 	add  %o4, 1, %o5
40003b84:	80 a3 20 05 	cmp  %o4, 5
40003b88:	04 80 05 61 	ble  4000510c <_vfprintf_r+0x2acc>
40003b8c:	b8 0f 20 03 	and  %i4, 3, %i4
40003b90:	80 a7 20 00 	cmp  %i4, 0
40003b94:	02 80 00 10 	be  40003bd4 <_vfprintf_r+0x1594>
40003b98:	94 10 00 04 	mov  %g4, %o2
40003b9c:	92 10 20 30 	mov  0x30, %o1
40003ba0:	d2 29 00 00 	stb  %o1, [ %g4 ]
40003ba4:	94 02 e0 02 	add  %o3, 2, %o2
40003ba8:	80 a7 20 01 	cmp  %i4, 1
40003bac:	02 80 00 0a 	be  40003bd4 <_vfprintf_r+0x1594>
40003bb0:	9e 03 3f fe 	add  %o4, -2, %o7
40003bb4:	d2 29 20 01 	stb  %o1, [ %g4 + 1 ]
40003bb8:	94 01 20 02 	add  %g4, 2, %o2
40003bbc:	80 a7 20 03 	cmp  %i4, 3
40003bc0:	12 80 00 05 	bne  40003bd4 <_vfprintf_r+0x1594>
40003bc4:	9e 03 3f fd 	add  %o4, -3, %o7
40003bc8:	94 01 20 03 	add  %g4, 3, %o2
40003bcc:	d2 29 20 02 	stb  %o1, [ %g4 + 2 ]
40003bd0:	9e 03 3f fc 	add  %o4, -4, %o7
40003bd4:	98 23 40 1c 	sub  %o5, %i4, %o4
40003bd8:	17 0c 0c 0c 	sethi  %hi(0x30303000), %o3
40003bdc:	b8 01 00 1c 	add  %g4, %i4, %i4
40003be0:	92 0b 3f fc 	and  %o4, -4, %o1
40003be4:	96 12 e0 30 	or  %o3, 0x30, %o3
40003be8:	92 02 40 1c 	add  %o1, %i4, %o1
40003bec:	d6 27 00 00 	st  %o3, [ %i4 ]
40003bf0:	b8 07 20 04 	add  %i4, 4, %i4
40003bf4:	80 a2 40 1c 	cmp  %o1, %i4
40003bf8:	32 bf ff fe 	bne,a   40003bf0 <_vfprintf_r+0x15b0>
40003bfc:	d6 27 00 00 	st  %o3, [ %i4 ]
40003c00:	96 0b 3f fc 	and  %o4, -4, %o3
40003c04:	b8 02 80 0b 	add  %o2, %o3, %i4
40003c08:	80 a2 c0 0c 	cmp  %o3, %o4
40003c0c:	02 80 00 12 	be  40003c54 <_vfprintf_r+0x1614>
40003c10:	9e 23 c0 0b 	sub  %o7, %o3, %o7
40003c14:	98 10 20 30 	mov  0x30, %o4
40003c18:	80 a3 e0 00 	cmp  %o7, 0
40003c1c:	06 80 00 0e 	bl  40003c54 <_vfprintf_r+0x1614>
40003c20:	d8 2f 00 00 	stb  %o4, [ %i4 ]
40003c24:	04 80 00 0c 	ble  40003c54 <_vfprintf_r+0x1614>
40003c28:	d8 2f 20 01 	stb  %o4, [ %i4 + 1 ]
40003c2c:	80 a3 e0 01 	cmp  %o7, 1
40003c30:	04 80 00 09 	ble  40003c54 <_vfprintf_r+0x1614>
40003c34:	d8 2f 20 02 	stb  %o4, [ %i4 + 2 ]
40003c38:	80 a3 e0 02 	cmp  %o7, 2
40003c3c:	04 80 00 06 	ble  40003c54 <_vfprintf_r+0x1614>
40003c40:	d8 2f 20 03 	stb  %o4, [ %i4 + 3 ]
40003c44:	80 a3 e0 03 	cmp  %o7, 3
40003c48:	04 80 00 03 	ble  40003c54 <_vfprintf_r+0x1614>
40003c4c:	d8 2f 20 04 	stb  %o4, [ %i4 + 4 ]
40003c50:	d8 2f 20 05 	stb  %o4, [ %i4 + 5 ]
40003c54:	88 01 00 0d 	add  %g4, %o5, %g4
40003c58:	82 21 00 13 	sub  %g4, %l3, %g1
40003c5c:	a4 14 a0 02 	or  %l2, 2, %l2
40003c60:	c2 27 be c4 	st  %g1, [ %fp + -316 ]
40003c64:	c2 07 bf 00 	ld  [ %fp + -256 ], %g1
40003c68:	10 80 01 67 	b  40004204 <_vfprintf_r+0x1bc4>
40003c6c:	c2 27 be c8 	st  %g1, [ %fp + -312 ]
40003c70:	b8 10 00 02 	mov  %g2, %i4
40003c74:	80 a7 20 00 	cmp  %i4, 0
40003c78:	34 bf fe 76 	bg,a   40003650 <_vfprintf_r+0x1010>
40003c7c:	c2 07 bf 50 	ld  [ %fp + -176 ], %g1
40003c80:	10 bf fe 7e 	b  40003678 <_vfprintf_r+0x1038>
40003c84:	82 38 00 1c 	xnor  %g0, %i4, %g1
40003c88:	82 01 20 08 	add  %g4, 8, %g1
40003c8c:	9e 03 c0 16 	add  %o7, %l6, %o7
40003c90:	e0 21 00 00 	st  %l0, [ %g4 ]
40003c94:	ec 21 20 04 	st  %l6, [ %g4 + 4 ]
40003c98:	de 27 bf 54 	st  %o7, [ %fp + -172 ]
40003c9c:	80 a7 20 07 	cmp  %i4, 7
40003ca0:	04 80 02 c8 	ble  400047c0 <_vfprintf_r+0x2180>
40003ca4:	f8 27 bf 50 	st  %i4, [ %fp + -176 ]
40003ca8:	94 07 bf 4c 	add  %fp, -180, %o2
40003cac:	92 10 00 19 	mov  %i1, %o1
40003cb0:	40 00 19 4c 	call  4000a1e0 <__sprint_r>
40003cb4:	90 10 00 18 	mov  %i0, %o0
40003cb8:	80 a2 20 00 	cmp  %o0, 0
40003cbc:	12 bf fd a8 	bne  4000335c <_vfprintf_r+0xd1c>
40003cc0:	de 07 bf 54 	ld  [ %fp + -172 ], %o7
40003cc4:	f8 07 bf 50 	ld  [ %fp + -176 ], %i4
40003cc8:	88 07 bf 58 	add  %fp, -168, %g4
40003ccc:	b8 07 20 01 	inc  %i4
40003cd0:	c4 07 be a4 	ld  [ %fp + -348 ], %g2
40003cd4:	82 07 bf 08 	add  %fp, -248, %g1
40003cd8:	9e 00 80 0f 	add  %g2, %o7, %o7
40003cdc:	c2 21 00 00 	st  %g1, [ %g4 ]
40003ce0:	c4 21 20 04 	st  %g2, [ %g4 + 4 ]
40003ce4:	de 27 bf 54 	st  %o7, [ %fp + -172 ]
40003ce8:	f8 27 bf 50 	st  %i4, [ %fp + -176 ]
40003cec:	80 a7 20 07 	cmp  %i4, 7
40003cf0:	04 bf fb 24 	ble  40002980 <_vfprintf_r+0x340>
40003cf4:	ba 07 bf 60 	add  %fp, -160, %i5
40003cf8:	10 bf fb ab 	b  40002ba4 <_vfprintf_r+0x564>
40003cfc:	94 07 bf 4c 	add  %fp, -180, %o2
40003d00:	a4 14 a0 20 	or  %l2, 0x20, %l2
40003d04:	b4 06 a0 01 	inc  %i2
40003d08:	10 bf fa c2 	b  40002810 <_vfprintf_r+0x1d0>
40003d0c:	83 28 a0 18 	sll  %g2, 0x18, %g1
40003d10:	a4 14 a2 00 	or  %l2, 0x200, %l2
40003d14:	b4 06 a0 01 	inc  %i2
40003d18:	10 bf fa be 	b  40002810 <_vfprintf_r+0x1d0>
40003d1c:	83 28 a0 18 	sll  %g2, 0x18, %g1
40003d20:	94 07 bf 4c 	add  %fp, -180, %o2
40003d24:	92 10 00 19 	mov  %i1, %o1
40003d28:	40 00 19 2e 	call  4000a1e0 <__sprint_r>
40003d2c:	90 10 00 18 	mov  %i0, %o0
40003d30:	80 a2 20 00 	cmp  %o0, 0
40003d34:	12 bf fd 8a 	bne  4000335c <_vfprintf_r+0xd1c>
40003d38:	de 07 bf 54 	ld  [ %fp + -172 ], %o7
40003d3c:	10 bf fc cb 	b  40003068 <_vfprintf_r+0xa28>
40003d40:	ba 07 bf 58 	add  %fp, -168, %i5
40003d44:	05 10 00 3b 	sethi  %hi(0x4000ec00), %g2
40003d48:	a2 10 20 78 	mov  0x78, %l1
40003d4c:	82 10 a1 18 	or  %g2, 0x118, %g1
40003d50:	c2 27 be a8 	st  %g1, [ %fp + -344 ]
40003d54:	80 8c a0 20 	btst  0x20, %l2
40003d58:	02 80 00 6c 	be  40003f08 <_vfprintf_r+0x18c8>
40003d5c:	c2 07 be dc 	ld  [ %fp + -292 ], %g1
40003d60:	92 10 00 01 	mov  %g1, %o1
40003d64:	82 00 60 08 	add  %g1, 8, %g1
40003d68:	94 10 20 08 	mov  8, %o2
40003d6c:	90 07 bf 40 	add  %fp, -192, %o0
40003d70:	7f ff f9 32 	call  40002238 <memcpy>
40003d74:	c2 27 be dc 	st  %g1, [ %fp + -292 ]
40003d78:	e8 1f bf 40 	ldd  [ %fp + -192 ], %l4
40003d7c:	80 95 00 15 	orcc  %l4, %l5, %g0
40003d80:	02 80 00 04 	be  40003d90 <_vfprintf_r+0x1750>
40003d84:	80 8c a0 01 	btst  1, %l2
40003d88:	32 80 00 05 	bne,a   40003d9c <_vfprintf_r+0x175c>
40003d8c:	84 10 20 30 	mov  0x30, %g2
40003d90:	a2 0c bb ff 	and  %l2, -1025, %l1
40003d94:	10 bf fb f8 	b  40002d74 <_vfprintf_r+0x734>
40003d98:	84 10 20 02 	mov  2, %g2
40003d9c:	e2 2f be f9 	stb  %l1, [ %fp + -263 ]
40003da0:	c4 2f be f8 	stb  %g2, [ %fp + -264 ]
40003da4:	a4 14 a0 02 	or  %l2, 2, %l2
40003da8:	84 10 20 02 	mov  2, %g2
40003dac:	10 bf fb f2 	b  40002d74 <_vfprintf_r+0x734>
40003db0:	a2 0c bb ff 	and  %l2, -1025, %l1
40003db4:	10 bf fc 3f 	b  40002eb0 <_vfprintf_r+0x870>
40003db8:	a2 10 00 12 	mov  %l2, %l1
40003dbc:	05 10 00 3b 	sethi  %hi(0x4000ec00), %g2
40003dc0:	a2 10 20 58 	mov  0x58, %l1
40003dc4:	82 10 a1 30 	or  %g2, 0x130, %g1
40003dc8:	10 bf ff e3 	b  40003d54 <_vfprintf_r+0x1714>
40003dcc:	c2 27 be a8 	st  %g1, [ %fp + -344 ]
40003dd0:	80 a7 20 06 	cmp  %i4, 6
40003dd4:	18 80 02 7f 	bgu  400047d0 <_vfprintf_r+0x2190>
40003dd8:	a2 10 00 1c 	mov  %i4, %l1
40003ddc:	05 10 00 3b 	sethi  %hi(0x4000ec00), %g2
40003de0:	c0 27 be e8 	clr  [ %fp + -280 ]
40003de4:	e2 27 be e0 	st  %l1, [ %fp + -288 ]
40003de8:	9a 10 20 00 	clr  %o5
40003dec:	b8 10 20 00 	clr  %i4
40003df0:	c0 27 be bc 	clr  [ %fp + -324 ]
40003df4:	c0 27 be c0 	clr  [ %fp + -320 ]
40003df8:	c0 27 be c8 	clr  [ %fp + -312 ]
40003dfc:	10 bf fa 9e 	b  40002874 <_vfprintf_r+0x234>
40003e00:	a6 10 a1 48 	or  %g2, 0x148, %l3
40003e04:	04 80 01 84 	ble  40004414 <_vfprintf_r+0x1dd4>
40003e08:	c2 07 bf 50 	ld  [ %fp + -176 ], %g1
40003e0c:	10 80 00 06 	b  40003e24 <_vfprintf_r+0x17e4>
40003e10:	ac 10 20 10 	mov  0x10, %l6
40003e14:	b8 07 3f f0 	add  %i4, -16, %i4
40003e18:	80 a7 20 10 	cmp  %i4, 0x10
40003e1c:	24 80 01 7f 	ble,a   40004418 <_vfprintf_r+0x1dd8>
40003e20:	82 00 60 01 	inc  %g1
40003e24:	82 00 60 01 	inc  %g1
40003e28:	9e 03 e0 10 	add  %o7, 0x10, %o7
40003e2c:	e0 27 40 00 	st  %l0, [ %i5 ]
40003e30:	ec 27 60 04 	st  %l6, [ %i5 + 4 ]
40003e34:	de 27 bf 54 	st  %o7, [ %fp + -172 ]
40003e38:	c2 27 bf 50 	st  %g1, [ %fp + -176 ]
40003e3c:	80 a0 60 07 	cmp  %g1, 7
40003e40:	04 bf ff f5 	ble  40003e14 <_vfprintf_r+0x17d4>
40003e44:	ba 07 60 08 	add  %i5, 8, %i5
40003e48:	94 07 bf 4c 	add  %fp, -180, %o2
40003e4c:	92 10 00 19 	mov  %i1, %o1
40003e50:	40 00 18 e4 	call  4000a1e0 <__sprint_r>
40003e54:	90 10 00 18 	mov  %i0, %o0
40003e58:	80 a2 20 00 	cmp  %o0, 0
40003e5c:	12 bf fd 40 	bne  4000335c <_vfprintf_r+0xd1c>
40003e60:	de 07 bf 54 	ld  [ %fp + -172 ], %o7
40003e64:	c2 07 bf 50 	ld  [ %fp + -176 ], %g1
40003e68:	10 bf ff eb 	b  40003e14 <_vfprintf_r+0x17d4>
40003e6c:	ba 07 bf 58 	add  %fp, -168, %i5
40003e70:	80 8c 64 00 	btst  0x400, %l1
40003e74:	12 80 01 38 	bne  40004354 <_vfprintf_r+0x1d14>
40003e78:	a4 07 bf fc 	add  %fp, -4, %l2
40003e7c:	a6 10 00 12 	mov  %l2, %l3
40003e80:	94 10 20 00 	clr  %o2
40003e84:	96 10 20 0a 	mov  0xa, %o3
40003e88:	90 10 00 14 	mov  %l4, %o0
40003e8c:	40 00 2a 77 	call  4000e868 <__umoddi3>
40003e90:	92 10 00 15 	mov  %l5, %o1
40003e94:	82 02 60 30 	add  %o1, 0x30, %g1
40003e98:	90 10 00 14 	mov  %l4, %o0
40003e9c:	92 10 00 15 	mov  %l5, %o1
40003ea0:	94 10 20 00 	clr  %o2
40003ea4:	96 10 20 0a 	mov  0xa, %o3
40003ea8:	40 00 29 9b 	call  4000e514 <__udivdi3>
40003eac:	c2 2c ff ff 	stb  %g1, [ %l3 + -1 ]
40003eb0:	a6 04 ff ff 	add  %l3, -1, %l3
40003eb4:	84 10 00 15 	mov  %l5, %g2
40003eb8:	80 a5 20 00 	cmp  %l4, 0
40003ebc:	86 24 80 13 	sub  %l2, %l3, %g3
40003ec0:	a8 10 00 08 	mov  %o0, %l4
40003ec4:	12 bf ff ef 	bne  40003e80 <_vfprintf_r+0x1840>
40003ec8:	aa 10 00 09 	mov  %o1, %l5
40003ecc:	80 a0 a0 09 	cmp  %g2, 9
40003ed0:	18 bf ff ed 	bgu  40003e84 <_vfprintf_r+0x1844>
40003ed4:	94 10 20 00 	clr  %o2
40003ed8:	10 bf fc fc 	b  400032c8 <_vfprintf_r+0xc88>
40003edc:	c6 27 be c4 	st  %g3, [ %fp + -316 ]
40003ee0:	e0 27 40 00 	st  %l0, [ %i5 ]
40003ee4:	f8 27 60 04 	st  %i4, [ %i5 + 4 ]
40003ee8:	82 00 60 01 	inc  %g1
40003eec:	9e 03 c0 1c 	add  %o7, %i4, %o7
40003ef0:	c2 27 bf 50 	st  %g1, [ %fp + -176 ]
40003ef4:	80 a0 60 07 	cmp  %g1, 7
40003ef8:	04 bf fa a1 	ble  4000297c <_vfprintf_r+0x33c>
40003efc:	de 27 bf 54 	st  %o7, [ %fp + -172 ]
40003f00:	10 bf fb 29 	b  40002ba4 <_vfprintf_r+0x564>
40003f04:	94 07 bf 4c 	add  %fp, -180, %o2
40003f08:	80 8c a0 10 	btst  0x10, %l2
40003f0c:	12 80 00 2a 	bne  40003fb4 <_vfprintf_r+0x1974>
40003f10:	84 00 60 04 	add  %g1, 4, %g2
40003f14:	80 8c a0 40 	btst  0x40, %l2
40003f18:	02 80 00 25 	be  40003fac <_vfprintf_r+0x196c>
40003f1c:	80 8c a2 00 	btst  0x200, %l2
40003f20:	e8 10 60 02 	lduh  [ %g1 + 2 ], %l4
40003f24:	c4 27 be dc 	st  %g2, [ %fp + -292 ]
40003f28:	aa 10 00 14 	mov  %l4, %l5
40003f2c:	10 bf ff 94 	b  40003d7c <_vfprintf_r+0x173c>
40003f30:	a8 10 20 00 	clr  %l4
40003f34:	94 07 bf 4c 	add  %fp, -180, %o2
40003f38:	92 10 00 19 	mov  %i1, %o1
40003f3c:	40 00 18 a9 	call  4000a1e0 <__sprint_r>
40003f40:	90 10 00 18 	mov  %i0, %o0
40003f44:	80 a2 20 00 	cmp  %o0, 0
40003f48:	12 bf fd 05 	bne  4000335c <_vfprintf_r+0xd1c>
40003f4c:	88 07 bf 58 	add  %fp, -168, %g4
40003f50:	de 07 bf 54 	ld  [ %fp + -172 ], %o7
40003f54:	c2 07 bf 50 	ld  [ %fp + -176 ], %g1
40003f58:	c4 07 be b8 	ld  [ %fp + -328 ], %g2
40003f5c:	82 00 60 01 	inc  %g1
40003f60:	9e 03 c0 02 	add  %o7, %g2, %o7
40003f64:	c6 07 be ac 	ld  [ %fp + -340 ], %g3
40003f68:	c4 21 20 04 	st  %g2, [ %g4 + 4 ]
40003f6c:	c6 21 00 00 	st  %g3, [ %g4 ]
40003f70:	de 27 bf 54 	st  %o7, [ %fp + -172 ]
40003f74:	c2 27 bf 50 	st  %g1, [ %fp + -176 ]
40003f78:	80 a0 60 07 	cmp  %g1, 7
40003f7c:	04 bf fa ea 	ble  40002b24 <_vfprintf_r+0x4e4>
40003f80:	88 01 20 08 	add  %g4, 8, %g4
40003f84:	94 07 bf 4c 	add  %fp, -180, %o2
40003f88:	92 10 00 19 	mov  %i1, %o1
40003f8c:	40 00 18 95 	call  4000a1e0 <__sprint_r>
40003f90:	90 10 00 18 	mov  %i0, %o0
40003f94:	80 a2 20 00 	cmp  %o0, 0
40003f98:	12 bf fc f1 	bne  4000335c <_vfprintf_r+0xd1c>
40003f9c:	de 07 bf 54 	ld  [ %fp + -172 ], %o7
40003fa0:	c2 07 bf 50 	ld  [ %fp + -176 ], %g1
40003fa4:	10 bf fa e0 	b  40002b24 <_vfprintf_r+0x4e4>
40003fa8:	88 07 bf 58 	add  %fp, -168, %g4
40003fac:	32 80 02 2d 	bne,a   40004860 <_vfprintf_r+0x2220>
40003fb0:	e8 08 60 03 	ldub  [ %g1 + 3 ], %l4
40003fb4:	e8 00 40 00 	ld  [ %g1 ], %l4
40003fb8:	c4 27 be dc 	st  %g2, [ %fp + -292 ]
40003fbc:	aa 10 00 14 	mov  %l4, %l5
40003fc0:	10 bf ff 6f 	b  40003d7c <_vfprintf_r+0x173c>
40003fc4:	a8 10 20 00 	clr  %l4
40003fc8:	d6 27 be 94 	st  %o3, [ %fp + -364 ]
40003fcc:	94 07 bf 4c 	add  %fp, -180, %o2
40003fd0:	92 10 00 19 	mov  %i1, %o1
40003fd4:	40 00 18 83 	call  4000a1e0 <__sprint_r>
40003fd8:	90 10 00 18 	mov  %i0, %o0
40003fdc:	80 a2 20 00 	cmp  %o0, 0
40003fe0:	12 bf fc df 	bne  4000335c <_vfprintf_r+0xd1c>
40003fe4:	da 0f be f7 	ldub  [ %fp + -265 ], %o5
40003fe8:	de 07 bf 54 	ld  [ %fp + -172 ], %o7
40003fec:	ba 07 bf 58 	add  %fp, -168, %i5
40003ff0:	9b 2b 60 18 	sll  %o5, 0x18, %o5
40003ff4:	10 bf fa 2e 	b  400028ac <_vfprintf_r+0x26c>
40003ff8:	d6 07 be 94 	ld  [ %fp + -364 ], %o3
40003ffc:	39 10 00 3b 	sethi  %hi(0x4000ec00), %i4
40004000:	b8 17 21 50 	or  %i4, 0x150, %i4	! 4000ed50 <_global_impure_ptr+0x5c>
40004004:	c2 07 bf 50 	ld  [ %fp + -176 ], %g1
40004008:	f8 27 40 00 	st  %i4, [ %i5 ]
4000400c:	82 00 60 01 	inc  %g1
40004010:	9e 03 e0 01 	inc  %o7
40004014:	b8 10 20 01 	mov  1, %i4
40004018:	de 27 bf 54 	st  %o7, [ %fp + -172 ]
4000401c:	f8 27 60 04 	st  %i4, [ %i5 + 4 ]
40004020:	c2 27 bf 50 	st  %g1, [ %fp + -176 ]
40004024:	80 a0 60 07 	cmp  %g1, 7
40004028:	14 80 02 ba 	bg  40004b10 <_vfprintf_r+0x24d0>
4000402c:	ba 07 60 08 	add  %i5, 8, %i5
40004030:	c2 07 be c4 	ld  [ %fp + -316 ], %g1
40004034:	80 90 40 04 	orcc  %g1, %g4, %g0
40004038:	02 80 02 de 	be  40004bb0 <_vfprintf_r+0x2570>
4000403c:	c4 07 be b8 	ld  [ %fp + -328 ], %g2
40004040:	c2 07 bf 50 	ld  [ %fp + -176 ], %g1
40004044:	9e 00 80 0f 	add  %g2, %o7, %o7
40004048:	82 00 60 01 	inc  %g1
4000404c:	c6 07 be ac 	ld  [ %fp + -340 ], %g3
40004050:	c4 27 60 04 	st  %g2, [ %i5 + 4 ]
40004054:	c6 27 40 00 	st  %g3, [ %i5 ]
40004058:	de 27 bf 54 	st  %o7, [ %fp + -172 ]
4000405c:	c2 27 bf 50 	st  %g1, [ %fp + -176 ]
40004060:	80 a0 60 07 	cmp  %g1, 7
40004064:	14 80 02 e1 	bg  40004be8 <_vfprintf_r+0x25a8>
40004068:	ba 07 60 08 	add  %i5, 8, %i5
4000406c:	80 a1 20 00 	cmp  %g4, 0
40004070:	06 80 03 54 	bl  40004dc0 <_vfprintf_r+0x2780>
40004074:	80 a1 3f f0 	cmp  %g4, -16
40004078:	c4 07 be c4 	ld  [ %fp + -316 ], %g2
4000407c:	82 00 60 01 	inc  %g1
40004080:	10 bf fa 39 	b  40002964 <_vfprintf_r+0x324>
40004084:	9e 00 80 0f 	add  %g2, %o7, %o7
40004088:	94 07 bf 4c 	add  %fp, -180, %o2
4000408c:	92 10 00 19 	mov  %i1, %o1
40004090:	40 00 18 54 	call  4000a1e0 <__sprint_r>
40004094:	90 10 00 18 	mov  %i0, %o0
40004098:	80 a2 20 00 	cmp  %o0, 0
4000409c:	12 bf fc b0 	bne  4000335c <_vfprintf_r+0xd1c>
400040a0:	de 07 bf 54 	ld  [ %fp + -172 ], %o7
400040a4:	10 bf fb e0 	b  40003024 <_vfprintf_r+0x9e4>
400040a8:	ba 07 bf 58 	add  %fp, -168, %i5
400040ac:	10 bf f9 a9 	b  40002750 <_vfprintf_r+0x110>
400040b0:	c4 20 40 00 	st  %g2, [ %g1 ]
400040b4:	c2 07 bf 54 	ld  [ %fp + -172 ], %g1
400040b8:	80 a0 60 00 	cmp  %g1, 0
400040bc:	22 bf fc af 	be,a   40003378 <_vfprintf_r+0xd38>
400040c0:	c2 16 60 0c 	lduh  [ %i1 + 0xc ], %g1
400040c4:	94 07 bf 4c 	add  %fp, -180, %o2
400040c8:	92 10 00 19 	mov  %i1, %o1
400040cc:	40 00 18 45 	call  4000a1e0 <__sprint_r>
400040d0:	90 10 00 18 	mov  %i0, %o0
400040d4:	10 bf fc a9 	b  40003378 <_vfprintf_r+0xd38>
400040d8:	c2 16 60 0c 	lduh  [ %i1 + 0xc ], %g1
400040dc:	90 10 00 13 	mov  %l3, %o0
400040e0:	40 00 17 4f 	call  40009e1c <strlen>
400040e4:	c0 27 be e8 	clr  [ %fp + -280 ]
400040e8:	da 0f be f7 	ldub  [ %fp + -265 ], %o5
400040ec:	a2 38 00 08 	xnor  %g0, %o0, %l1
400040f0:	d0 27 be e0 	st  %o0, [ %fp + -288 ]
400040f4:	a3 3c 60 1f 	sra  %l1, 0x1f, %l1
400040f8:	b8 10 20 00 	clr  %i4
400040fc:	c0 27 be bc 	clr  [ %fp + -324 ]
40004100:	c0 27 be c0 	clr  [ %fp + -320 ]
40004104:	a2 0a 00 11 	and  %o0, %l1, %l1
40004108:	10 bf f9 db 	b  40002874 <_vfprintf_r+0x234>
4000410c:	c0 27 be c8 	clr  [ %fp + -312 ]
40004110:	10 bf fa 62 	b  40002a98 <_vfprintf_r+0x458>
40004114:	a6 10 a0 f8 	or  %g2, 0xf8, %l3
40004118:	02 80 01 e2 	be  400048a0 <_vfprintf_r+0x2260>
4000411c:	80 a7 20 00 	cmp  %i4, 0
40004120:	12 80 01 e1 	bne  400048a4 <_vfprintf_r+0x2264>
40004124:	80 a4 60 47 	cmp  %l1, 0x47
40004128:	12 80 01 df 	bne  400048a4 <_vfprintf_r+0x2264>
4000412c:	82 14 a1 00 	or  %l2, 0x100, %g1
40004130:	d5 27 be e0 	st  %f10, [ %fp + -288 ]
40004134:	c2 27 be e8 	st  %g1, [ %fp + -280 ]
40004138:	c4 07 be e0 	ld  [ %fp + -288 ], %g2
4000413c:	80 a0 a0 00 	cmp  %g2, 0
40004140:	06 80 03 9e 	bl  40004fb8 <_vfprintf_r+0x2978>
40004144:	98 10 20 01 	mov  1, %o4
40004148:	c0 2f be dc 	clrb  [ %fp + -292 ]
4000414c:	b8 10 20 01 	mov  1, %i4
40004150:	84 07 bf 10 	add  %fp, -240, %g2
40004154:	c4 23 a0 60 	st  %g2, [ %sp + 0x60 ]
40004158:	84 07 bf 04 	add  %fp, -252, %g2
4000415c:	d1 3f be e0 	std  %f8, [ %fp + -288 ]
40004160:	d8 27 be c8 	st  %o4, [ %fp + -312 ]
40004164:	d1 3f be d0 	std  %f8, [ %fp + -304 ]
40004168:	c4 23 a0 5c 	st  %g2, [ %sp + 0x5c ]
4000416c:	9a 07 bf 00 	add  %fp, -256, %o5
40004170:	96 10 20 02 	mov  2, %o3
40004174:	d2 07 be e0 	ld  [ %fp + -288 ], %o1
40004178:	d4 07 be e4 	ld  [ %fp + -284 ], %o2
4000417c:	40 00 06 10 	call  400059bc <_dtoa_r>
40004180:	90 10 00 18 	mov  %i0, %o0
40004184:	80 a4 60 47 	cmp  %l1, 0x47
40004188:	a6 10 00 08 	mov  %o0, %l3
4000418c:	d1 1f be d0 	ldd  [ %fp + -304 ], %f8
40004190:	12 80 02 d4 	bne  40004ce0 <_vfprintf_r+0x26a0>
40004194:	d8 07 be c8 	ld  [ %fp + -312 ], %o4
40004198:	80 8c a0 01 	btst  1, %l2
4000419c:	32 80 01 ec 	bne,a   4000494c <_vfprintf_r+0x230c>
400041a0:	98 04 c0 0c 	add  %l3, %o4, %o4
400041a4:	c8 07 bf 10 	ld  [ %fp + -240 ], %g4
400041a8:	82 21 00 13 	sub  %g4, %l3, %g1
400041ac:	c2 27 be c4 	st  %g1, [ %fp + -316 ]
400041b0:	c2 07 bf 00 	ld  [ %fp + -256 ], %g1
400041b4:	80 a4 60 47 	cmp  %l1, 0x47
400041b8:	12 80 02 3e 	bne  40004ab0 <_vfprintf_r+0x2470>
400041bc:	c2 27 be c8 	st  %g1, [ %fp + -312 ]
400041c0:	80 a7 00 01 	cmp  %i4, %g1
400041c4:	06 80 00 03 	bl  400041d0 <_vfprintf_r+0x1b90>
400041c8:	88 10 20 01 	mov  1, %g4
400041cc:	88 10 20 00 	clr  %g4
400041d0:	80 89 20 ff 	btst  0xff, %g4
400041d4:	12 80 00 09 	bne  400041f8 <_vfprintf_r+0x1bb8>
400041d8:	c2 07 be c8 	ld  [ %fp + -312 ], %g1
400041dc:	80 a0 7f fd 	cmp  %g1, -3
400041e0:	06 80 00 03 	bl  400041ec <_vfprintf_r+0x1bac>
400041e4:	88 10 20 01 	mov  1, %g4
400041e8:	88 10 20 00 	clr  %g4
400041ec:	80 89 20 ff 	btst  0xff, %g4
400041f0:	02 80 02 16 	be  40004a48 <_vfprintf_r+0x2408>
400041f4:	c4 07 be c4 	ld  [ %fp + -316 ], %g2
400041f8:	ac 05 bf fe 	add  %l6, -2, %l6
400041fc:	c0 27 be e8 	clr  [ %fp + -280 ]
40004200:	a2 0d bf df 	and  %l6, -33, %l1
40004204:	c2 07 be c8 	ld  [ %fp + -312 ], %g1
40004208:	b8 00 7f ff 	add  %g1, -1, %i4
4000420c:	f8 27 bf 00 	st  %i4, [ %fp + -256 ]
40004210:	80 a4 60 41 	cmp  %l1, 0x41
40004214:	12 80 00 03 	bne  40004220 <_vfprintf_r+0x1be0>
40004218:	88 10 00 16 	mov  %l6, %g4
4000421c:	88 05 a0 0f 	add  %l6, 0xf, %g4
40004220:	c8 2f bf 08 	stb  %g4, [ %fp + -248 ]
40004224:	80 a7 20 00 	cmp  %i4, 0
40004228:	16 80 00 06 	bge  40004240 <_vfprintf_r+0x1c00>
4000422c:	88 10 20 2b 	mov  0x2b, %g4
40004230:	b8 10 20 01 	mov  1, %i4
40004234:	c2 07 be c8 	ld  [ %fp + -312 ], %g1
40004238:	88 10 20 2d 	mov  0x2d, %g4
4000423c:	b8 27 00 01 	sub  %i4, %g1, %i4
40004240:	80 a7 20 09 	cmp  %i4, 9
40004244:	04 80 03 4b 	ble  40004f70 <_vfprintf_r+0x2930>
40004248:	c8 2f bf 09 	stb  %g4, [ %fp + -247 ]
4000424c:	84 07 bf 17 	add  %fp, -233, %g2
40004250:	e8 3f be e0 	std  %l4, [ %fp + -288 ]
40004254:	a8 10 00 02 	mov  %g2, %l4
40004258:	92 10 20 0a 	mov  0xa, %o1
4000425c:	40 00 28 04 	call  4000e26c <.rem>
40004260:	90 10 00 1c 	mov  %i4, %o0
40004264:	82 02 20 30 	add  %o0, 0x30, %g1
40004268:	92 10 20 0a 	mov  0xa, %o1
4000426c:	90 10 00 1c 	mov  %i4, %o0
40004270:	40 00 27 53 	call  4000dfbc <.div>
40004274:	c2 2d 3f ff 	stb  %g1, [ %l4 + -1 ]
40004278:	86 10 00 1c 	mov  %i4, %g3
4000427c:	a2 10 00 14 	mov  %l4, %l1
40004280:	b8 10 00 08 	mov  %o0, %i4
40004284:	a8 05 3f ff 	add  %l4, -1, %l4
40004288:	80 a0 e0 63 	cmp  %g3, 0x63
4000428c:	14 bf ff f3 	bg  40004258 <_vfprintf_r+0x1c18>
40004290:	84 07 bf 17 	add  %fp, -233, %g2
40004294:	82 10 00 14 	mov  %l4, %g1
40004298:	b8 02 20 30 	add  %o0, 0x30, %i4
4000429c:	f8 28 7f ff 	stb  %i4, [ %g1 + -1 ]
400042a0:	88 04 7f fe 	add  %l1, -2, %g4
400042a4:	80 a1 00 02 	cmp  %g4, %g2
400042a8:	1a 80 03 8f 	bcc  400050e4 <_vfprintf_r+0x2aa4>
400042ac:	e8 1f be e0 	ldd  [ %fp + -288 ], %l4
400042b0:	b8 07 bf 0a 	add  %fp, -246, %i4
400042b4:	c2 09 00 00 	ldub  [ %g4 ], %g1
400042b8:	c2 2f 00 00 	stb  %g1, [ %i4 ]
400042bc:	88 01 20 01 	inc  %g4
400042c0:	80 a1 00 02 	cmp  %g4, %g2
400042c4:	12 bf ff fc 	bne  400042b4 <_vfprintf_r+0x1c74>
400042c8:	b8 07 20 01 	inc  %i4
400042cc:	82 07 bf 0a 	add  %fp, -246, %g1
400042d0:	88 07 bf 19 	add  %fp, -231, %g4
400042d4:	b8 07 bf 08 	add  %fp, -248, %i4
400042d8:	88 21 00 11 	sub  %g4, %l1, %g4
400042dc:	88 00 40 04 	add  %g1, %g4, %g4
400042e0:	82 21 00 1c 	sub  %g4, %i4, %g1
400042e4:	c2 27 be a4 	st  %g1, [ %fp + -348 ]
400042e8:	84 10 00 01 	mov  %g1, %g2
400042ec:	c2 07 be c4 	ld  [ %fp + -316 ], %g1
400042f0:	84 00 80 01 	add  %g2, %g1, %g2
400042f4:	80 a0 60 01 	cmp  %g1, 1
400042f8:	04 80 03 51 	ble  4000503c <_vfprintf_r+0x29fc>
400042fc:	c4 27 be e0 	st  %g2, [ %fp + -288 ]
40004300:	c2 07 be e0 	ld  [ %fp + -288 ], %g1
40004304:	c4 07 be b8 	ld  [ %fp + -328 ], %g2
40004308:	82 00 40 02 	add  %g1, %g2, %g1
4000430c:	c2 27 be e0 	st  %g1, [ %fp + -288 ]
40004310:	c2 07 be e0 	ld  [ %fp + -288 ], %g1
40004314:	86 0c bb ff 	and  %l2, -1025, %g3
40004318:	a2 38 00 01 	xnor  %g0, %g1, %l1
4000431c:	a4 10 e1 00 	or  %g3, 0x100, %l2
40004320:	a3 3c 60 1f 	sra  %l1, 0x1f, %l1
40004324:	c0 27 be bc 	clr  [ %fp + -324 ]
40004328:	a2 08 40 11 	and  %g1, %l1, %l1
4000432c:	c0 27 be c0 	clr  [ %fp + -320 ]
40004330:	c0 27 be c8 	clr  [ %fp + -312 ]
40004334:	c2 0f be dc 	ldub  [ %fp + -292 ], %g1
40004338:	80 88 60 ff 	btst  0xff, %g1
4000433c:	12 80 01 f0 	bne  40004afc <_vfprintf_r+0x24bc>
40004340:	88 10 20 2d 	mov  0x2d, %g4
40004344:	da 0f be f7 	ldub  [ %fp + -265 ], %o5
40004348:	ee 27 be dc 	st  %l7, [ %fp + -292 ]
4000434c:	10 bf f9 4a 	b  40002874 <_vfprintf_r+0x234>
40004350:	b8 10 20 00 	clr  %i4
40004354:	a6 10 00 12 	mov  %l2, %l3
40004358:	f8 27 be e0 	st  %i4, [ %fp + -288 ]
4000435c:	ae 10 20 00 	clr  %l7
40004360:	b8 10 00 12 	mov  %l2, %i4
40004364:	a4 10 00 1a 	mov  %i2, %l2
40004368:	b4 10 00 1d 	mov  %i5, %i2
4000436c:	fa 07 be a0 	ld  [ %fp + -352 ], %i5
40004370:	94 10 20 00 	clr  %o2
40004374:	96 10 20 0a 	mov  0xa, %o3
40004378:	90 10 00 14 	mov  %l4, %o0
4000437c:	40 00 29 3b 	call  4000e868 <__umoddi3>
40004380:	92 10 00 15 	mov  %l5, %o1
40004384:	92 02 60 30 	add  %o1, 0x30, %o1
40004388:	d2 2f 3f ff 	stb  %o1, [ %i4 + -1 ]
4000438c:	ae 05 e0 01 	inc  %l7
40004390:	c4 4f 40 00 	ldsb  [ %i5 ], %g2
40004394:	80 a0 a0 7f 	cmp  %g2, 0x7f
40004398:	02 80 00 05 	be  400043ac <_vfprintf_r+0x1d6c>
4000439c:	b8 07 3f ff 	add  %i4, -1, %i4
400043a0:	80 a0 80 17 	cmp  %g2, %l7
400043a4:	02 80 00 10 	be  400043e4 <_vfprintf_r+0x1da4>
400043a8:	80 a5 20 00 	cmp  %l4, 0
400043ac:	94 10 20 00 	clr  %o2
400043b0:	96 10 20 0a 	mov  0xa, %o3
400043b4:	90 10 00 14 	mov  %l4, %o0
400043b8:	40 00 28 57 	call  4000e514 <__udivdi3>
400043bc:	92 10 00 15 	mov  %l5, %o1
400043c0:	80 a5 20 00 	cmp  %l4, 0
400043c4:	02 80 01 8f 	be  40004a00 <_vfprintf_r+0x23c0>
400043c8:	80 a5 60 09 	cmp  %l5, 9
400043cc:	a8 10 00 08 	mov  %o0, %l4
400043d0:	10 bf ff e8 	b  40004370 <_vfprintf_r+0x1d30>
400043d4:	aa 10 00 09 	mov  %o1, %l5
400043d8:	9a 10 20 2d 	mov  0x2d, %o5
400043dc:	10 bf f9 aa 	b  40002a84 <_vfprintf_r+0x444>
400043e0:	c4 2f be f7 	stb  %g2, [ %fp + -265 ]
400043e4:	12 80 01 75 	bne  400049b8 <_vfprintf_r+0x2378>
400043e8:	80 a5 60 09 	cmp  %l5, 9
400043ec:	38 80 01 74 	bgu,a   400049bc <_vfprintf_r+0x237c>
400043f0:	c2 07 be 9c 	ld  [ %fp + -356 ], %g1
400043f4:	fa 27 be a0 	st  %i5, [ %fp + -352 ]
400043f8:	ee 27 be c4 	st  %l7, [ %fp + -316 ]
400043fc:	ba 10 00 1a 	mov  %i2, %i5
40004400:	b4 10 00 12 	mov  %l2, %i2
40004404:	a4 10 00 13 	mov  %l3, %l2
40004408:	a6 10 00 1c 	mov  %i4, %l3
4000440c:	10 bf fb af 	b  400032c8 <_vfprintf_r+0xc88>
40004410:	f8 07 be e0 	ld  [ %fp + -288 ], %i4
40004414:	82 00 60 01 	inc  %g1
40004418:	9e 03 c0 1c 	add  %o7, %i4, %o7
4000441c:	e0 27 40 00 	st  %l0, [ %i5 ]
40004420:	f8 27 60 04 	st  %i4, [ %i5 + 4 ]
40004424:	de 27 bf 54 	st  %o7, [ %fp + -172 ]
40004428:	c2 27 bf 50 	st  %g1, [ %fp + -176 ]
4000442c:	80 a0 60 07 	cmp  %g1, 7
40004430:	04 bf fc 99 	ble  40003694 <_vfprintf_r+0x1054>
40004434:	ba 07 60 08 	add  %i5, 8, %i5
40004438:	94 07 bf 4c 	add  %fp, -180, %o2
4000443c:	92 10 00 19 	mov  %i1, %o1
40004440:	40 00 17 68 	call  4000a1e0 <__sprint_r>
40004444:	90 10 00 18 	mov  %i0, %o0
40004448:	80 a2 20 00 	cmp  %o0, 0
4000444c:	12 bf fb c4 	bne  4000335c <_vfprintf_r+0xd1c>
40004450:	de 07 bf 54 	ld  [ %fp + -172 ], %o7
40004454:	10 bf fc 90 	b  40003694 <_vfprintf_r+0x1054>
40004458:	ba 07 bf 58 	add  %fp, -168, %i5
4000445c:	c2 07 be bc 	ld  [ %fp + -324 ], %g1
40004460:	80 a0 60 00 	cmp  %g1, 0
40004464:	14 80 00 0c 	bg  40004494 <_vfprintf_r+0x1e54>
40004468:	c2 07 be c0 	ld  [ %fp + -320 ], %g1
4000446c:	80 a0 60 00 	cmp  %g1, 0
40004470:	14 80 00 0a 	bg  40004498 <_vfprintf_r+0x1e58>
40004474:	c2 07 be c4 	ld  [ %fp + -316 ], %g1
40004478:	82 04 c0 01 	add  %l3, %g1, %g1
4000447c:	84 10 00 01 	mov  %g1, %g2
40004480:	80 a5 c0 02 	cmp  %l7, %g2
40004484:	38 bf fc 88 	bgu,a   400036a4 <_vfprintf_r+0x1064>
40004488:	ae 10 00 02 	mov  %g2, %l7
4000448c:	10 bf fc 87 	b  400036a8 <_vfprintf_r+0x1068>
40004490:	f8 07 bf 00 	ld  [ %fp + -256 ], %i4
40004494:	c2 07 be c4 	ld  [ %fp + -316 ], %g1
40004498:	e4 27 be d0 	st  %l2, [ %fp + -304 ]
4000449c:	b8 04 c0 01 	add  %l3, %g1, %i4
400044a0:	ec 07 be bc 	ld  [ %fp + -324 ], %l6
400044a4:	e8 3f be c8 	std  %l4, [ %fp + -312 ]
400044a8:	82 10 00 1d 	mov  %i5, %g1
400044ac:	a4 10 00 17 	mov  %l7, %l2
400044b0:	e6 27 be e0 	st  %l3, [ %fp + -288 ]
400044b4:	ae 10 00 1b 	mov  %i3, %l7
400044b8:	e8 07 be a0 	ld  [ %fp + -352 ], %l4
400044bc:	f6 07 be c0 	ld  [ %fp + -320 ], %i3
400044c0:	e2 27 be bc 	st  %l1, [ %fp + -324 ]
400044c4:	f4 27 be c0 	st  %i2, [ %fp + -320 ]
400044c8:	fa 07 be 9c 	ld  [ %fp + -356 ], %i5
400044cc:	f4 07 be 98 	ld  [ %fp + -360 ], %i2
400044d0:	80 a5 a0 00 	cmp  %l6, 0
400044d4:	12 80 00 34 	bne  400045a4 <_vfprintf_r+0x1f64>
400044d8:	c4 07 bf 50 	ld  [ %fp + -176 ], %g2
400044dc:	9e 03 c0 1d 	add  %o7, %i5, %o7
400044e0:	84 00 a0 01 	inc  %g2
400044e4:	f4 20 40 00 	st  %i2, [ %g1 ]
400044e8:	fa 20 60 04 	st  %i5, [ %g1 + 4 ]
400044ec:	de 27 bf 54 	st  %o7, [ %fp + -172 ]
400044f0:	c4 27 bf 50 	st  %g2, [ %fp + -176 ]
400044f4:	a8 05 3f ff 	add  %l4, -1, %l4
400044f8:	b6 06 ff ff 	add  %i3, -1, %i3
400044fc:	80 a0 a0 07 	cmp  %g2, 7
40004500:	14 80 00 34 	bg  400045d0 <_vfprintf_r+0x1f90>
40004504:	82 00 60 08 	add  %g1, 8, %g1
40004508:	96 27 00 12 	sub  %i4, %l2, %o3
4000450c:	c4 0d 00 00 	ldub  [ %l4 ], %g2
40004510:	a2 10 00 1c 	mov  %i4, %l1
40004514:	85 28 a0 18 	sll  %g2, 0x18, %g2
40004518:	99 38 a0 18 	sra  %g2, 0x18, %o4
4000451c:	80 a3 00 0b 	cmp  %o4, %o3
40004520:	04 80 00 03 	ble  4000452c <_vfprintf_r+0x1eec>
40004524:	a6 10 00 0c 	mov  %o4, %l3
40004528:	a6 10 00 0b 	mov  %o3, %l3
4000452c:	80 a4 e0 00 	cmp  %l3, 0
40004530:	04 80 00 10 	ble  40004570 <_vfprintf_r+0x1f30>
40004534:	96 38 00 13 	xnor  %g0, %l3, %o3
40004538:	c4 07 bf 50 	ld  [ %fp + -176 ], %g2
4000453c:	9e 03 c0 13 	add  %o7, %l3, %o7
40004540:	84 00 a0 01 	inc  %g2
40004544:	e4 20 40 00 	st  %l2, [ %g1 ]
40004548:	e6 20 60 04 	st  %l3, [ %g1 + 4 ]
4000454c:	de 27 bf 54 	st  %o7, [ %fp + -172 ]
40004550:	80 a0 a0 07 	cmp  %g2, 7
40004554:	14 80 00 8f 	bg  40004790 <_vfprintf_r+0x2150>
40004558:	c4 27 bf 50 	st  %g2, [ %fp + -176 ]
4000455c:	c4 0d 00 00 	ldub  [ %l4 ], %g2
40004560:	82 00 60 08 	add  %g1, 8, %g1
40004564:	85 28 a0 18 	sll  %g2, 0x18, %g2
40004568:	99 38 a0 18 	sra  %g2, 0x18, %o4
4000456c:	96 38 00 13 	xnor  %g0, %l3, %o3
40004570:	97 3a e0 1f 	sra  %o3, 0x1f, %o3
40004574:	86 0c c0 0b 	and  %l3, %o3, %g3
40004578:	a6 23 00 03 	sub  %o4, %g3, %l3
4000457c:	80 a4 e0 00 	cmp  %l3, 0
40004580:	14 80 00 1d 	bg  400045f4 <_vfprintf_r+0x1fb4>
40004584:	80 a4 e0 10 	cmp  %l3, 0x10
40004588:	85 38 a0 18 	sra  %g2, 0x18, %g2
4000458c:	80 a6 e0 00 	cmp  %i3, 0
40004590:	14 bf ff d0 	bg  400044d0 <_vfprintf_r+0x1e90>
40004594:	a4 04 80 02 	add  %l2, %g2, %l2
40004598:	80 a5 a0 00 	cmp  %l6, 0
4000459c:	24 80 01 1e 	ble,a   40004a14 <_vfprintf_r+0x23d4>
400045a0:	e8 27 be a0 	st  %l4, [ %fp + -352 ]
400045a4:	c4 07 bf 50 	ld  [ %fp + -176 ], %g2
400045a8:	9e 03 c0 1d 	add  %o7, %i5, %o7
400045ac:	84 00 a0 01 	inc  %g2
400045b0:	f4 20 40 00 	st  %i2, [ %g1 ]
400045b4:	fa 20 60 04 	st  %i5, [ %g1 + 4 ]
400045b8:	de 27 bf 54 	st  %o7, [ %fp + -172 ]
400045bc:	c4 27 bf 50 	st  %g2, [ %fp + -176 ]
400045c0:	ac 05 bf ff 	add  %l6, -1, %l6
400045c4:	80 a0 a0 07 	cmp  %g2, 7
400045c8:	04 bf ff d0 	ble  40004508 <_vfprintf_r+0x1ec8>
400045cc:	82 00 60 08 	add  %g1, 8, %g1
400045d0:	94 07 bf 4c 	add  %fp, -180, %o2
400045d4:	92 10 00 19 	mov  %i1, %o1
400045d8:	40 00 17 02 	call  4000a1e0 <__sprint_r>
400045dc:	90 10 00 18 	mov  %i0, %o0
400045e0:	80 a2 20 00 	cmp  %o0, 0
400045e4:	12 bf fb 5e 	bne  4000335c <_vfprintf_r+0xd1c>
400045e8:	de 07 bf 54 	ld  [ %fp + -172 ], %o7
400045ec:	10 bf ff c7 	b  40004508 <_vfprintf_r+0x1ec8>
400045f0:	82 07 bf 58 	add  %fp, -168, %g1
400045f4:	04 80 02 97 	ble  40005050 <_vfprintf_r+0x2a10>
400045f8:	c4 07 bf 50 	ld  [ %fp + -176 ], %g2
400045fc:	84 00 a0 01 	inc  %g2
40004600:	e0 20 40 00 	st  %l0, [ %g1 ]
40004604:	86 10 20 10 	mov  0x10, %g3
40004608:	9e 03 e0 10 	add  %o7, 0x10, %o7
4000460c:	c6 20 60 04 	st  %g3, [ %g1 + 4 ]
40004610:	c4 27 bf 50 	st  %g2, [ %fp + -176 ]
40004614:	de 27 bf 54 	st  %o7, [ %fp + -172 ]
40004618:	80 a0 a0 07 	cmp  %g2, 7
4000461c:	14 80 01 47 	bg  40004b38 <_vfprintf_r+0x24f8>
40004620:	82 00 60 08 	add  %g1, 8, %g1
40004624:	98 04 ff f0 	add  %l3, -16, %o4
40004628:	80 a3 20 10 	cmp  %o4, 0x10
4000462c:	04 80 00 4d 	ble  40004760 <_vfprintf_r+0x2120>
40004630:	86 10 20 10 	mov  0x10, %g3
40004634:	84 00 a0 01 	inc  %g2
40004638:	e0 20 40 00 	st  %l0, [ %g1 ]
4000463c:	9e 03 e0 10 	add  %o7, 0x10, %o7
40004640:	c6 20 60 04 	st  %g3, [ %g1 + 4 ]
40004644:	c4 27 bf 50 	st  %g2, [ %fp + -176 ]
40004648:	de 27 bf 54 	st  %o7, [ %fp + -172 ]
4000464c:	80 a0 a0 07 	cmp  %g2, 7
40004650:	14 80 01 44 	bg  40004b60 <_vfprintf_r+0x2520>
40004654:	82 00 60 08 	add  %g1, 8, %g1
40004658:	98 04 ff e0 	add  %l3, -32, %o4
4000465c:	80 a3 20 10 	cmp  %o4, 0x10
40004660:	04 80 00 40 	ble  40004760 <_vfprintf_r+0x2120>
40004664:	86 10 20 10 	mov  0x10, %g3
40004668:	84 00 a0 01 	inc  %g2
4000466c:	e0 20 40 00 	st  %l0, [ %g1 ]
40004670:	9e 03 e0 10 	add  %o7, 0x10, %o7
40004674:	c6 20 60 04 	st  %g3, [ %g1 + 4 ]
40004678:	c4 27 bf 50 	st  %g2, [ %fp + -176 ]
4000467c:	de 27 bf 54 	st  %o7, [ %fp + -172 ]
40004680:	80 a0 a0 07 	cmp  %g2, 7
40004684:	14 80 01 41 	bg  40004b88 <_vfprintf_r+0x2548>
40004688:	82 00 60 08 	add  %g1, 8, %g1
4000468c:	98 04 ff d0 	add  %l3, -48, %o4
40004690:	80 a3 20 10 	cmp  %o4, 0x10
40004694:	04 80 00 33 	ble  40004760 <_vfprintf_r+0x2120>
40004698:	86 10 20 10 	mov  0x10, %g3
4000469c:	84 00 a0 01 	inc  %g2
400046a0:	e0 20 40 00 	st  %l0, [ %g1 ]
400046a4:	9e 03 e0 10 	add  %o7, 0x10, %o7
400046a8:	c6 20 60 04 	st  %g3, [ %g1 + 4 ]
400046ac:	c4 27 bf 50 	st  %g2, [ %fp + -176 ]
400046b0:	de 27 bf 54 	st  %o7, [ %fp + -172 ]
400046b4:	80 a0 a0 07 	cmp  %g2, 7
400046b8:	14 80 01 61 	bg  40004c3c <_vfprintf_r+0x25fc>
400046bc:	82 00 60 08 	add  %g1, 8, %g1
400046c0:	98 04 ff c0 	add  %l3, -64, %o4
400046c4:	80 a3 20 10 	cmp  %o4, 0x10
400046c8:	04 80 00 26 	ble  40004760 <_vfprintf_r+0x2120>
400046cc:	86 10 20 10 	mov  0x10, %g3
400046d0:	84 00 a0 01 	inc  %g2
400046d4:	e0 20 40 00 	st  %l0, [ %g1 ]
400046d8:	9e 03 e0 10 	add  %o7, 0x10, %o7
400046dc:	c6 20 60 04 	st  %g3, [ %g1 + 4 ]
400046e0:	c4 27 bf 50 	st  %g2, [ %fp + -176 ]
400046e4:	de 27 bf 54 	st  %o7, [ %fp + -172 ]
400046e8:	80 a0 a0 07 	cmp  %g2, 7
400046ec:	14 80 01 7f 	bg  40004ce8 <_vfprintf_r+0x26a8>
400046f0:	82 00 60 08 	add  %g1, 8, %g1
400046f4:	98 04 ff b0 	add  %l3, -80, %o4
400046f8:	80 a3 20 10 	cmp  %o4, 0x10
400046fc:	04 80 00 19 	ble  40004760 <_vfprintf_r+0x2120>
40004700:	86 10 20 10 	mov  0x10, %g3
40004704:	84 00 a0 01 	inc  %g2
40004708:	e0 20 40 00 	st  %l0, [ %g1 ]
4000470c:	9e 03 e0 10 	add  %o7, 0x10, %o7
40004710:	c6 20 60 04 	st  %g3, [ %g1 + 4 ]
40004714:	c4 27 bf 50 	st  %g2, [ %fp + -176 ]
40004718:	de 27 bf 54 	st  %o7, [ %fp + -172 ]
4000471c:	80 a0 a0 07 	cmp  %g2, 7
40004720:	14 80 01 84 	bg  40004d30 <_vfprintf_r+0x26f0>
40004724:	82 00 60 08 	add  %g1, 8, %g1
40004728:	98 04 ff a0 	add  %l3, -96, %o4
4000472c:	80 a3 20 10 	cmp  %o4, 0x10
40004730:	04 80 00 0c 	ble  40004760 <_vfprintf_r+0x2120>
40004734:	86 10 20 10 	mov  0x10, %g3
40004738:	84 00 a0 01 	inc  %g2
4000473c:	9e 03 e0 10 	add  %o7, 0x10, %o7
40004740:	e0 20 40 00 	st  %l0, [ %g1 ]
40004744:	de 27 bf 54 	st  %o7, [ %fp + -172 ]
40004748:	c6 20 60 04 	st  %g3, [ %g1 + 4 ]
4000474c:	c4 27 bf 50 	st  %g2, [ %fp + -176 ]
40004750:	80 a0 a0 07 	cmp  %g2, 7
40004754:	14 80 00 47 	bg  40004870 <_vfprintf_r+0x2230>
40004758:	82 00 60 08 	add  %g1, 8, %g1
4000475c:	98 04 ff 90 	add  %l3, -112, %o4
40004760:	84 00 a0 01 	inc  %g2
40004764:	9e 03 c0 0c 	add  %o7, %o4, %o7
40004768:	e0 20 40 00 	st  %l0, [ %g1 ]
4000476c:	d8 20 60 04 	st  %o4, [ %g1 + 4 ]
40004770:	de 27 bf 54 	st  %o7, [ %fp + -172 ]
40004774:	80 a0 a0 07 	cmp  %g2, 7
40004778:	14 80 01 3b 	bg  40004c64 <_vfprintf_r+0x2624>
4000477c:	c4 27 bf 50 	st  %g2, [ %fp + -176 ]
40004780:	c4 0d 00 00 	ldub  [ %l4 ], %g2
40004784:	82 00 60 08 	add  %g1, 8, %g1
40004788:	10 bf ff 80 	b  40004588 <_vfprintf_r+0x1f48>
4000478c:	85 28 a0 18 	sll  %g2, 0x18, %g2
40004790:	94 07 bf 4c 	add  %fp, -180, %o2
40004794:	92 10 00 19 	mov  %i1, %o1
40004798:	40 00 16 92 	call  4000a1e0 <__sprint_r>
4000479c:	90 10 00 18 	mov  %i0, %o0
400047a0:	80 a2 20 00 	cmp  %o0, 0
400047a4:	12 bf fa ee 	bne  4000335c <_vfprintf_r+0xd1c>
400047a8:	de 07 bf 54 	ld  [ %fp + -172 ], %o7
400047ac:	c4 0d 00 00 	ldub  [ %l4 ], %g2
400047b0:	85 28 a0 18 	sll  %g2, 0x18, %g2
400047b4:	82 07 bf 58 	add  %fp, -168, %g1
400047b8:	10 bf ff 6d 	b  4000456c <_vfprintf_r+0x1f2c>
400047bc:	99 38 a0 18 	sra  %g2, 0x18, %o4
400047c0:	b8 07 20 01 	inc  %i4
400047c4:	ba 00 60 08 	add  %g1, 8, %i5
400047c8:	10 bf f8 ed 	b  40002b7c <_vfprintf_r+0x53c>
400047cc:	88 10 00 01 	mov  %g1, %g4
400047d0:	10 bf fd 83 	b  40003ddc <_vfprintf_r+0x179c>
400047d4:	a2 10 20 06 	mov  6, %l1
400047d8:	94 07 bf 4c 	add  %fp, -180, %o2
400047dc:	92 10 00 19 	mov  %i1, %o1
400047e0:	40 00 16 80 	call  4000a1e0 <__sprint_r>
400047e4:	90 10 00 18 	mov  %i0, %o0
400047e8:	80 a2 20 00 	cmp  %o0, 0
400047ec:	12 bf fa dc 	bne  4000335c <_vfprintf_r+0xd1c>
400047f0:	de 07 bf 54 	ld  [ %fp + -172 ], %o7
400047f4:	10 bf fb a0 	b  40003674 <_vfprintf_r+0x1034>
400047f8:	ba 07 bf 58 	add  %fp, -168, %i5
400047fc:	84 04 c0 01 	add  %l3, %g1, %g2
40004800:	82 20 80 17 	sub  %g2, %l7, %g1
40004804:	80 a1 00 01 	cmp  %g4, %g1
40004808:	04 bf fb cf 	ble  40003744 <_vfprintf_r+0x1104>
4000480c:	a6 10 00 04 	mov  %g4, %l3
40004810:	10 bf fb cd 	b  40003744 <_vfprintf_r+0x1104>
40004814:	a6 10 00 01 	mov  %g1, %l3
40004818:	84 10 20 01 	mov  1, %g2
4000481c:	aa 10 00 14 	mov  %l4, %l5
40004820:	c6 27 be dc 	st  %g3, [ %fp + -292 ]
40004824:	10 bf f9 54 	b  40002d74 <_vfprintf_r+0x734>
40004828:	a8 10 20 00 	clr  %l4
4000482c:	c4 27 be dc 	st  %g2, [ %fp + -292 ]
40004830:	85 29 20 18 	sll  %g4, 0x18, %g2
40004834:	89 38 a0 1f 	sra  %g2, 0x1f, %g4
40004838:	ab 38 a0 18 	sra  %g2, 0x18, %l5
4000483c:	a8 10 00 04 	mov  %g4, %l4
40004840:	10 bf f9 0f 	b  40002c7c <_vfprintf_r+0x63c>
40004844:	84 10 00 04 	mov  %g4, %g2
40004848:	c4 27 be dc 	st  %g2, [ %fp + -292 ]
4000484c:	aa 10 00 14 	mov  %l4, %l5
40004850:	a2 0c bb ff 	and  %l2, -1025, %l1
40004854:	a8 10 20 00 	clr  %l4
40004858:	10 bf f9 47 	b  40002d74 <_vfprintf_r+0x734>
4000485c:	84 10 20 00 	clr  %g2
40004860:	c4 27 be dc 	st  %g2, [ %fp + -292 ]
40004864:	aa 10 00 14 	mov  %l4, %l5
40004868:	10 bf fd 45 	b  40003d7c <_vfprintf_r+0x173c>
4000486c:	a8 10 20 00 	clr  %l4
40004870:	94 07 bf 4c 	add  %fp, -180, %o2
40004874:	92 10 00 19 	mov  %i1, %o1
40004878:	40 00 16 5a 	call  4000a1e0 <__sprint_r>
4000487c:	90 10 00 18 	mov  %i0, %o0
40004880:	80 a2 20 00 	cmp  %o0, 0
40004884:	12 bf fa b6 	bne  4000335c <_vfprintf_r+0xd1c>
40004888:	de 07 bf 54 	ld  [ %fp + -172 ], %o7
4000488c:	c4 07 bf 50 	ld  [ %fp + -176 ], %g2
40004890:	10 bf ff b3 	b  4000475c <_vfprintf_r+0x211c>
40004894:	82 07 bf 58 	add  %fp, -168, %g1
40004898:	10 bf fc 7e 	b  40003a90 <_vfprintf_r+0x1450>
4000489c:	c0 2f be dc 	clrb  [ %fp + -292 ]
400048a0:	b8 10 20 06 	mov  6, %i4
400048a4:	82 14 a1 00 	or  %l2, 0x100, %g1
400048a8:	d1 1f be b0 	ldd  [ %fp + -336 ], %f8
400048ac:	c2 27 be e8 	st  %g1, [ %fp + -280 ]
400048b0:	d1 27 be e0 	st  %f8, [ %fp + -288 ]
400048b4:	c4 07 be e0 	ld  [ %fp + -288 ], %g2
400048b8:	80 a0 a0 00 	cmp  %g2, 0
400048bc:	26 80 01 c1 	bl,a   40004fc0 <_vfprintf_r+0x2980>
400048c0:	d1 1f be b0 	ldd  [ %fp + -336 ], %f8
400048c4:	c0 2f be dc 	clrb  [ %fp + -292 ]
400048c8:	80 a4 60 46 	cmp  %l1, 0x46
400048cc:	12 80 00 f3 	bne  40004c98 <_vfprintf_r+0x2658>
400048d0:	84 07 bf 10 	add  %fp, -240, %g2
400048d4:	c4 23 a0 60 	st  %g2, [ %sp + 0x60 ]
400048d8:	84 07 bf 04 	add  %fp, -252, %g2
400048dc:	d1 3f be e0 	std  %f8, [ %fp + -288 ]
400048e0:	d1 3f be d0 	std  %f8, [ %fp + -304 ]
400048e4:	c4 23 a0 5c 	st  %g2, [ %sp + 0x5c ]
400048e8:	9a 07 bf 00 	add  %fp, -256, %o5
400048ec:	98 10 00 1c 	mov  %i4, %o4
400048f0:	96 10 20 03 	mov  3, %o3
400048f4:	d2 07 be e0 	ld  [ %fp + -288 ], %o1
400048f8:	d4 07 be e4 	ld  [ %fp + -284 ], %o2
400048fc:	40 00 04 30 	call  400059bc <_dtoa_r>
40004900:	90 10 00 18 	mov  %i0, %o0
40004904:	d1 1f be d0 	ldd  [ %fp + -304 ], %f8
40004908:	c8 4a 00 00 	ldsb  [ %o0 ], %g4
4000490c:	80 a1 20 30 	cmp  %g4, 0x30
40004910:	12 80 00 0c 	bne  40004940 <_vfprintf_r+0x2300>
40004914:	a6 10 00 08 	mov  %o0, %l3
40004918:	03 10 00 3b 	sethi  %hi(0x4000ec00), %g1
4000491c:	d5 18 61 58 	ldd  [ %g1 + 0x158 ], %f10	! 4000ed58 <_global_impure_ptr+0x64>
40004920:	81 aa 0a 4a 	fcmpd  %f8, %f10
40004924:	01 00 00 00 	nop 
40004928:	03 80 00 03 	fbne  40004934 <_vfprintf_r+0x22f4>
4000492c:	88 10 20 01 	mov  1, %g4	! 1 <_CONTEXT_I_>
40004930:	88 10 20 00 	clr  %g4
40004934:	80 89 20 ff 	btst  0xff, %g4
40004938:	32 80 00 41 	bne,a   40004a3c <_vfprintf_r+0x23fc>
4000493c:	88 10 20 01 	mov  1, %g4
40004940:	c8 07 bf 00 	ld  [ %fp + -256 ], %g4
40004944:	88 01 00 1c 	add  %g4, %i4, %g4
40004948:	98 04 c0 04 	add  %l3, %g4, %o4
4000494c:	03 10 00 3b 	sethi  %hi(0x4000ec00), %g1
40004950:	d5 18 61 58 	ldd  [ %g1 + 0x158 ], %f10	! 4000ed58 <_global_impure_ptr+0x64>
40004954:	81 aa 0a 4a 	fcmpd  %f8, %f10
40004958:	01 00 00 00 	nop 
4000495c:	13 bf fe 13 	fbe  400041a8 <_vfprintf_r+0x1b68>
40004960:	88 10 00 0c 	mov  %o4, %g4
40004964:	c8 07 bf 10 	ld  [ %fp + -240 ], %g4
40004968:	80 a1 00 0c 	cmp  %g4, %o4
4000496c:	1a bf fe 0f 	bcc  400041a8 <_vfprintf_r+0x1b68>
40004970:	9a 10 20 30 	mov  0x30, %o5
40004974:	82 01 20 01 	add  %g4, 1, %g1
40004978:	c2 27 bf 10 	st  %g1, [ %fp + -240 ]
4000497c:	da 29 00 00 	stb  %o5, [ %g4 ]
40004980:	c8 07 bf 10 	ld  [ %fp + -240 ], %g4
40004984:	80 a3 00 04 	cmp  %o4, %g4
40004988:	38 bf ff fc 	bgu,a   40004978 <_vfprintf_r+0x2338>
4000498c:	82 01 20 01 	add  %g4, 1, %g1
40004990:	10 bf fe 07 	b  400041ac <_vfprintf_r+0x1b6c>
40004994:	82 21 00 13 	sub  %g4, %l3, %g1
40004998:	92 07 20 01 	add  %i4, 1, %o1
4000499c:	40 00 0c 67 	call  40007b38 <_malloc_r>
400049a0:	90 10 00 18 	mov  %i0, %o0
400049a4:	a6 92 20 00 	orcc  %o0, 0, %l3
400049a8:	22 80 01 d5 	be,a   400050fc <_vfprintf_r+0x2abc>
400049ac:	c2 16 60 0c 	lduh  [ %i1 + 0xc ], %g1
400049b0:	10 bf fc 2f 	b  40003a6c <_vfprintf_r+0x142c>
400049b4:	e6 27 be e8 	st  %l3, [ %fp + -280 ]
400049b8:	c2 07 be 9c 	ld  [ %fp + -356 ], %g1
400049bc:	d2 07 be 98 	ld  [ %fp + -360 ], %o1
400049c0:	94 10 00 01 	mov  %g1, %o2
400049c4:	b8 27 00 01 	sub  %i4, %g1, %i4
400049c8:	40 00 15 40 	call  40009ec8 <strncpy>
400049cc:	90 10 00 1c 	mov  %i4, %o0
400049d0:	c4 4f 60 01 	ldsb  [ %i5 + 1 ], %g2
400049d4:	80 a0 00 02 	cmp  %g0, %g2
400049d8:	90 10 00 14 	mov  %l4, %o0
400049dc:	92 10 00 15 	mov  %l5, %o1
400049e0:	94 10 20 00 	clr  %o2
400049e4:	96 10 20 0a 	mov  0xa, %o3
400049e8:	ba 40 00 1d 	addx  %g0, %i5, %i5
400049ec:	40 00 26 ca 	call  4000e514 <__udivdi3>
400049f0:	ae 10 20 00 	clr  %l7
400049f4:	a8 10 00 08 	mov  %o0, %l4
400049f8:	10 bf fe 5e 	b  40004370 <_vfprintf_r+0x1d30>
400049fc:	aa 10 00 09 	mov  %o1, %l5
40004a00:	28 bf fe 7e 	bleu,a   400043f8 <_vfprintf_r+0x1db8>
40004a04:	fa 27 be a0 	st  %i5, [ %fp + -352 ]
40004a08:	a8 10 00 08 	mov  %o0, %l4
40004a0c:	10 bf fe 59 	b  40004370 <_vfprintf_r+0x1d30>
40004a10:	aa 10 00 09 	mov  %o1, %l5
40004a14:	84 10 00 11 	mov  %l1, %g2
40004a18:	b6 10 00 17 	mov  %l7, %i3
40004a1c:	e6 07 be e0 	ld  [ %fp + -288 ], %l3
40004a20:	ae 10 00 12 	mov  %l2, %l7
40004a24:	e8 1f be c8 	ldd  [ %fp + -312 ], %l4
40004a28:	e2 07 be bc 	ld  [ %fp + -324 ], %l1
40004a2c:	ba 10 00 01 	mov  %g1, %i5
40004a30:	e4 07 be d0 	ld  [ %fp + -304 ], %l2
40004a34:	10 bf fe 93 	b  40004480 <_vfprintf_r+0x1e40>
40004a38:	f4 07 be c0 	ld  [ %fp + -320 ], %i2
40004a3c:	88 21 00 1c 	sub  %g4, %i4, %g4
40004a40:	10 bf ff c1 	b  40004944 <_vfprintf_r+0x2304>
40004a44:	c8 27 bf 00 	st  %g4, [ %fp + -256 ]
40004a48:	c2 07 be c8 	ld  [ %fp + -312 ], %g1
40004a4c:	80 a0 80 01 	cmp  %g2, %g1
40004a50:	34 80 00 c2 	bg,a   40004d58 <_vfprintf_r+0x2718>
40004a54:	82 10 00 02 	mov  %g2, %g1
40004a58:	80 8c a0 01 	btst  1, %l2
40004a5c:	02 80 00 05 	be  40004a70 <_vfprintf_r+0x2430>
40004a60:	c2 27 be e0 	st  %g1, [ %fp + -288 ]
40004a64:	c4 07 be b8 	ld  [ %fp + -328 ], %g2
40004a68:	82 00 40 02 	add  %g1, %g2, %g1
40004a6c:	c2 27 be e0 	st  %g1, [ %fp + -288 ]
40004a70:	80 8c a4 00 	btst  0x400, %l2
40004a74:	02 80 00 05 	be  40004a88 <_vfprintf_r+0x2448>
40004a78:	c2 07 be c8 	ld  [ %fp + -312 ], %g1
40004a7c:	80 a0 60 00 	cmp  %g1, 0
40004a80:	34 80 00 ff 	bg,a   40004e7c <_vfprintf_r+0x283c>
40004a84:	ac 10 20 67 	mov  0x67, %l6
40004a88:	c2 07 be e0 	ld  [ %fp + -288 ], %g1
40004a8c:	ac 10 20 67 	mov  0x67, %l6
40004a90:	a2 38 00 01 	xnor  %g0, %g1, %l1
40004a94:	a3 3c 60 1f 	sra  %l1, 0x1f, %l1
40004a98:	a2 08 40 11 	and  %g1, %l1, %l1
40004a9c:	e4 07 be e8 	ld  [ %fp + -280 ], %l2
40004aa0:	c0 27 be bc 	clr  [ %fp + -324 ]
40004aa4:	c0 27 be e8 	clr  [ %fp + -280 ]
40004aa8:	10 bf fe 23 	b  40004334 <_vfprintf_r+0x1cf4>
40004aac:	c0 27 be c0 	clr  [ %fp + -320 ]
40004ab0:	80 a4 60 46 	cmp  %l1, 0x46
40004ab4:	12 80 01 90 	bne  400050f4 <_vfprintf_r+0x2ab4>
40004ab8:	84 10 00 01 	mov  %g1, %g2
40004abc:	82 0c a0 01 	and  %l2, 1, %g1
40004ac0:	80 a0 a0 00 	cmp  %g2, 0
40004ac4:	04 80 01 76 	ble  4000509c <_vfprintf_r+0x2a5c>
40004ac8:	82 10 40 1c 	or  %g1, %i4, %g1
40004acc:	80 a0 60 00 	cmp  %g1, 0
40004ad0:	12 80 01 35 	bne  40004fa4 <_vfprintf_r+0x2964>
40004ad4:	c2 07 be b8 	ld  [ %fp + -328 ], %g1
40004ad8:	c4 27 be e0 	st  %g2, [ %fp + -288 ]
40004adc:	ac 10 20 66 	mov  0x66, %l6
40004ae0:	80 8c a4 00 	btst  0x400, %l2
40004ae4:	12 80 00 e6 	bne  40004e7c <_vfprintf_r+0x283c>
40004ae8:	c2 07 be e0 	ld  [ %fp + -288 ], %g1
40004aec:	a2 38 00 01 	xnor  %g0, %g1, %l1
40004af0:	a3 3c 60 1f 	sra  %l1, 0x1f, %l1
40004af4:	10 bf ff ea 	b  40004a9c <_vfprintf_r+0x245c>
40004af8:	a2 08 40 11 	and  %g1, %l1, %l1
40004afc:	ee 27 be dc 	st  %l7, [ %fp + -292 ]
40004b00:	c8 2f be f7 	stb  %g4, [ %fp + -265 ]
40004b04:	9a 10 20 2d 	mov  0x2d, %o5
40004b08:	10 bf f7 5b 	b  40002874 <_vfprintf_r+0x234>
40004b0c:	b8 10 20 00 	clr  %i4
40004b10:	94 07 bf 4c 	add  %fp, -180, %o2
40004b14:	92 10 00 19 	mov  %i1, %o1
40004b18:	40 00 15 b2 	call  4000a1e0 <__sprint_r>
40004b1c:	90 10 00 18 	mov  %i0, %o0
40004b20:	80 a2 20 00 	cmp  %o0, 0
40004b24:	12 bf fa 0e 	bne  4000335c <_vfprintf_r+0xd1c>
40004b28:	c8 07 bf 00 	ld  [ %fp + -256 ], %g4
40004b2c:	de 07 bf 54 	ld  [ %fp + -172 ], %o7
40004b30:	10 bf fd 40 	b  40004030 <_vfprintf_r+0x19f0>
40004b34:	ba 07 bf 58 	add  %fp, -168, %i5
40004b38:	94 07 bf 4c 	add  %fp, -180, %o2
40004b3c:	92 10 00 19 	mov  %i1, %o1
40004b40:	40 00 15 a8 	call  4000a1e0 <__sprint_r>
40004b44:	90 10 00 18 	mov  %i0, %o0
40004b48:	80 a2 20 00 	cmp  %o0, 0
40004b4c:	12 bf fa 04 	bne  4000335c <_vfprintf_r+0xd1c>
40004b50:	de 07 bf 54 	ld  [ %fp + -172 ], %o7
40004b54:	c4 07 bf 50 	ld  [ %fp + -176 ], %g2
40004b58:	10 bf fe b3 	b  40004624 <_vfprintf_r+0x1fe4>
40004b5c:	82 07 bf 58 	add  %fp, -168, %g1
40004b60:	94 07 bf 4c 	add  %fp, -180, %o2
40004b64:	92 10 00 19 	mov  %i1, %o1
40004b68:	40 00 15 9e 	call  4000a1e0 <__sprint_r>
40004b6c:	90 10 00 18 	mov  %i0, %o0
40004b70:	80 a2 20 00 	cmp  %o0, 0
40004b74:	12 bf f9 fa 	bne  4000335c <_vfprintf_r+0xd1c>
40004b78:	de 07 bf 54 	ld  [ %fp + -172 ], %o7
40004b7c:	c4 07 bf 50 	ld  [ %fp + -176 ], %g2
40004b80:	10 bf fe b6 	b  40004658 <_vfprintf_r+0x2018>
40004b84:	82 07 bf 58 	add  %fp, -168, %g1
40004b88:	94 07 bf 4c 	add  %fp, -180, %o2
40004b8c:	92 10 00 19 	mov  %i1, %o1
40004b90:	40 00 15 94 	call  4000a1e0 <__sprint_r>
40004b94:	90 10 00 18 	mov  %i0, %o0
40004b98:	80 a2 20 00 	cmp  %o0, 0
40004b9c:	12 bf f9 f0 	bne  4000335c <_vfprintf_r+0xd1c>
40004ba0:	de 07 bf 54 	ld  [ %fp + -172 ], %o7
40004ba4:	c4 07 bf 50 	ld  [ %fp + -176 ], %g2
40004ba8:	10 bf fe b9 	b  4000468c <_vfprintf_r+0x204c>
40004bac:	82 07 bf 58 	add  %fp, -168, %g1
40004bb0:	80 8c a0 01 	btst  1, %l2
40004bb4:	02 bf f7 74 	be  40002984 <_vfprintf_r+0x344>
40004bb8:	80 8c a0 04 	btst  4, %l2
40004bbc:	c4 07 be b8 	ld  [ %fp + -328 ], %g2
40004bc0:	c2 07 bf 50 	ld  [ %fp + -176 ], %g1
40004bc4:	9e 00 80 0f 	add  %g2, %o7, %o7
40004bc8:	82 00 60 01 	inc  %g1
40004bcc:	c6 07 be ac 	ld  [ %fp + -340 ], %g3
40004bd0:	c4 27 60 04 	st  %g2, [ %i5 + 4 ]
40004bd4:	c6 27 40 00 	st  %g3, [ %i5 ]
40004bd8:	de 27 bf 54 	st  %o7, [ %fp + -172 ]
40004bdc:	80 a0 60 07 	cmp  %g1, 7
40004be0:	04 80 00 2c 	ble  40004c90 <_vfprintf_r+0x2650>
40004be4:	c2 27 bf 50 	st  %g1, [ %fp + -176 ]
40004be8:	94 07 bf 4c 	add  %fp, -180, %o2
40004bec:	92 10 00 19 	mov  %i1, %o1
40004bf0:	40 00 15 7c 	call  4000a1e0 <__sprint_r>
40004bf4:	90 10 00 18 	mov  %i0, %o0
40004bf8:	80 a2 20 00 	cmp  %o0, 0
40004bfc:	12 bf f9 d8 	bne  4000335c <_vfprintf_r+0xd1c>
40004c00:	c8 07 bf 00 	ld  [ %fp + -256 ], %g4
40004c04:	de 07 bf 54 	ld  [ %fp + -172 ], %o7
40004c08:	c2 07 bf 50 	ld  [ %fp + -176 ], %g1
40004c0c:	10 bf fd 18 	b  4000406c <_vfprintf_r+0x1a2c>
40004c10:	ba 07 bf 58 	add  %fp, -168, %i5
40004c14:	94 07 bf 4c 	add  %fp, -180, %o2
40004c18:	92 10 00 19 	mov  %i1, %o1
40004c1c:	40 00 15 71 	call  4000a1e0 <__sprint_r>
40004c20:	90 10 00 18 	mov  %i0, %o0
40004c24:	80 a2 20 00 	cmp  %o0, 0
40004c28:	12 bf f9 cd 	bne  4000335c <_vfprintf_r+0xd1c>
40004c2c:	f8 07 bf 00 	ld  [ %fp + -256 ], %i4
40004c30:	de 07 bf 54 	ld  [ %fp + -172 ], %o7
40004c34:	10 bf fa b0 	b  400036f4 <_vfprintf_r+0x10b4>
40004c38:	ba 07 bf 58 	add  %fp, -168, %i5
40004c3c:	94 07 bf 4c 	add  %fp, -180, %o2
40004c40:	92 10 00 19 	mov  %i1, %o1
40004c44:	40 00 15 67 	call  4000a1e0 <__sprint_r>
40004c48:	90 10 00 18 	mov  %i0, %o0
40004c4c:	80 a2 20 00 	cmp  %o0, 0
40004c50:	12 bf f9 c3 	bne  4000335c <_vfprintf_r+0xd1c>
40004c54:	de 07 bf 54 	ld  [ %fp + -172 ], %o7
40004c58:	c4 07 bf 50 	ld  [ %fp + -176 ], %g2
40004c5c:	10 bf fe 99 	b  400046c0 <_vfprintf_r+0x2080>
40004c60:	82 07 bf 58 	add  %fp, -168, %g1
40004c64:	94 07 bf 4c 	add  %fp, -180, %o2
40004c68:	92 10 00 19 	mov  %i1, %o1
40004c6c:	40 00 15 5d 	call  4000a1e0 <__sprint_r>
40004c70:	90 10 00 18 	mov  %i0, %o0
40004c74:	80 a2 20 00 	cmp  %o0, 0
40004c78:	12 bf f9 b9 	bne  4000335c <_vfprintf_r+0xd1c>
40004c7c:	de 07 bf 54 	ld  [ %fp + -172 ], %o7
40004c80:	c4 0d 00 00 	ldub  [ %l4 ], %g2
40004c84:	82 07 bf 58 	add  %fp, -168, %g1
40004c88:	10 bf fe 40 	b  40004588 <_vfprintf_r+0x1f48>
40004c8c:	85 28 a0 18 	sll  %g2, 0x18, %g2
40004c90:	10 bf fc fa 	b  40004078 <_vfprintf_r+0x1a38>
40004c94:	ba 07 60 08 	add  %i5, 8, %i5
40004c98:	80 a4 60 45 	cmp  %l1, 0x45
40004c9c:	12 80 01 10 	bne  400050dc <_vfprintf_r+0x2a9c>
40004ca0:	9a 07 bf 00 	add  %fp, -256, %o5
40004ca4:	c4 23 a0 60 	st  %g2, [ %sp + 0x60 ]
40004ca8:	84 07 bf 04 	add  %fp, -252, %g2
40004cac:	d1 3f be e0 	std  %f8, [ %fp + -288 ]
40004cb0:	98 07 20 01 	add  %i4, 1, %o4
40004cb4:	d1 3f be d0 	std  %f8, [ %fp + -304 ]
40004cb8:	d8 27 be c8 	st  %o4, [ %fp + -312 ]
40004cbc:	c4 23 a0 5c 	st  %g2, [ %sp + 0x5c ]
40004cc0:	96 10 20 02 	mov  2, %o3
40004cc4:	d2 07 be e0 	ld  [ %fp + -288 ], %o1
40004cc8:	d4 07 be e4 	ld  [ %fp + -284 ], %o2
40004ccc:	40 00 03 3c 	call  400059bc <_dtoa_r>
40004cd0:	90 10 00 18 	mov  %i0, %o0
40004cd4:	d1 1f be d0 	ldd  [ %fp + -304 ], %f8
40004cd8:	a6 10 00 08 	mov  %o0, %l3
40004cdc:	d8 07 be c8 	ld  [ %fp + -312 ], %o4
40004ce0:	10 bf ff 1b 	b  4000494c <_vfprintf_r+0x230c>
40004ce4:	98 04 c0 0c 	add  %l3, %o4, %o4
40004ce8:	94 07 bf 4c 	add  %fp, -180, %o2
40004cec:	92 10 00 19 	mov  %i1, %o1
40004cf0:	40 00 15 3c 	call  4000a1e0 <__sprint_r>
40004cf4:	90 10 00 18 	mov  %i0, %o0
40004cf8:	80 a2 20 00 	cmp  %o0, 0
40004cfc:	12 bf f9 98 	bne  4000335c <_vfprintf_r+0xd1c>
40004d00:	de 07 bf 54 	ld  [ %fp + -172 ], %o7
40004d04:	c4 07 bf 50 	ld  [ %fp + -176 ], %g2
40004d08:	10 bf fe 7b 	b  400046f4 <_vfprintf_r+0x20b4>
40004d0c:	82 07 bf 58 	add  %fp, -168, %g1
40004d10:	a2 10 00 1c 	mov  %i4, %l1
40004d14:	f8 27 be e0 	st  %i4, [ %fp + -288 ]
40004d18:	da 0f be f7 	ldub  [ %fp + -265 ], %o5
40004d1c:	b8 10 20 00 	clr  %i4
40004d20:	c0 27 be bc 	clr  [ %fp + -324 ]
40004d24:	c0 27 be c0 	clr  [ %fp + -320 ]
40004d28:	10 bf f6 d3 	b  40002874 <_vfprintf_r+0x234>
40004d2c:	c0 27 be c8 	clr  [ %fp + -312 ]
40004d30:	94 07 bf 4c 	add  %fp, -180, %o2
40004d34:	92 10 00 19 	mov  %i1, %o1
40004d38:	40 00 15 2a 	call  4000a1e0 <__sprint_r>
40004d3c:	90 10 00 18 	mov  %i0, %o0
40004d40:	80 a2 20 00 	cmp  %o0, 0
40004d44:	12 bf f9 86 	bne  4000335c <_vfprintf_r+0xd1c>
40004d48:	de 07 bf 54 	ld  [ %fp + -172 ], %o7
40004d4c:	c4 07 bf 50 	ld  [ %fp + -176 ], %g2
40004d50:	10 bf fe 76 	b  40004728 <_vfprintf_r+0x20e8>
40004d54:	82 07 bf 58 	add  %fp, -168, %g1
40004d58:	c4 07 be b8 	ld  [ %fp + -328 ], %g2
40004d5c:	82 00 40 02 	add  %g1, %g2, %g1
40004d60:	c2 27 be e0 	st  %g1, [ %fp + -288 ]
40004d64:	c4 07 be c8 	ld  [ %fp + -312 ], %g2
40004d68:	80 a0 a0 00 	cmp  %g2, 0
40004d6c:	14 bf ff 5d 	bg  40004ae0 <_vfprintf_r+0x24a0>
40004d70:	ac 10 20 67 	mov  0x67, %l6
40004d74:	a4 20 40 02 	sub  %g1, %g2, %l2
40004d78:	82 04 a0 01 	add  %l2, 1, %g1
40004d7c:	a2 38 00 01 	xnor  %g0, %g1, %l1
40004d80:	c2 27 be e0 	st  %g1, [ %fp + -288 ]
40004d84:	a3 3c 60 1f 	sra  %l1, 0x1f, %l1
40004d88:	10 bf ff 45 	b  40004a9c <_vfprintf_r+0x245c>
40004d8c:	a2 08 40 11 	and  %g1, %l1, %l1
40004d90:	94 07 bf 4c 	add  %fp, -180, %o2
40004d94:	92 10 00 19 	mov  %i1, %o1
40004d98:	40 00 15 12 	call  4000a1e0 <__sprint_r>
40004d9c:	90 10 00 18 	mov  %i0, %o0
40004da0:	80 a2 20 00 	cmp  %o0, 0
40004da4:	12 bf f9 6e 	bne  4000335c <_vfprintf_r+0xd1c>
40004da8:	c8 07 bf 00 	ld  [ %fp + -256 ], %g4
40004dac:	c2 07 be c4 	ld  [ %fp + -316 ], %g1
40004db0:	de 07 bf 54 	ld  [ %fp + -172 ], %o7
40004db4:	88 20 40 04 	sub  %g1, %g4, %g4
40004db8:	10 bf fa 63 	b  40003744 <_vfprintf_r+0x1104>
40004dbc:	ba 07 bf 58 	add  %fp, -168, %i5
40004dc0:	16 80 00 1d 	bge  40004e34 <_vfprintf_r+0x27f4>
40004dc4:	b8 20 00 04 	neg  %g4, %i4
40004dc8:	10 80 00 06 	b  40004de0 <_vfprintf_r+0x27a0>
40004dcc:	ac 10 20 10 	mov  0x10, %l6
40004dd0:	b8 07 3f f0 	add  %i4, -16, %i4
40004dd4:	80 a7 20 10 	cmp  %i4, 0x10
40004dd8:	24 80 00 18 	ble,a   40004e38 <_vfprintf_r+0x27f8>
40004ddc:	82 00 60 01 	inc  %g1
40004de0:	82 00 60 01 	inc  %g1
40004de4:	9e 03 e0 10 	add  %o7, 0x10, %o7
40004de8:	e0 27 40 00 	st  %l0, [ %i5 ]
40004dec:	ec 27 60 04 	st  %l6, [ %i5 + 4 ]
40004df0:	de 27 bf 54 	st  %o7, [ %fp + -172 ]
40004df4:	c2 27 bf 50 	st  %g1, [ %fp + -176 ]
40004df8:	80 a0 60 07 	cmp  %g1, 7
40004dfc:	04 bf ff f5 	ble  40004dd0 <_vfprintf_r+0x2790>
40004e00:	ba 07 60 08 	add  %i5, 8, %i5
40004e04:	94 07 bf 4c 	add  %fp, -180, %o2
40004e08:	92 10 00 19 	mov  %i1, %o1
40004e0c:	40 00 14 f5 	call  4000a1e0 <__sprint_r>
40004e10:	90 10 00 18 	mov  %i0, %o0
40004e14:	80 a2 20 00 	cmp  %o0, 0
40004e18:	12 bf f9 51 	bne  4000335c <_vfprintf_r+0xd1c>
40004e1c:	de 07 bf 54 	ld  [ %fp + -172 ], %o7
40004e20:	c2 07 bf 50 	ld  [ %fp + -176 ], %g1
40004e24:	10 bf ff eb 	b  40004dd0 <_vfprintf_r+0x2790>
40004e28:	ba 07 bf 58 	add  %fp, -168, %i5
40004e2c:	10 bf f9 56 	b  40003384 <_vfprintf_r+0xd44>
40004e30:	c2 27 be ec 	st  %g1, [ %fp + -276 ]
40004e34:	82 00 60 01 	inc  %g1
40004e38:	9e 03 c0 1c 	add  %o7, %i4, %o7
40004e3c:	e0 27 40 00 	st  %l0, [ %i5 ]
40004e40:	f8 27 60 04 	st  %i4, [ %i5 + 4 ]
40004e44:	de 27 bf 54 	st  %o7, [ %fp + -172 ]
40004e48:	80 a0 60 07 	cmp  %g1, 7
40004e4c:	04 bf ff 91 	ble  40004c90 <_vfprintf_r+0x2650>
40004e50:	c2 27 bf 50 	st  %g1, [ %fp + -176 ]
40004e54:	94 07 bf 4c 	add  %fp, -180, %o2
40004e58:	92 10 00 19 	mov  %i1, %o1
40004e5c:	40 00 14 e1 	call  4000a1e0 <__sprint_r>
40004e60:	90 10 00 18 	mov  %i0, %o0
40004e64:	80 a2 20 00 	cmp  %o0, 0
40004e68:	12 bf f9 3d 	bne  4000335c <_vfprintf_r+0xd1c>
40004e6c:	de 07 bf 54 	ld  [ %fp + -172 ], %o7
40004e70:	c2 07 bf 50 	ld  [ %fp + -176 ], %g1
40004e74:	10 bf fc 81 	b  40004078 <_vfprintf_r+0x1a38>
40004e78:	ba 07 bf 58 	add  %fp, -168, %i5
40004e7c:	c0 27 be bc 	clr  [ %fp + -324 ]
40004e80:	c0 27 be c0 	clr  [ %fp + -320 ]
40004e84:	c2 07 be a0 	ld  [ %fp + -352 ], %g1
40004e88:	c6 08 40 00 	ldub  [ %g1 ], %g3
40004e8c:	87 28 e0 18 	sll  %g3, 0x18, %g3
40004e90:	89 38 e0 18 	sra  %g3, 0x18, %g4
40004e94:	80 a1 20 7f 	cmp  %g4, 0x7f
40004e98:	02 80 00 16 	be  40004ef0 <_vfprintf_r+0x28b0>
40004e9c:	88 10 00 01 	mov  %g1, %g4
40004ea0:	c4 07 be c8 	ld  [ %fp + -312 ], %g2
40004ea4:	83 38 e0 18 	sra  %g3, 0x18, %g1
40004ea8:	80 a0 40 02 	cmp  %g1, %g2
40004eac:	36 80 00 10 	bge,a   40004eec <_vfprintf_r+0x28ac>
40004eb0:	c8 27 be a0 	st  %g4, [ %fp + -352 ]
40004eb4:	c6 09 20 01 	ldub  [ %g4 + 1 ], %g3
40004eb8:	84 20 80 01 	sub  %g2, %g1, %g2
40004ebc:	87 28 e0 18 	sll  %g3, 0x18, %g3
40004ec0:	83 38 e0 18 	sra  %g3, 0x18, %g1
40004ec4:	80 a0 60 00 	cmp  %g1, 0
40004ec8:	22 80 00 18 	be,a   40004f28 <_vfprintf_r+0x28e8>
40004ecc:	c2 07 be bc 	ld  [ %fp + -324 ], %g1
40004ed0:	f8 07 be c0 	ld  [ %fp + -320 ], %i4
40004ed4:	b8 07 20 01 	inc  %i4
40004ed8:	f8 27 be c0 	st  %i4, [ %fp + -320 ]
40004edc:	80 a0 60 7f 	cmp  %g1, 0x7f
40004ee0:	12 bf ff f2 	bne  40004ea8 <_vfprintf_r+0x2868>
40004ee4:	88 01 20 01 	inc  %g4
40004ee8:	c8 27 be a0 	st  %g4, [ %fp + -352 ]
40004eec:	c4 27 be c8 	st  %g2, [ %fp + -312 ]
40004ef0:	c2 07 be c0 	ld  [ %fp + -320 ], %g1
40004ef4:	c4 07 be bc 	ld  [ %fp + -324 ], %g2
40004ef8:	d2 07 be 9c 	ld  [ %fp + -356 ], %o1
40004efc:	40 00 23 f4 	call  4000decc <.umul>
40004f00:	90 00 40 02 	add  %g1, %g2, %o0
40004f04:	c2 07 be e0 	ld  [ %fp + -288 ], %g1
40004f08:	e4 07 be e8 	ld  [ %fp + -280 ], %l2
40004f0c:	82 02 00 01 	add  %o0, %g1, %g1
40004f10:	c0 27 be e8 	clr  [ %fp + -280 ]
40004f14:	a2 38 00 01 	xnor  %g0, %g1, %l1
40004f18:	c2 27 be e0 	st  %g1, [ %fp + -288 ]
40004f1c:	a3 3c 60 1f 	sra  %l1, 0x1f, %l1
40004f20:	10 bf fd 05 	b  40004334 <_vfprintf_r+0x1cf4>
40004f24:	a2 08 40 11 	and  %g1, %l1, %l1
40004f28:	82 00 60 01 	inc  %g1
40004f2c:	c2 27 be bc 	st  %g1, [ %fp + -324 ]
40004f30:	c6 09 00 00 	ldub  [ %g4 ], %g3
40004f34:	87 28 e0 18 	sll  %g3, 0x18, %g3
40004f38:	83 38 e0 18 	sra  %g3, 0x18, %g1
40004f3c:	80 a0 60 7f 	cmp  %g1, 0x7f
40004f40:	12 bf ff db 	bne  40004eac <_vfprintf_r+0x286c>
40004f44:	80 a0 40 02 	cmp  %g1, %g2
40004f48:	10 bf ff e9 	b  40004eec <_vfprintf_r+0x28ac>
40004f4c:	c8 27 be a0 	st  %g4, [ %fp + -352 ]
40004f50:	80 a5 a0 47 	cmp  %l6, 0x47
40004f54:	04 80 00 4e 	ble  4000508c <_vfprintf_r+0x2a4c>
40004f58:	05 10 00 3b 	sethi  %hi(0x4000ec00), %g2
40004f5c:	05 10 00 3b 	sethi  %hi(0x4000ec00), %g2
40004f60:	a4 0c bf 7f 	and  %l2, -129, %l2
40004f64:	a6 10 a1 10 	or  %g2, 0x110, %l3
40004f68:	10 bf f6 cd 	b  40002a9c <_vfprintf_r+0x45c>
40004f6c:	da 0f be f7 	ldub  [ %fp + -265 ], %o5
40004f70:	80 a4 60 41 	cmp  %l1, 0x41
40004f74:	02 80 00 05 	be  40004f88 <_vfprintf_r+0x2948>
40004f78:	88 07 bf 0a 	add  %fp, -246, %g4
40004f7c:	9e 10 20 30 	mov  0x30, %o7
40004f80:	88 07 bf 0b 	add  %fp, -245, %g4
40004f84:	de 2f bf 0a 	stb  %o7, [ %fp + -246 ]
40004f88:	b8 07 20 30 	add  %i4, 0x30, %i4
40004f8c:	9e 21 00 1e 	sub  %g4, %fp, %o7
40004f90:	f8 29 00 00 	stb  %i4, [ %g4 ]
40004f94:	82 03 e0 f9 	add  %o7, 0xf9, %g1
40004f98:	c2 27 be a4 	st  %g1, [ %fp + -348 ]
40004f9c:	10 bf fc d4 	b  400042ec <_vfprintf_r+0x1cac>
40004fa0:	84 10 00 01 	mov  %g1, %g2
40004fa4:	ac 10 20 66 	mov  0x66, %l6
40004fa8:	82 00 80 01 	add  %g2, %g1, %g1
40004fac:	82 00 40 1c 	add  %g1, %i4, %g1
40004fb0:	10 bf fe cc 	b  40004ae0 <_vfprintf_r+0x24a0>
40004fb4:	c2 27 be e0 	st  %g1, [ %fp + -288 ]
40004fb8:	b8 10 20 01 	mov  1, %i4
40004fbc:	d1 1f be b0 	ldd  [ %fp + -336 ], %f8
40004fc0:	82 10 20 2d 	mov  0x2d, %g1
40004fc4:	91 a0 00 a8 	fnegs  %f8, %f8
40004fc8:	10 bf fe 40 	b  400048c8 <_vfprintf_r+0x2288>
40004fcc:	c2 2f be dc 	stb  %g1, [ %fp + -292 ]
40004fd0:	d6 27 bf 10 	st  %o3, [ %fp + -240 ]
40004fd4:	f8 09 3f ff 	ldub  [ %g4 + -1 ], %i4
40004fd8:	9f 2f 20 18 	sll  %i4, 0x18, %o7
40004fdc:	95 3b e0 18 	sra  %o7, 0x18, %o2
40004fe0:	80 a2 80 0c 	cmp  %o2, %o4
40004fe4:	12 80 00 0d 	bne  40005018 <_vfprintf_r+0x29d8>
40004fe8:	98 10 00 04 	mov  %g4, %o4
40004fec:	92 10 20 30 	mov  0x30, %o1
40004ff0:	d2 2b 3f ff 	stb  %o1, [ %o4 + -1 ]
40004ff4:	d8 07 bf 10 	ld  [ %fp + -240 ], %o4
40004ff8:	82 03 3f ff 	add  %o4, -1, %g1
40004ffc:	c2 27 bf 10 	st  %g1, [ %fp + -240 ]
40005000:	f8 0b 3f ff 	ldub  [ %o4 + -1 ], %i4
40005004:	9f 2f 20 18 	sll  %i4, 0x18, %o7
40005008:	83 3b e0 18 	sra  %o7, 0x18, %g1
4000500c:	80 a2 80 01 	cmp  %o2, %g1
40005010:	22 bf ff f9 	be,a   40004ff4 <_vfprintf_r+0x29b4>
40005014:	d2 2b 3f ff 	stb  %o1, [ %o4 + -1 ]
40005018:	9f 3b e0 18 	sra  %o7, 0x18, %o7
4000501c:	80 a3 e0 39 	cmp  %o7, 0x39
40005020:	02 80 00 04 	be  40005030 <_vfprintf_r+0x29f0>
40005024:	b8 07 20 01 	inc  %i4
40005028:	10 bf fb 0c 	b  40003c58 <_vfprintf_r+0x1618>
4000502c:	f8 2b 3f ff 	stb  %i4, [ %o4 + -1 ]
40005030:	f8 0b 60 0a 	ldub  [ %o5 + 0xa ], %i4
40005034:	10 bf fb 09 	b  40003c58 <_vfprintf_r+0x1618>
40005038:	f8 2b 3f ff 	stb  %i4, [ %o4 + -1 ]
4000503c:	80 8c a0 01 	btst  1, %l2
40005040:	02 bf fc b5 	be  40004314 <_vfprintf_r+0x1cd4>
40005044:	c2 07 be e0 	ld  [ %fp + -288 ], %g1
40005048:	10 bf fc b0 	b  40004308 <_vfprintf_r+0x1cc8>
4000504c:	c4 07 be b8 	ld  [ %fp + -328 ], %g2
40005050:	10 bf fd c4 	b  40004760 <_vfprintf_r+0x2120>
40005054:	98 10 00 13 	mov  %l3, %o4
40005058:	10 bf fa a1 	b  40003adc <_vfprintf_r+0x149c>
4000505c:	9a 13 61 18 	or  %o5, 0x118, %o5
40005060:	c2 07 be dc 	ld  [ %fp + -292 ], %g1
40005064:	f8 00 40 00 	ld  [ %g1 ], %i4
40005068:	82 00 60 04 	add  %g1, 4, %g1
4000506c:	80 a7 20 00 	cmp  %i4, 0
40005070:	16 80 00 03 	bge  4000507c <_vfprintf_r+0x2a3c>
40005074:	c2 27 be dc 	st  %g1, [ %fp + -292 ]
40005078:	b8 10 3f ff 	mov  -1, %i4
4000507c:	c4 0e a0 01 	ldub  [ %i2 + 1 ], %g2
40005080:	b4 10 00 03 	mov  %g3, %i2
40005084:	10 bf f5 e3 	b  40002810 <_vfprintf_r+0x1d0>
40005088:	83 28 a0 18 	sll  %g2, 0x18, %g1
4000508c:	a4 0c bf 7f 	and  %l2, -129, %l2
40005090:	a6 10 a1 08 	or  %g2, 0x108, %l3
40005094:	10 bf f6 82 	b  40002a9c <_vfprintf_r+0x45c>
40005098:	da 0f be f7 	ldub  [ %fp + -265 ], %o5
4000509c:	80 a0 60 00 	cmp  %g1, 0
400050a0:	12 80 00 07 	bne  400050bc <_vfprintf_r+0x2a7c>
400050a4:	c2 07 be b8 	ld  [ %fp + -328 ], %g1
400050a8:	82 10 20 01 	mov  1, %g1
400050ac:	a2 10 20 01 	mov  1, %l1
400050b0:	ac 10 20 66 	mov  0x66, %l6
400050b4:	10 bf fe 7a 	b  40004a9c <_vfprintf_r+0x245c>
400050b8:	c2 27 be e0 	st  %g1, [ %fp + -288 ]
400050bc:	ac 10 20 66 	mov  0x66, %l6
400050c0:	a4 00 60 01 	add  %g1, 1, %l2
400050c4:	82 04 80 1c 	add  %l2, %i4, %g1
400050c8:	a2 38 00 01 	xnor  %g0, %g1, %l1
400050cc:	c2 27 be e0 	st  %g1, [ %fp + -288 ]
400050d0:	a3 3c 60 1f 	sra  %l1, 0x1f, %l1
400050d4:	10 bf fe 72 	b  40004a9c <_vfprintf_r+0x245c>
400050d8:	a2 08 40 11 	and  %g1, %l1, %l1
400050dc:	10 bf fc 1d 	b  40004150 <_vfprintf_r+0x1b10>
400050e0:	98 10 00 1c 	mov  %i4, %o4
400050e4:	82 10 20 02 	mov  2, %g1
400050e8:	c2 27 be a4 	st  %g1, [ %fp + -348 ]
400050ec:	10 bf fc 80 	b  400042ec <_vfprintf_r+0x1cac>
400050f0:	84 10 00 01 	mov  %g1, %g2
400050f4:	10 bf fc 44 	b  40004204 <_vfprintf_r+0x1bc4>
400050f8:	c0 27 be e8 	clr  [ %fp + -280 ]
400050fc:	84 10 60 40 	or  %g1, 0x40, %g2
40005100:	82 10 00 02 	mov  %g2, %g1
40005104:	10 bf f8 9d 	b  40003378 <_vfprintf_r+0xd38>
40005108:	c4 36 60 0c 	sth  %g2, [ %i1 + 0xc ]
4000510c:	10 bf fa c2 	b  40003c14 <_vfprintf_r+0x15d4>
40005110:	b8 10 00 04 	mov  %g4, %i4

40005114 <vfprintf>:
40005114:	96 10 00 0a 	mov  %o2, %o3
40005118:	03 10 00 3c 	sethi  %hi(0x4000f000), %g1
4000511c:	94 10 00 09 	mov  %o1, %o2
40005120:	92 10 00 08 	mov  %o0, %o1
40005124:	d0 00 63 7c 	ld  [ %g1 + 0x37c ], %o0
40005128:	82 13 c0 00 	mov  %o7, %g1
4000512c:	7f ff f5 45 	call  40002640 <_vfprintf_r>
40005130:	9e 10 40 00 	mov  %g1, %o7

40005134 <__sbprintf>:
40005134:	9d e3 bb 38 	save  %sp, -1224, %sp
40005138:	84 10 24 00 	mov  0x400, %g2
4000513c:	86 07 bc 00 	add  %fp, -1024, %g3
40005140:	fa 06 60 20 	ld  [ %i1 + 0x20 ], %i5
40005144:	c2 16 60 0c 	lduh  [ %i1 + 0xc ], %g1
40005148:	de 06 60 60 	ld  [ %i1 + 0x60 ], %o7
4000514c:	82 08 7f fd 	and  %g1, -3, %g1
40005150:	c8 06 60 28 	ld  [ %i1 + 0x28 ], %g4
40005154:	f8 16 60 0e 	lduh  [ %i1 + 0xe ], %i4
40005158:	fa 27 bb bc 	st  %i5, [ %fp + -1092 ]
4000515c:	c2 37 bb a8 	sth  %g1, [ %fp + -1112 ]
40005160:	de 27 bb fc 	st  %o7, [ %fp + -1028 ]
40005164:	f8 37 bb aa 	sth  %i4, [ %fp + -1110 ]
40005168:	c8 27 bb c4 	st  %g4, [ %fp + -1084 ]
4000516c:	c6 27 bb 9c 	st  %g3, [ %fp + -1124 ]
40005170:	c6 27 bb ac 	st  %g3, [ %fp + -1108 ]
40005174:	c4 27 bb a4 	st  %g2, [ %fp + -1116 ]
40005178:	c4 27 bb b0 	st  %g2, [ %fp + -1104 ]
4000517c:	c0 27 bb b4 	clr  [ %fp + -1100 ]
40005180:	96 10 00 1b 	mov  %i3, %o3
40005184:	94 10 00 1a 	mov  %i2, %o2
40005188:	92 07 bb 9c 	add  %fp, -1124, %o1
4000518c:	7f ff f5 2d 	call  40002640 <_vfprintf_r>
40005190:	90 10 00 18 	mov  %i0, %o0
40005194:	ba 92 20 00 	orcc  %o0, 0, %i5
40005198:	16 80 00 0b 	bge  400051c4 <__sbprintf+0x90>
4000519c:	92 07 bb 9c 	add  %fp, -1124, %o1
400051a0:	c2 17 bb a8 	lduh  [ %fp + -1112 ], %g1
400051a4:	80 88 60 40 	btst  0x40, %g1
400051a8:	02 80 00 05 	be  400051bc <__sbprintf+0x88>
400051ac:	01 00 00 00 	nop 
400051b0:	c2 16 60 0c 	lduh  [ %i1 + 0xc ], %g1
400051b4:	82 10 60 40 	or  %g1, 0x40, %g1
400051b8:	c2 36 60 0c 	sth  %g1, [ %i1 + 0xc ]
400051bc:	81 c7 e0 08 	ret 
400051c0:	91 e8 00 1d 	restore  %g0, %i5, %o0
400051c4:	40 00 07 58 	call  40006f24 <_fflush_r>
400051c8:	90 10 00 18 	mov  %i0, %o0
400051cc:	80 a2 20 00 	cmp  %o0, 0
400051d0:	32 bf ff f4 	bne,a   400051a0 <__sbprintf+0x6c>
400051d4:	ba 10 3f ff 	mov  -1, %i5
400051d8:	10 bf ff f3 	b  400051a4 <__sbprintf+0x70>
400051dc:	c2 17 bb a8 	lduh  [ %fp + -1112 ], %g1

400051e0 <__swsetup_r>:
400051e0:	9d e3 bf a0 	save  %sp, -96, %sp
400051e4:	03 10 00 3c 	sethi  %hi(0x4000f000), %g1
400051e8:	fa 00 63 7c 	ld  [ %g1 + 0x37c ], %i5	! 4000f37c <_impure_ptr>
400051ec:	80 a7 60 00 	cmp  %i5, 0
400051f0:	02 80 00 06 	be  40005208 <__swsetup_r+0x28>
400051f4:	03 10 00 3b 	sethi  %hi(0x4000ec00), %g1
400051f8:	c2 07 60 18 	ld  [ %i5 + 0x18 ], %g1
400051fc:	80 a0 60 00 	cmp  %g1, 0
40005200:	02 80 00 29 	be  400052a4 <__swsetup_r+0xc4>
40005204:	03 10 00 3b 	sethi  %hi(0x4000ec00), %g1
40005208:	82 10 62 40 	or  %g1, 0x240, %g1	! 4000ee40 <__sf_fake_stdin>
4000520c:	80 a6 40 01 	cmp  %i1, %g1
40005210:	22 80 00 2d 	be,a   400052c4 <__swsetup_r+0xe4>
40005214:	f2 07 60 04 	ld  [ %i5 + 4 ], %i1
40005218:	03 10 00 3b 	sethi  %hi(0x4000ec00), %g1
4000521c:	82 10 62 20 	or  %g1, 0x220, %g1	! 4000ee20 <__sf_fake_stdout>
40005220:	80 a6 40 01 	cmp  %i1, %g1
40005224:	02 80 00 4a 	be  4000534c <__swsetup_r+0x16c>
40005228:	03 10 00 3b 	sethi  %hi(0x4000ec00), %g1
4000522c:	82 10 62 00 	or  %g1, 0x200, %g1	! 4000ee00 <__sf_fake_stderr>
40005230:	80 a6 40 01 	cmp  %i1, %g1
40005234:	22 80 00 02 	be,a   4000523c <__swsetup_r+0x5c>
40005238:	f2 07 60 0c 	ld  [ %i5 + 0xc ], %i1
4000523c:	c2 16 60 0c 	lduh  [ %i1 + 0xc ], %g1
40005240:	80 88 60 08 	btst  8, %g1
40005244:	02 80 00 24 	be  400052d4 <__swsetup_r+0xf4>
40005248:	84 10 00 01 	mov  %g1, %g2
4000524c:	c6 06 60 10 	ld  [ %i1 + 0x10 ], %g3
40005250:	80 a0 e0 00 	cmp  %g3, 0
40005254:	02 80 00 2d 	be  40005308 <__swsetup_r+0x128>
40005258:	88 08 a2 80 	and  %g2, 0x280, %g4
4000525c:	80 88 a0 01 	btst  1, %g2
40005260:	02 80 00 36 	be  40005338 <__swsetup_r+0x158>
40005264:	80 88 a0 02 	btst  2, %g2
40005268:	c8 06 60 14 	ld  [ %i1 + 0x14 ], %g4
4000526c:	c0 26 60 08 	clr  [ %i1 + 8 ]
40005270:	88 20 00 04 	neg  %g4
40005274:	c8 26 60 18 	st  %g4, [ %i1 + 0x18 ]
40005278:	80 a0 e0 00 	cmp  %g3, 0
4000527c:	02 80 00 04 	be  4000528c <__swsetup_r+0xac>
40005280:	b0 10 20 00 	clr  %i0
40005284:	81 c7 e0 08 	ret 
40005288:	81 e8 00 00 	restore 
4000528c:	80 88 a0 80 	btst  0x80, %g2
40005290:	02 bf ff fd 	be  40005284 <__swsetup_r+0xa4>
40005294:	82 10 60 40 	or  %g1, 0x40, %g1
40005298:	c2 36 60 0c 	sth  %g1, [ %i1 + 0xc ]
4000529c:	81 c7 e0 08 	ret 
400052a0:	91 e8 3f ff 	restore  %g0, -1, %o0
400052a4:	40 00 08 47 	call  400073c0 <__sinit>
400052a8:	90 10 00 1d 	mov  %i5, %o0
400052ac:	03 10 00 3b 	sethi  %hi(0x4000ec00), %g1
400052b0:	82 10 62 40 	or  %g1, 0x240, %g1	! 4000ee40 <__sf_fake_stdin>
400052b4:	80 a6 40 01 	cmp  %i1, %g1
400052b8:	12 bf ff d9 	bne  4000521c <__swsetup_r+0x3c>
400052bc:	03 10 00 3b 	sethi  %hi(0x4000ec00), %g1
400052c0:	f2 07 60 04 	ld  [ %i5 + 4 ], %i1
400052c4:	c2 16 60 0c 	lduh  [ %i1 + 0xc ], %g1
400052c8:	80 88 60 08 	btst  8, %g1
400052cc:	12 bf ff e0 	bne  4000524c <__swsetup_r+0x6c>
400052d0:	84 10 00 01 	mov  %g1, %g2
400052d4:	80 88 60 10 	btst  0x10, %g1
400052d8:	22 80 00 2e 	be,a   40005390 <__swsetup_r+0x1b0>
400052dc:	84 10 20 09 	mov  9, %g2
400052e0:	80 88 60 04 	btst  4, %g1
400052e4:	32 80 00 1c 	bne,a   40005354 <__swsetup_r+0x174>
400052e8:	d2 06 60 34 	ld  [ %i1 + 0x34 ], %o1
400052ec:	c6 06 60 10 	ld  [ %i1 + 0x10 ], %g3
400052f0:	84 10 60 08 	or  %g1, 8, %g2
400052f4:	c4 36 60 0c 	sth  %g2, [ %i1 + 0xc ]
400052f8:	80 a0 e0 00 	cmp  %g3, 0
400052fc:	12 bf ff d8 	bne  4000525c <__swsetup_r+0x7c>
40005300:	82 10 00 02 	mov  %g2, %g1
40005304:	88 08 a2 80 	and  %g2, 0x280, %g4
40005308:	80 a1 22 00 	cmp  %g4, 0x200
4000530c:	02 bf ff d5 	be  40005260 <__swsetup_r+0x80>
40005310:	80 88 a0 01 	btst  1, %g2
40005314:	92 10 00 19 	mov  %i1, %o1
40005318:	40 00 09 82 	call  40007920 <__smakebuf_r>
4000531c:	90 10 00 18 	mov  %i0, %o0
40005320:	c2 16 60 0c 	lduh  [ %i1 + 0xc ], %g1
40005324:	84 10 00 01 	mov  %g1, %g2
40005328:	80 88 a0 01 	btst  1, %g2
4000532c:	12 bf ff cf 	bne  40005268 <__swsetup_r+0x88>
40005330:	c6 06 60 10 	ld  [ %i1 + 0x10 ], %g3
40005334:	80 88 a0 02 	btst  2, %g2
40005338:	12 80 00 03 	bne  40005344 <__swsetup_r+0x164>
4000533c:	88 10 20 00 	clr  %g4
40005340:	c8 06 60 14 	ld  [ %i1 + 0x14 ], %g4
40005344:	10 bf ff cd 	b  40005278 <__swsetup_r+0x98>
40005348:	c8 26 60 08 	st  %g4, [ %i1 + 8 ]
4000534c:	10 bf ff bc 	b  4000523c <__swsetup_r+0x5c>
40005350:	f2 07 60 08 	ld  [ %i5 + 8 ], %i1
40005354:	80 a2 60 00 	cmp  %o1, 0
40005358:	02 80 00 09 	be  4000537c <__swsetup_r+0x19c>
4000535c:	84 06 60 44 	add  %i1, 0x44, %g2
40005360:	80 a2 40 02 	cmp  %o1, %g2
40005364:	22 80 00 06 	be,a   4000537c <__swsetup_r+0x19c>
40005368:	c0 26 60 34 	clr  [ %i1 + 0x34 ]
4000536c:	40 00 08 5a 	call  400074d4 <_free_r>
40005370:	90 10 00 18 	mov  %i0, %o0
40005374:	c2 16 60 0c 	lduh  [ %i1 + 0xc ], %g1
40005378:	c0 26 60 34 	clr  [ %i1 + 0x34 ]
4000537c:	c6 06 60 10 	ld  [ %i1 + 0x10 ], %g3
40005380:	82 08 7f db 	and  %g1, -37, %g1
40005384:	c0 26 60 04 	clr  [ %i1 + 4 ]
40005388:	10 bf ff da 	b  400052f0 <__swsetup_r+0x110>
4000538c:	c6 26 40 00 	st  %g3, [ %i1 ]
40005390:	c4 26 00 00 	st  %g2, [ %i0 ]
40005394:	82 10 60 40 	or  %g1, 0x40, %g1
40005398:	c2 36 60 0c 	sth  %g1, [ %i1 + 0xc ]
4000539c:	81 c7 e0 08 	ret 
400053a0:	91 e8 3f ff 	restore  %g0, -1, %o0

400053a4 <__register_exitproc>:
400053a4:	9d e3 bf a0 	save  %sp, -96, %sp
400053a8:	39 10 00 3e 	sethi  %hi(0x4000f800), %i4
400053ac:	fa 07 22 cc 	ld  [ %i4 + 0x2cc ], %i5	! 4000facc <_global_atexit>
400053b0:	80 a7 60 00 	cmp  %i5, 0
400053b4:	22 80 00 3a 	be,a   4000549c <__register_exitproc+0xf8>
400053b8:	3b 10 00 3e 	sethi  %hi(0x4000f800), %i5
400053bc:	c2 07 60 04 	ld  [ %i5 + 4 ], %g1	! 4000f804 <__global_locale+0x14>
400053c0:	80 a0 60 1f 	cmp  %g1, 0x1f
400053c4:	04 80 00 1a 	ble  4000542c <__register_exitproc+0x88>
400053c8:	80 a6 20 00 	cmp  %i0, 0
400053cc:	21 10 00 1e 	sethi  %hi(0x40007800), %l0
400053d0:	a0 14 23 08 	or  %l0, 0x308, %l0	! 40007b08 <malloc>
400053d4:	80 a4 20 00 	cmp  %l0, 0
400053d8:	02 80 00 3a 	be  400054c0 <__register_exitproc+0x11c>
400053dc:	01 00 00 00 	nop 
400053e0:	40 00 09 ca 	call  40007b08 <malloc>
400053e4:	90 10 20 8c 	mov  0x8c, %o0	! 8c <sizeof_fpu_state+0x4>
400053e8:	ba 92 20 00 	orcc  %o0, 0, %i5
400053ec:	02 80 00 35 	be  400054c0 <__register_exitproc+0x11c>
400053f0:	c2 07 22 cc 	ld  [ %i4 + 0x2cc ], %g1
400053f4:	c2 27 40 00 	st  %g1, [ %i5 ]
400053f8:	c0 27 60 04 	clr  [ %i5 + 4 ]
400053fc:	fa 27 22 cc 	st  %i5, [ %i4 + 0x2cc ]
40005400:	80 a6 20 00 	cmp  %i0, 0
40005404:	12 80 00 31 	bne  400054c8 <__register_exitproc+0x124>
40005408:	c0 27 60 88 	clr  [ %i5 + 0x88 ]
4000540c:	82 10 20 00 	clr  %g1
40005410:	84 10 20 01 	mov  1, %g2
40005414:	c4 27 60 04 	st  %g2, [ %i5 + 4 ]
40005418:	82 00 60 02 	add  %g1, 2, %g1
4000541c:	83 28 60 02 	sll  %g1, 2, %g1
40005420:	f2 27 40 01 	st  %i1, [ %i5 + %g1 ]
40005424:	81 c7 e0 08 	ret 
40005428:	91 e8 20 00 	restore  %g0, 0, %o0
4000542c:	02 bf ff fa 	be  40005414 <__register_exitproc+0x70>
40005430:	84 00 60 01 	add  %g1, 1, %g2
40005434:	d0 07 60 88 	ld  [ %i5 + 0x88 ], %o0
40005438:	21 10 00 1e 	sethi  %hi(0x40007800), %l0
4000543c:	80 a2 20 00 	cmp  %o0, 0
40005440:	02 80 00 22 	be  400054c8 <__register_exitproc+0x124>
40005444:	a0 14 23 08 	or  %l0, 0x308, %l0
40005448:	c8 02 21 00 	ld  [ %o0 + 0x100 ], %g4
4000544c:	85 28 60 02 	sll  %g1, 2, %g2
40005450:	f4 22 00 02 	st  %i2, [ %o0 + %g2 ]
40005454:	86 10 20 01 	mov  1, %g3
40005458:	87 28 c0 01 	sll  %g3, %g1, %g3
4000545c:	88 10 c0 04 	or  %g3, %g4, %g4
40005460:	c8 22 21 00 	st  %g4, [ %o0 + 0x100 ]
40005464:	84 02 00 02 	add  %o0, %g2, %g2
40005468:	f6 20 a0 80 	st  %i3, [ %g2 + 0x80 ]
4000546c:	80 a6 20 02 	cmp  %i0, 2
40005470:	12 bf ff e9 	bne  40005414 <__register_exitproc+0x70>
40005474:	84 00 60 01 	add  %g1, 1, %g2
40005478:	c8 02 21 04 	ld  [ %o0 + 0x104 ], %g4
4000547c:	86 11 00 03 	or  %g4, %g3, %g3
40005480:	c6 22 21 04 	st  %g3, [ %o0 + 0x104 ]
40005484:	c4 27 60 04 	st  %g2, [ %i5 + 4 ]
40005488:	82 00 60 02 	add  %g1, 2, %g1
4000548c:	83 28 60 02 	sll  %g1, 2, %g1
40005490:	f2 27 40 01 	st  %i1, [ %i5 + %g1 ]
40005494:	81 c7 e0 08 	ret 
40005498:	91 e8 20 00 	restore  %g0, 0, %o0
4000549c:	ba 17 62 40 	or  %i5, 0x240, %i5
400054a0:	03 00 00 00 	sethi  %hi(0), %g1
400054a4:	84 10 60 00 	mov  %g1, %g2	! 0 <__bcc_cfg_skip_clear_bss>
400054a8:	80 a0 a0 00 	cmp  %g2, 0
400054ac:	02 bf ff c4 	be  400053bc <__register_exitproc+0x18>
400054b0:	fa 27 22 cc 	st  %i5, [ %i4 + 0x2cc ]
400054b4:	c2 00 60 00 	ld  [ %g1 ], %g1
400054b8:	10 bf ff c1 	b  400053bc <__register_exitproc+0x18>
400054bc:	c2 27 60 88 	st  %g1, [ %i5 + 0x88 ]
400054c0:	81 c7 e0 08 	ret 
400054c4:	91 e8 3f ff 	restore  %g0, -1, %o0
400054c8:	80 a4 20 00 	cmp  %l0, 0
400054cc:	02 bf ff fd 	be  400054c0 <__register_exitproc+0x11c>
400054d0:	01 00 00 00 	nop 
400054d4:	40 00 09 8d 	call  40007b08 <malloc>
400054d8:	90 10 21 08 	mov  0x108, %o0	! 108 <sizeof_fpu_state+0x80>
400054dc:	80 a2 20 00 	cmp  %o0, 0
400054e0:	02 bf ff f8 	be  400054c0 <__register_exitproc+0x11c>
400054e4:	88 10 20 00 	clr  %g4
400054e8:	c0 22 21 00 	clr  [ %o0 + 0x100 ]
400054ec:	c0 22 21 04 	clr  [ %o0 + 0x104 ]
400054f0:	d0 27 60 88 	st  %o0, [ %i5 + 0x88 ]
400054f4:	10 bf ff d6 	b  4000544c <__register_exitproc+0xa8>
400054f8:	c2 07 60 04 	ld  [ %i5 + 4 ], %g1

400054fc <__call_exitprocs>:
400054fc:	9d e3 bf a0 	save  %sp, -96, %sp
40005500:	23 10 00 3e 	sethi  %hi(0x4000f800), %l1
40005504:	25 10 00 1e 	sethi  %hi(0x40007800), %l2
40005508:	a2 14 62 cc 	or  %l1, 0x2cc, %l1
4000550c:	a0 10 20 01 	mov  1, %l0
40005510:	a4 14 a3 20 	or  %l2, 0x320, %l2
40005514:	f6 04 40 00 	ld  [ %l1 ], %i3
40005518:	80 a6 e0 00 	cmp  %i3, 0
4000551c:	02 80 00 4a 	be  40005644 <__call_exitprocs+0x148>
40005520:	ae 10 00 11 	mov  %l1, %l7
40005524:	f8 06 e0 04 	ld  [ %i3 + 4 ], %i4
40005528:	ba 87 3f ff 	addcc  %i4, -1, %i5
4000552c:	0c 80 00 32 	bneg  400055f4 <__call_exitprocs+0xf8>
40005530:	e6 06 e0 88 	ld  [ %i3 + 0x88 ], %l3
40005534:	80 a6 60 00 	cmp  %i1, 0
40005538:	02 80 00 53 	be  40005684 <__call_exitprocs+0x188>
4000553c:	80 a4 e0 00 	cmp  %l3, 0
40005540:	02 80 00 2e 	be  400055f8 <__call_exitprocs+0xfc>
40005544:	80 a4 a0 00 	cmp  %l2, 0
40005548:	b9 2f 20 02 	sll  %i4, 2, %i4
4000554c:	aa 04 e0 7c 	add  %l3, 0x7c, %l5
40005550:	ac 06 e0 04 	add  %i3, 4, %l6
40005554:	10 80 00 06 	b  4000556c <__call_exitprocs+0x70>
40005558:	a8 04 ff fc 	add  %l3, -4, %l4
4000555c:	ba 07 7f ff 	add  %i5, -1, %i5
40005560:	80 a7 7f ff 	cmp  %i5, -1
40005564:	02 80 00 24 	be  400055f4 <__call_exitprocs+0xf8>
40005568:	b8 07 3f fc 	add  %i4, -4, %i4
4000556c:	c2 05 40 1c 	ld  [ %l5 + %i4 ], %g1
40005570:	80 a6 40 01 	cmp  %i1, %g1
40005574:	32 bf ff fb 	bne,a   40005560 <__call_exitprocs+0x64>
40005578:	ba 07 7f ff 	add  %i5, -1, %i5
4000557c:	f4 06 e0 04 	ld  [ %i3 + 4 ], %i2
40005580:	84 06 bf ff 	add  %i2, -1, %g2
40005584:	80 a7 40 02 	cmp  %i5, %g2
40005588:	02 80 00 35 	be  4000565c <__call_exitprocs+0x160>
4000558c:	c2 05 80 1c 	ld  [ %l6 + %i4 ], %g1
40005590:	c0 25 80 1c 	clr  [ %l6 + %i4 ]
40005594:	80 a0 60 00 	cmp  %g1, 0
40005598:	02 bf ff f1 	be  4000555c <__call_exitprocs+0x60>
4000559c:	85 2c 00 1d 	sll  %l0, %i5, %g2
400055a0:	c6 04 e1 00 	ld  [ %l3 + 0x100 ], %g3
400055a4:	80 88 80 03 	btst  %g2, %g3
400055a8:	02 80 00 29 	be  4000564c <__call_exitprocs+0x150>
400055ac:	01 00 00 00 	nop 
400055b0:	c6 04 e1 04 	ld  [ %l3 + 0x104 ], %g3
400055b4:	80 88 80 03 	btst  %g2, %g3
400055b8:	02 80 00 2c 	be  40005668 <__call_exitprocs+0x16c>
400055bc:	d2 05 00 1c 	ld  [ %l4 + %i4 ], %o1
400055c0:	9f c0 40 00 	call  %g1
400055c4:	90 10 00 09 	mov  %o1, %o0
400055c8:	c2 06 e0 04 	ld  [ %i3 + 4 ], %g1
400055cc:	80 a6 80 01 	cmp  %i2, %g1
400055d0:	32 bf ff d2 	bne,a   40005518 <__call_exitprocs+0x1c>
400055d4:	f6 04 40 00 	ld  [ %l1 ], %i3
400055d8:	c2 05 c0 00 	ld  [ %l7 ], %g1
400055dc:	80 a6 c0 01 	cmp  %i3, %g1
400055e0:	12 bf ff cd 	bne  40005514 <__call_exitprocs+0x18>
400055e4:	ba 07 7f ff 	add  %i5, -1, %i5
400055e8:	80 a7 7f ff 	cmp  %i5, -1
400055ec:	12 bf ff e0 	bne  4000556c <__call_exitprocs+0x70>
400055f0:	b8 07 3f fc 	add  %i4, -4, %i4
400055f4:	80 a4 a0 00 	cmp  %l2, 0
400055f8:	02 80 00 6d 	be  400057ac <__call_exitprocs+0x2b0>
400055fc:	01 00 00 00 	nop 
40005600:	c4 06 e0 04 	ld  [ %i3 + 4 ], %g2
40005604:	80 a0 a0 00 	cmp  %g2, 0
40005608:	12 80 00 1c 	bne  40005678 <__call_exitprocs+0x17c>
4000560c:	c2 06 c0 00 	ld  [ %i3 ], %g1
40005610:	80 a0 60 00 	cmp  %g1, 0
40005614:	02 80 00 19 	be  40005678 <__call_exitprocs+0x17c>
40005618:	80 a4 e0 00 	cmp  %l3, 0
4000561c:	02 80 00 04 	be  4000562c <__call_exitprocs+0x130>
40005620:	c2 25 c0 00 	st  %g1, [ %l7 ]
40005624:	40 00 09 3f 	call  40007b20 <free>
40005628:	90 10 00 13 	mov  %l3, %o0
4000562c:	40 00 09 3d 	call  40007b20 <free>
40005630:	90 10 00 1b 	mov  %i3, %o0
40005634:	f6 05 c0 00 	ld  [ %l7 ], %i3
40005638:	80 a6 e0 00 	cmp  %i3, 0
4000563c:	32 bf ff bb 	bne,a   40005528 <__call_exitprocs+0x2c>
40005640:	f8 06 e0 04 	ld  [ %i3 + 4 ], %i4
40005644:	81 c7 e0 08 	ret 
40005648:	81 e8 00 00 	restore 
4000564c:	9f c0 40 00 	call  %g1
40005650:	01 00 00 00 	nop 
40005654:	10 bf ff de 	b  400055cc <__call_exitprocs+0xd0>
40005658:	c2 06 e0 04 	ld  [ %i3 + 4 ], %g1
4000565c:	fa 26 e0 04 	st  %i5, [ %i3 + 4 ]
40005660:	10 bf ff cd 	b  40005594 <__call_exitprocs+0x98>
40005664:	b4 10 00 1d 	mov  %i5, %i2
40005668:	9f c0 40 00 	call  %g1
4000566c:	90 10 00 18 	mov  %i0, %o0
40005670:	10 bf ff d7 	b  400055cc <__call_exitprocs+0xd0>
40005674:	c2 06 e0 04 	ld  [ %i3 + 4 ], %g1
40005678:	ae 10 00 1b 	mov  %i3, %l7
4000567c:	10 bf ff ef 	b  40005638 <__call_exitprocs+0x13c>
40005680:	b6 10 00 01 	mov  %g1, %i3
40005684:	b5 2f 20 02 	sll  %i4, 2, %i2
40005688:	12 80 00 1f 	bne  40005704 <__call_exitprocs+0x208>
4000568c:	b4 06 c0 1a 	add  %i3, %i2, %i2
40005690:	10 80 00 38 	b  40005770 <__call_exitprocs+0x274>
40005694:	84 07 3f ff 	add  %i4, -1, %g2
40005698:	c0 26 a0 04 	clr  [ %i2 + 4 ]
4000569c:	80 a0 60 00 	cmp  %g1, 0
400056a0:	02 80 00 14 	be  400056f0 <__call_exitprocs+0x1f4>
400056a4:	85 2c 00 1d 	sll  %l0, %i5, %g2
400056a8:	c6 04 e1 00 	ld  [ %l3 + 0x100 ], %g3
400056ac:	80 88 80 03 	btst  %g2, %g3
400056b0:	02 80 00 37 	be  4000578c <__call_exitprocs+0x290>
400056b4:	87 2f 60 02 	sll  %i5, 2, %g3
400056b8:	c8 04 e1 04 	ld  [ %l3 + 0x104 ], %g4
400056bc:	80 88 80 04 	btst  %g2, %g4
400056c0:	12 80 00 37 	bne  4000579c <__call_exitprocs+0x2a0>
400056c4:	d2 04 c0 03 	ld  [ %l3 + %g3 ], %o1
400056c8:	9f c0 40 00 	call  %g1
400056cc:	90 10 00 18 	mov  %i0, %o0
400056d0:	f8 06 e0 04 	ld  [ %i3 + 4 ], %i4
400056d4:	80 a5 00 1c 	cmp  %l4, %i4
400056d8:	32 bf ff 90 	bne,a   40005518 <__call_exitprocs+0x1c>
400056dc:	f6 04 40 00 	ld  [ %l1 ], %i3
400056e0:	c2 05 c0 00 	ld  [ %l7 ], %g1
400056e4:	80 a6 c0 01 	cmp  %i3, %g1
400056e8:	32 bf ff 8c 	bne,a   40005518 <__call_exitprocs+0x1c>
400056ec:	f6 04 40 00 	ld  [ %l1 ], %i3
400056f0:	ba 07 7f ff 	add  %i5, -1, %i5
400056f4:	80 a7 7f ff 	cmp  %i5, -1
400056f8:	02 bf ff bf 	be  400055f4 <__call_exitprocs+0xf8>
400056fc:	b4 06 bf fc 	add  %i2, -4, %i2
40005700:	f8 06 e0 04 	ld  [ %i3 + 4 ], %i4
40005704:	84 07 3f ff 	add  %i4, -1, %g2
40005708:	a8 10 00 1c 	mov  %i4, %l4
4000570c:	80 a7 40 02 	cmp  %i5, %g2
40005710:	12 bf ff e2 	bne  40005698 <__call_exitprocs+0x19c>
40005714:	c2 06 a0 04 	ld  [ %i2 + 4 ], %g1
40005718:	fa 26 e0 04 	st  %i5, [ %i3 + 4 ]
4000571c:	10 bf ff e0 	b  4000569c <__call_exitprocs+0x1a0>
40005720:	a8 10 00 1d 	mov  %i5, %l4
40005724:	c0 26 a0 04 	clr  [ %i2 + 4 ]
40005728:	80 a0 60 00 	cmp  %g1, 0
4000572c:	22 80 00 0c 	be,a   4000575c <__call_exitprocs+0x260>
40005730:	ba 07 7f ff 	add  %i5, -1, %i5
40005734:	9f c0 40 00 	call  %g1
40005738:	01 00 00 00 	nop 
4000573c:	f8 06 e0 04 	ld  [ %i3 + 4 ], %i4
40005740:	80 a7 00 14 	cmp  %i4, %l4
40005744:	32 bf ff 75 	bne,a   40005518 <__call_exitprocs+0x1c>
40005748:	f6 04 40 00 	ld  [ %l1 ], %i3
4000574c:	c2 05 c0 00 	ld  [ %l7 ], %g1
40005750:	80 a0 40 1b 	cmp  %g1, %i3
40005754:	12 bf ff 70 	bne  40005514 <__call_exitprocs+0x18>
40005758:	ba 07 7f ff 	add  %i5, -1, %i5
4000575c:	80 a7 7f ff 	cmp  %i5, -1
40005760:	02 bf ff a5 	be  400055f4 <__call_exitprocs+0xf8>
40005764:	b4 06 bf fc 	add  %i2, -4, %i2
40005768:	f8 06 e0 04 	ld  [ %i3 + 4 ], %i4
4000576c:	84 07 3f ff 	add  %i4, -1, %g2
40005770:	a8 10 00 1c 	mov  %i4, %l4
40005774:	80 a7 40 02 	cmp  %i5, %g2
40005778:	12 bf ff eb 	bne  40005724 <__call_exitprocs+0x228>
4000577c:	c2 06 a0 04 	ld  [ %i2 + 4 ], %g1
40005780:	fa 26 e0 04 	st  %i5, [ %i3 + 4 ]
40005784:	10 bf ff e9 	b  40005728 <__call_exitprocs+0x22c>
40005788:	a8 10 00 1d 	mov  %i5, %l4
4000578c:	9f c0 40 00 	call  %g1
40005790:	01 00 00 00 	nop 
40005794:	10 bf ff d0 	b  400056d4 <__call_exitprocs+0x1d8>
40005798:	f8 06 e0 04 	ld  [ %i3 + 4 ], %i4
4000579c:	9f c0 40 00 	call  %g1
400057a0:	90 10 00 09 	mov  %o1, %o0
400057a4:	10 bf ff cc 	b  400056d4 <__call_exitprocs+0x1d8>
400057a8:	f8 06 e0 04 	ld  [ %i3 + 4 ], %i4
400057ac:	81 c7 e0 08 	ret 
400057b0:	81 e8 00 00 	restore 

400057b4 <quorem>:
400057b4:	9d e3 bf 98 	save  %sp, -104, %sp
400057b8:	c2 06 20 10 	ld  [ %i0 + 0x10 ], %g1
400057bc:	a0 10 00 18 	mov  %i0, %l0
400057c0:	f6 06 60 10 	ld  [ %i1 + 0x10 ], %i3
400057c4:	80 a0 40 1b 	cmp  %g1, %i3
400057c8:	06 80 00 7b 	bl  400059b4 <quorem+0x200>
400057cc:	b0 10 20 00 	clr  %i0
400057d0:	a8 06 60 14 	add  %i1, 0x14, %l4
400057d4:	a2 04 20 14 	add  %l0, 0x14, %l1
400057d8:	b6 06 ff ff 	add  %i3, -1, %i3
400057dc:	a7 2e e0 02 	sll  %i3, 2, %l3
400057e0:	ea 04 40 13 	ld  [ %l1 + %l3 ], %l5
400057e4:	fa 05 00 13 	ld  [ %l4 + %l3 ], %i5
400057e8:	90 10 00 15 	mov  %l5, %o0
400057ec:	ba 07 60 01 	inc  %i5
400057f0:	40 00 21 f1 	call  4000dfb4 <.udiv>
400057f4:	92 10 00 1d 	mov  %i5, %o1
400057f8:	82 04 40 13 	add  %l1, %l3, %g1
400057fc:	c2 27 bf fc 	st  %g1, [ %fp + -4 ]
40005800:	b4 05 00 13 	add  %l4, %l3, %i2
40005804:	80 a5 40 1d 	cmp  %l5, %i5
40005808:	0a 80 00 39 	bcs  400058ec <quorem+0x138>
4000580c:	b8 10 00 08 	mov  %o0, %i4
40005810:	31 00 00 3f 	sethi  %hi(0xfc00), %i0
40005814:	ac 10 00 14 	mov  %l4, %l6
40005818:	aa 10 00 11 	mov  %l1, %l5
4000581c:	ba 10 20 00 	clr  %i5
40005820:	a4 10 20 00 	clr  %l2
40005824:	b0 16 23 ff 	or  %i0, 0x3ff, %i0
40005828:	ee 05 80 00 	ld  [ %l6 ], %l7
4000582c:	92 10 00 1c 	mov  %i4, %o1
40005830:	40 00 21 a7 	call  4000decc <.umul>
40005834:	90 0d c0 18 	and  %l7, %i0, %o0
40005838:	92 10 00 1c 	mov  %i4, %o1
4000583c:	ba 02 00 1d 	add  %o0, %i5, %i5
40005840:	40 00 21 a3 	call  4000decc <.umul>
40005844:	91 35 e0 10 	srl  %l7, 0x10, %o0
40005848:	87 37 60 10 	srl  %i5, 0x10, %g3
4000584c:	ba 0f 40 18 	and  %i5, %i0, %i5
40005850:	90 02 00 03 	add  %o0, %g3, %o0
40005854:	ba 24 80 1d 	sub  %l2, %i5, %i5
40005858:	86 0a 00 18 	and  %o0, %i0, %g3
4000585c:	c4 05 40 00 	ld  [ %l5 ], %g2
40005860:	82 08 80 18 	and  %g2, %i0, %g1
40005864:	85 30 a0 10 	srl  %g2, 0x10, %g2
40005868:	82 07 40 01 	add  %i5, %g1, %g1
4000586c:	84 20 80 03 	sub  %g2, %g3, %g2
40005870:	bb 38 60 10 	sra  %g1, 0x10, %i5
40005874:	82 08 40 18 	and  %g1, %i0, %g1
40005878:	84 00 80 1d 	add  %g2, %i5, %g2
4000587c:	87 28 a0 10 	sll  %g2, 0x10, %g3
40005880:	82 10 c0 01 	or  %g3, %g1, %g1
40005884:	c2 25 40 00 	st  %g1, [ %l5 ]
40005888:	aa 05 60 04 	add  %l5, 4, %l5
4000588c:	ac 05 a0 04 	add  %l6, 4, %l6
40005890:	bb 32 20 10 	srl  %o0, 0x10, %i5
40005894:	80 a6 80 16 	cmp  %i2, %l6
40005898:	1a bf ff e4 	bcc  40005828 <quorem+0x74>
4000589c:	a5 38 a0 10 	sra  %g2, 0x10, %l2
400058a0:	c2 04 40 13 	ld  [ %l1 + %l3 ], %g1
400058a4:	80 a0 60 00 	cmp  %g1, 0
400058a8:	12 80 00 12 	bne  400058f0 <quorem+0x13c>
400058ac:	92 10 00 19 	mov  %i1, %o1
400058b0:	c2 07 bf fc 	ld  [ %fp + -4 ], %g1
400058b4:	a4 00 7f fc 	add  %g1, -4, %l2
400058b8:	80 a4 40 12 	cmp  %l1, %l2
400058bc:	2a 80 00 08 	bcs,a   400058dc <quorem+0x128>
400058c0:	c2 04 80 00 	ld  [ %l2 ], %g1
400058c4:	10 80 00 0b 	b  400058f0 <quorem+0x13c>
400058c8:	f6 24 20 10 	st  %i3, [ %l0 + 0x10 ]
400058cc:	80 a4 40 12 	cmp  %l1, %l2
400058d0:	1a 80 00 06 	bcc  400058e8 <quorem+0x134>
400058d4:	b6 06 ff ff 	add  %i3, -1, %i3
400058d8:	c2 04 80 00 	ld  [ %l2 ], %g1
400058dc:	80 a0 60 00 	cmp  %g1, 0
400058e0:	22 bf ff fb 	be,a   400058cc <quorem+0x118>
400058e4:	a4 04 bf fc 	add  %l2, -4, %l2
400058e8:	f6 24 20 10 	st  %i3, [ %l0 + 0x10 ]
400058ec:	92 10 00 19 	mov  %i1, %o1
400058f0:	40 00 0d d9 	call  40009054 <__mcmp>
400058f4:	90 10 00 10 	mov  %l0, %o0
400058f8:	80 a2 20 00 	cmp  %o0, 0
400058fc:	06 80 00 2d 	bl  400059b0 <quorem+0x1fc>
40005900:	33 00 00 3f 	sethi  %hi(0xfc00), %i1
40005904:	b8 07 20 01 	inc  %i4
40005908:	ba 10 00 11 	mov  %l1, %i5
4000590c:	82 10 20 00 	clr  %g1
40005910:	b2 16 63 ff 	or  %i1, 0x3ff, %i1
40005914:	c8 05 00 00 	ld  [ %l4 ], %g4
40005918:	c4 07 40 00 	ld  [ %i5 ], %g2
4000591c:	b0 09 00 19 	and  %g4, %i1, %i0
40005920:	86 08 80 19 	and  %g2, %i1, %g3
40005924:	82 20 40 18 	sub  %g1, %i0, %g1
40005928:	85 30 a0 10 	srl  %g2, 0x10, %g2
4000592c:	86 00 40 03 	add  %g1, %g3, %g3
40005930:	89 31 20 10 	srl  %g4, 0x10, %g4
40005934:	82 20 80 04 	sub  %g2, %g4, %g1
40005938:	85 38 e0 10 	sra  %g3, 0x10, %g2
4000593c:	ba 07 60 04 	add  %i5, 4, %i5
40005940:	82 00 40 02 	add  %g1, %g2, %g1
40005944:	86 08 c0 19 	and  %g3, %i1, %g3
40005948:	85 28 60 10 	sll  %g1, 0x10, %g2
4000594c:	86 10 80 03 	or  %g2, %g3, %g3
40005950:	c6 27 7f fc 	st  %g3, [ %i5 + -4 ]
40005954:	a8 05 20 04 	add  %l4, 4, %l4
40005958:	80 a6 80 14 	cmp  %i2, %l4
4000595c:	1a bf ff ee 	bcc  40005914 <quorem+0x160>
40005960:	83 38 60 10 	sra  %g1, 0x10, %g1
40005964:	83 2e e0 02 	sll  %i3, 2, %g1
40005968:	c4 04 40 01 	ld  [ %l1 + %g1 ], %g2
4000596c:	80 a0 a0 00 	cmp  %g2, 0
40005970:	12 80 00 10 	bne  400059b0 <quorem+0x1fc>
40005974:	82 04 40 01 	add  %l1, %g1, %g1
40005978:	82 00 7f fc 	add  %g1, -4, %g1
4000597c:	80 a4 40 01 	cmp  %l1, %g1
40005980:	2a 80 00 08 	bcs,a   400059a0 <quorem+0x1ec>
40005984:	c4 00 40 00 	ld  [ %g1 ], %g2
40005988:	10 80 00 0a 	b  400059b0 <quorem+0x1fc>
4000598c:	f6 24 20 10 	st  %i3, [ %l0 + 0x10 ]
40005990:	80 a4 40 01 	cmp  %l1, %g1
40005994:	1a 80 00 06 	bcc  400059ac <quorem+0x1f8>
40005998:	b6 06 ff ff 	add  %i3, -1, %i3
4000599c:	c4 00 40 00 	ld  [ %g1 ], %g2
400059a0:	80 a0 a0 00 	cmp  %g2, 0
400059a4:	22 bf ff fb 	be,a   40005990 <quorem+0x1dc>
400059a8:	82 00 7f fc 	add  %g1, -4, %g1
400059ac:	f6 24 20 10 	st  %i3, [ %l0 + 0x10 ]
400059b0:	b0 10 00 1c 	mov  %i4, %i0
400059b4:	81 c7 e0 08 	ret 
400059b8:	81 e8 00 00 	restore 

400059bc <_dtoa_r>:
400059bc:	9d e3 bf 70 	save  %sp, -144, %sp
400059c0:	f2 27 bf f0 	st  %i1, [ %fp + -16 ]
400059c4:	f4 27 bf f4 	st  %i2, [ %fp + -12 ]
400059c8:	c4 1f bf f0 	ldd  [ %fp + -16 ], %g2
400059cc:	c4 3f bf e8 	std  %g2, [ %fp + -24 ]
400059d0:	c2 06 20 24 	ld  [ %i0 + 0x24 ], %g1
400059d4:	80 a0 60 00 	cmp  %g1, 0
400059d8:	02 80 02 25 	be  4000626c <_dtoa_r+0x8b0>
400059dc:	01 00 00 00 	nop 
400059e0:	d2 00 40 00 	ld  [ %g1 ], %o1
400059e4:	80 a2 60 00 	cmp  %o1, 0
400059e8:	02 80 00 0c 	be  40005a18 <_dtoa_r+0x5c>
400059ec:	f2 07 bf f0 	ld  [ %fp + -16 ], %i1
400059f0:	c4 00 60 04 	ld  [ %g1 + 4 ], %g2
400059f4:	82 10 20 01 	mov  1, %g1
400059f8:	83 28 40 02 	sll  %g1, %g2, %g1
400059fc:	c4 22 60 04 	st  %g2, [ %o1 + 4 ]
40005a00:	c2 22 60 08 	st  %g1, [ %o1 + 8 ]
40005a04:	40 00 0b 01 	call  40008608 <_Bfree>
40005a08:	90 10 00 18 	mov  %i0, %o0
40005a0c:	c2 06 20 24 	ld  [ %i0 + 0x24 ], %g1
40005a10:	c0 20 40 00 	clr  [ %g1 ]
40005a14:	f2 07 bf f0 	ld  [ %fp + -16 ], %i1
40005a18:	80 a6 60 00 	cmp  %i1, 0
40005a1c:	16 80 00 06 	bge  40005a34 <_dtoa_r+0x78>
40005a20:	84 10 20 00 	clr  %g2
40005a24:	03 20 00 00 	sethi  %hi(0x80000000), %g1
40005a28:	84 10 20 01 	mov  1, %g2
40005a2c:	b2 2e 40 01 	andn  %i1, %g1, %i1
40005a30:	f2 27 bf e8 	st  %i1, [ %fp + -24 ]
40005a34:	c6 07 a0 5c 	ld  [ %fp + 0x5c ], %g3
40005a38:	c4 20 c0 00 	st  %g2, [ %g3 ]
40005a3c:	05 1f fc 00 	sethi  %hi(0x7ff00000), %g2
40005a40:	86 0e 40 02 	and  %i1, %g2, %g3
40005a44:	80 a0 c0 02 	cmp  %g3, %g2
40005a48:	02 80 01 1b 	be  40005eb4 <_dtoa_r+0x4f8>
40005a4c:	03 00 00 09 	sethi  %hi(0x2400), %g1
40005a50:	c0 27 bf e0 	clr  [ %fp + -32 ]
40005a54:	c0 27 bf e4 	clr  [ %fp + -28 ]
40005a58:	d5 1f bf e8 	ldd  [ %fp + -24 ], %f10
40005a5c:	d1 1f bf e0 	ldd  [ %fp + -32 ], %f8
40005a60:	81 aa 8a 48 	fcmpd  %f10, %f8
40005a64:	01 00 00 00 	nop 
40005a68:	03 80 00 0c 	fbne  40005a98 <_dtoa_r+0xdc>
40005a6c:	82 10 20 01 	mov  1, %g1	! 1 <_CONTEXT_I_>
40005a70:	c2 27 40 00 	st  %g1, [ %i5 ]
40005a74:	c2 07 a0 60 	ld  [ %fp + 0x60 ], %g1
40005a78:	80 a0 60 00 	cmp  %g1, 0
40005a7c:	02 80 02 0c 	be  400062ac <_dtoa_r+0x8f0>
40005a80:	37 10 00 3b 	sethi  %hi(0x4000ec00), %i3
40005a84:	b6 16 e1 51 	or  %i3, 0x151, %i3	! 4000ed51 <_global_impure_ptr+0x5d>
40005a88:	f6 20 40 00 	st  %i3, [ %g1 ]
40005a8c:	b6 06 ff ff 	add  %i3, -1, %i3
40005a90:	81 c7 e0 08 	ret 
40005a94:	91 e8 00 1b 	restore  %g0, %i3, %o0
40005a98:	d5 3f bf e0 	std  %f10, [ %fp + -32 ]
40005a9c:	d5 3f bf d8 	std  %f10, [ %fp + -40 ]
40005aa0:	98 07 bf f8 	add  %fp, -8, %o4
40005aa4:	96 07 bf fc 	add  %fp, -4, %o3
40005aa8:	d2 07 bf e0 	ld  [ %fp + -32 ], %o1
40005aac:	d4 07 bf e4 	ld  [ %fp + -28 ], %o2
40005ab0:	40 00 0e 98 	call  40009510 <__d2b>
40005ab4:	90 10 00 18 	mov  %i0, %o0
40005ab8:	83 36 60 14 	srl  %i1, 0x14, %g1
40005abc:	b4 10 00 08 	mov  %o0, %i2
40005ac0:	80 a0 60 00 	cmp  %g1, 0
40005ac4:	12 80 01 0d 	bne  40005ef8 <_dtoa_r+0x53c>
40005ac8:	d5 1f bf d8 	ldd  [ %fp + -40 ], %f10
40005acc:	de 07 bf f8 	ld  [ %fp + -8 ], %o7
40005ad0:	c8 07 bf fc 	ld  [ %fp + -4 ], %g4
40005ad4:	c4 07 bf f4 	ld  [ %fp + -12 ], %g2
40005ad8:	88 03 c0 04 	add  %o7, %g4, %g4
40005adc:	82 01 24 32 	add  %g4, 0x432, %g1
40005ae0:	80 a0 60 20 	cmp  %g1, 0x20
40005ae4:	04 80 01 f6 	ble  400062bc <_dtoa_r+0x900>
40005ae8:	82 20 00 01 	neg  %g1
40005aec:	86 01 24 12 	add  %g4, 0x412, %g3
40005af0:	83 2e 40 01 	sll  %i1, %g1, %g1
40005af4:	85 30 80 03 	srl  %g2, %g3, %g2
40005af8:	84 10 40 02 	or  %g1, %g2, %g2
40005afc:	c4 27 bf f0 	st  %g2, [ %fp + -16 ]
40005b00:	80 a0 a0 00 	cmp  %g2, 0
40005b04:	d1 07 bf f0 	ld  [ %fp + -16 ], %f8
40005b08:	16 80 00 05 	bge  40005b1c <_dtoa_r+0x160>
40005b0c:	91 a0 19 08 	fitod  %f8, %f8
40005b10:	03 10 00 3b 	sethi  %hi(0x4000ec00), %g1
40005b14:	d9 18 61 b8 	ldd  [ %g1 + 0x1b8 ], %f12	! 4000edb8 <blanks.1+0x28>
40005b18:	91 a2 08 4c 	faddd  %f8, %f12, %f8
40005b1c:	d1 3f bf f0 	std  %f8, [ %fp + -16 ]
40005b20:	c4 1f bf f0 	ldd  [ %fp + -16 ], %g2
40005b24:	d1 27 bf f0 	st  %f8, [ %fp + -16 ]
40005b28:	f2 07 bf f0 	ld  [ %fp + -16 ], %i1
40005b2c:	82 01 3f ff 	add  %g4, -1, %g1
40005b30:	09 3f 84 00 	sethi  %hi(0xfe100000), %g4
40005b34:	84 06 40 04 	add  %i1, %g4, %g2
40005b38:	b2 10 20 01 	mov  1, %i1
40005b3c:	c4 3f bf f0 	std  %g2, [ %fp + -16 ]
40005b40:	05 10 00 3b 	sethi  %hi(0x4000ec00), %g2
40005b44:	d9 1f bf f0 	ldd  [ %fp + -16 ], %f12
40005b48:	09 10 00 3b 	sethi  %hi(0x4000ec00), %g4
40005b4c:	d1 19 21 c0 	ldd  [ %g4 + 0x1c0 ], %f8	! 4000edc0 <blanks.1+0x30>
40005b50:	91 a3 08 c8 	fsubd  %f12, %f8, %f8
40005b54:	d9 18 a1 c8 	ldd  [ %g2 + 0x1c8 ], %f12
40005b58:	05 10 00 3b 	sethi  %hi(0x4000ec00), %g2
40005b5c:	dd 18 a1 d0 	ldd  [ %g2 + 0x1d0 ], %f14	! 4000edd0 <blanks.1+0x40>
40005b60:	c2 27 bf f0 	st  %g1, [ %fp + -16 ]
40005b64:	91 a2 09 4c 	fmuld  %f8, %f12, %f8
40005b68:	05 10 00 3b 	sethi  %hi(0x4000ec00), %g2
40005b6c:	d9 07 bf f0 	ld  [ %fp + -16 ], %f12
40005b70:	91 a2 08 4e 	faddd  %f8, %f14, %f8
40005b74:	99 a0 19 0c 	fitod  %f12, %f12
40005b78:	dd 18 a1 d8 	ldd  [ %g2 + 0x1d8 ], %f14
40005b7c:	99 a3 09 4e 	fmuld  %f12, %f14, %f12
40005b80:	91 a2 08 4c 	faddd  %f8, %f12, %f8
40005b84:	99 a0 1a 48 	fdtoi  %f8, %f12
40005b88:	d9 27 bf f0 	st  %f12, [ %fp + -16 ]
40005b8c:	c0 27 bf f4 	clr  [ %fp + -12 ]
40005b90:	ec 07 bf f0 	ld  [ %fp + -16 ], %l6
40005b94:	c0 27 bf f0 	clr  [ %fp + -16 ]
40005b98:	d9 1f bf f0 	ldd  [ %fp + -16 ], %f12
40005b9c:	81 aa 0a cc 	fcmped  %f8, %f12
40005ba0:	01 00 00 00 	nop 
40005ba4:	29 80 01 ba 	fbl,a   4000628c <_dtoa_r+0x8d0>
40005ba8:	ec 27 bf f0 	st  %l6, [ %fp + -16 ]
40005bac:	82 23 c0 01 	sub  %o7, %g1, %g1
40005bb0:	80 a5 a0 16 	cmp  %l6, 0x16
40005bb4:	18 80 01 a5 	bgu  40006248 <_dtoa_r+0x88c>
40005bb8:	ae 00 7f ff 	add  %g1, -1, %l7
40005bbc:	85 2d a0 03 	sll  %l6, 3, %g2
40005bc0:	07 10 00 3b 	sethi  %hi(0x4000ec00), %g3
40005bc4:	86 10 e2 c0 	or  %g3, 0x2c0, %g3	! 4000eec0 <__mprec_tens>
40005bc8:	d1 18 c0 02 	ldd  [ %g3 + %g2 ], %f8
40005bcc:	81 aa 8a c8 	fcmped  %f10, %f8
40005bd0:	01 00 00 00 	nop 
40005bd4:	19 80 01 7f 	fbuge  400061d0 <_dtoa_r+0x814>
40005bd8:	01 00 00 00 	nop 
40005bdc:	c0 27 bf d8 	clr  [ %fp + -40 ]
40005be0:	ac 05 bf ff 	add  %l6, -1, %l6
40005be4:	80 a5 e0 00 	cmp  %l7, 0
40005be8:	06 80 01 9d 	bl  4000625c <_dtoa_r+0x8a0>
40005bec:	a6 10 20 00 	clr  %l3
40005bf0:	80 a5 a0 00 	cmp  %l6, 0
40005bf4:	36 80 01 7c 	bge,a   400061e4 <_dtoa_r+0x828>
40005bf8:	ae 05 c0 16 	add  %l7, %l6, %l7
40005bfc:	a6 24 c0 16 	sub  %l3, %l6, %l3
40005c00:	a0 20 00 16 	neg  %l6, %l0
40005c04:	a8 10 00 16 	mov  %l6, %l4
40005c08:	e2 06 20 24 	ld  [ %i0 + 0x24 ], %l1
40005c0c:	80 a6 e0 09 	cmp  %i3, 9
40005c10:	18 80 01 7a 	bgu  400061f8 <_dtoa_r+0x83c>
40005c14:	ac 10 20 00 	clr  %l6
40005c18:	80 a6 e0 05 	cmp  %i3, 5
40005c1c:	04 80 00 04 	ble  40005c2c <_dtoa_r+0x270>
40005c20:	a4 10 20 01 	mov  1, %l2
40005c24:	b6 06 ff fc 	add  %i3, -4, %i3
40005c28:	a4 10 20 00 	clr  %l2
40005c2c:	80 a6 e0 04 	cmp  %i3, 4
40005c30:	02 80 03 18 	be  40006890 <_dtoa_r+0xed4>
40005c34:	80 a6 e0 05 	cmp  %i3, 5
40005c38:	02 80 02 49 	be  4000655c <_dtoa_r+0xba0>
40005c3c:	80 a6 e0 02 	cmp  %i3, 2
40005c40:	12 80 01 78 	bne  40006220 <_dtoa_r+0x864>
40005c44:	c0 27 bf f0 	clr  [ %fp + -16 ]
40005c48:	80 a7 20 00 	cmp  %i4, 0
40005c4c:	04 80 02 9f 	ble  400066c8 <_dtoa_r+0xd0c>
40005c50:	9e 10 00 1c 	mov  %i4, %o7
40005c54:	f8 27 bf d4 	st  %i4, [ %fp + -44 ]
40005c58:	aa 10 00 1c 	mov  %i4, %l5
40005c5c:	80 a5 60 0f 	cmp  %l5, 0xf
40005c60:	c0 24 60 04 	clr  [ %l1 + 4 ]
40005c64:	82 40 20 00 	addx  %g0, 0, %g1
40005c68:	80 a3 e0 17 	cmp  %o7, 0x17
40005c6c:	04 80 03 fd 	ble  40006c60 <_dtoa_r+0x12a4>
40005c70:	a4 08 40 12 	and  %g1, %l2, %l2
40005c74:	84 10 20 01 	mov  1, %g2
40005c78:	82 10 20 04 	mov  4, %g1
40005c7c:	92 10 00 02 	mov  %g2, %o1
40005c80:	83 28 60 01 	sll  %g1, 1, %g1
40005c84:	86 00 60 14 	add  %g1, 0x14, %g3
40005c88:	80 a3 c0 03 	cmp  %o7, %g3
40005c8c:	1a bf ff fc 	bcc  40005c7c <_dtoa_r+0x2c0>
40005c90:	84 00 a0 01 	inc  %g2
40005c94:	d2 24 60 04 	st  %o1, [ %l1 + 4 ]
40005c98:	d5 3f bf e0 	std  %f10, [ %fp + -32 ]
40005c9c:	40 00 0a 27 	call  40008538 <_Balloc>
40005ca0:	90 10 00 18 	mov  %i0, %o0
40005ca4:	d0 24 40 00 	st  %o0, [ %l1 ]
40005ca8:	c2 06 20 24 	ld  [ %i0 + 0x24 ], %g1
40005cac:	80 8c a0 ff 	btst  0xff, %l2
40005cb0:	e2 00 40 00 	ld  [ %g1 ], %l1
40005cb4:	02 80 00 bd 	be  40005fa8 <_dtoa_r+0x5ec>
40005cb8:	d5 1f bf e0 	ldd  [ %fp + -32 ], %f10
40005cbc:	80 a5 20 00 	cmp  %l4, 0
40005cc0:	04 80 01 e1 	ble  40006444 <_dtoa_r+0xa88>
40005cc4:	84 0d 20 0f 	and  %l4, 0xf, %g2
40005cc8:	07 10 00 3b 	sethi  %hi(0x4000ec00), %g3
40005ccc:	85 28 a0 03 	sll  %g2, 3, %g2
40005cd0:	86 10 e2 c0 	or  %g3, 0x2c0, %g3
40005cd4:	83 3d 20 04 	sra  %l4, 4, %g1
40005cd8:	80 8d 21 00 	btst  0x100, %l4
40005cdc:	02 80 02 77 	be  400066b8 <_dtoa_r+0xcfc>
40005ce0:	d9 18 c0 02 	ldd  [ %g3 + %g2 ], %f12
40005ce4:	05 10 00 3b 	sethi  %hi(0x4000ec00), %g2
40005ce8:	82 08 60 0f 	and  %g1, 0xf, %g1
40005cec:	d1 18 a2 b8 	ldd  [ %g2 + 0x2b8 ], %f8
40005cf0:	84 10 20 03 	mov  3, %g2
40005cf4:	91 a2 89 c8 	fdivd  %f10, %f8, %f8
40005cf8:	80 a0 60 00 	cmp  %g1, 0
40005cfc:	22 80 00 0e 	be,a   40005d34 <_dtoa_r+0x378>
40005d00:	91 a2 09 cc 	fdivd  %f8, %f12, %f8
40005d04:	07 10 00 3b 	sethi  %hi(0x4000ec00), %g3
40005d08:	86 10 e2 98 	or  %g3, 0x298, %g3	! 4000ee98 <__mprec_bigtens>
40005d0c:	80 88 60 01 	btst  1, %g1
40005d10:	02 80 00 05 	be  40005d24 <_dtoa_r+0x368>
40005d14:	83 38 60 01 	sra  %g1, 1, %g1
40005d18:	dd 18 c0 00 	ldd  [ %g3 ], %f14
40005d1c:	84 00 a0 01 	inc  %g2
40005d20:	99 a3 09 4e 	fmuld  %f12, %f14, %f12
40005d24:	80 a0 60 00 	cmp  %g1, 0
40005d28:	12 bf ff f9 	bne  40005d0c <_dtoa_r+0x350>
40005d2c:	86 00 e0 08 	add  %g3, 8, %g3
40005d30:	91 a2 09 cc 	fdivd  %f8, %f12, %f8
40005d34:	c2 07 bf d8 	ld  [ %fp + -40 ], %g1
40005d38:	80 a0 60 00 	cmp  %g1, 0
40005d3c:	22 80 00 09 	be,a   40005d60 <_dtoa_r+0x3a4>
40005d40:	c4 27 bf e0 	st  %g2, [ %fp + -32 ]
40005d44:	03 10 00 3b 	sethi  %hi(0x4000ec00), %g1
40005d48:	d9 18 61 e0 	ldd  [ %g1 + 0x1e0 ], %f12	! 4000ede0 <blanks.1+0x50>
40005d4c:	81 aa 0a cc 	fcmped  %f8, %f12
40005d50:	01 00 00 00 	nop 
40005d54:	09 80 02 dd 	fbl  400068c8 <_dtoa_r+0xf0c>
40005d58:	80 a5 60 00 	cmp  %l5, 0
40005d5c:	c4 27 bf e0 	st  %g2, [ %fp + -32 ]
40005d60:	03 10 00 3b 	sethi  %hi(0x4000ec00), %g1
40005d64:	d9 07 bf e0 	ld  [ %fp + -32 ], %f12
40005d68:	dd 18 61 f0 	ldd  [ %g1 + 0x1f0 ], %f14
40005d6c:	99 a0 19 0c 	fitod  %f12, %f12
40005d70:	99 a3 09 48 	fmuld  %f12, %f8, %f12
40005d74:	99 a3 08 4e 	faddd  %f12, %f14, %f12
40005d78:	d9 3f bf e0 	std  %f12, [ %fp + -32 ]
40005d7c:	03 3f 30 00 	sethi  %hi(0xfcc00000), %g1
40005d80:	d4 1f bf e0 	ldd  [ %fp + -32 ], %o2
40005d84:	80 a5 60 00 	cmp  %l5, 0
40005d88:	86 10 00 0b 	mov  %o3, %g3
40005d8c:	02 80 00 7a 	be  40005f74 <_dtoa_r+0x5b8>
40005d90:	84 02 80 01 	add  %o2, %g1, %g2
40005d94:	9e 10 00 14 	mov  %l4, %o7
40005d98:	92 10 00 15 	mov  %l5, %o1
40005d9c:	99 a0 1a 48 	fdtoi  %f8, %f12
40005da0:	d9 27 bf e0 	st  %f12, [ %fp + -32 ]
40005da4:	c2 07 bf e0 	ld  [ %fp + -32 ], %g1
40005da8:	c4 3f bf e0 	std  %g2, [ %fp + -32 ]
40005dac:	94 00 60 30 	add  %g1, 0x30, %o2
40005db0:	05 10 00 3b 	sethi  %hi(0x4000ec00), %g2
40005db4:	d4 2c 40 00 	stb  %o2, [ %l1 ]
40005db8:	84 10 a2 c0 	or  %g2, 0x2c0, %g2
40005dbc:	9d a0 19 0c 	fitod  %f12, %f14
40005dc0:	90 02 7f ff 	add  %o1, -1, %o0
40005dc4:	91 a2 08 ce 	fsubd  %f8, %f14, %f8
40005dc8:	91 2a 20 03 	sll  %o0, 3, %o0
40005dcc:	96 04 60 01 	add  %l1, 1, %o3
40005dd0:	e1 18 80 08 	ldd  [ %g2 + %o0 ], %f16
40005dd4:	82 10 00 0a 	mov  %o2, %g1
40005dd8:	c4 07 bf f0 	ld  [ %fp + -16 ], %g2
40005ddc:	80 a0 a0 00 	cmp  %g2, 0
40005de0:	02 80 02 3d 	be  400066d4 <_dtoa_r+0xd18>
40005de4:	d9 1f bf e0 	ldd  [ %fp + -32 ], %f12
40005de8:	05 10 00 3b 	sethi  %hi(0x4000ec00), %g2
40005dec:	dd 18 a1 78 	ldd  [ %g2 + 0x178 ], %f14	! 4000ed78 <_global_impure_ptr+0x84>
40005df0:	9d a3 89 d0 	fdivd  %f14, %f16, %f14
40005df4:	9d a3 88 cc 	fsubd  %f14, %f12, %f14
40005df8:	81 ab 8a c8 	fcmped  %f14, %f8
40005dfc:	01 00 00 00 	nop 
40005e00:	0d 80 03 3d 	fbg  40006af4 <_dtoa_r+0x1138>
40005e04:	07 10 00 3b 	sethi  %hi(0x4000ec00), %g3
40005e08:	84 10 20 00 	clr  %g2
40005e0c:	e5 18 e1 e0 	ldd  [ %g3 + 0x1e0 ], %f18
40005e10:	07 10 00 3b 	sethi  %hi(0x4000ec00), %g3
40005e14:	10 80 00 12 	b  40005e5c <_dtoa_r+0x4a0>
40005e18:	e1 18 e1 e8 	ldd  [ %g3 + 0x1e8 ], %f16	! 4000ede8 <blanks.1+0x58>
40005e1c:	84 00 a0 01 	inc  %g2
40005e20:	80 a0 80 09 	cmp  %g2, %o1
40005e24:	16 80 00 61 	bge  40005fa8 <_dtoa_r+0x5ec>
40005e28:	96 02 e0 01 	inc  %o3
40005e2c:	91 a2 09 50 	fmuld  %f8, %f16, %f8
40005e30:	99 a0 1a 48 	fdtoi  %f8, %f12
40005e34:	d9 27 bf e0 	st  %f12, [ %fp + -32 ]
40005e38:	c2 07 bf e0 	ld  [ %fp + -32 ], %g1
40005e3c:	82 00 60 30 	add  %g1, 0x30, %g1
40005e40:	9d a3 89 50 	fmuld  %f14, %f16, %f14
40005e44:	99 a0 19 0c 	fitod  %f12, %f12
40005e48:	91 a2 08 cc 	fsubd  %f8, %f12, %f8
40005e4c:	81 aa 0a ce 	fcmped  %f8, %f14
40005e50:	01 00 00 00 	nop 
40005e54:	09 80 03 28 	fbl  40006af4 <_dtoa_r+0x1138>
40005e58:	c2 2a ff ff 	stb  %g1, [ %o3 + -1 ]
40005e5c:	99 a4 88 c8 	fsubd  %f18, %f8, %f12
40005e60:	81 ab 0a ce 	fcmped  %f12, %f14
40005e64:	01 00 00 00 	nop 
40005e68:	19 bf ff ed 	fbuge  40005e1c <_dtoa_r+0x460>
40005e6c:	01 00 00 00 	nop 
40005e70:	b6 10 00 11 	mov  %l1, %i3
40005e74:	a8 03 e0 01 	add  %o7, 1, %l4
40005e78:	10 80 00 07 	b  40005e94 <_dtoa_r+0x4d8>
40005e7c:	a2 10 00 0b 	mov  %o3, %l1
40005e80:	80 a0 c0 1b 	cmp  %g3, %i3
40005e84:	02 80 02 f8 	be  40006a64 <_dtoa_r+0x10a8>
40005e88:	82 10 20 31 	mov  0x31, %g1
40005e8c:	c2 08 ff ff 	ldub  [ %g3 + -1 ], %g1
40005e90:	a2 10 00 03 	mov  %g3, %l1
40005e94:	85 28 60 18 	sll  %g1, 0x18, %g2
40005e98:	85 38 a0 18 	sra  %g2, 0x18, %g2
40005e9c:	80 a0 a0 39 	cmp  %g2, 0x39
40005ea0:	02 bf ff f8 	be  40005e80 <_dtoa_r+0x4c4>
40005ea4:	86 04 7f ff 	add  %l1, -1, %g3
40005ea8:	82 00 60 01 	inc  %g1
40005eac:	10 80 00 bd 	b  400061a0 <_dtoa_r+0x7e4>
40005eb0:	c2 28 c0 00 	stb  %g1, [ %g3 ]
40005eb4:	82 10 63 0f 	or  %g1, 0x30f, %g1
40005eb8:	c2 27 40 00 	st  %g1, [ %i5 ]
40005ebc:	c4 07 bf f4 	ld  [ %fp + -12 ], %g2
40005ec0:	03 3f fc 00 	sethi  %hi(0xfff00000), %g1
40005ec4:	82 2e 40 01 	andn  %i1, %g1, %g1
40005ec8:	80 90 40 02 	orcc  %g1, %g2, %g0
40005ecc:	12 80 00 17 	bne  40005f28 <_dtoa_r+0x56c>
40005ed0:	c2 07 a0 60 	ld  [ %fp + 0x60 ], %g1
40005ed4:	37 10 00 3b 	sethi  %hi(0x4000ec00), %i3
40005ed8:	80 a0 60 00 	cmp  %g1, 0
40005edc:	02 bf fe ed 	be  40005a90 <_dtoa_r+0xd4>
40005ee0:	b6 16 e1 a0 	or  %i3, 0x1a0, %i3
40005ee4:	82 06 e0 08 	add  %i3, 8, %g1
40005ee8:	c4 07 a0 60 	ld  [ %fp + 0x60 ], %g2
40005eec:	c2 20 80 00 	st  %g1, [ %g2 ]
40005ef0:	81 c7 e0 08 	ret 
40005ef4:	91 e8 00 1b 	restore  %g0, %i3, %o0
40005ef8:	d5 3f bf f0 	std  %f10, [ %fp + -16 ]
40005efc:	c4 1f bf f0 	ldd  [ %fp + -16 ], %g2
40005f00:	d5 27 bf f0 	st  %f10, [ %fp + -16 ]
40005f04:	f2 07 bf f0 	ld  [ %fp + -16 ], %i1
40005f08:	09 3f fc 00 	sethi  %hi(0xfff00000), %g4
40005f0c:	88 2e 40 04 	andn  %i1, %g4, %g4
40005f10:	33 0f fc 00 	sethi  %hi(0x3ff00000), %i1
40005f14:	82 00 7c 01 	add  %g1, -1023, %g1
40005f18:	84 11 00 19 	or  %g4, %i1, %g2
40005f1c:	de 07 bf f8 	ld  [ %fp + -8 ], %o7
40005f20:	10 bf ff 07 	b  40005b3c <_dtoa_r+0x180>
40005f24:	b2 10 20 00 	clr  %i1
40005f28:	37 10 00 3b 	sethi  %hi(0x4000ec00), %i3
40005f2c:	80 a0 60 00 	cmp  %g1, 0
40005f30:	02 bf fe d8 	be  40005a90 <_dtoa_r+0xd4>
40005f34:	b6 16 e1 b0 	or  %i3, 0x1b0, %i3
40005f38:	82 06 e0 03 	add  %i3, 3, %g1
40005f3c:	c4 07 a0 60 	ld  [ %fp + 0x60 ], %g2
40005f40:	10 bf ff ec 	b  40005ef0 <_dtoa_r+0x534>
40005f44:	c2 20 80 00 	st  %g1, [ %g2 ]
40005f48:	03 10 00 3b 	sethi  %hi(0x4000ec00), %g1
40005f4c:	d9 07 bf e0 	ld  [ %fp + -32 ], %f12
40005f50:	dd 18 61 f0 	ldd  [ %g1 + 0x1f0 ], %f14
40005f54:	99 a0 19 0c 	fitod  %f12, %f12
40005f58:	03 3f 30 00 	sethi  %hi(0xfcc00000), %g1
40005f5c:	99 a3 09 48 	fmuld  %f12, %f8, %f12
40005f60:	99 a3 08 4e 	faddd  %f12, %f14, %f12
40005f64:	d9 3f bf e0 	std  %f12, [ %fp + -32 ]
40005f68:	d4 1f bf e0 	ldd  [ %fp + -32 ], %o2
40005f6c:	86 10 00 0b 	mov  %o3, %g3
40005f70:	84 02 80 01 	add  %o2, %g1, %g2
40005f74:	c4 3f bf e0 	std  %g2, [ %fp + -32 ]
40005f78:	03 10 00 3b 	sethi  %hi(0x4000ec00), %g1
40005f7c:	dd 1f bf e0 	ldd  [ %fp + -32 ], %f14
40005f80:	d9 18 61 f8 	ldd  [ %g1 + 0x1f8 ], %f12
40005f84:	91 a2 08 cc 	fsubd  %f8, %f12, %f8
40005f88:	81 aa 0a ce 	fcmped  %f8, %f14
40005f8c:	01 00 00 00 	nop 
40005f90:	0d 80 02 73 	fbg  4000695c <_dtoa_r+0xfa0>
40005f94:	9d a0 00 ae 	fnegs  %f14, %f14
40005f98:	81 aa 0a ce 	fcmped  %f8, %f14
40005f9c:	01 00 00 00 	nop 
40005fa0:	29 80 02 1c 	fbl,a   40006810 <_dtoa_r+0xe54>
40005fa4:	a0 10 20 00 	clr  %l0	! 0 <__bcc_cfg_skip_clear_bss>
40005fa8:	c2 07 bf fc 	ld  [ %fp + -4 ], %g1
40005fac:	80 a0 60 00 	cmp  %g1, 0
40005fb0:	06 80 00 08 	bl  40005fd0 <_dtoa_r+0x614>
40005fb4:	80 a5 20 0e 	cmp  %l4, 0xe
40005fb8:	04 80 00 03 	ble  40005fc4 <_dtoa_r+0x608>
40005fbc:	84 10 20 01 	mov  1, %g2
40005fc0:	84 10 20 00 	clr  %g2
40005fc4:	80 88 a0 ff 	btst  0xff, %g2
40005fc8:	32 80 01 41 	bne,a   400064cc <_dtoa_r+0xb10>
40005fcc:	83 2d 20 03 	sll  %l4, 3, %g1
40005fd0:	c4 07 bf f0 	ld  [ %fp + -16 ], %g2
40005fd4:	80 a0 a0 00 	cmp  %g2, 0
40005fd8:	02 80 00 bf 	be  400062d4 <_dtoa_r+0x918>
40005fdc:	84 10 00 10 	mov  %l0, %g2
40005fe0:	80 a6 e0 01 	cmp  %i3, 1
40005fe4:	04 80 02 50 	ble  40006924 <_dtoa_r+0xf68>
40005fe8:	80 a6 60 00 	cmp  %i1, 0
40005fec:	82 05 7f ff 	add  %l5, -1, %g1
40005ff0:	80 a4 00 01 	cmp  %l0, %g1
40005ff4:	16 80 00 06 	bge  4000600c <_dtoa_r+0x650>
40005ff8:	84 24 00 01 	sub  %l0, %g1, %g2
40005ffc:	a0 20 40 10 	sub  %g1, %l0, %l0
40006000:	84 10 20 00 	clr  %g2
40006004:	ac 05 80 10 	add  %l6, %l0, %l6
40006008:	a0 10 00 01 	mov  %g1, %l0
4000600c:	80 a5 60 00 	cmp  %l5, 0
40006010:	06 80 00 05 	bl  40006024 <_dtoa_r+0x668>
40006014:	a4 24 c0 15 	sub  %l3, %l5, %l2
40006018:	a4 10 00 13 	mov  %l3, %l2
4000601c:	ae 05 c0 15 	add  %l7, %l5, %l7
40006020:	a6 04 c0 15 	add  %l3, %l5, %l3
40006024:	c4 27 bf e0 	st  %g2, [ %fp + -32 ]
40006028:	92 10 20 01 	mov  1, %o1
4000602c:	40 00 0a 66 	call  400089c4 <__i2b>
40006030:	90 10 00 18 	mov  %i0, %o0
40006034:	c4 07 bf e0 	ld  [ %fp + -32 ], %g2
40006038:	b2 10 00 08 	mov  %o0, %i1
4000603c:	80 a4 a0 00 	cmp  %l2, 0
40006040:	04 80 00 09 	ble  40006064 <_dtoa_r+0x6a8>
40006044:	80 a5 e0 00 	cmp  %l7, 0
40006048:	04 80 00 07 	ble  40006064 <_dtoa_r+0x6a8>
4000604c:	80 a4 80 17 	cmp  %l2, %l7
40006050:	14 80 01 c8 	bg  40006770 <_dtoa_r+0xdb4>
40006054:	82 10 00 12 	mov  %l2, %g1
40006058:	a6 24 c0 01 	sub  %l3, %g1, %l3
4000605c:	a4 24 80 01 	sub  %l2, %g1, %l2
40006060:	ae 25 c0 01 	sub  %l7, %g1, %l7
40006064:	80 a4 20 00 	cmp  %l0, 0
40006068:	02 80 00 0a 	be  40006090 <_dtoa_r+0x6d4>
4000606c:	c2 07 bf f0 	ld  [ %fp + -16 ], %g1
40006070:	80 a0 60 00 	cmp  %g1, 0
40006074:	02 80 02 34 	be  40006944 <_dtoa_r+0xf88>
40006078:	80 a0 a0 00 	cmp  %g2, 0
4000607c:	14 80 01 e7 	bg  40006818 <_dtoa_r+0xe5c>
40006080:	94 10 00 02 	mov  %g2, %o2
40006084:	94 a4 00 02 	subcc  %l0, %g2, %o2
40006088:	12 80 01 f3 	bne  40006854 <_dtoa_r+0xe98>
4000608c:	92 10 00 1a 	mov  %i2, %o1
40006090:	92 10 20 01 	mov  1, %o1
40006094:	40 00 0a 4c 	call  400089c4 <__i2b>
40006098:	90 10 00 18 	mov  %i0, %o0
4000609c:	80 a5 a0 00 	cmp  %l6, 0
400060a0:	14 80 01 1e 	bg  40006518 <_dtoa_r+0xb5c>
400060a4:	a0 10 00 08 	mov  %o0, %l0
400060a8:	80 a6 e0 01 	cmp  %i3, 1
400060ac:	04 80 01 fc 	ble  4000689c <_dtoa_r+0xee0>
400060b0:	c0 27 bf e0 	clr  [ %fp + -32 ]
400060b4:	80 a5 a0 00 	cmp  %l6, 0
400060b8:	12 80 01 20 	bne  40006538 <_dtoa_r+0xb7c>
400060bc:	82 10 20 01 	mov  1, %g1
400060c0:	82 00 40 17 	add  %g1, %l7, %g1
400060c4:	82 88 60 1f 	andcc  %g1, 0x1f, %g1
400060c8:	22 80 00 7f 	be,a   400062c4 <_dtoa_r+0x908>
400060cc:	82 10 20 1c 	mov  0x1c, %g1
400060d0:	84 10 20 20 	mov  0x20, %g2
400060d4:	84 20 80 01 	sub  %g2, %g1, %g2
400060d8:	80 a0 a0 04 	cmp  %g2, 4
400060dc:	04 80 02 da 	ble  40006c44 <_dtoa_r+0x1288>
400060e0:	84 10 20 1c 	mov  0x1c, %g2
400060e4:	82 20 80 01 	sub  %g2, %g1, %g1
400060e8:	a6 04 c0 01 	add  %l3, %g1, %l3
400060ec:	a4 04 80 01 	add  %l2, %g1, %l2
400060f0:	ae 05 c0 01 	add  %l7, %g1, %l7
400060f4:	80 a4 e0 00 	cmp  %l3, 0
400060f8:	04 80 00 08 	ble  40006118 <_dtoa_r+0x75c>
400060fc:	80 a5 e0 00 	cmp  %l7, 0
40006100:	92 10 00 1a 	mov  %i2, %o1
40006104:	94 10 00 13 	mov  %l3, %o2
40006108:	40 00 0b 62 	call  40008e90 <__lshift>
4000610c:	90 10 00 18 	mov  %i0, %o0
40006110:	b4 10 00 08 	mov  %o0, %i2
40006114:	80 a5 e0 00 	cmp  %l7, 0
40006118:	04 80 00 08 	ble  40006138 <_dtoa_r+0x77c>
4000611c:	80 a6 e0 02 	cmp  %i3, 2
40006120:	92 10 00 10 	mov  %l0, %o1
40006124:	94 10 00 17 	mov  %l7, %o2
40006128:	40 00 0b 5a 	call  40008e90 <__lshift>
4000612c:	90 10 00 18 	mov  %i0, %o0
40006130:	a0 10 00 08 	mov  %o0, %l0
40006134:	80 a6 e0 02 	cmp  %i3, 2
40006138:	14 80 00 03 	bg  40006144 <_dtoa_r+0x788>
4000613c:	a6 10 20 01 	mov  1, %l3
40006140:	a6 10 20 00 	clr  %l3
40006144:	c2 07 bf d8 	ld  [ %fp + -40 ], %g1
40006148:	80 a0 60 00 	cmp  %g1, 0
4000614c:	12 80 01 07 	bne  40006568 <_dtoa_r+0xbac>
40006150:	92 10 00 10 	mov  %l0, %o1
40006154:	80 a5 60 00 	cmp  %l5, 0
40006158:	14 80 00 62 	bg  400062e0 <_dtoa_r+0x924>
4000615c:	80 8c e0 ff 	btst  0xff, %l3
40006160:	02 80 00 61 	be  400062e4 <_dtoa_r+0x928>
40006164:	c2 07 bf f0 	ld  [ %fp + -16 ], %g1
40006168:	80 a5 60 00 	cmp  %l5, 0
4000616c:	02 80 01 83 	be  40006778 <_dtoa_r+0xdbc>
40006170:	92 10 00 10 	mov  %l0, %o1
40006174:	a8 38 00 1c 	xnor  %g0, %i4, %l4
40006178:	b6 10 00 11 	mov  %l1, %i3
4000617c:	92 10 00 10 	mov  %l0, %o1
40006180:	40 00 09 22 	call  40008608 <_Bfree>
40006184:	90 10 00 18 	mov  %i0, %o0
40006188:	80 a6 60 00 	cmp  %i1, 0
4000618c:	02 80 00 05 	be  400061a0 <_dtoa_r+0x7e4>
40006190:	a8 05 20 01 	inc  %l4
40006194:	92 10 00 19 	mov  %i1, %o1
40006198:	40 00 09 1c 	call  40008608 <_Bfree>
4000619c:	90 10 00 18 	mov  %i0, %o0
400061a0:	92 10 00 1a 	mov  %i2, %o1
400061a4:	40 00 09 19 	call  40008608 <_Bfree>
400061a8:	90 10 00 18 	mov  %i0, %o0
400061ac:	c0 2c 40 00 	clrb  [ %l1 ]
400061b0:	e8 27 40 00 	st  %l4, [ %i5 ]
400061b4:	c2 07 a0 60 	ld  [ %fp + 0x60 ], %g1
400061b8:	80 a0 60 00 	cmp  %g1, 0
400061bc:	02 bf fe 35 	be  40005a90 <_dtoa_r+0xd4>
400061c0:	01 00 00 00 	nop 
400061c4:	e2 20 40 00 	st  %l1, [ %g1 ]
400061c8:	81 c7 e0 08 	ret 
400061cc:	91 e8 00 1b 	restore  %g0, %i3, %o0
400061d0:	c0 27 bf d8 	clr  [ %fp + -40 ]
400061d4:	80 a5 e0 00 	cmp  %l7, 0
400061d8:	06 80 00 21 	bl  4000625c <_dtoa_r+0x8a0>
400061dc:	a6 10 20 00 	clr  %l3
400061e0:	ae 05 c0 16 	add  %l7, %l6, %l7
400061e4:	a8 10 00 16 	mov  %l6, %l4
400061e8:	a0 10 20 00 	clr  %l0
400061ec:	80 a6 e0 09 	cmp  %i3, 9
400061f0:	08 bf fe 8a 	bleu  40005c18 <_dtoa_r+0x25c>
400061f4:	e2 06 20 24 	ld  [ %i0 + 0x24 ], %l1
400061f8:	82 10 20 01 	mov  1, %g1
400061fc:	a4 10 20 00 	clr  %l2
40006200:	b6 10 20 00 	clr  %i3
40006204:	c2 27 bf f0 	st  %g1, [ %fp + -16 ]
40006208:	aa 10 3f ff 	mov  -1, %l5
4000620c:	b8 10 20 00 	clr  %i4
40006210:	c0 24 60 04 	clr  [ %l1 + 4 ]
40006214:	ea 27 bf d4 	st  %l5, [ %fp + -44 ]
40006218:	10 bf fe a0 	b  40005c98 <_dtoa_r+0x2dc>
4000621c:	92 10 20 00 	clr  %o1
40006220:	80 a6 e0 03 	cmp  %i3, 3
40006224:	32 80 02 91 	bne,a   40006c68 <_dtoa_r+0x12ac>
40006228:	c0 24 60 04 	clr  [ %l1 + 4 ]
4000622c:	82 07 00 14 	add  %i4, %l4, %g1
40006230:	aa 00 60 01 	add  %g1, 1, %l5
40006234:	9e 95 60 00 	orcc  %l5, 0, %o7
40006238:	14 bf fe 89 	bg  40005c5c <_dtoa_r+0x2a0>
4000623c:	c2 27 bf d4 	st  %g1, [ %fp + -44 ]
40006240:	10 bf fe 87 	b  40005c5c <_dtoa_r+0x2a0>
40006244:	9e 10 20 01 	mov  1, %o7
40006248:	84 10 20 01 	mov  1, %g2
4000624c:	c4 27 bf d8 	st  %g2, [ %fp + -40 ]
40006250:	80 a5 e0 00 	cmp  %l7, 0
40006254:	16 bf fe 67 	bge  40005bf0 <_dtoa_r+0x234>
40006258:	a6 10 20 00 	clr  %l3
4000625c:	98 10 20 01 	mov  1, %o4
40006260:	ae 10 20 00 	clr  %l7
40006264:	10 bf fe 63 	b  40005bf0 <_dtoa_r+0x234>
40006268:	a6 23 00 01 	sub  %o4, %g1, %l3
4000626c:	40 00 06 27 	call  40007b08 <malloc>
40006270:	90 10 20 10 	mov  0x10, %o0
40006274:	d0 26 20 24 	st  %o0, [ %i0 + 0x24 ]
40006278:	c0 22 20 04 	clr  [ %o0 + 4 ]
4000627c:	c0 22 20 08 	clr  [ %o0 + 8 ]
40006280:	c0 22 00 00 	clr  [ %o0 ]
40006284:	10 bf fd e4 	b  40005a14 <_dtoa_r+0x58>
40006288:	c0 22 20 0c 	clr  [ %o0 + 0xc ]
4000628c:	d9 07 bf f0 	ld  [ %fp + -16 ], %f12
40006290:	99 a0 19 0c 	fitod  %f12, %f12
40006294:	81 ab 0a 48 	fcmpd  %f12, %f8
40006298:	01 00 00 00 	nop 
4000629c:	23 bf fe 44 	fbne,a   40005bac <_dtoa_r+0x1f0>
400062a0:	ac 05 bf ff 	add  %l6, -1, %l6
400062a4:	10 bf fe 43 	b  40005bb0 <_dtoa_r+0x1f4>
400062a8:	82 23 c0 01 	sub  %o7, %g1, %g1
400062ac:	37 10 00 3b 	sethi  %hi(0x4000ec00), %i3
400062b0:	b6 16 e1 50 	or  %i3, 0x150, %i3	! 4000ed50 <_global_impure_ptr+0x5c>
400062b4:	81 c7 e0 08 	ret 
400062b8:	91 e8 00 1b 	restore  %g0, %i3, %o0
400062bc:	10 bf fe 10 	b  40005afc <_dtoa_r+0x140>
400062c0:	85 28 80 01 	sll  %g2, %g1, %g2
400062c4:	a6 04 c0 01 	add  %l3, %g1, %l3
400062c8:	a4 04 80 01 	add  %l2, %g1, %l2
400062cc:	10 bf ff 8a 	b  400060f4 <_dtoa_r+0x738>
400062d0:	ae 05 c0 01 	add  %l7, %g1, %l7
400062d4:	a4 10 00 13 	mov  %l3, %l2
400062d8:	10 bf ff 59 	b  4000603c <_dtoa_r+0x680>
400062dc:	b2 10 20 00 	clr  %i1
400062e0:	c2 07 bf f0 	ld  [ %fp + -16 ], %g1
400062e4:	80 a0 60 00 	cmp  %g1, 0
400062e8:	02 80 00 b8 	be  400065c8 <_dtoa_r+0xc0c>
400062ec:	a8 05 20 01 	inc  %l4
400062f0:	80 a4 a0 00 	cmp  %l2, 0
400062f4:	04 80 00 08 	ble  40006314 <_dtoa_r+0x958>
400062f8:	c2 07 bf e0 	ld  [ %fp + -32 ], %g1
400062fc:	92 10 00 19 	mov  %i1, %o1
40006300:	94 10 00 12 	mov  %l2, %o2
40006304:	40 00 0a e3 	call  40008e90 <__lshift>
40006308:	90 10 00 18 	mov  %i0, %o0
4000630c:	b2 10 00 08 	mov  %o0, %i1
40006310:	c2 07 bf e0 	ld  [ %fp + -32 ], %g1
40006314:	80 a0 60 00 	cmp  %g1, 0
40006318:	12 80 01 fe 	bne  40006b10 <_dtoa_r+0x1154>
4000631c:	a4 10 00 19 	mov  %i1, %l2
40006320:	82 04 7f ff 	add  %l1, -1, %g1
40006324:	82 00 40 15 	add  %g1, %l5, %g1
40006328:	ac 10 00 11 	mov  %l1, %l6
4000632c:	c2 27 bf e0 	st  %g1, [ %fp + -32 ]
40006330:	c2 07 bf ec 	ld  [ %fp + -20 ], %g1
40006334:	82 08 60 01 	and  %g1, 1, %g1
40006338:	c2 27 bf f0 	st  %g1, [ %fp + -16 ]
4000633c:	92 10 00 10 	mov  %l0, %o1
40006340:	7f ff fd 1d 	call  400057b4 <quorem>
40006344:	90 10 00 1a 	mov  %i2, %o0
40006348:	92 10 00 19 	mov  %i1, %o1
4000634c:	aa 10 00 08 	mov  %o0, %l5
40006350:	40 00 0b 41 	call  40009054 <__mcmp>
40006354:	90 10 00 1a 	mov  %i2, %o0
40006358:	92 10 00 10 	mov  %l0, %o1
4000635c:	94 10 00 12 	mov  %l2, %o2
40006360:	b8 10 00 08 	mov  %o0, %i4
40006364:	40 00 0b 56 	call  400090bc <__mdiff>
40006368:	90 10 00 18 	mov  %i0, %o0
4000636c:	ae 05 60 30 	add  %l5, 0x30, %l7
40006370:	c4 02 20 0c 	ld  [ %o0 + 0xc ], %g2
40006374:	a6 10 00 08 	mov  %o0, %l3
40006378:	80 a0 a0 00 	cmp  %g2, 0
4000637c:	12 80 01 3a 	bne  40006864 <_dtoa_r+0xea8>
40006380:	92 10 00 08 	mov  %o0, %o1
40006384:	40 00 0b 34 	call  40009054 <__mcmp>
40006388:	90 10 00 1a 	mov  %i2, %o0
4000638c:	92 10 00 13 	mov  %l3, %o1
40006390:	d0 27 bf e8 	st  %o0, [ %fp + -24 ]
40006394:	40 00 08 9d 	call  40008608 <_Bfree>
40006398:	90 10 00 18 	mov  %i0, %o0
4000639c:	c4 07 bf e8 	ld  [ %fp + -24 ], %g2
400063a0:	c2 07 bf f0 	ld  [ %fp + -16 ], %g1
400063a4:	86 10 80 1b 	or  %g2, %i3, %g3
400063a8:	80 90 40 03 	orcc  %g1, %g3, %g0
400063ac:	02 80 02 09 	be  40006bd0 <_dtoa_r+0x1214>
400063b0:	80 a5 e0 39 	cmp  %l7, 0x39
400063b4:	80 a7 20 00 	cmp  %i4, 0
400063b8:	06 80 01 b5 	bl  40006a8c <_dtoa_r+0x10d0>
400063bc:	a6 05 a0 01 	add  %l6, 1, %l3
400063c0:	b8 17 00 1b 	or  %i4, %i3, %i4
400063c4:	c2 07 bf f0 	ld  [ %fp + -16 ], %g1
400063c8:	80 90 40 1c 	orcc  %g1, %i4, %g0
400063cc:	02 80 01 b0 	be  40006a8c <_dtoa_r+0x10d0>
400063d0:	80 a0 a0 00 	cmp  %g2, 0
400063d4:	14 80 01 ef 	bg  40006b90 <_dtoa_r+0x11d4>
400063d8:	80 a5 e0 39 	cmp  %l7, 0x39
400063dc:	ee 2d 80 00 	stb  %l7, [ %l6 ]
400063e0:	c2 07 bf e0 	ld  [ %fp + -32 ], %g1
400063e4:	80 a0 40 16 	cmp  %g1, %l6
400063e8:	02 80 01 f0 	be  40006ba8 <_dtoa_r+0x11ec>
400063ec:	92 10 00 1a 	mov  %i2, %o1
400063f0:	96 10 20 00 	clr  %o3
400063f4:	94 10 20 0a 	mov  0xa, %o2
400063f8:	40 00 08 9c 	call  40008668 <__multadd>
400063fc:	90 10 00 18 	mov  %i0, %o0
40006400:	92 10 00 19 	mov  %i1, %o1
40006404:	b4 10 00 08 	mov  %o0, %i2
40006408:	96 10 20 00 	clr  %o3
4000640c:	94 10 20 0a 	mov  0xa, %o2
40006410:	80 a6 40 12 	cmp  %i1, %l2
40006414:	02 80 01 1a 	be  4000687c <_dtoa_r+0xec0>
40006418:	90 10 00 18 	mov  %i0, %o0
4000641c:	40 00 08 93 	call  40008668 <__multadd>
40006420:	ac 10 00 13 	mov  %l3, %l6
40006424:	92 10 00 12 	mov  %l2, %o1
40006428:	b2 10 00 08 	mov  %o0, %i1
4000642c:	96 10 20 00 	clr  %o3
40006430:	94 10 20 0a 	mov  0xa, %o2
40006434:	40 00 08 8d 	call  40008668 <__multadd>
40006438:	90 10 00 18 	mov  %i0, %o0
4000643c:	10 bf ff c0 	b  4000633c <_dtoa_r+0x980>
40006440:	a4 10 00 08 	mov  %o0, %l2
40006444:	02 80 00 de 	be  400067bc <_dtoa_r+0xe00>
40006448:	91 a0 00 2a 	fmovs  %f10, %f8
4000644c:	9e 20 00 14 	neg  %l4, %o7
40006450:	05 10 00 3b 	sethi  %hi(0x4000ec00), %g2
40006454:	82 0b e0 0f 	and  %o7, 0xf, %g1
40006458:	84 10 a2 c0 	or  %g2, 0x2c0, %g2
4000645c:	83 28 60 03 	sll  %g1, 3, %g1
40006460:	9f 3b e0 04 	sra  %o7, 4, %o7
40006464:	dd 18 80 01 	ldd  [ %g2 + %g1 ], %f14
40006468:	80 a3 e0 00 	cmp  %o7, 0
4000646c:	9d a2 89 4e 	fmuld  %f10, %f14, %f14
40006470:	91 a0 00 2e 	fmovs  %f14, %f8
40006474:	02 80 01 f0 	be  40006c34 <_dtoa_r+0x1278>
40006478:	93 a0 00 2f 	fmovs  %f15, %f9
4000647c:	03 10 00 3b 	sethi  %hi(0x4000ec00), %g1
40006480:	86 10 20 00 	clr  %g3
40006484:	82 10 62 98 	or  %g1, 0x298, %g1
40006488:	84 10 20 02 	mov  2, %g2
4000648c:	80 8b e0 01 	btst  1, %o7
40006490:	02 80 00 06 	be  400064a8 <_dtoa_r+0xaec>
40006494:	9f 3b e0 01 	sra  %o7, 1, %o7
40006498:	d9 18 40 00 	ldd  [ %g1 ], %f12
4000649c:	84 00 a0 01 	inc  %g2
400064a0:	91 a2 09 4c 	fmuld  %f8, %f12, %f8
400064a4:	86 10 00 12 	mov  %l2, %g3
400064a8:	80 a3 e0 00 	cmp  %o7, 0
400064ac:	12 bf ff f8 	bne  4000648c <_dtoa_r+0xad0>
400064b0:	82 00 60 08 	add  %g1, 8, %g1
400064b4:	80 88 e0 ff 	btst  0xff, %g3
400064b8:	12 bf fe 20 	bne  40005d38 <_dtoa_r+0x37c>
400064bc:	c2 07 bf d8 	ld  [ %fp + -40 ], %g1
400064c0:	91 a0 00 2e 	fmovs  %f14, %f8
400064c4:	10 bf fe 1d 	b  40005d38 <_dtoa_r+0x37c>
400064c8:	93 a0 00 2f 	fmovs  %f15, %f9
400064cc:	05 10 00 3b 	sethi  %hi(0x4000ec00), %g2
400064d0:	80 a7 20 00 	cmp  %i4, 0
400064d4:	84 10 a2 c0 	or  %g2, 0x2c0, %g2
400064d8:	16 80 01 28 	bge  40006978 <_dtoa_r+0xfbc>
400064dc:	dd 18 80 01 	ldd  [ %g2 + %g1 ], %f14
400064e0:	80 a5 60 00 	cmp  %l5, 0
400064e4:	34 80 01 26 	bg,a   4000697c <_dtoa_r+0xfc0>
400064e8:	99 a2 89 ce 	fdivd  %f10, %f14, %f12
400064ec:	12 80 00 c8 	bne  4000680c <_dtoa_r+0xe50>
400064f0:	03 10 00 3b 	sethi  %hi(0x4000ec00), %g1
400064f4:	a0 10 20 00 	clr  %l0
400064f8:	d1 18 61 f8 	ldd  [ %g1 + 0x1f8 ], %f8
400064fc:	9d a3 89 48 	fmuld  %f14, %f8, %f14
40006500:	81 aa 8a ce 	fcmped  %f10, %f14
40006504:	01 00 00 00 	nop 
40006508:	1b bf ff 1b 	fble  40006174 <_dtoa_r+0x7b8>
4000650c:	b2 10 20 00 	clr  %i1	! 0 <__bcc_cfg_skip_clear_bss>
40006510:	10 80 00 a6 	b  400067a8 <_dtoa_r+0xdec>
40006514:	b6 10 00 11 	mov  %l1, %i3
40006518:	92 10 00 08 	mov  %o0, %o1
4000651c:	94 10 00 16 	mov  %l6, %o2
40006520:	40 00 09 f9 	call  40008d04 <__pow5mult>
40006524:	90 10 00 18 	mov  %i0, %o0
40006528:	c0 27 bf e0 	clr  [ %fp + -32 ]
4000652c:	80 a6 e0 01 	cmp  %i3, 1
40006530:	04 80 00 a6 	ble  400067c8 <_dtoa_r+0xe0c>
40006534:	a0 10 00 08 	mov  %o0, %l0
40006538:	c2 04 20 10 	ld  [ %l0 + 0x10 ], %g1
4000653c:	82 00 60 03 	add  %g1, 3, %g1
40006540:	83 28 60 02 	sll  %g1, 2, %g1
40006544:	82 04 00 01 	add  %l0, %g1, %g1
40006548:	40 00 08 c4 	call  40008858 <__hi0bits>
4000654c:	d0 00 60 04 	ld  [ %g1 + 4 ], %o0
40006550:	82 10 20 20 	mov  0x20, %g1
40006554:	10 bf fe db 	b  400060c0 <_dtoa_r+0x704>
40006558:	82 20 40 08 	sub  %g1, %o0, %g1
4000655c:	82 10 20 01 	mov  1, %g1
40006560:	10 bf ff 33 	b  4000622c <_dtoa_r+0x870>
40006564:	c2 27 bf f0 	st  %g1, [ %fp + -16 ]
40006568:	40 00 0a bb 	call  40009054 <__mcmp>
4000656c:	90 10 00 1a 	mov  %i2, %o0
40006570:	80 a2 20 00 	cmp  %o0, 0
40006574:	16 bf fe f9 	bge  40006158 <_dtoa_r+0x79c>
40006578:	80 a5 60 00 	cmp  %l5, 0
4000657c:	92 10 00 1a 	mov  %i2, %o1
40006580:	96 10 20 00 	clr  %o3
40006584:	94 10 20 0a 	mov  0xa, %o2
40006588:	40 00 08 38 	call  40008668 <__multadd>
4000658c:	90 10 00 18 	mov  %i0, %o0
40006590:	c4 07 bf d4 	ld  [ %fp + -44 ], %g2
40006594:	ae 05 3f ff 	add  %l4, -1, %l7
40006598:	82 00 bf ff 	add  %g2, -1, %g1
4000659c:	b4 10 00 08 	mov  %o0, %i2
400065a0:	82 10 80 01 	or  %g2, %g1, %g1
400065a4:	c4 07 bf f0 	ld  [ %fp + -16 ], %g2
400065a8:	83 30 60 1f 	srl  %g1, 0x1f, %g1
400065ac:	80 a0 a0 00 	cmp  %g2, 0
400065b0:	12 80 01 8f 	bne  40006bec <_dtoa_r+0x1230>
400065b4:	aa 08 40 13 	and  %g1, %l3, %l5
400065b8:	80 a5 60 00 	cmp  %l5, 0
400065bc:	32 80 01 80 	bne,a   40006bbc <_dtoa_r+0x1200>
400065c0:	a8 10 00 17 	mov  %l7, %l4
400065c4:	ea 07 bf d4 	ld  [ %fp + -44 ], %l5
400065c8:	b8 10 20 01 	mov  1, %i4
400065cc:	10 80 00 09 	b  400065f0 <_dtoa_r+0xc34>
400065d0:	b6 04 7f ff 	add  %l1, -1, %i3
400065d4:	92 10 00 1a 	mov  %i2, %o1
400065d8:	96 10 20 00 	clr  %o3
400065dc:	94 10 20 0a 	mov  0xa, %o2
400065e0:	90 10 00 18 	mov  %i0, %o0
400065e4:	40 00 08 21 	call  40008668 <__multadd>
400065e8:	b8 07 20 01 	inc  %i4
400065ec:	b4 10 00 08 	mov  %o0, %i2
400065f0:	92 10 00 10 	mov  %l0, %o1
400065f4:	7f ff fc 70 	call  400057b4 <quorem>
400065f8:	90 10 00 1a 	mov  %i2, %o0
400065fc:	ae 02 20 30 	add  %o0, 0x30, %l7
40006600:	80 a7 00 15 	cmp  %i4, %l5
40006604:	06 bf ff f4 	bl  400065d4 <_dtoa_r+0xc18>
40006608:	ee 2e c0 1c 	stb  %l7, [ %i3 + %i4 ]
4000660c:	80 a5 60 00 	cmp  %l5, 0
40006610:	04 80 00 03 	ble  4000661c <_dtoa_r+0xc60>
40006614:	b8 10 20 01 	mov  1, %i4
40006618:	b8 10 00 15 	mov  %l5, %i4
4000661c:	b8 04 40 1c 	add  %l1, %i4, %i4
40006620:	b6 10 20 00 	clr  %i3
40006624:	92 10 00 1a 	mov  %i2, %o1
40006628:	94 10 20 01 	mov  1, %o2
4000662c:	40 00 0a 19 	call  40008e90 <__lshift>
40006630:	90 10 00 18 	mov  %i0, %o0
40006634:	92 10 00 10 	mov  %l0, %o1
40006638:	40 00 0a 87 	call  40009054 <__mcmp>
4000663c:	b4 10 00 08 	mov  %o0, %i2
40006640:	80 a2 20 00 	cmp  %o0, 0
40006644:	14 80 00 07 	bg  40006660 <_dtoa_r+0xca4>
40006648:	a6 10 00 1c 	mov  %i4, %l3
4000664c:	30 80 00 f6 	b,a   40006a24 <_dtoa_r+0x1068>
40006650:	80 a7 00 11 	cmp  %i4, %l1
40006654:	02 80 01 01 	be  40006a58 <_dtoa_r+0x109c>
40006658:	82 10 20 31 	mov  0x31, %g1
4000665c:	a6 10 00 1c 	mov  %i4, %l3
40006660:	b8 07 3f ff 	add  %i4, -1, %i4
40006664:	c2 4c ff ff 	ldsb  [ %l3 + -1 ], %g1
40006668:	80 a0 60 39 	cmp  %g1, 0x39
4000666c:	02 bf ff f9 	be  40006650 <_dtoa_r+0xc94>
40006670:	c4 0c ff ff 	ldub  [ %l3 + -1 ], %g2
40006674:	84 00 a0 01 	inc  %g2
40006678:	c4 2f 00 00 	stb  %g2, [ %i4 ]
4000667c:	92 10 00 10 	mov  %l0, %o1
40006680:	40 00 07 e2 	call  40008608 <_Bfree>
40006684:	90 10 00 18 	mov  %i0, %o0
40006688:	80 a6 60 00 	cmp  %i1, 0
4000668c:	02 80 00 e3 	be  40006a18 <_dtoa_r+0x105c>
40006690:	80 a6 e0 00 	cmp  %i3, 0
40006694:	02 80 01 70 	be  40006c54 <_dtoa_r+0x1298>
40006698:	80 a6 c0 19 	cmp  %i3, %i1
4000669c:	02 80 01 6e 	be  40006c54 <_dtoa_r+0x1298>
400066a0:	92 10 00 1b 	mov  %i3, %o1
400066a4:	90 10 00 18 	mov  %i0, %o0
400066a8:	40 00 07 d8 	call  40008608 <_Bfree>
400066ac:	b6 10 00 11 	mov  %l1, %i3
400066b0:	10 bf fe b9 	b  40006194 <_dtoa_r+0x7d8>
400066b4:	a2 10 00 13 	mov  %l3, %l1
400066b8:	91 a0 00 2a 	fmovs  %f10, %f8
400066bc:	93 a0 00 2b 	fmovs  %f11, %f9
400066c0:	10 bf fd 8e 	b  40005cf8 <_dtoa_r+0x33c>
400066c4:	84 10 20 02 	mov  2, %g2
400066c8:	aa 10 20 01 	mov  1, %l5
400066cc:	10 bf fe d1 	b  40006210 <_dtoa_r+0x854>
400066d0:	b8 10 20 01 	mov  1, %i4
400066d4:	07 10 00 3b 	sethi  %hi(0x4000ec00), %g3
400066d8:	a1 a3 09 50 	fmuld  %f12, %f16, %f16
400066dc:	84 04 40 09 	add  %l1, %o1, %g2
400066e0:	80 a2 60 01 	cmp  %o1, 1
400066e4:	02 80 01 4c 	be  40006c14 <_dtoa_r+0x1258>
400066e8:	dd 18 e1 e8 	ldd  [ %g3 + 0x1e8 ], %f14
400066ec:	91 a2 09 4e 	fmuld  %f8, %f14, %f8
400066f0:	96 02 e0 01 	inc  %o3
400066f4:	99 a0 1a 48 	fdtoi  %f8, %f12
400066f8:	d9 27 bf e0 	st  %f12, [ %fp + -32 ]
400066fc:	c2 07 bf e0 	ld  [ %fp + -32 ], %g1
40006700:	82 00 60 30 	add  %g1, 0x30, %g1
40006704:	c2 2a ff ff 	stb  %g1, [ %o3 + -1 ]
40006708:	99 a0 19 0c 	fitod  %f12, %f12
4000670c:	80 a2 c0 02 	cmp  %o3, %g2
40006710:	12 bf ff f7 	bne  400066ec <_dtoa_r+0xd30>
40006714:	91 a2 08 cc 	fsubd  %f8, %f12, %f8
40006718:	07 10 00 3b 	sethi  %hi(0x4000ec00), %g3
4000671c:	d9 18 e1 78 	ldd  [ %g3 + 0x178 ], %f12	! 4000ed78 <_global_impure_ptr+0x84>
40006720:	9d a4 08 4c 	faddd  %f16, %f12, %f14
40006724:	81 ab 8a c8 	fcmped  %f14, %f8
40006728:	01 00 00 00 	nop 
4000672c:	29 80 00 f6 	fbl,a   40006b04 <_dtoa_r+0x1148>
40006730:	b6 10 00 11 	mov  %l1, %i3
40006734:	99 a3 08 d0 	fsubd  %f12, %f16, %f12
40006738:	81 ab 0a c8 	fcmped  %f12, %f8
4000673c:	01 00 00 00 	nop 
40006740:	1d bf fe 1a 	fbule  40005fa8 <_dtoa_r+0x5ec>
40006744:	01 00 00 00 	nop 
40006748:	86 10 00 02 	mov  %g2, %g3
4000674c:	84 00 bf ff 	add  %g2, -1, %g2
40006750:	c2 48 80 00 	ldsb  [ %g2 ], %g1
40006754:	80 a0 60 30 	cmp  %g1, 0x30
40006758:	22 bf ff fd 	be,a   4000674c <_dtoa_r+0xd90>
4000675c:	86 10 00 02 	mov  %g2, %g3
40006760:	b6 10 00 11 	mov  %l1, %i3
40006764:	a8 03 e0 01 	add  %o7, 1, %l4
40006768:	10 bf fe 8e 	b  400061a0 <_dtoa_r+0x7e4>
4000676c:	a2 10 00 03 	mov  %g3, %l1
40006770:	10 bf fe 3a 	b  40006058 <_dtoa_r+0x69c>
40006774:	82 10 00 17 	mov  %l7, %g1
40006778:	96 10 20 00 	clr  %o3
4000677c:	94 10 20 05 	mov  5, %o2
40006780:	40 00 07 ba 	call  40008668 <__multadd>
40006784:	90 10 00 18 	mov  %i0, %o0
40006788:	a0 10 00 08 	mov  %o0, %l0
4000678c:	90 10 00 1a 	mov  %i2, %o0
40006790:	40 00 0a 31 	call  40009054 <__mcmp>
40006794:	92 10 00 10 	mov  %l0, %o1
40006798:	80 a2 20 00 	cmp  %o0, 0
4000679c:	24 bf fe 77 	ble,a   40006178 <_dtoa_r+0x7bc>
400067a0:	a8 38 00 1c 	xnor  %g0, %i4, %l4
400067a4:	b6 10 00 11 	mov  %l1, %i3
400067a8:	82 10 20 31 	mov  0x31, %g1
400067ac:	a8 05 20 01 	inc  %l4
400067b0:	c2 2c 40 00 	stb  %g1, [ %l1 ]
400067b4:	10 bf fe 72 	b  4000617c <_dtoa_r+0x7c0>
400067b8:	a2 04 60 01 	inc  %l1
400067bc:	93 a0 00 2b 	fmovs  %f11, %f9
400067c0:	10 bf fd 5d 	b  40005d34 <_dtoa_r+0x378>
400067c4:	84 10 20 02 	mov  2, %g2
400067c8:	c2 07 bf ec 	ld  [ %fp + -20 ], %g1
400067cc:	80 a0 60 00 	cmp  %g1, 0
400067d0:	32 bf ff 5b 	bne,a   4000653c <_dtoa_r+0xb80>
400067d4:	c2 04 20 10 	ld  [ %l0 + 0x10 ], %g1
400067d8:	c2 07 bf e8 	ld  [ %fp + -24 ], %g1
400067dc:	05 3f fc 00 	sethi  %hi(0xfff00000), %g2
400067e0:	80 a8 40 02 	andncc  %g1, %g2, %g0
400067e4:	12 bf ff 55 	bne  40006538 <_dtoa_r+0xb7c>
400067e8:	05 1f fc 00 	sethi  %hi(0x7ff00000), %g2
400067ec:	80 88 40 02 	btst  %g1, %g2
400067f0:	02 bf fe 31 	be  400060b4 <_dtoa_r+0x6f8>
400067f4:	c0 27 bf e0 	clr  [ %fp + -32 ]
400067f8:	82 10 20 01 	mov  1, %g1
400067fc:	a6 04 e0 01 	inc  %l3
40006800:	ae 05 e0 01 	inc  %l7
40006804:	10 bf fe 2c 	b  400060b4 <_dtoa_r+0x6f8>
40006808:	c2 27 bf e0 	st  %g1, [ %fp + -32 ]
4000680c:	a0 10 20 00 	clr  %l0
40006810:	10 bf fe 59 	b  40006174 <_dtoa_r+0x7b8>
40006814:	b2 10 20 00 	clr  %i1
40006818:	c4 27 bf e0 	st  %g2, [ %fp + -32 ]
4000681c:	92 10 00 19 	mov  %i1, %o1
40006820:	40 00 09 39 	call  40008d04 <__pow5mult>
40006824:	90 10 00 18 	mov  %i0, %o0
40006828:	94 10 00 1a 	mov  %i2, %o2
4000682c:	b2 10 00 08 	mov  %o0, %i1
40006830:	90 10 00 18 	mov  %i0, %o0
40006834:	40 00 08 9c 	call  40008aa4 <__multiply>
40006838:	92 10 00 19 	mov  %i1, %o1
4000683c:	92 10 00 1a 	mov  %i2, %o1
40006840:	b4 10 00 08 	mov  %o0, %i2
40006844:	40 00 07 71 	call  40008608 <_Bfree>
40006848:	90 10 00 18 	mov  %i0, %o0
4000684c:	10 bf fe 0e 	b  40006084 <_dtoa_r+0x6c8>
40006850:	c4 07 bf e0 	ld  [ %fp + -32 ], %g2
40006854:	40 00 09 2c 	call  40008d04 <__pow5mult>
40006858:	90 10 00 18 	mov  %i0, %o0
4000685c:	10 bf fe 0d 	b  40006090 <_dtoa_r+0x6d4>
40006860:	b4 10 00 08 	mov  %o0, %i2
40006864:	84 10 20 01 	mov  1, %g2
40006868:	90 10 00 18 	mov  %i0, %o0
4000686c:	40 00 07 67 	call  40008608 <_Bfree>
40006870:	c4 27 bf e8 	st  %g2, [ %fp + -24 ]
40006874:	10 bf fe d0 	b  400063b4 <_dtoa_r+0x9f8>
40006878:	c4 07 bf e8 	ld  [ %fp + -24 ], %g2
4000687c:	40 00 07 7b 	call  40008668 <__multadd>
40006880:	ac 10 00 13 	mov  %l3, %l6
40006884:	b2 10 00 08 	mov  %o0, %i1
40006888:	10 bf fe ad 	b  4000633c <_dtoa_r+0x980>
4000688c:	a4 10 00 08 	mov  %o0, %l2
40006890:	82 10 20 01 	mov  1, %g1
40006894:	10 bf fc ed 	b  40005c48 <_dtoa_r+0x28c>
40006898:	c2 27 bf f0 	st  %g1, [ %fp + -16 ]
4000689c:	c2 07 bf ec 	ld  [ %fp + -20 ], %g1
400068a0:	80 a0 60 00 	cmp  %g1, 0
400068a4:	12 bf fe 05 	bne  400060b8 <_dtoa_r+0x6fc>
400068a8:	80 a5 a0 00 	cmp  %l6, 0
400068ac:	c2 07 bf e8 	ld  [ %fp + -24 ], %g1
400068b0:	05 3f fc 00 	sethi  %hi(0xfff00000), %g2
400068b4:	80 a8 40 02 	andncc  %g1, %g2, %g0
400068b8:	12 bf fe 00 	bne  400060b8 <_dtoa_r+0x6fc>
400068bc:	80 a5 a0 00 	cmp  %l6, 0
400068c0:	10 bf ff cb 	b  400067ec <_dtoa_r+0xe30>
400068c4:	05 1f fc 00 	sethi  %hi(0x7ff00000), %g2
400068c8:	22 bf fd a0 	be,a   40005f48 <_dtoa_r+0x58c>
400068cc:	c4 27 bf e0 	st  %g2, [ %fp + -32 ]
400068d0:	d2 07 bf d4 	ld  [ %fp + -44 ], %o1
400068d4:	80 a2 60 00 	cmp  %o1, 0
400068d8:	04 bf fd b4 	ble  40005fa8 <_dtoa_r+0x5ec>
400068dc:	82 00 a0 01 	add  %g2, 1, %g1
400068e0:	c2 27 bf e0 	st  %g1, [ %fp + -32 ]
400068e4:	03 10 00 3b 	sethi  %hi(0x4000ec00), %g1
400068e8:	dd 18 61 e8 	ldd  [ %g1 + 0x1e8 ], %f14	! 4000ede8 <blanks.1+0x58>
400068ec:	03 10 00 3b 	sethi  %hi(0x4000ec00), %g1
400068f0:	d9 07 bf e0 	ld  [ %fp + -32 ], %f12
400068f4:	91 a2 09 4e 	fmuld  %f8, %f14, %f8
400068f8:	99 a0 19 0c 	fitod  %f12, %f12
400068fc:	dd 18 61 f0 	ldd  [ %g1 + 0x1f0 ], %f14
40006900:	99 a3 09 48 	fmuld  %f12, %f8, %f12
40006904:	03 3f 30 00 	sethi  %hi(0xfcc00000), %g1
40006908:	99 a3 08 4e 	faddd  %f12, %f14, %f12
4000690c:	9e 05 3f ff 	add  %l4, -1, %o7
40006910:	d9 3f bf e0 	std  %f12, [ %fp + -32 ]
40006914:	d4 1f bf e0 	ldd  [ %fp + -32 ], %o2
40006918:	86 10 00 0b 	mov  %o3, %g3
4000691c:	10 bf fd 20 	b  40005d9c <_dtoa_r+0x3e0>
40006920:	84 02 80 01 	add  %o2, %g1, %g2
40006924:	22 80 00 53 	be,a   40006a70 <_dtoa_r+0x10b4>
40006928:	c4 07 bf f8 	ld  [ %fp + -8 ], %g2
4000692c:	82 00 64 33 	add  %g1, 0x433, %g1
40006930:	a4 10 00 13 	mov  %l3, %l2
40006934:	ae 05 c0 01 	add  %l7, %g1, %l7
40006938:	84 10 00 10 	mov  %l0, %g2
4000693c:	10 bf fd ba 	b  40006024 <_dtoa_r+0x668>
40006940:	a6 04 c0 01 	add  %l3, %g1, %l3
40006944:	92 10 00 1a 	mov  %i2, %o1
40006948:	94 10 00 10 	mov  %l0, %o2
4000694c:	40 00 08 ee 	call  40008d04 <__pow5mult>
40006950:	90 10 00 18 	mov  %i0, %o0
40006954:	10 bf fd cf 	b  40006090 <_dtoa_r+0x6d4>
40006958:	b4 10 00 08 	mov  %o0, %i2
4000695c:	a0 10 20 00 	clr  %l0
40006960:	10 bf ff 91 	b  400067a4 <_dtoa_r+0xde8>
40006964:	b2 10 20 00 	clr  %i1
40006968:	05 10 00 3b 	sethi  %hi(0x4000ec00), %g2
4000696c:	aa 10 3f ff 	mov  -1, %l5
40006970:	84 10 a2 c0 	or  %g2, 0x2c0, %g2
40006974:	dd 18 80 01 	ldd  [ %g2 + %g1 ], %f14
40006978:	99 a2 89 ce 	fdivd  %f10, %f14, %f12
4000697c:	99 a0 1a 4c 	fdtoi  %f12, %f12
40006980:	d9 27 bf f0 	st  %f12, [ %fp + -16 ]
40006984:	c2 07 bf f0 	ld  [ %fp + -16 ], %g1
40006988:	82 00 60 30 	add  %g1, 0x30, %g1
4000698c:	c2 2c 40 00 	stb  %g1, [ %l1 ]
40006990:	91 a0 19 0c 	fitod  %f12, %f8
40006994:	84 04 60 01 	add  %l1, 1, %g2
40006998:	91 a2 09 4e 	fmuld  %f8, %f14, %f8
4000699c:	86 10 20 01 	mov  1, %g3
400069a0:	80 a5 60 01 	cmp  %l5, 1
400069a4:	02 80 00 6b 	be  40006b50 <_dtoa_r+0x1194>
400069a8:	95 a2 88 c8 	fsubd  %f10, %f8, %f10
400069ac:	03 10 00 3b 	sethi  %hi(0x4000ec00), %g1
400069b0:	c0 27 bf f0 	clr  [ %fp + -16 ]
400069b4:	c0 27 bf f4 	clr  [ %fp + -12 ]
400069b8:	e5 18 61 e8 	ldd  [ %g1 + 0x1e8 ], %f18
400069bc:	10 80 00 0e 	b  400069f4 <_dtoa_r+0x1038>
400069c0:	e1 1f bf f0 	ldd  [ %fp + -16 ], %f16
400069c4:	84 00 a0 01 	inc  %g2
400069c8:	99 a0 1a 4c 	fdtoi  %f12, %f12
400069cc:	d9 27 bf f0 	st  %f12, [ %fp + -16 ]
400069d0:	c2 07 bf f0 	ld  [ %fp + -16 ], %g1
400069d4:	82 00 60 30 	add  %g1, 0x30, %g1
400069d8:	c2 28 bf ff 	stb  %g1, [ %g2 + -1 ]
400069dc:	86 00 e0 01 	inc  %g3
400069e0:	91 a0 19 0c 	fitod  %f12, %f8
400069e4:	80 a0 c0 15 	cmp  %g3, %l5
400069e8:	91 a2 09 4e 	fmuld  %f8, %f14, %f8
400069ec:	02 80 00 59 	be  40006b50 <_dtoa_r+0x1194>
400069f0:	95 a2 88 c8 	fsubd  %f10, %f8, %f10
400069f4:	95 a2 89 52 	fmuld  %f10, %f18, %f10
400069f8:	81 aa 8a 50 	fcmpd  %f10, %f16
400069fc:	01 00 00 00 	nop 
40006a00:	23 bf ff f1 	fbne,a   400069c4 <_dtoa_r+0x1008>
40006a04:	99 a2 89 ce 	fdivd  %f10, %f14, %f12
40006a08:	b6 10 00 11 	mov  %l1, %i3
40006a0c:	a8 05 20 01 	inc  %l4
40006a10:	10 bf fd e4 	b  400061a0 <_dtoa_r+0x7e4>
40006a14:	a2 10 00 02 	mov  %g2, %l1
40006a18:	b6 10 00 11 	mov  %l1, %i3
40006a1c:	10 bf fd e1 	b  400061a0 <_dtoa_r+0x7e4>
40006a20:	a2 10 00 13 	mov  %l3, %l1
40006a24:	12 80 00 06 	bne  40006a3c <_dtoa_r+0x1080>
40006a28:	a6 10 00 1c 	mov  %i4, %l3
40006a2c:	80 8d e0 01 	btst  1, %l7
40006a30:	32 bf ff 0d 	bne,a   40006664 <_dtoa_r+0xca8>
40006a34:	b8 07 3f ff 	add  %i4, -1, %i4
40006a38:	a6 10 00 1c 	mov  %i4, %l3
40006a3c:	b8 07 3f ff 	add  %i4, -1, %i4
40006a40:	c2 4f 00 00 	ldsb  [ %i4 ], %g1
40006a44:	80 a0 60 30 	cmp  %g1, 0x30
40006a48:	22 bf ff fd 	be,a   40006a3c <_dtoa_r+0x1080>
40006a4c:	a6 10 00 1c 	mov  %i4, %l3
40006a50:	10 bf ff 0c 	b  40006680 <_dtoa_r+0xcc4>
40006a54:	92 10 00 10 	mov  %l0, %o1
40006a58:	a8 05 20 01 	inc  %l4
40006a5c:	10 bf ff 08 	b  4000667c <_dtoa_r+0xcc0>
40006a60:	c2 2c 40 00 	stb  %g1, [ %l1 ]
40006a64:	a8 05 20 01 	inc  %l4
40006a68:	10 bf fd ce 	b  400061a0 <_dtoa_r+0x7e4>
40006a6c:	c2 28 c0 00 	stb  %g1, [ %g3 ]
40006a70:	a4 10 00 13 	mov  %l3, %l2
40006a74:	82 10 20 36 	mov  0x36, %g1
40006a78:	82 20 40 02 	sub  %g1, %g2, %g1
40006a7c:	84 10 00 10 	mov  %l0, %g2
40006a80:	ae 05 c0 01 	add  %l7, %g1, %l7
40006a84:	10 bf fd 68 	b  40006024 <_dtoa_r+0x668>
40006a88:	a6 04 c0 01 	add  %l3, %g1, %l3
40006a8c:	80 a0 a0 00 	cmp  %g2, 0
40006a90:	04 80 00 0f 	ble  40006acc <_dtoa_r+0x1110>
40006a94:	92 10 00 1a 	mov  %i2, %o1
40006a98:	94 10 20 01 	mov  1, %o2
40006a9c:	40 00 08 fd 	call  40008e90 <__lshift>
40006aa0:	90 10 00 18 	mov  %i0, %o0
40006aa4:	92 10 00 10 	mov  %l0, %o1
40006aa8:	40 00 09 6b 	call  40009054 <__mcmp>
40006aac:	b4 10 00 08 	mov  %o0, %i2
40006ab0:	80 a2 20 00 	cmp  %o0, 0
40006ab4:	04 80 00 5a 	ble  40006c1c <_dtoa_r+0x1260>
40006ab8:	01 00 00 00 	nop 
40006abc:	80 a5 e0 39 	cmp  %l7, 0x39
40006ac0:	22 80 00 08 	be,a   40006ae0 <_dtoa_r+0x1124>
40006ac4:	b6 10 00 19 	mov  %i1, %i3
40006ac8:	ae 05 60 31 	add  %l5, 0x31, %l7
40006acc:	b6 10 00 19 	mov  %i1, %i3
40006ad0:	ee 2d 80 00 	stb  %l7, [ %l6 ]
40006ad4:	10 bf fe ea 	b  4000667c <_dtoa_r+0xcc0>
40006ad8:	b2 10 00 12 	mov  %l2, %i1
40006adc:	b6 10 00 19 	mov  %i1, %i3
40006ae0:	82 10 20 39 	mov  0x39, %g1
40006ae4:	b8 10 00 13 	mov  %l3, %i4
40006ae8:	c2 2d 80 00 	stb  %g1, [ %l6 ]
40006aec:	10 bf fe dc 	b  4000665c <_dtoa_r+0xca0>
40006af0:	b2 10 00 12 	mov  %l2, %i1
40006af4:	b6 10 00 11 	mov  %l1, %i3
40006af8:	a8 03 e0 01 	add  %o7, 1, %l4
40006afc:	10 bf fd a9 	b  400061a0 <_dtoa_r+0x7e4>
40006b00:	a2 10 00 0b 	mov  %o3, %l1
40006b04:	a8 03 e0 01 	add  %o7, 1, %l4
40006b08:	10 bf fc e3 	b  40005e94 <_dtoa_r+0x4d8>
40006b0c:	a2 10 00 02 	mov  %g2, %l1
40006b10:	d2 06 60 04 	ld  [ %i1 + 4 ], %o1
40006b14:	40 00 06 89 	call  40008538 <_Balloc>
40006b18:	90 10 00 18 	mov  %i0, %o0
40006b1c:	d4 06 60 10 	ld  [ %i1 + 0x10 ], %o2
40006b20:	b8 10 00 08 	mov  %o0, %i4
40006b24:	92 06 60 0c 	add  %i1, 0xc, %o1
40006b28:	94 02 a0 02 	add  %o2, 2, %o2
40006b2c:	90 02 20 0c 	add  %o0, 0xc, %o0
40006b30:	7f ff ed c2 	call  40002238 <memcpy>
40006b34:	95 2a a0 02 	sll  %o2, 2, %o2
40006b38:	94 10 20 01 	mov  1, %o2
40006b3c:	92 10 00 1c 	mov  %i4, %o1
40006b40:	40 00 08 d4 	call  40008e90 <__lshift>
40006b44:	90 10 00 18 	mov  %i0, %o0
40006b48:	10 bf fd f6 	b  40006320 <_dtoa_r+0x964>
40006b4c:	a4 10 00 08 	mov  %o0, %l2
40006b50:	95 a2 88 4a 	faddd  %f10, %f10, %f10
40006b54:	81 aa 8a ce 	fcmped  %f10, %f14
40006b58:	01 00 00 00 	nop 
40006b5c:	0d 80 00 1a 	fbg  40006bc4 <_dtoa_r+0x1208>
40006b60:	a8 05 20 01 	inc  %l4
40006b64:	81 aa 8a 4e 	fcmpd  %f10, %f14
40006b68:	01 00 00 00 	nop 
40006b6c:	03 80 00 34 	fbne  40006c3c <_dtoa_r+0x1280>
40006b70:	b6 10 00 11 	mov  %l1, %i3
40006b74:	d9 27 bf f0 	st  %f12, [ %fp + -16 ]
40006b78:	c6 07 bf f0 	ld  [ %fp + -16 ], %g3
40006b7c:	80 88 e0 01 	btst  1, %g3
40006b80:	12 bf fc c5 	bne  40005e94 <_dtoa_r+0x4d8>
40006b84:	a2 10 00 02 	mov  %g2, %l1
40006b88:	10 bf fd 87 	b  400061a4 <_dtoa_r+0x7e8>
40006b8c:	92 10 00 1a 	mov  %i2, %o1
40006b90:	02 bf ff d3 	be  40006adc <_dtoa_r+0x1120>
40006b94:	82 05 e0 01 	add  %l7, 1, %g1
40006b98:	b6 10 00 19 	mov  %i1, %i3
40006b9c:	c2 2d 80 00 	stb  %g1, [ %l6 ]
40006ba0:	10 bf fe b7 	b  4000667c <_dtoa_r+0xcc0>
40006ba4:	b2 10 00 12 	mov  %l2, %i1
40006ba8:	b6 10 00 19 	mov  %i1, %i3
40006bac:	b8 10 00 13 	mov  %l3, %i4
40006bb0:	10 bf fe 9d 	b  40006624 <_dtoa_r+0xc68>
40006bb4:	b2 10 00 12 	mov  %l2, %i1
40006bb8:	a8 10 00 17 	mov  %l7, %l4
40006bbc:	10 bf fd 6b 	b  40006168 <_dtoa_r+0x7ac>
40006bc0:	ea 07 bf d4 	ld  [ %fp + -44 ], %l5
40006bc4:	b6 10 00 11 	mov  %l1, %i3
40006bc8:	10 bf fc b3 	b  40005e94 <_dtoa_r+0x4d8>
40006bcc:	a2 10 00 02 	mov  %g2, %l1
40006bd0:	02 bf ff c3 	be  40006adc <_dtoa_r+0x1120>
40006bd4:	a6 05 a0 01 	add  %l6, 1, %l3
40006bd8:	80 a7 20 00 	cmp  %i4, 0
40006bdc:	34 bf ff bc 	bg,a   40006acc <_dtoa_r+0x1110>
40006be0:	ae 05 60 31 	add  %l5, 0x31, %l7
40006be4:	10 bf ff bb 	b  40006ad0 <_dtoa_r+0x1114>
40006be8:	b6 10 00 19 	mov  %i1, %i3
40006bec:	92 10 00 19 	mov  %i1, %o1
40006bf0:	96 10 20 00 	clr  %o3
40006bf4:	94 10 20 0a 	mov  0xa, %o2
40006bf8:	40 00 06 9c 	call  40008668 <__multadd>
40006bfc:	90 10 00 18 	mov  %i0, %o0
40006c00:	80 a5 60 00 	cmp  %l5, 0
40006c04:	12 bf ff ed 	bne  40006bb8 <_dtoa_r+0x11fc>
40006c08:	b2 10 00 08 	mov  %o0, %i1
40006c0c:	10 bf fd b9 	b  400062f0 <_dtoa_r+0x934>
40006c10:	ea 07 bf d4 	ld  [ %fp + -44 ], %l5
40006c14:	10 bf fe c1 	b  40006718 <_dtoa_r+0xd5c>
40006c18:	84 10 00 0b 	mov  %o3, %g2
40006c1c:	12 bf ff ac 	bne  40006acc <_dtoa_r+0x1110>
40006c20:	80 8d e0 01 	btst  1, %l7
40006c24:	12 bf ff a7 	bne  40006ac0 <_dtoa_r+0x1104>
40006c28:	80 a5 e0 39 	cmp  %l7, 0x39
40006c2c:	10 bf ff a9 	b  40006ad0 <_dtoa_r+0x1114>
40006c30:	b6 10 00 19 	mov  %i1, %i3
40006c34:	10 bf fc 40 	b  40005d34 <_dtoa_r+0x378>
40006c38:	84 10 20 02 	mov  2, %g2
40006c3c:	10 bf fd 59 	b  400061a0 <_dtoa_r+0x7e4>
40006c40:	a2 10 00 02 	mov  %g2, %l1
40006c44:	02 bf fd 2c 	be  400060f4 <_dtoa_r+0x738>
40006c48:	84 10 20 3c 	mov  0x3c, %g2
40006c4c:	10 bf fd 9e 	b  400062c4 <_dtoa_r+0x908>
40006c50:	82 20 80 01 	sub  %g2, %g1, %g1
40006c54:	b6 10 00 11 	mov  %l1, %i3
40006c58:	10 bf fd 4f 	b  40006194 <_dtoa_r+0x7d8>
40006c5c:	a2 10 00 13 	mov  %l3, %l1
40006c60:	10 bf fc 0e 	b  40005c98 <_dtoa_r+0x2dc>
40006c64:	92 10 20 00 	clr  %o1
40006c68:	d5 3f bf f0 	std  %f10, [ %fp + -16 ]
40006c6c:	92 10 20 00 	clr  %o1
40006c70:	40 00 06 32 	call  40008538 <_Balloc>
40006c74:	90 10 00 18 	mov  %i0, %o0
40006c78:	d0 24 40 00 	st  %o0, [ %l1 ]
40006c7c:	c4 06 20 24 	ld  [ %i0 + 0x24 ], %g2
40006c80:	c2 07 bf fc 	ld  [ %fp + -4 ], %g1
40006c84:	80 a0 60 00 	cmp  %g1, 0
40006c88:	06 80 00 0a 	bl  40006cb0 <_dtoa_r+0x12f4>
40006c8c:	e2 00 80 00 	ld  [ %g2 ], %l1
40006c90:	84 10 20 01 	mov  1, %g2
40006c94:	80 a5 20 0e 	cmp  %l4, 0xe
40006c98:	04 80 00 03 	ble  40006ca4 <_dtoa_r+0x12e8>
40006c9c:	d5 1f bf f0 	ldd  [ %fp + -16 ], %f10
40006ca0:	84 10 20 00 	clr  %g2
40006ca4:	80 88 a0 ff 	btst  0xff, %g2
40006ca8:	32 bf ff 30 	bne,a   40006968 <_dtoa_r+0xfac>
40006cac:	83 2d 20 03 	sll  %l4, 3, %g1
40006cb0:	84 10 3f ff 	mov  -1, %g2
40006cb4:	b8 10 20 00 	clr  %i4
40006cb8:	c4 27 bf d4 	st  %g2, [ %fp + -44 ]
40006cbc:	aa 10 3f ff 	mov  -1, %l5
40006cc0:	84 10 20 01 	mov  1, %g2
40006cc4:	10 bf fc c7 	b  40005fe0 <_dtoa_r+0x624>
40006cc8:	c4 27 bf f0 	st  %g2, [ %fp + -16 ]

40006ccc <__sflush_r>:
40006ccc:	9d e3 bf a0 	save  %sp, -96, %sp
40006cd0:	c2 16 60 0c 	lduh  [ %i1 + 0xc ], %g1
40006cd4:	80 88 60 08 	btst  8, %g1
40006cd8:	32 80 00 4c 	bne,a   40006e08 <__sflush_r+0x13c>
40006cdc:	f8 06 60 10 	ld  [ %i1 + 0x10 ], %i4
40006ce0:	82 10 68 00 	or  %g1, 0x800, %g1
40006ce4:	c2 36 60 0c 	sth  %g1, [ %i1 + 0xc ]
40006ce8:	c4 06 60 04 	ld  [ %i1 + 4 ], %g2
40006cec:	80 a0 a0 00 	cmp  %g2, 0
40006cf0:	24 80 00 66 	ble,a   40006e88 <__sflush_r+0x1bc>
40006cf4:	c4 06 60 40 	ld  [ %i1 + 0x40 ], %g2
40006cf8:	c4 06 60 2c 	ld  [ %i1 + 0x2c ], %g2
40006cfc:	80 a0 a0 00 	cmp  %g2, 0
40006d00:	02 80 00 3f 	be  40006dfc <__sflush_r+0x130>
40006d04:	09 00 00 04 	sethi  %hi(0x1000), %g4
40006d08:	fa 06 00 00 	ld  [ %i0 ], %i5
40006d0c:	c0 26 00 00 	clr  [ %i0 ]
40006d10:	86 10 00 01 	mov  %g1, %g3
40006d14:	80 88 40 04 	btst  %g1, %g4
40006d18:	12 80 00 61 	bne  40006e9c <__sflush_r+0x1d0>
40006d1c:	d2 06 60 20 	ld  [ %i1 + 0x20 ], %o1
40006d20:	94 10 20 00 	clr  %o2
40006d24:	96 10 20 01 	mov  1, %o3
40006d28:	9f c0 80 00 	call  %g2
40006d2c:	90 10 00 18 	mov  %i0, %o0
40006d30:	80 a2 3f ff 	cmp  %o0, -1
40006d34:	02 80 00 67 	be  40006ed0 <__sflush_r+0x204>
40006d38:	94 10 00 08 	mov  %o0, %o2
40006d3c:	c6 16 60 0c 	lduh  [ %i1 + 0xc ], %g3
40006d40:	c4 06 60 2c 	ld  [ %i1 + 0x2c ], %g2
40006d44:	d2 06 60 20 	ld  [ %i1 + 0x20 ], %o1
40006d48:	80 88 e0 04 	btst  4, %g3
40006d4c:	02 80 00 0a 	be  40006d74 <__sflush_r+0xa8>
40006d50:	96 10 20 00 	clr  %o3
40006d54:	c6 06 60 04 	ld  [ %i1 + 4 ], %g3
40006d58:	c2 06 60 34 	ld  [ %i1 + 0x34 ], %g1
40006d5c:	80 a0 60 00 	cmp  %g1, 0
40006d60:	02 80 00 05 	be  40006d74 <__sflush_r+0xa8>
40006d64:	94 22 80 03 	sub  %o2, %g3, %o2
40006d68:	c2 06 60 40 	ld  [ %i1 + 0x40 ], %g1
40006d6c:	94 22 80 01 	sub  %o2, %g1, %o2
40006d70:	96 10 20 00 	clr  %o3
40006d74:	9f c0 80 00 	call  %g2
40006d78:	90 10 00 18 	mov  %i0, %o0
40006d7c:	80 a2 3f ff 	cmp  %o0, -1
40006d80:	12 80 00 49 	bne  40006ea4 <__sflush_r+0x1d8>
40006d84:	94 10 00 08 	mov  %o0, %o2
40006d88:	c6 06 00 00 	ld  [ %i0 ], %g3
40006d8c:	80 a0 e0 1d 	cmp  %g3, 0x1d
40006d90:	18 80 00 3a 	bgu  40006e78 <__sflush_r+0x1ac>
40006d94:	c2 16 60 0c 	lduh  [ %i1 + 0xc ], %g1
40006d98:	05 08 10 00 	sethi  %hi(0x20400000), %g2
40006d9c:	84 10 a0 01 	or  %g2, 1, %g2	! 20400001 <__data_size+0x203ff9f1>
40006da0:	85 30 80 03 	srl  %g2, %g3, %g2
40006da4:	80 88 a0 01 	btst  1, %g2
40006da8:	22 80 00 35 	be,a   40006e7c <__sflush_r+0x1b0>
40006dac:	82 10 60 40 	or  %g1, 0x40, %g1
40006db0:	82 08 77 ff 	and  %g1, -2049, %g1
40006db4:	c4 06 60 10 	ld  [ %i1 + 0x10 ], %g2
40006db8:	c2 36 60 0c 	sth  %g1, [ %i1 + 0xc ]
40006dbc:	c4 26 40 00 	st  %g2, [ %i1 ]
40006dc0:	05 00 00 04 	sethi  %hi(0x1000), %g2
40006dc4:	80 88 40 02 	btst  %g1, %g2
40006dc8:	12 80 00 4f 	bne  40006f04 <__sflush_r+0x238>
40006dcc:	c0 26 60 04 	clr  [ %i1 + 4 ]
40006dd0:	fa 26 00 00 	st  %i5, [ %i0 ]
40006dd4:	d2 06 60 34 	ld  [ %i1 + 0x34 ], %o1
40006dd8:	80 a2 60 00 	cmp  %o1, 0
40006ddc:	02 80 00 08 	be  40006dfc <__sflush_r+0x130>
40006de0:	82 06 60 44 	add  %i1, 0x44, %g1
40006de4:	80 a2 40 01 	cmp  %o1, %g1
40006de8:	22 80 00 05 	be,a   40006dfc <__sflush_r+0x130>
40006dec:	c0 26 60 34 	clr  [ %i1 + 0x34 ]
40006df0:	40 00 01 b9 	call  400074d4 <_free_r>
40006df4:	90 10 00 18 	mov  %i0, %o0
40006df8:	c0 26 60 34 	clr  [ %i1 + 0x34 ]
40006dfc:	94 10 20 00 	clr  %o2
40006e00:	81 c7 e0 08 	ret 
40006e04:	91 e8 00 0a 	restore  %g0, %o2, %o0
40006e08:	80 a7 20 00 	cmp  %i4, 0
40006e0c:	02 bf ff fc 	be  40006dfc <__sflush_r+0x130>
40006e10:	80 88 60 03 	btst  3, %g1
40006e14:	fa 06 40 00 	ld  [ %i1 ], %i5
40006e18:	f8 26 40 00 	st  %i4, [ %i1 ]
40006e1c:	ba 27 40 1c 	sub  %i5, %i4, %i5
40006e20:	12 80 00 03 	bne  40006e2c <__sflush_r+0x160>
40006e24:	84 10 20 00 	clr  %g2
40006e28:	c4 06 60 14 	ld  [ %i1 + 0x14 ], %g2
40006e2c:	80 a7 60 00 	cmp  %i5, 0
40006e30:	14 80 00 07 	bg  40006e4c <__sflush_r+0x180>
40006e34:	c4 26 60 08 	st  %g2, [ %i1 + 8 ]
40006e38:	10 bf ff f2 	b  40006e00 <__sflush_r+0x134>
40006e3c:	94 10 20 00 	clr  %o2
40006e40:	80 a7 60 00 	cmp  %i5, 0
40006e44:	04 bf ff ee 	ble  40006dfc <__sflush_r+0x130>
40006e48:	b8 07 00 08 	add  %i4, %o0, %i4
40006e4c:	96 10 00 1d 	mov  %i5, %o3
40006e50:	94 10 00 1c 	mov  %i4, %o2
40006e54:	c2 06 60 28 	ld  [ %i1 + 0x28 ], %g1
40006e58:	d2 06 60 20 	ld  [ %i1 + 0x20 ], %o1
40006e5c:	9f c0 40 00 	call  %g1
40006e60:	90 10 00 18 	mov  %i0, %o0
40006e64:	80 a2 20 00 	cmp  %o0, 0
40006e68:	34 bf ff f6 	bg,a   40006e40 <__sflush_r+0x174>
40006e6c:	ba 27 40 08 	sub  %i5, %o0, %i5
40006e70:	c2 16 60 0c 	lduh  [ %i1 + 0xc ], %g1
40006e74:	94 10 3f ff 	mov  -1, %o2
40006e78:	82 10 60 40 	or  %g1, 0x40, %g1
40006e7c:	c2 36 60 0c 	sth  %g1, [ %i1 + 0xc ]
40006e80:	81 c7 e0 08 	ret 
40006e84:	91 e8 00 0a 	restore  %g0, %o2, %o0
40006e88:	80 a0 a0 00 	cmp  %g2, 0
40006e8c:	34 bf ff 9c 	bg,a   40006cfc <__sflush_r+0x30>
40006e90:	c4 06 60 2c 	ld  [ %i1 + 0x2c ], %g2
40006e94:	10 bf ff db 	b  40006e00 <__sflush_r+0x134>
40006e98:	94 10 20 00 	clr  %o2
40006e9c:	10 bf ff ab 	b  40006d48 <__sflush_r+0x7c>
40006ea0:	d4 06 60 54 	ld  [ %i1 + 0x54 ], %o2
40006ea4:	c2 16 60 0c 	lduh  [ %i1 + 0xc ], %g1
40006ea8:	c4 06 60 10 	ld  [ %i1 + 0x10 ], %g2
40006eac:	82 08 77 ff 	and  %g1, -2049, %g1
40006eb0:	c4 26 40 00 	st  %g2, [ %i1 ]
40006eb4:	c0 26 60 04 	clr  [ %i1 + 4 ]
40006eb8:	05 00 00 04 	sethi  %hi(0x1000), %g2
40006ebc:	80 88 40 02 	btst  %g1, %g2
40006ec0:	02 bf ff c4 	be  40006dd0 <__sflush_r+0x104>
40006ec4:	c2 36 60 0c 	sth  %g1, [ %i1 + 0xc ]
40006ec8:	10 bf ff c2 	b  40006dd0 <__sflush_r+0x104>
40006ecc:	d4 26 60 54 	st  %o2, [ %i1 + 0x54 ]
40006ed0:	c2 06 00 00 	ld  [ %i0 ], %g1
40006ed4:	80 a0 60 00 	cmp  %g1, 0
40006ed8:	22 bf ff 9a 	be,a   40006d40 <__sflush_r+0x74>
40006edc:	c6 16 60 0c 	lduh  [ %i1 + 0xc ], %g3
40006ee0:	80 a0 60 1d 	cmp  %g1, 0x1d
40006ee4:	02 80 00 0d 	be  40006f18 <__sflush_r+0x24c>
40006ee8:	80 a0 60 16 	cmp  %g1, 0x16
40006eec:	22 80 00 0c 	be,a   40006f1c <__sflush_r+0x250>
40006ef0:	fa 26 00 00 	st  %i5, [ %i0 ]
40006ef4:	c2 16 60 0c 	lduh  [ %i1 + 0xc ], %g1
40006ef8:	82 10 60 40 	or  %g1, 0x40, %g1
40006efc:	10 bf ff c1 	b  40006e00 <__sflush_r+0x134>
40006f00:	c2 36 60 0c 	sth  %g1, [ %i1 + 0xc ]
40006f04:	80 a0 e0 00 	cmp  %g3, 0
40006f08:	22 bf ff b2 	be,a   40006dd0 <__sflush_r+0x104>
40006f0c:	d4 26 60 54 	st  %o2, [ %i1 + 0x54 ]
40006f10:	10 bf ff b1 	b  40006dd4 <__sflush_r+0x108>
40006f14:	fa 26 00 00 	st  %i5, [ %i0 ]
40006f18:	fa 26 00 00 	st  %i5, [ %i0 ]
40006f1c:	10 bf ff b9 	b  40006e00 <__sflush_r+0x134>
40006f20:	94 10 20 00 	clr  %o2

40006f24 <_fflush_r>:
40006f24:	9d e3 bf a0 	save  %sp, -96, %sp
40006f28:	c2 06 60 10 	ld  [ %i1 + 0x10 ], %g1
40006f2c:	80 a0 60 00 	cmp  %g1, 0
40006f30:	02 80 00 1b 	be  40006f9c <_fflush_r+0x78>
40006f34:	80 a6 20 00 	cmp  %i0, 0
40006f38:	02 80 00 07 	be  40006f54 <_fflush_r+0x30>
40006f3c:	03 10 00 3b 	sethi  %hi(0x4000ec00), %g1
40006f40:	c2 06 20 18 	ld  [ %i0 + 0x18 ], %g1
40006f44:	80 a0 60 00 	cmp  %g1, 0
40006f48:	02 80 00 19 	be  40006fac <_fflush_r+0x88>
40006f4c:	01 00 00 00 	nop 
40006f50:	03 10 00 3b 	sethi  %hi(0x4000ec00), %g1
40006f54:	82 10 62 40 	or  %g1, 0x240, %g1	! 4000ee40 <__sf_fake_stdin>
40006f58:	80 a6 40 01 	cmp  %i1, %g1
40006f5c:	02 80 00 12 	be  40006fa4 <_fflush_r+0x80>
40006f60:	03 10 00 3b 	sethi  %hi(0x4000ec00), %g1
40006f64:	82 10 62 20 	or  %g1, 0x220, %g1	! 4000ee20 <__sf_fake_stdout>
40006f68:	80 a6 40 01 	cmp  %i1, %g1
40006f6c:	02 80 00 14 	be  40006fbc <_fflush_r+0x98>
40006f70:	03 10 00 3b 	sethi  %hi(0x4000ec00), %g1
40006f74:	82 10 62 00 	or  %g1, 0x200, %g1	! 4000ee00 <__sf_fake_stderr>
40006f78:	80 a6 40 01 	cmp  %i1, %g1
40006f7c:	22 80 00 02 	be,a   40006f84 <_fflush_r+0x60>
40006f80:	f2 06 20 0c 	ld  [ %i0 + 0xc ], %i1
40006f84:	c2 56 60 0c 	ldsh  [ %i1 + 0xc ], %g1
40006f88:	80 a0 60 00 	cmp  %g1, 0
40006f8c:	02 80 00 04 	be  40006f9c <_fflush_r+0x78>
40006f90:	01 00 00 00 	nop 
40006f94:	7f ff ff 4e 	call  40006ccc <__sflush_r>
40006f98:	81 e8 00 00 	restore 
40006f9c:	81 c7 e0 08 	ret 
40006fa0:	91 e8 20 00 	restore  %g0, 0, %o0
40006fa4:	10 bf ff f8 	b  40006f84 <_fflush_r+0x60>
40006fa8:	f2 06 20 04 	ld  [ %i0 + 4 ], %i1
40006fac:	40 00 01 05 	call  400073c0 <__sinit>
40006fb0:	90 10 00 18 	mov  %i0, %o0
40006fb4:	10 bf ff e8 	b  40006f54 <_fflush_r+0x30>
40006fb8:	03 10 00 3b 	sethi  %hi(0x4000ec00), %g1
40006fbc:	10 bf ff f2 	b  40006f84 <_fflush_r+0x60>
40006fc0:	f2 06 20 08 	ld  [ %i0 + 8 ], %i1

40006fc4 <fflush>:
40006fc4:	9d e3 bf a0 	save  %sp, -96, %sp
40006fc8:	80 a6 20 00 	cmp  %i0, 0
40006fcc:	02 80 00 30 	be  4000708c <fflush+0xc8>
40006fd0:	03 10 00 3b 	sethi  %hi(0x4000ec00), %g1
40006fd4:	c2 06 20 10 	ld  [ %i0 + 0x10 ], %g1
40006fd8:	80 a0 60 00 	cmp  %g1, 0
40006fdc:	02 80 00 21 	be  40007060 <fflush+0x9c>
40006fe0:	03 10 00 3c 	sethi  %hi(0x4000f000), %g1
40006fe4:	fa 00 63 7c 	ld  [ %g1 + 0x37c ], %i5	! 4000f37c <_impure_ptr>
40006fe8:	80 a7 60 00 	cmp  %i5, 0
40006fec:	02 80 00 06 	be  40007004 <fflush+0x40>
40006ff0:	03 10 00 3b 	sethi  %hi(0x4000ec00), %g1
40006ff4:	c2 07 60 18 	ld  [ %i5 + 0x18 ], %g1
40006ff8:	80 a0 60 00 	cmp  %g1, 0
40006ffc:	02 80 00 1b 	be  40007068 <fflush+0xa4>
40007000:	03 10 00 3b 	sethi  %hi(0x4000ec00), %g1
40007004:	82 10 62 40 	or  %g1, 0x240, %g1	! 4000ee40 <__sf_fake_stdin>
40007008:	80 a6 00 01 	cmp  %i0, %g1
4000700c:	22 80 00 11 	be,a   40007050 <fflush+0x8c>
40007010:	f0 07 60 04 	ld  [ %i5 + 4 ], %i0
40007014:	03 10 00 3b 	sethi  %hi(0x4000ec00), %g1
40007018:	82 10 62 20 	or  %g1, 0x220, %g1	! 4000ee20 <__sf_fake_stdout>
4000701c:	80 a6 00 01 	cmp  %i0, %g1
40007020:	02 80 00 1f 	be  4000709c <fflush+0xd8>
40007024:	03 10 00 3b 	sethi  %hi(0x4000ec00), %g1
40007028:	82 10 62 00 	or  %g1, 0x200, %g1	! 4000ee00 <__sf_fake_stderr>
4000702c:	80 a6 00 01 	cmp  %i0, %g1
40007030:	22 80 00 02 	be,a   40007038 <fflush+0x74>
40007034:	f0 07 60 0c 	ld  [ %i5 + 0xc ], %i0
40007038:	c2 56 20 0c 	ldsh  [ %i0 + 0xc ], %g1
4000703c:	80 a0 60 00 	cmp  %g1, 0
40007040:	02 80 00 08 	be  40007060 <fflush+0x9c>
40007044:	b2 10 00 18 	mov  %i0, %i1
40007048:	7f ff ff 21 	call  40006ccc <__sflush_r>
4000704c:	91 e8 00 1d 	restore  %g0, %i5, %o0
40007050:	c2 56 20 0c 	ldsh  [ %i0 + 0xc ], %g1
40007054:	80 a0 60 00 	cmp  %g1, 0
40007058:	12 bf ff fc 	bne  40007048 <fflush+0x84>
4000705c:	b2 10 00 18 	mov  %i0, %i1
40007060:	81 c7 e0 08 	ret 
40007064:	91 e8 20 00 	restore  %g0, 0, %o0
40007068:	40 00 00 d6 	call  400073c0 <__sinit>
4000706c:	90 10 00 1d 	mov  %i5, %o0
40007070:	03 10 00 3b 	sethi  %hi(0x4000ec00), %g1
40007074:	82 10 62 40 	or  %g1, 0x240, %g1	! 4000ee40 <__sf_fake_stdin>
40007078:	80 a6 00 01 	cmp  %i0, %g1
4000707c:	12 bf ff e7 	bne  40007018 <fflush+0x54>
40007080:	03 10 00 3b 	sethi  %hi(0x4000ec00), %g1
40007084:	10 bf ff f3 	b  40007050 <fflush+0x8c>
40007088:	f0 07 60 04 	ld  [ %i5 + 4 ], %i0
4000708c:	33 10 00 1b 	sethi  %hi(0x40006c00), %i1
40007090:	f0 00 60 f4 	ld  [ %g1 + 0xf4 ], %i0
40007094:	40 00 01 ef 	call  40007850 <_fwalk_reent>
40007098:	93 ee 63 24 	restore  %i1, 0x324, %o1
4000709c:	10 bf ff e7 	b  40007038 <fflush+0x74>
400070a0:	f0 07 60 08 	ld  [ %i5 + 8 ], %i0

400070a4 <_cleanup_r>:
400070a4:	13 10 00 2f 	sethi  %hi(0x4000bc00), %o1
400070a8:	92 12 63 fc 	or  %o1, 0x3fc, %o1	! 4000bffc <_fclose_r>
400070ac:	82 13 c0 00 	mov  %o7, %g1
400070b0:	40 00 01 e8 	call  40007850 <_fwalk_reent>
400070b4:	9e 10 40 00 	mov  %g1, %o7

400070b8 <__sfmoreglue>:
400070b8:	9d e3 bf a0 	save  %sp, -96, %sp
400070bc:	94 06 7f ff 	add  %i1, -1, %o2
400070c0:	90 10 00 18 	mov  %i0, %o0
400070c4:	bb 2a a0 01 	sll  %o2, 1, %i5
400070c8:	ba 07 40 0a 	add  %i5, %o2, %i5
400070cc:	bb 2f 60 03 	sll  %i5, 3, %i5
400070d0:	ba 07 40 0a 	add  %i5, %o2, %i5
400070d4:	bb 2f 60 02 	sll  %i5, 2, %i5
400070d8:	40 00 02 98 	call  40007b38 <_malloc_r>
400070dc:	92 07 60 70 	add  %i5, 0x70, %o1
400070e0:	b0 92 20 00 	orcc  %o0, 0, %i0
400070e4:	02 80 00 08 	be  40007104 <__sfmoreglue+0x4c>
400070e8:	90 06 20 0c 	add  %i0, 0xc, %o0
400070ec:	c0 26 00 00 	clr  [ %i0 ]
400070f0:	f2 26 20 04 	st  %i1, [ %i0 + 4 ]
400070f4:	d0 26 20 08 	st  %o0, [ %i0 + 8 ]
400070f8:	94 07 60 64 	add  %i5, 0x64, %o2
400070fc:	40 00 04 c2 	call  40008404 <memset>
40007100:	92 10 20 00 	clr  %o1
40007104:	81 c7 e0 08 	ret 
40007108:	81 e8 00 00 	restore 

4000710c <__sfp>:
4000710c:	9d e3 bf a0 	save  %sp, -96, %sp
40007110:	03 10 00 3b 	sethi  %hi(0x4000ec00), %g1
40007114:	f8 00 60 f4 	ld  [ %g1 + 0xf4 ], %i4	! 4000ecf4 <_global_impure_ptr>
40007118:	c2 07 20 18 	ld  [ %i4 + 0x18 ], %g1
4000711c:	80 a0 60 00 	cmp  %g1, 0
40007120:	02 80 00 2b 	be  400071cc <__sfp+0xc0>
40007124:	01 00 00 00 	nop 
40007128:	b8 07 20 48 	add  %i4, 0x48, %i4
4000712c:	b6 10 20 04 	mov  4, %i3
40007130:	c2 07 20 04 	ld  [ %i4 + 4 ], %g1
40007134:	82 80 7f ff 	addcc  %g1, -1, %g1
40007138:	1c 80 00 07 	bpos  40007154 <__sfp+0x48>
4000713c:	fa 07 20 08 	ld  [ %i4 + 8 ], %i5
40007140:	10 80 00 1e 	b  400071b8 <__sfp+0xac>
40007144:	fa 07 00 00 	ld  [ %i4 ], %i5
40007148:	80 a0 7f ff 	cmp  %g1, -1
4000714c:	02 80 00 1a 	be  400071b4 <__sfp+0xa8>
40007150:	ba 07 60 64 	add  %i5, 0x64, %i5
40007154:	c4 57 60 0c 	ldsh  [ %i5 + 0xc ], %g2
40007158:	80 a0 a0 00 	cmp  %g2, 0
4000715c:	12 bf ff fb 	bne  40007148 <__sfp+0x3c>
40007160:	82 00 7f ff 	add  %g1, -1, %g1
40007164:	03 00 00 7f 	sethi  %hi(0x1fc00), %g1
40007168:	82 10 63 ff 	or  %g1, 0x3ff, %g1	! 1ffff <__data_size+0x1f9ef>
4000716c:	c0 27 60 60 	clr  [ %i5 + 0x60 ]
40007170:	c0 27 40 00 	clr  [ %i5 ]
40007174:	c0 27 60 04 	clr  [ %i5 + 4 ]
40007178:	c0 27 60 08 	clr  [ %i5 + 8 ]
4000717c:	c0 27 60 10 	clr  [ %i5 + 0x10 ]
40007180:	c0 27 60 14 	clr  [ %i5 + 0x14 ]
40007184:	c2 27 60 0c 	st  %g1, [ %i5 + 0xc ]
40007188:	c0 27 60 18 	clr  [ %i5 + 0x18 ]
4000718c:	94 10 20 08 	mov  8, %o2
40007190:	92 10 20 00 	clr  %o1
40007194:	40 00 04 9c 	call  40008404 <memset>
40007198:	90 07 60 58 	add  %i5, 0x58, %o0
4000719c:	c0 27 60 34 	clr  [ %i5 + 0x34 ]
400071a0:	c0 27 60 38 	clr  [ %i5 + 0x38 ]
400071a4:	c0 27 60 48 	clr  [ %i5 + 0x48 ]
400071a8:	c0 27 60 4c 	clr  [ %i5 + 0x4c ]
400071ac:	81 c7 e0 08 	ret 
400071b0:	91 e8 00 1d 	restore  %g0, %i5, %o0
400071b4:	fa 07 00 00 	ld  [ %i4 ], %i5
400071b8:	80 a7 60 00 	cmp  %i5, 0
400071bc:	02 80 00 08 	be  400071dc <__sfp+0xd0>
400071c0:	92 10 21 9c 	mov  0x19c, %o1
400071c4:	10 bf ff db 	b  40007130 <__sfp+0x24>
400071c8:	b8 10 00 1d 	mov  %i5, %i4
400071cc:	40 00 00 16 	call  40007224 <__sinit.part.0>
400071d0:	90 10 00 1c 	mov  %i4, %o0
400071d4:	10 bf ff d6 	b  4000712c <__sfp+0x20>
400071d8:	b8 07 20 48 	add  %i4, 0x48, %i4
400071dc:	40 00 02 57 	call  40007b38 <_malloc_r>
400071e0:	90 10 00 18 	mov  %i0, %o0
400071e4:	ba 92 20 00 	orcc  %o0, 0, %i5
400071e8:	02 80 00 0b 	be  40007214 <__sfp+0x108>
400071ec:	90 07 60 0c 	add  %i5, 0xc, %o0
400071f0:	c0 27 40 00 	clr  [ %i5 ]
400071f4:	f6 27 60 04 	st  %i3, [ %i5 + 4 ]
400071f8:	d0 27 60 08 	st  %o0, [ %i5 + 8 ]
400071fc:	94 10 21 90 	mov  0x190, %o2
40007200:	40 00 04 81 	call  40008404 <memset>
40007204:	92 10 20 00 	clr  %o1
40007208:	fa 27 00 00 	st  %i5, [ %i4 ]
4000720c:	10 bf ff c9 	b  40007130 <__sfp+0x24>
40007210:	b8 10 00 1d 	mov  %i5, %i4
40007214:	c0 27 00 00 	clr  [ %i4 ]
40007218:	82 10 20 0c 	mov  0xc, %g1
4000721c:	10 bf ff e4 	b  400071ac <__sfp+0xa0>
40007220:	c2 26 00 00 	st  %g1, [ %i0 ]

40007224 <__sinit.part.0>:
40007224:	9d e3 bf a0 	save  %sp, -96, %sp
40007228:	03 10 00 1c 	sethi  %hi(0x40007000), %g1
4000722c:	c0 26 20 48 	clr  [ %i0 + 0x48 ]
40007230:	82 10 60 a4 	or  %g1, 0xa4, %g1
40007234:	c0 26 20 4c 	clr  [ %i0 + 0x4c ]
40007238:	c2 26 20 28 	st  %g1, [ %i0 + 0x28 ]
4000723c:	03 10 00 3b 	sethi  %hi(0x4000ec00), %g1
40007240:	c2 00 60 f4 	ld  [ %g1 + 0xf4 ], %g1	! 4000ecf4 <_global_impure_ptr>
40007244:	80 a6 00 01 	cmp  %i0, %g1
40007248:	02 80 00 54 	be  40007398 <__sinit.part.0+0x174>
4000724c:	c0 26 20 50 	clr  [ %i0 + 0x50 ]
40007250:	7f ff ff af 	call  4000710c <__sfp>
40007254:	90 10 00 18 	mov  %i0, %o0
40007258:	82 10 00 08 	mov  %o0, %g1
4000725c:	90 10 00 18 	mov  %i0, %o0
40007260:	7f ff ff ab 	call  4000710c <__sfp>
40007264:	c2 26 20 04 	st  %g1, [ %i0 + 4 ]
40007268:	82 10 00 08 	mov  %o0, %g1
4000726c:	90 10 00 18 	mov  %i0, %o0
40007270:	7f ff ff a7 	call  4000710c <__sfp>
40007274:	c2 26 20 08 	st  %g1, [ %i0 + 8 ]
40007278:	03 00 01 00 	sethi  %hi(0x40000), %g1
4000727c:	d0 26 20 0c 	st  %o0, [ %i0 + 0xc ]
40007280:	fa 06 20 04 	ld  [ %i0 + 4 ], %i5
40007284:	94 10 20 08 	mov  8, %o2
40007288:	c2 27 60 0c 	st  %g1, [ %i5 + 0xc ]
4000728c:	92 10 20 00 	clr  %o1
40007290:	c0 27 60 60 	clr  [ %i5 + 0x60 ]
40007294:	c0 27 40 00 	clr  [ %i5 ]
40007298:	c0 27 60 04 	clr  [ %i5 + 4 ]
4000729c:	c0 27 60 08 	clr  [ %i5 + 8 ]
400072a0:	c0 27 60 10 	clr  [ %i5 + 0x10 ]
400072a4:	c0 27 60 14 	clr  [ %i5 + 0x14 ]
400072a8:	c0 27 60 18 	clr  [ %i5 + 0x18 ]
400072ac:	40 00 04 56 	call  40008404 <memset>
400072b0:	90 07 60 58 	add  %i5, 0x58, %o0
400072b4:	03 00 02 40 	sethi  %hi(0x90000), %g1
400072b8:	82 10 60 01 	or  %g1, 1, %g1	! 90001 <__data_size+0x8f9f1>
400072bc:	fa 27 60 20 	st  %i5, [ %i5 + 0x20 ]
400072c0:	94 10 20 08 	mov  8, %o2
400072c4:	92 10 20 00 	clr  %o1
400072c8:	33 10 00 27 	sethi  %hi(0x40009c00), %i1
400072cc:	35 10 00 27 	sethi  %hi(0x40009c00), %i2
400072d0:	b2 16 61 08 	or  %i1, 0x108, %i1
400072d4:	b4 16 a1 5c 	or  %i2, 0x15c, %i2
400072d8:	f2 27 60 24 	st  %i1, [ %i5 + 0x24 ]
400072dc:	f4 27 60 28 	st  %i2, [ %i5 + 0x28 ]
400072e0:	37 10 00 27 	sethi  %hi(0x40009c00), %i3
400072e4:	39 10 00 27 	sethi  %hi(0x40009c00), %i4
400072e8:	b6 16 e1 b8 	or  %i3, 0x1b8, %i3
400072ec:	b8 17 22 0c 	or  %i4, 0x20c, %i4
400072f0:	f6 27 60 2c 	st  %i3, [ %i5 + 0x2c ]
400072f4:	f8 27 60 30 	st  %i4, [ %i5 + 0x30 ]
400072f8:	fa 06 20 08 	ld  [ %i0 + 8 ], %i5
400072fc:	c2 27 60 0c 	st  %g1, [ %i5 + 0xc ]
40007300:	c0 27 60 60 	clr  [ %i5 + 0x60 ]
40007304:	c0 27 40 00 	clr  [ %i5 ]
40007308:	c0 27 60 04 	clr  [ %i5 + 4 ]
4000730c:	c0 27 60 08 	clr  [ %i5 + 8 ]
40007310:	c0 27 60 10 	clr  [ %i5 + 0x10 ]
40007314:	c0 27 60 14 	clr  [ %i5 + 0x14 ]
40007318:	c0 27 60 18 	clr  [ %i5 + 0x18 ]
4000731c:	40 00 04 3a 	call  40008404 <memset>
40007320:	90 07 60 58 	add  %i5, 0x58, %o0
40007324:	03 00 04 80 	sethi  %hi(0x120000), %g1
40007328:	82 10 60 02 	or  %g1, 2, %g1	! 120002 <__data_size+0x11f9f2>
4000732c:	fa 27 60 20 	st  %i5, [ %i5 + 0x20 ]
40007330:	f2 27 60 24 	st  %i1, [ %i5 + 0x24 ]
40007334:	f4 27 60 28 	st  %i2, [ %i5 + 0x28 ]
40007338:	f6 27 60 2c 	st  %i3, [ %i5 + 0x2c ]
4000733c:	f8 27 60 30 	st  %i4, [ %i5 + 0x30 ]
40007340:	94 10 20 08 	mov  8, %o2
40007344:	fa 06 20 0c 	ld  [ %i0 + 0xc ], %i5
40007348:	92 10 20 00 	clr  %o1
4000734c:	c2 27 60 0c 	st  %g1, [ %i5 + 0xc ]
40007350:	c0 27 60 60 	clr  [ %i5 + 0x60 ]
40007354:	c0 27 40 00 	clr  [ %i5 ]
40007358:	c0 27 60 04 	clr  [ %i5 + 4 ]
4000735c:	c0 27 60 08 	clr  [ %i5 + 8 ]
40007360:	c0 27 60 10 	clr  [ %i5 + 0x10 ]
40007364:	c0 27 60 14 	clr  [ %i5 + 0x14 ]
40007368:	c0 27 60 18 	clr  [ %i5 + 0x18 ]
4000736c:	40 00 04 26 	call  40008404 <memset>
40007370:	90 07 60 58 	add  %i5, 0x58, %o0
40007374:	fa 27 60 20 	st  %i5, [ %i5 + 0x20 ]
40007378:	f2 27 60 24 	st  %i1, [ %i5 + 0x24 ]
4000737c:	f4 27 60 28 	st  %i2, [ %i5 + 0x28 ]
40007380:	f6 27 60 2c 	st  %i3, [ %i5 + 0x2c ]
40007384:	f8 27 60 30 	st  %i4, [ %i5 + 0x30 ]
40007388:	82 10 20 01 	mov  1, %g1
4000738c:	c2 26 20 18 	st  %g1, [ %i0 + 0x18 ]
40007390:	81 c7 e0 08 	ret 
40007394:	81 e8 00 00 	restore 
40007398:	82 10 20 01 	mov  1, %g1
4000739c:	10 bf ff ad 	b  40007250 <__sinit.part.0+0x2c>
400073a0:	c2 26 20 18 	st  %g1, [ %i0 + 0x18 ]

400073a4 <_cleanup>:
400073a4:	03 10 00 3b 	sethi  %hi(0x4000ec00), %g1
400073a8:	13 10 00 2f 	sethi  %hi(0x4000bc00), %o1
400073ac:	d0 00 60 f4 	ld  [ %g1 + 0xf4 ], %o0
400073b0:	92 12 63 fc 	or  %o1, 0x3fc, %o1
400073b4:	82 13 c0 00 	mov  %o7, %g1
400073b8:	40 00 01 26 	call  40007850 <_fwalk_reent>
400073bc:	9e 10 40 00 	mov  %g1, %o7

400073c0 <__sinit>:
400073c0:	c2 02 20 18 	ld  [ %o0 + 0x18 ], %g1
400073c4:	80 a0 60 00 	cmp  %g1, 0
400073c8:	12 80 00 05 	bne  400073dc <__sinit+0x1c>
400073cc:	01 00 00 00 	nop 
400073d0:	82 13 c0 00 	mov  %o7, %g1
400073d4:	7f ff ff 94 	call  40007224 <__sinit.part.0>
400073d8:	9e 10 40 00 	mov  %g1, %o7
400073dc:	81 c3 e0 08 	retl 
400073e0:	01 00 00 00 	nop 

400073e4 <_malloc_trim_r>:
400073e4:	9d e3 bf a0 	save  %sp, -96, %sp
400073e8:	40 00 04 50 	call  40008528 <__malloc_lock>
400073ec:	90 10 00 18 	mov  %i0, %o0
400073f0:	37 10 00 3c 	sethi  %hi(0x4000f000), %i3
400073f4:	b6 16 e3 e8 	or  %i3, 0x3e8, %i3	! 4000f3e8 <__malloc_av_>
400073f8:	c2 06 e0 08 	ld  [ %i3 + 8 ], %g1
400073fc:	f8 00 60 04 	ld  [ %g1 + 4 ], %i4
40007400:	b8 0f 3f fc 	and  %i4, -4, %i4
40007404:	ba 27 00 19 	sub  %i4, %i1, %i5
40007408:	ba 07 6f ef 	add  %i5, 0xfef, %i5
4000740c:	ba 0f 70 00 	and  %i5, -4096, %i5
40007410:	ba 07 70 00 	add  %i5, -4096, %i5
40007414:	80 a7 6f ff 	cmp  %i5, 0xfff
40007418:	04 80 00 09 	ble  4000743c <_malloc_trim_r+0x58>
4000741c:	92 10 20 00 	clr  %o1
40007420:	40 00 0a 2a 	call  40009cc8 <_sbrk_r>
40007424:	90 10 00 18 	mov  %i0, %o0
40007428:	c2 06 e0 08 	ld  [ %i3 + 8 ], %g1
4000742c:	82 00 40 1c 	add  %g1, %i4, %g1
40007430:	80 a2 00 01 	cmp  %o0, %g1
40007434:	02 80 00 07 	be  40007450 <_malloc_trim_r+0x6c>
40007438:	92 20 00 1d 	neg  %i5, %o1
4000743c:	90 10 00 18 	mov  %i0, %o0
40007440:	40 00 04 3c 	call  40008530 <__malloc_unlock>
40007444:	b0 10 20 00 	clr  %i0
40007448:	81 c7 e0 08 	ret 
4000744c:	81 e8 00 00 	restore 
40007450:	40 00 0a 1e 	call  40009cc8 <_sbrk_r>
40007454:	90 10 00 18 	mov  %i0, %o0
40007458:	80 a2 3f ff 	cmp  %o0, -1
4000745c:	02 80 00 0e 	be  40007494 <_malloc_trim_r+0xb0>
40007460:	05 10 00 3e 	sethi  %hi(0x4000f800), %g2
40007464:	c6 06 e0 08 	ld  [ %i3 + 8 ], %g3
40007468:	c2 00 a2 d0 	ld  [ %g2 + 0x2d0 ], %g1
4000746c:	90 10 00 18 	mov  %i0, %o0
40007470:	b8 27 00 1d 	sub  %i4, %i5, %i4
40007474:	b0 10 20 01 	mov  1, %i0
40007478:	ba 20 40 1d 	sub  %g1, %i5, %i5
4000747c:	b8 17 20 01 	or  %i4, 1, %i4
40007480:	fa 20 a2 d0 	st  %i5, [ %g2 + 0x2d0 ]
40007484:	40 00 04 2b 	call  40008530 <__malloc_unlock>
40007488:	f8 20 e0 04 	st  %i4, [ %g3 + 4 ]
4000748c:	81 c7 e0 08 	ret 
40007490:	81 e8 00 00 	restore 
40007494:	92 10 20 00 	clr  %o1
40007498:	40 00 0a 0c 	call  40009cc8 <_sbrk_r>
4000749c:	90 10 00 18 	mov  %i0, %o0
400074a0:	c4 06 e0 08 	ld  [ %i3 + 8 ], %g2
400074a4:	82 22 00 02 	sub  %o0, %g2, %g1
400074a8:	80 a0 60 0f 	cmp  %g1, 0xf
400074ac:	24 bf ff e5 	ble,a   40007440 <_malloc_trim_r+0x5c>
400074b0:	90 10 00 18 	mov  %i0, %o0
400074b4:	82 10 60 01 	or  %g1, 1, %g1
400074b8:	07 10 00 3c 	sethi  %hi(0x4000f000), %g3
400074bc:	c2 20 a0 04 	st  %g1, [ %g2 + 4 ]
400074c0:	c6 00 e3 e0 	ld  [ %g3 + 0x3e0 ], %g3
400074c4:	03 10 00 3e 	sethi  %hi(0x4000f800), %g1
400074c8:	90 22 00 03 	sub  %o0, %g3, %o0
400074cc:	10 bf ff dc 	b  4000743c <_malloc_trim_r+0x58>
400074d0:	d0 20 62 d0 	st  %o0, [ %g1 + 0x2d0 ]

400074d4 <_free_r>:
400074d4:	9d e3 bf a0 	save  %sp, -96, %sp
400074d8:	80 a6 60 00 	cmp  %i1, 0
400074dc:	02 80 00 48 	be  400075fc <_free_r+0x128>
400074e0:	01 00 00 00 	nop 
400074e4:	40 00 04 11 	call  40008528 <__malloc_lock>
400074e8:	90 10 00 18 	mov  %i0, %o0
400074ec:	84 06 7f f8 	add  %i1, -8, %g2
400074f0:	f8 06 7f fc 	ld  [ %i1 + -4 ], %i4
400074f4:	09 10 00 3c 	sethi  %hi(0x4000f000), %g4
400074f8:	82 0f 3f fe 	and  %i4, -2, %g1
400074fc:	88 11 23 e8 	or  %g4, 0x3e8, %g4
40007500:	ba 00 80 01 	add  %g2, %g1, %i5
40007504:	f6 01 20 08 	ld  [ %g4 + 8 ], %i3
40007508:	c6 07 60 04 	ld  [ %i5 + 4 ], %g3
4000750c:	80 a6 c0 1d 	cmp  %i3, %i5
40007510:	02 80 00 6b 	be  400076bc <_free_r+0x1e8>
40007514:	86 08 ff fc 	and  %g3, -4, %g3
40007518:	c6 27 60 04 	st  %g3, [ %i5 + 4 ]
4000751c:	80 8f 20 01 	btst  1, %i4
40007520:	12 80 00 27 	bne  400075bc <_free_r+0xe8>
40007524:	b6 07 40 03 	add  %i5, %g3, %i3
40007528:	f2 06 7f f8 	ld  [ %i1 + -8 ], %i1
4000752c:	f8 06 e0 04 	ld  [ %i3 + 4 ], %i4
40007530:	84 20 80 19 	sub  %g2, %i1, %g2
40007534:	b4 01 20 08 	add  %g4, 8, %i2
40007538:	f6 00 a0 08 	ld  [ %g2 + 8 ], %i3
4000753c:	82 00 40 19 	add  %g1, %i1, %g1
40007540:	80 a6 c0 1a 	cmp  %i3, %i2
40007544:	02 80 00 51 	be  40007688 <_free_r+0x1b4>
40007548:	b8 0f 20 01 	and  %i4, 1, %i4
4000754c:	f2 00 a0 0c 	ld  [ %g2 + 0xc ], %i1
40007550:	f2 26 e0 0c 	st  %i1, [ %i3 + 0xc ]
40007554:	80 a7 20 00 	cmp  %i4, 0
40007558:	02 80 00 7b 	be  40007744 <_free_r+0x270>
4000755c:	f6 26 60 08 	st  %i3, [ %i1 + 8 ]
40007560:	86 10 60 01 	or  %g1, 1, %g3
40007564:	c6 20 a0 04 	st  %g3, [ %g2 + 4 ]
40007568:	c2 27 40 00 	st  %g1, [ %i5 ]
4000756c:	80 a0 61 ff 	cmp  %g1, 0x1ff
40007570:	18 80 00 2a 	bgu  40007618 <_free_r+0x144>
40007574:	80 a0 69 ff 	cmp  %g1, 0x9ff
40007578:	fa 01 20 04 	ld  [ %g4 + 4 ], %i5
4000757c:	b9 30 60 05 	srl  %g1, 5, %i4
40007580:	86 10 20 01 	mov  1, %g3
40007584:	87 28 c0 1c 	sll  %g3, %i4, %g3
40007588:	86 10 c0 1d 	or  %g3, %i5, %g3
4000758c:	82 08 7f f8 	and  %g1, -8, %g1
40007590:	82 00 60 08 	add  %g1, 8, %g1
40007594:	fa 01 00 01 	ld  [ %g4 + %g1 ], %i5
40007598:	c6 21 20 04 	st  %g3, [ %g4 + 4 ]
4000759c:	fa 20 a0 08 	st  %i5, [ %g2 + 8 ]
400075a0:	86 01 00 01 	add  %g4, %g1, %g3
400075a4:	86 00 ff f8 	add  %g3, -8, %g3
400075a8:	c6 20 a0 0c 	st  %g3, [ %g2 + 0xc ]
400075ac:	c4 21 00 01 	st  %g2, [ %g4 + %g1 ]
400075b0:	c4 27 60 0c 	st  %g2, [ %i5 + 0xc ]
400075b4:	40 00 03 df 	call  40008530 <__malloc_unlock>
400075b8:	81 e8 00 00 	restore 
400075bc:	f8 06 e0 04 	ld  [ %i3 + 4 ], %i4
400075c0:	80 8f 20 01 	btst  1, %i4
400075c4:	32 80 00 10 	bne,a   40007604 <_free_r+0x130>
400075c8:	86 10 60 01 	or  %g1, 1, %g3
400075cc:	82 00 40 03 	add  %g1, %g3, %g1
400075d0:	b4 01 20 08 	add  %g4, 8, %i2
400075d4:	c6 07 60 08 	ld  [ %i5 + 8 ], %g3
400075d8:	80 a0 c0 1a 	cmp  %g3, %i2
400075dc:	02 80 00 5f 	be  40007758 <_free_r+0x284>
400075e0:	b8 10 60 01 	or  %g1, 1, %i4
400075e4:	fa 07 60 0c 	ld  [ %i5 + 0xc ], %i5
400075e8:	fa 20 e0 0c 	st  %i5, [ %g3 + 0xc ]
400075ec:	c6 27 60 08 	st  %g3, [ %i5 + 8 ]
400075f0:	f8 20 a0 04 	st  %i4, [ %g2 + 4 ]
400075f4:	10 bf ff de 	b  4000756c <_free_r+0x98>
400075f8:	c2 20 80 01 	st  %g1, [ %g2 + %g1 ]
400075fc:	81 c7 e0 08 	ret 
40007600:	81 e8 00 00 	restore 
40007604:	c6 26 7f fc 	st  %g3, [ %i1 + -4 ]
40007608:	80 a0 61 ff 	cmp  %g1, 0x1ff
4000760c:	08 bf ff db 	bleu  40007578 <_free_r+0xa4>
40007610:	c2 27 40 00 	st  %g1, [ %i5 ]
40007614:	80 a0 69 ff 	cmp  %g1, 0x9ff
40007618:	18 80 00 40 	bgu  40007718 <_free_r+0x244>
4000761c:	87 30 60 09 	srl  %g1, 9, %g3
40007620:	87 30 60 06 	srl  %g1, 6, %g3
40007624:	ba 00 e0 39 	add  %g3, 0x39, %i5
40007628:	b8 00 e0 38 	add  %g3, 0x38, %i4
4000762c:	87 2f 60 03 	sll  %i5, 3, %g3
40007630:	ba 01 00 03 	add  %g4, %g3, %i5
40007634:	c6 01 00 03 	ld  [ %g4 + %g3 ], %g3
40007638:	ba 07 7f f8 	add  %i5, -8, %i5
4000763c:	80 a7 40 03 	cmp  %i5, %g3
40007640:	22 80 00 4e 	be,a   40007778 <_free_r+0x2a4>
40007644:	f6 01 20 04 	ld  [ %g4 + 4 ], %i3
40007648:	c8 00 e0 04 	ld  [ %g3 + 4 ], %g4
4000764c:	88 09 3f fc 	and  %g4, -4, %g4
40007650:	80 a1 00 01 	cmp  %g4, %g1
40007654:	28 80 00 07 	bleu,a   40007670 <_free_r+0x19c>
40007658:	fa 00 e0 0c 	ld  [ %g3 + 0xc ], %i5
4000765c:	c6 00 e0 08 	ld  [ %g3 + 8 ], %g3
40007660:	80 a7 40 03 	cmp  %i5, %g3
40007664:	32 bf ff fa 	bne,a   4000764c <_free_r+0x178>
40007668:	c8 00 e0 04 	ld  [ %g3 + 4 ], %g4
4000766c:	fa 00 e0 0c 	ld  [ %g3 + 0xc ], %i5
40007670:	fa 20 a0 0c 	st  %i5, [ %g2 + 0xc ]
40007674:	c6 20 a0 08 	st  %g3, [ %g2 + 8 ]
40007678:	c4 27 60 08 	st  %g2, [ %i5 + 8 ]
4000767c:	c4 20 e0 0c 	st  %g2, [ %g3 + 0xc ]
40007680:	40 00 03 ac 	call  40008530 <__malloc_unlock>
40007684:	81 e8 00 00 	restore 
40007688:	80 a7 20 00 	cmp  %i4, 0
4000768c:	32 80 00 51 	bne,a   400077d0 <_free_r+0x2fc>
40007690:	86 10 60 01 	or  %g1, 1, %g3
40007694:	c8 07 60 0c 	ld  [ %i5 + 0xc ], %g4
40007698:	fa 07 60 08 	ld  [ %i5 + 8 ], %i5
4000769c:	c8 27 60 0c 	st  %g4, [ %i5 + 0xc ]
400076a0:	fa 21 20 08 	st  %i5, [ %g4 + 8 ]
400076a4:	82 00 c0 01 	add  %g3, %g1, %g1
400076a8:	86 10 60 01 	or  %g1, 1, %g3
400076ac:	c6 20 a0 04 	st  %g3, [ %g2 + 4 ]
400076b0:	c2 20 80 01 	st  %g1, [ %g2 + %g1 ]
400076b4:	40 00 03 9f 	call  40008530 <__malloc_unlock>
400076b8:	81 e8 00 00 	restore 
400076bc:	80 8f 20 01 	btst  1, %i4
400076c0:	12 80 00 09 	bne  400076e4 <_free_r+0x210>
400076c4:	82 00 40 03 	add  %g1, %g3, %g1
400076c8:	f8 06 7f f8 	ld  [ %i1 + -8 ], %i4
400076cc:	84 20 80 1c 	sub  %g2, %i4, %g2
400076d0:	c6 00 a0 0c 	ld  [ %g2 + 0xc ], %g3
400076d4:	fa 00 a0 08 	ld  [ %g2 + 8 ], %i5
400076d8:	c6 27 60 0c 	st  %g3, [ %i5 + 0xc ]
400076dc:	82 00 40 1c 	add  %g1, %i4, %g1
400076e0:	fa 20 e0 08 	st  %i5, [ %g3 + 8 ]
400076e4:	86 10 60 01 	or  %g1, 1, %g3
400076e8:	c6 20 a0 04 	st  %g3, [ %g2 + 4 ]
400076ec:	c4 21 20 08 	st  %g2, [ %g4 + 8 ]
400076f0:	05 10 00 3c 	sethi  %hi(0x4000f000), %g2
400076f4:	c4 00 a3 e4 	ld  [ %g2 + 0x3e4 ], %g2	! 4000f3e4 <__malloc_trim_threshold>
400076f8:	80 a0 80 01 	cmp  %g2, %g1
400076fc:	18 bf ff ae 	bgu  400075b4 <_free_r+0xe0>
40007700:	03 10 00 3e 	sethi  %hi(0x4000f800), %g1
40007704:	90 10 00 18 	mov  %i0, %o0
40007708:	7f ff ff 37 	call  400073e4 <_malloc_trim_r>
4000770c:	d2 00 63 00 	ld  [ %g1 + 0x300 ], %o1
40007710:	40 00 03 88 	call  40008530 <__malloc_unlock>
40007714:	81 e8 00 00 	restore 
40007718:	80 a0 e0 14 	cmp  %g3, 0x14
4000771c:	08 80 00 0c 	bleu  4000774c <_free_r+0x278>
40007720:	ba 00 e0 5c 	add  %g3, 0x5c, %i5
40007724:	80 a0 e0 54 	cmp  %g3, 0x54
40007728:	18 80 00 1a 	bgu  40007790 <_free_r+0x2bc>
4000772c:	80 a0 e1 54 	cmp  %g3, 0x154
40007730:	87 30 60 0c 	srl  %g1, 0xc, %g3
40007734:	ba 00 e0 6f 	add  %g3, 0x6f, %i5
40007738:	b8 00 e0 6e 	add  %g3, 0x6e, %i4
4000773c:	10 bf ff bd 	b  40007630 <_free_r+0x15c>
40007740:	87 2f 60 03 	sll  %i5, 3, %g3
40007744:	10 bf ff a4 	b  400075d4 <_free_r+0x100>
40007748:	82 00 40 03 	add  %g1, %g3, %g1
4000774c:	b8 00 e0 5b 	add  %g3, 0x5b, %i4
40007750:	10 bf ff b8 	b  40007630 <_free_r+0x15c>
40007754:	87 2f 60 03 	sll  %i5, 3, %g3
40007758:	c4 21 20 14 	st  %g2, [ %g4 + 0x14 ]
4000775c:	c4 21 20 10 	st  %g2, [ %g4 + 0x10 ]
40007760:	f4 20 a0 0c 	st  %i2, [ %g2 + 0xc ]
40007764:	f4 20 a0 08 	st  %i2, [ %g2 + 8 ]
40007768:	f8 20 a0 04 	st  %i4, [ %g2 + 4 ]
4000776c:	c2 20 80 01 	st  %g1, [ %g2 + %g1 ]
40007770:	40 00 03 70 	call  40008530 <__malloc_unlock>
40007774:	81 e8 00 00 	restore 
40007778:	b9 3f 20 02 	sra  %i4, 2, %i4
4000777c:	82 10 20 01 	mov  1, %g1
40007780:	b9 28 40 1c 	sll  %g1, %i4, %i4
40007784:	b8 17 00 1b 	or  %i4, %i3, %i4
40007788:	10 bf ff ba 	b  40007670 <_free_r+0x19c>
4000778c:	f8 21 20 04 	st  %i4, [ %g4 + 4 ]
40007790:	18 80 00 07 	bgu  400077ac <_free_r+0x2d8>
40007794:	80 a0 e5 54 	cmp  %g3, 0x554
40007798:	87 30 60 0f 	srl  %g1, 0xf, %g3
4000779c:	ba 00 e0 78 	add  %g3, 0x78, %i5
400077a0:	b8 00 e0 77 	add  %g3, 0x77, %i4
400077a4:	10 bf ff a3 	b  40007630 <_free_r+0x15c>
400077a8:	87 2f 60 03 	sll  %i5, 3, %g3
400077ac:	38 80 00 07 	bgu,a   400077c8 <_free_r+0x2f4>
400077b0:	86 10 23 f8 	mov  0x3f8, %g3
400077b4:	87 30 60 12 	srl  %g1, 0x12, %g3
400077b8:	ba 00 e0 7d 	add  %g3, 0x7d, %i5
400077bc:	b8 00 e0 7c 	add  %g3, 0x7c, %i4
400077c0:	10 bf ff 9c 	b  40007630 <_free_r+0x15c>
400077c4:	87 2f 60 03 	sll  %i5, 3, %g3
400077c8:	10 bf ff 9a 	b  40007630 <_free_r+0x15c>
400077cc:	b8 10 20 7e 	mov  0x7e, %i4
400077d0:	c6 20 a0 04 	st  %g3, [ %g2 + 4 ]
400077d4:	c2 27 40 00 	st  %g1, [ %i5 ]
400077d8:	40 00 03 56 	call  40008530 <__malloc_unlock>
400077dc:	81 e8 00 00 	restore 

400077e0 <_fwalk>:
400077e0:	9d e3 bf a0 	save  %sp, -96, %sp
400077e4:	b6 06 20 48 	add  %i0, 0x48, %i3
400077e8:	b0 10 20 00 	clr  %i0
400077ec:	f8 06 e0 04 	ld  [ %i3 + 4 ], %i4
400077f0:	b8 87 3f ff 	addcc  %i4, -1, %i4
400077f4:	0c 80 00 11 	bneg  40007838 <_fwalk+0x58>
400077f8:	fa 06 e0 08 	ld  [ %i3 + 8 ], %i5
400077fc:	c2 17 60 0c 	lduh  [ %i5 + 0xc ], %g1
40007800:	80 a0 60 01 	cmp  %g1, 1
40007804:	28 80 00 0a 	bleu,a   4000782c <_fwalk+0x4c>
40007808:	b8 07 3f ff 	add  %i4, -1, %i4
4000780c:	c2 57 60 0e 	ldsh  [ %i5 + 0xe ], %g1
40007810:	80 a0 7f ff 	cmp  %g1, -1
40007814:	22 80 00 06 	be,a   4000782c <_fwalk+0x4c>
40007818:	b8 07 3f ff 	add  %i4, -1, %i4
4000781c:	9f c6 40 00 	call  %i1
40007820:	90 10 00 1d 	mov  %i5, %o0
40007824:	b0 16 00 08 	or  %i0, %o0, %i0
40007828:	b8 07 3f ff 	add  %i4, -1, %i4
4000782c:	80 a7 3f ff 	cmp  %i4, -1
40007830:	12 bf ff f3 	bne  400077fc <_fwalk+0x1c>
40007834:	ba 07 60 64 	add  %i5, 0x64, %i5
40007838:	f6 06 c0 00 	ld  [ %i3 ], %i3
4000783c:	80 a6 e0 00 	cmp  %i3, 0
40007840:	32 bf ff ec 	bne,a   400077f0 <_fwalk+0x10>
40007844:	f8 06 e0 04 	ld  [ %i3 + 4 ], %i4
40007848:	81 c7 e0 08 	ret 
4000784c:	81 e8 00 00 	restore 

40007850 <_fwalk_reent>:
40007850:	9d e3 bf a0 	save  %sp, -96, %sp
40007854:	b6 10 20 00 	clr  %i3
40007858:	b4 06 20 48 	add  %i0, 0x48, %i2
4000785c:	f8 06 a0 04 	ld  [ %i2 + 4 ], %i4
40007860:	b8 87 3f ff 	addcc  %i4, -1, %i4
40007864:	0c 80 00 11 	bneg  400078a8 <_fwalk_reent+0x58>
40007868:	fa 06 a0 08 	ld  [ %i2 + 8 ], %i5
4000786c:	c2 17 60 0c 	lduh  [ %i5 + 0xc ], %g1
40007870:	80 a0 60 01 	cmp  %g1, 1
40007874:	28 80 00 0a 	bleu,a   4000789c <_fwalk_reent+0x4c>
40007878:	b8 07 3f ff 	add  %i4, -1, %i4
4000787c:	c2 57 60 0e 	ldsh  [ %i5 + 0xe ], %g1
40007880:	80 a0 7f ff 	cmp  %g1, -1
40007884:	02 80 00 05 	be  40007898 <_fwalk_reent+0x48>
40007888:	92 10 00 1d 	mov  %i5, %o1
4000788c:	9f c6 40 00 	call  %i1
40007890:	90 10 00 18 	mov  %i0, %o0
40007894:	b6 16 c0 08 	or  %i3, %o0, %i3
40007898:	b8 07 3f ff 	add  %i4, -1, %i4
4000789c:	80 a7 3f ff 	cmp  %i4, -1
400078a0:	12 bf ff f3 	bne  4000786c <_fwalk_reent+0x1c>
400078a4:	ba 07 60 64 	add  %i5, 0x64, %i5
400078a8:	f4 06 80 00 	ld  [ %i2 ], %i2
400078ac:	80 a6 a0 00 	cmp  %i2, 0
400078b0:	32 bf ff ec 	bne,a   40007860 <_fwalk_reent+0x10>
400078b4:	f8 06 a0 04 	ld  [ %i2 + 4 ], %i4
400078b8:	81 c7 e0 08 	ret 
400078bc:	91 e8 00 1b 	restore  %g0, %i3, %o0

400078c0 <__localeconv_l>:
400078c0:	81 c3 e0 08 	retl 
400078c4:	90 02 20 f0 	add  %o0, 0xf0, %o0

400078c8 <_localeconv_r>:
400078c8:	03 10 00 3c 	sethi  %hi(0x4000f000), %g1
400078cc:	c2 00 63 7c 	ld  [ %g1 + 0x37c ], %g1	! 4000f37c <_impure_ptr>
400078d0:	d0 00 60 20 	ld  [ %g1 + 0x20 ], %o0
400078d4:	80 a2 20 00 	cmp  %o0, 0
400078d8:	22 80 00 04 	be,a   400078e8 <_localeconv_r+0x20>
400078dc:	11 10 00 3d 	sethi  %hi(0x4000f400), %o0
400078e0:	81 c3 e0 08 	retl 
400078e4:	90 02 20 f0 	add  %o0, 0xf0, %o0	! 4000f4f0 <__malloc_av_+0x108>
400078e8:	90 12 23 f0 	or  %o0, 0x3f0, %o0
400078ec:	81 c3 e0 08 	retl 
400078f0:	90 02 20 f0 	add  %o0, 0xf0, %o0

400078f4 <localeconv>:
400078f4:	03 10 00 3c 	sethi  %hi(0x4000f000), %g1
400078f8:	c2 00 63 7c 	ld  [ %g1 + 0x37c ], %g1	! 4000f37c <_impure_ptr>
400078fc:	d0 00 60 20 	ld  [ %g1 + 0x20 ], %o0
40007900:	80 a2 20 00 	cmp  %o0, 0
40007904:	22 80 00 04 	be,a   40007914 <localeconv+0x20>
40007908:	11 10 00 3d 	sethi  %hi(0x4000f400), %o0
4000790c:	81 c3 e0 08 	retl 
40007910:	90 02 20 f0 	add  %o0, 0xf0, %o0	! 4000f4f0 <__malloc_av_+0x108>
40007914:	90 12 23 f0 	or  %o0, 0x3f0, %o0
40007918:	81 c3 e0 08 	retl 
4000791c:	90 02 20 f0 	add  %o0, 0xf0, %o0

40007920 <__smakebuf_r>:
40007920:	9d e3 bf 60 	save  %sp, -160, %sp
40007924:	c2 16 60 0c 	lduh  [ %i1 + 0xc ], %g1
40007928:	80 88 60 02 	btst  2, %g1
4000792c:	22 80 00 09 	be,a   40007950 <__smakebuf_r+0x30>
40007930:	d2 56 60 0e 	ldsh  [ %i1 + 0xe ], %o1
40007934:	82 06 60 47 	add  %i1, 0x47, %g1
40007938:	c2 26 40 00 	st  %g1, [ %i1 ]
4000793c:	c2 26 60 10 	st  %g1, [ %i1 + 0x10 ]
40007940:	82 10 20 01 	mov  1, %g1
40007944:	c2 26 60 14 	st  %g1, [ %i1 + 0x14 ]
40007948:	81 c7 e0 08 	ret 
4000794c:	81 e8 00 00 	restore 
40007950:	80 a2 60 00 	cmp  %o1, 0
40007954:	06 80 00 25 	bl  400079e8 <__smakebuf_r+0xc8>
40007958:	94 07 bf c0 	add  %fp, -64, %o2
4000795c:	40 00 12 c2 	call  4000c464 <_fstat_r>
40007960:	90 10 00 18 	mov  %i0, %o0
40007964:	80 a2 20 00 	cmp  %o0, 0
40007968:	06 80 00 1f 	bl  400079e4 <__smakebuf_r+0xc4>
4000796c:	05 00 00 3c 	sethi  %hi(0xf000), %g2
40007970:	c2 17 bf c8 	lduh  [ %fp + -56 ], %g1
40007974:	ba 10 28 00 	mov  0x800, %i5
40007978:	82 08 40 02 	and  %g1, %g2, %g1
4000797c:	b6 10 24 00 	mov  0x400, %i3
40007980:	05 00 00 08 	sethi  %hi(0x2000), %g2
40007984:	92 10 24 00 	mov  0x400, %o1
40007988:	82 18 40 02 	xor  %g1, %g2, %g1
4000798c:	80 a0 00 01 	cmp  %g0, %g1
40007990:	b8 60 3f ff 	subx  %g0, -1, %i4
40007994:	40 00 00 69 	call  40007b38 <_malloc_r>
40007998:	90 10 00 18 	mov  %i0, %o0
4000799c:	80 a2 20 00 	cmp  %o0, 0
400079a0:	22 80 00 1d 	be,a   40007a14 <__smakebuf_r+0xf4>
400079a4:	c2 16 60 0c 	lduh  [ %i1 + 0xc ], %g1
400079a8:	03 10 00 1c 	sethi  %hi(0x40007000), %g1
400079ac:	82 10 60 a4 	or  %g1, 0xa4, %g1	! 400070a4 <_cleanup_r>
400079b0:	c2 26 20 28 	st  %g1, [ %i0 + 0x28 ]
400079b4:	d0 26 40 00 	st  %o0, [ %i1 ]
400079b8:	c2 16 60 0c 	lduh  [ %i1 + 0xc ], %g1
400079bc:	d0 26 60 10 	st  %o0, [ %i1 + 0x10 ]
400079c0:	82 10 60 80 	or  %g1, 0x80, %g1
400079c4:	f6 26 60 14 	st  %i3, [ %i1 + 0x14 ]
400079c8:	80 a7 20 00 	cmp  %i4, 0
400079cc:	12 80 00 22 	bne  40007a54 <__smakebuf_r+0x134>
400079d0:	c2 36 60 0c 	sth  %g1, [ %i1 + 0xc ]
400079d4:	82 17 40 01 	or  %i5, %g1, %g1
400079d8:	c2 36 60 0c 	sth  %g1, [ %i1 + 0xc ]
400079dc:	81 c7 e0 08 	ret 
400079e0:	81 e8 00 00 	restore 
400079e4:	c2 16 60 0c 	lduh  [ %i1 + 0xc ], %g1
400079e8:	80 88 60 80 	btst  0x80, %g1
400079ec:	02 80 00 16 	be  40007a44 <__smakebuf_r+0x124>
400079f0:	ba 10 20 00 	clr  %i5
400079f4:	92 10 20 40 	mov  0x40, %o1
400079f8:	90 10 00 18 	mov  %i0, %o0
400079fc:	40 00 00 4f 	call  40007b38 <_malloc_r>
40007a00:	b6 10 20 40 	mov  0x40, %i3
40007a04:	80 a2 20 00 	cmp  %o0, 0
40007a08:	12 bf ff e8 	bne  400079a8 <__smakebuf_r+0x88>
40007a0c:	b8 10 20 00 	clr  %i4
40007a10:	c2 16 60 0c 	lduh  [ %i1 + 0xc ], %g1
40007a14:	80 88 62 00 	btst  0x200, %g1
40007a18:	12 bf ff cc 	bne  40007948 <__smakebuf_r+0x28>
40007a1c:	82 08 7f fc 	and  %g1, -4, %g1
40007a20:	82 10 60 02 	or  %g1, 2, %g1
40007a24:	84 06 60 47 	add  %i1, 0x47, %g2
40007a28:	c2 36 60 0c 	sth  %g1, [ %i1 + 0xc ]
40007a2c:	c4 26 40 00 	st  %g2, [ %i1 ]
40007a30:	82 10 20 01 	mov  1, %g1
40007a34:	c4 26 60 10 	st  %g2, [ %i1 + 0x10 ]
40007a38:	c2 26 60 14 	st  %g1, [ %i1 + 0x14 ]
40007a3c:	81 c7 e0 08 	ret 
40007a40:	81 e8 00 00 	restore 
40007a44:	b6 10 24 00 	mov  0x400, %i3
40007a48:	b8 10 20 00 	clr  %i4
40007a4c:	10 bf ff d2 	b  40007994 <__smakebuf_r+0x74>
40007a50:	92 10 24 00 	mov  0x400, %o1
40007a54:	d2 56 60 0e 	ldsh  [ %i1 + 0xe ], %o1
40007a58:	40 00 13 d0 	call  4000c998 <_isatty_r>
40007a5c:	90 10 00 18 	mov  %i0, %o0
40007a60:	80 a2 20 00 	cmp  %o0, 0
40007a64:	02 bf ff dc 	be  400079d4 <__smakebuf_r+0xb4>
40007a68:	c2 16 60 0c 	lduh  [ %i1 + 0xc ], %g1
40007a6c:	82 08 7f fc 	and  %g1, -4, %g1
40007a70:	82 10 60 01 	or  %g1, 1, %g1
40007a74:	82 17 40 01 	or  %i5, %g1, %g1
40007a78:	c2 36 60 0c 	sth  %g1, [ %i1 + 0xc ]
40007a7c:	81 c7 e0 08 	ret 
40007a80:	81 e8 00 00 	restore 

40007a84 <__swhatbuf_r>:
40007a84:	9d e3 bf 60 	save  %sp, -160, %sp
40007a88:	d2 56 60 0e 	ldsh  [ %i1 + 0xe ], %o1
40007a8c:	80 a2 60 00 	cmp  %o1, 0
40007a90:	06 80 00 12 	bl  40007ad8 <__swhatbuf_r+0x54>
40007a94:	94 07 bf c0 	add  %fp, -64, %o2
40007a98:	40 00 12 73 	call  4000c464 <_fstat_r>
40007a9c:	90 10 00 18 	mov  %i0, %o0
40007aa0:	80 a2 20 00 	cmp  %o0, 0
40007aa4:	06 80 00 0d 	bl  40007ad8 <__swhatbuf_r+0x54>
40007aa8:	05 00 00 3c 	sethi  %hi(0xf000), %g2
40007aac:	c2 17 bf c8 	lduh  [ %fp + -56 ], %g1
40007ab0:	82 08 40 02 	and  %g1, %g2, %g1
40007ab4:	05 00 00 08 	sethi  %hi(0x2000), %g2
40007ab8:	82 18 40 02 	xor  %g1, %g2, %g1
40007abc:	80 a0 00 01 	cmp  %g0, %g1
40007ac0:	82 60 3f ff 	subx  %g0, -1, %g1
40007ac4:	c2 26 c0 00 	st  %g1, [ %i3 ]
40007ac8:	82 10 24 00 	mov  0x400, %g1
40007acc:	c2 26 80 00 	st  %g1, [ %i2 ]
40007ad0:	81 c7 e0 08 	ret 
40007ad4:	91 e8 28 00 	restore  %g0, 0x800, %o0
40007ad8:	c2 16 60 0c 	lduh  [ %i1 + 0xc ], %g1
40007adc:	80 88 60 80 	btst  0x80, %g1
40007ae0:	02 80 00 06 	be  40007af8 <__swhatbuf_r+0x74>
40007ae4:	c0 26 c0 00 	clr  [ %i3 ]
40007ae8:	82 10 20 40 	mov  0x40, %g1
40007aec:	c2 26 80 00 	st  %g1, [ %i2 ]
40007af0:	81 c7 e0 08 	ret 
40007af4:	91 e8 20 00 	restore  %g0, 0, %o0
40007af8:	82 10 24 00 	mov  0x400, %g1
40007afc:	c2 26 80 00 	st  %g1, [ %i2 ]
40007b00:	81 c7 e0 08 	ret 
40007b04:	91 e8 20 00 	restore  %g0, 0, %o0

40007b08 <malloc>:
40007b08:	92 10 00 08 	mov  %o0, %o1
40007b0c:	03 10 00 3c 	sethi  %hi(0x4000f000), %g1
40007b10:	d0 00 63 7c 	ld  [ %g1 + 0x37c ], %o0	! 4000f37c <_impure_ptr>
40007b14:	82 13 c0 00 	mov  %o7, %g1
40007b18:	40 00 00 08 	call  40007b38 <_malloc_r>
40007b1c:	9e 10 40 00 	mov  %g1, %o7

40007b20 <free>:
40007b20:	92 10 00 08 	mov  %o0, %o1
40007b24:	03 10 00 3c 	sethi  %hi(0x4000f000), %g1
40007b28:	d0 00 63 7c 	ld  [ %g1 + 0x37c ], %o0	! 4000f37c <_impure_ptr>
40007b2c:	82 13 c0 00 	mov  %o7, %g1
40007b30:	7f ff fe 69 	call  400074d4 <_free_r>
40007b34:	9e 10 40 00 	mov  %g1, %o7

40007b38 <_malloc_r>:
40007b38:	9d e3 bf a0 	save  %sp, -96, %sp
40007b3c:	82 06 60 0b 	add  %i1, 0xb, %g1
40007b40:	80 a0 60 16 	cmp  %g1, 0x16
40007b44:	18 80 00 21 	bgu  40007bc8 <_malloc_r+0x90>
40007b48:	80 a0 60 00 	cmp  %g1, 0
40007b4c:	80 a6 60 10 	cmp  %i1, 0x10
40007b50:	18 80 00 ca 	bgu  40007e78 <_malloc_r+0x340>
40007b54:	82 10 20 0c 	mov  0xc, %g1
40007b58:	40 00 02 74 	call  40008528 <__malloc_lock>
40007b5c:	90 10 00 18 	mov  %i0, %o0
40007b60:	b8 10 20 10 	mov  0x10, %i4
40007b64:	82 10 20 18 	mov  0x18, %g1
40007b68:	88 10 20 02 	mov  2, %g4
40007b6c:	37 10 00 3c 	sethi  %hi(0x4000f000), %i3
40007b70:	b6 16 e3 e8 	or  %i3, 0x3e8, %i3	! 4000f3e8 <__malloc_av_>
40007b74:	82 06 c0 01 	add  %i3, %g1, %g1
40007b78:	fa 00 60 04 	ld  [ %g1 + 4 ], %i5
40007b7c:	84 00 7f f8 	add  %g1, -8, %g2
40007b80:	80 a7 40 02 	cmp  %i5, %g2
40007b84:	22 80 00 c1 	be,a   40007e88 <_malloc_r+0x350>
40007b88:	fa 00 60 0c 	ld  [ %g1 + 0xc ], %i5
40007b8c:	c2 07 60 04 	ld  [ %i5 + 4 ], %g1
40007b90:	c4 07 60 0c 	ld  [ %i5 + 0xc ], %g2
40007b94:	c6 07 60 08 	ld  [ %i5 + 8 ], %g3
40007b98:	c4 20 e0 0c 	st  %g2, [ %g3 + 0xc ]
40007b9c:	c6 20 a0 08 	st  %g3, [ %g2 + 8 ]
40007ba0:	82 08 7f fc 	and  %g1, -4, %g1
40007ba4:	82 07 40 01 	add  %i5, %g1, %g1
40007ba8:	c4 00 60 04 	ld  [ %g1 + 4 ], %g2
40007bac:	84 10 a0 01 	or  %g2, 1, %g2
40007bb0:	90 10 00 18 	mov  %i0, %o0
40007bb4:	c4 20 60 04 	st  %g2, [ %g1 + 4 ]
40007bb8:	40 00 02 5e 	call  40008530 <__malloc_unlock>
40007bbc:	ba 07 60 08 	add  %i5, 8, %i5
40007bc0:	81 c7 e0 08 	ret 
40007bc4:	91 e8 00 1d 	restore  %g0, %i5, %o0
40007bc8:	06 80 00 ab 	bl  40007e74 <_malloc_r+0x33c>
40007bcc:	b8 08 7f f8 	and  %g1, -8, %i4
40007bd0:	80 a7 00 19 	cmp  %i4, %i1
40007bd4:	0a 80 00 a9 	bcs  40007e78 <_malloc_r+0x340>
40007bd8:	82 10 20 0c 	mov  0xc, %g1
40007bdc:	40 00 02 53 	call  40008528 <__malloc_lock>
40007be0:	90 10 00 18 	mov  %i0, %o0
40007be4:	80 a7 21 f7 	cmp  %i4, 0x1f7
40007be8:	08 80 01 4d 	bleu  4000811c <_malloc_r+0x5e4>
40007bec:	89 37 20 03 	srl  %i4, 3, %g4
40007bf0:	83 37 20 09 	srl  %i4, 9, %g1
40007bf4:	80 a0 60 00 	cmp  %g1, 0
40007bf8:	22 80 00 ed 	be,a   40007fac <_malloc_r+0x474>
40007bfc:	82 10 22 00 	mov  0x200, %g1
40007c00:	80 a0 60 04 	cmp  %g1, 4
40007c04:	18 80 01 21 	bgu  40008088 <_malloc_r+0x550>
40007c08:	80 a0 60 14 	cmp  %g1, 0x14
40007c0c:	83 37 20 06 	srl  %i4, 6, %g1
40007c10:	88 00 60 39 	add  %g1, 0x39, %g4
40007c14:	b4 00 60 38 	add  %g1, 0x38, %i2
40007c18:	83 29 20 03 	sll  %g4, 3, %g1
40007c1c:	37 10 00 3c 	sethi  %hi(0x4000f000), %i3
40007c20:	b6 16 e3 e8 	or  %i3, 0x3e8, %i3	! 4000f3e8 <__malloc_av_>
40007c24:	82 06 c0 01 	add  %i3, %g1, %g1
40007c28:	86 00 7f f8 	add  %g1, -8, %g3
40007c2c:	fa 00 60 04 	ld  [ %g1 + 4 ], %i5
40007c30:	80 a0 c0 1d 	cmp  %g3, %i5
40007c34:	32 80 00 0b 	bne,a   40007c60 <_malloc_r+0x128>
40007c38:	c2 07 60 04 	ld  [ %i5 + 4 ], %g1
40007c3c:	10 80 00 97 	b  40007e98 <_malloc_r+0x360>
40007c40:	fa 06 e0 10 	ld  [ %i3 + 0x10 ], %i5
40007c44:	36 80 00 dd 	bge,a   40007fb8 <_malloc_r+0x480>
40007c48:	c4 07 60 0c 	ld  [ %i5 + 0xc ], %g2
40007c4c:	fa 07 60 0c 	ld  [ %i5 + 0xc ], %i5
40007c50:	80 a0 c0 1d 	cmp  %g3, %i5
40007c54:	22 80 00 91 	be,a   40007e98 <_malloc_r+0x360>
40007c58:	fa 06 e0 10 	ld  [ %i3 + 0x10 ], %i5
40007c5c:	c2 07 60 04 	ld  [ %i5 + 4 ], %g1
40007c60:	82 08 7f fc 	and  %g1, -4, %g1
40007c64:	84 20 40 1c 	sub  %g1, %i4, %g2
40007c68:	80 a0 a0 0f 	cmp  %g2, 0xf
40007c6c:	04 bf ff f6 	ble  40007c44 <_malloc_r+0x10c>
40007c70:	80 a0 a0 00 	cmp  %g2, 0
40007c74:	fa 06 e0 10 	ld  [ %i3 + 0x10 ], %i5
40007c78:	9e 06 e0 08 	add  %i3, 8, %o7
40007c7c:	80 a7 40 0f 	cmp  %i5, %o7
40007c80:	12 80 00 8a 	bne  40007ea8 <_malloc_r+0x370>
40007c84:	88 10 00 1a 	mov  %i2, %g4
40007c88:	c6 06 e0 04 	ld  [ %i3 + 4 ], %g3
40007c8c:	83 39 20 02 	sra  %g4, 2, %g1
40007c90:	b4 10 20 01 	mov  1, %i2
40007c94:	b5 2e 80 01 	sll  %i2, %g1, %i2
40007c98:	80 a6 80 03 	cmp  %i2, %g3
40007c9c:	08 80 00 a5 	bleu  40007f30 <_malloc_r+0x3f8>
40007ca0:	80 8e 80 03 	btst  %i2, %g3
40007ca4:	fa 06 e0 08 	ld  [ %i3 + 8 ], %i5
40007ca8:	c2 07 60 04 	ld  [ %i5 + 4 ], %g1
40007cac:	b2 08 7f fc 	and  %g1, -4, %i1
40007cb0:	84 26 40 1c 	sub  %i1, %i4, %g2
40007cb4:	80 a0 a0 0f 	cmp  %g2, 0xf
40007cb8:	04 80 00 03 	ble  40007cc4 <_malloc_r+0x18c>
40007cbc:	86 10 20 01 	mov  1, %g3
40007cc0:	86 10 20 00 	clr  %g3
40007cc4:	80 88 e0 ff 	btst  0xff, %g3
40007cc8:	12 80 00 04 	bne  40007cd8 <_malloc_r+0x1a0>
40007ccc:	80 a6 40 1c 	cmp  %i1, %i4
40007cd0:	1a 80 00 c5 	bcc  40007fe4 <_malloc_r+0x4ac>
40007cd4:	82 17 20 01 	or  %i4, 1, %g1
40007cd8:	03 10 00 3e 	sethi  %hi(0x4000f800), %g1
40007cdc:	27 10 00 3c 	sethi  %hi(0x4000f000), %l3
40007ce0:	f4 00 63 00 	ld  [ %g1 + 0x300 ], %i2
40007ce4:	a2 07 40 19 	add  %i5, %i1, %l1
40007ce8:	c2 04 e3 e0 	ld  [ %l3 + 0x3e0 ], %g1
40007cec:	80 a0 7f ff 	cmp  %g1, -1
40007cf0:	02 80 01 47 	be  4000820c <_malloc_r+0x6d4>
40007cf4:	b4 07 00 1a 	add  %i4, %i2, %i2
40007cf8:	13 00 00 04 	sethi  %hi(0x1000), %o1
40007cfc:	92 12 60 0f 	or  %o1, 0xf, %o1	! 100f <__data_size+0x9ff>
40007d00:	b4 06 80 09 	add  %i2, %o1, %i2
40007d04:	b4 0e b0 00 	and  %i2, -4096, %i2
40007d08:	92 10 00 1a 	mov  %i2, %o1
40007d0c:	40 00 07 ef 	call  40009cc8 <_sbrk_r>
40007d10:	90 10 00 18 	mov  %i0, %o0
40007d14:	80 a2 3f ff 	cmp  %o0, -1
40007d18:	02 80 01 30 	be  400081d8 <_malloc_r+0x6a0>
40007d1c:	a0 10 00 08 	mov  %o0, %l0
40007d20:	80 a7 40 1b 	cmp  %i5, %i3
40007d24:	02 80 00 04 	be  40007d34 <_malloc_r+0x1fc>
40007d28:	80 a2 00 11 	cmp  %o0, %l1
40007d2c:	2a 80 01 2c 	bcs,a   400081dc <_malloc_r+0x6a4>
40007d30:	fa 06 e0 08 	ld  [ %i3 + 8 ], %i5
40007d34:	25 10 00 3e 	sethi  %hi(0x4000f800), %l2
40007d38:	d2 04 a2 d0 	ld  [ %l2 + 0x2d0 ], %o1	! 4000fad0 <__malloc_current_mallinfo>
40007d3c:	92 06 80 09 	add  %i2, %o1, %o1
40007d40:	80 a4 40 10 	cmp  %l1, %l0
40007d44:	02 80 01 28 	be  400081e4 <_malloc_r+0x6ac>
40007d48:	d2 24 a2 d0 	st  %o1, [ %l2 + 0x2d0 ]
40007d4c:	c2 04 e3 e0 	ld  [ %l3 + 0x3e0 ], %g1
40007d50:	80 a0 7f ff 	cmp  %g1, -1
40007d54:	02 80 01 2c 	be  40008204 <_malloc_r+0x6cc>
40007d58:	a2 24 00 11 	sub  %l0, %l1, %l1
40007d5c:	92 04 40 09 	add  %l1, %o1, %o1
40007d60:	d2 24 a2 d0 	st  %o1, [ %l2 + 0x2d0 ]
40007d64:	82 8c 20 07 	andcc  %l0, 7, %g1
40007d68:	02 80 00 06 	be  40007d80 <_malloc_r+0x248>
40007d6c:	13 00 00 04 	sethi  %hi(0x1000), %o1
40007d70:	a0 24 00 01 	sub  %l0, %g1, %l0
40007d74:	92 12 60 08 	or  %o1, 8, %o1
40007d78:	a0 04 20 08 	add  %l0, 8, %l0
40007d7c:	92 22 40 01 	sub  %o1, %g1, %o1
40007d80:	b4 04 00 1a 	add  %l0, %i2, %i2
40007d84:	90 10 00 18 	mov  %i0, %o0
40007d88:	b4 0e af ff 	and  %i2, 0xfff, %i2
40007d8c:	b4 22 40 1a 	sub  %o1, %i2, %i2
40007d90:	40 00 07 ce 	call  40009cc8 <_sbrk_r>
40007d94:	92 10 00 1a 	mov  %i2, %o1
40007d98:	80 a2 3f ff 	cmp  %o0, -1
40007d9c:	02 80 01 32 	be  40008264 <_malloc_r+0x72c>
40007da0:	82 10 20 01 	mov  1, %g1
40007da4:	82 22 00 10 	sub  %o0, %l0, %g1
40007da8:	82 00 40 1a 	add  %g1, %i2, %g1
40007dac:	82 10 60 01 	or  %g1, 1, %g1
40007db0:	e0 26 e0 08 	st  %l0, [ %i3 + 8 ]
40007db4:	d2 04 a2 d0 	ld  [ %l2 + 0x2d0 ], %o1
40007db8:	c2 24 20 04 	st  %g1, [ %l0 + 4 ]
40007dbc:	92 06 80 09 	add  %i2, %o1, %o1
40007dc0:	80 a7 40 1b 	cmp  %i5, %i3
40007dc4:	02 80 01 2a 	be  4000826c <_malloc_r+0x734>
40007dc8:	d2 24 a2 d0 	st  %o1, [ %l2 + 0x2d0 ]
40007dcc:	80 a6 60 0f 	cmp  %i1, 0xf
40007dd0:	08 80 01 29 	bleu  40008274 <_malloc_r+0x73c>
40007dd4:	82 06 7f f4 	add  %i1, -12, %g1
40007dd8:	c4 07 60 04 	ld  [ %i5 + 4 ], %g2
40007ddc:	84 08 a0 01 	and  %g2, 1, %g2
40007de0:	82 08 7f f8 	and  %g1, -8, %g1
40007de4:	84 10 80 01 	or  %g2, %g1, %g2
40007de8:	c4 27 60 04 	st  %g2, [ %i5 + 4 ]
40007dec:	86 10 20 05 	mov  5, %g3
40007df0:	84 07 40 01 	add  %i5, %g1, %g2
40007df4:	c6 20 a0 04 	st  %g3, [ %g2 + 4 ]
40007df8:	80 a0 60 0f 	cmp  %g1, 0xf
40007dfc:	18 80 01 2f 	bgu  400082b8 <_malloc_r+0x780>
40007e00:	c6 20 a0 08 	st  %g3, [ %g2 + 8 ]
40007e04:	c2 04 20 04 	ld  [ %l0 + 4 ], %g1
40007e08:	ba 10 00 10 	mov  %l0, %i5
40007e0c:	05 10 00 3e 	sethi  %hi(0x4000f800), %g2
40007e10:	c6 00 a2 fc 	ld  [ %g2 + 0x2fc ], %g3	! 4000fafc <__malloc_max_sbrked_mem>
40007e14:	80 a0 c0 09 	cmp  %g3, %o1
40007e18:	2a 80 00 02 	bcs,a   40007e20 <_malloc_r+0x2e8>
40007e1c:	d2 20 a2 fc 	st  %o1, [ %g2 + 0x2fc ]
40007e20:	05 10 00 3e 	sethi  %hi(0x4000f800), %g2
40007e24:	c6 00 a2 f8 	ld  [ %g2 + 0x2f8 ], %g3	! 4000faf8 <__malloc_max_total_mem>
40007e28:	80 a0 c0 09 	cmp  %g3, %o1
40007e2c:	2a 80 00 02 	bcs,a   40007e34 <_malloc_r+0x2fc>
40007e30:	d2 20 a2 f8 	st  %o1, [ %g2 + 0x2f8 ]
40007e34:	82 08 7f fc 	and  %g1, -4, %g1
40007e38:	80 a0 40 1c 	cmp  %g1, %i4
40007e3c:	0a 80 00 09 	bcs  40007e60 <_malloc_r+0x328>
40007e40:	84 20 40 1c 	sub  %g1, %i4, %g2
40007e44:	80 a0 a0 0f 	cmp  %g2, 0xf
40007e48:	04 80 00 03 	ble  40007e54 <_malloc_r+0x31c>
40007e4c:	82 10 20 01 	mov  1, %g1
40007e50:	82 10 20 00 	clr  %g1
40007e54:	80 88 60 ff 	btst  0xff, %g1
40007e58:	02 80 00 63 	be  40007fe4 <_malloc_r+0x4ac>
40007e5c:	82 17 20 01 	or  %i4, 1, %g1
40007e60:	90 10 00 18 	mov  %i0, %o0
40007e64:	40 00 01 b3 	call  40008530 <__malloc_unlock>
40007e68:	ba 10 20 00 	clr  %i5
40007e6c:	81 c7 e0 08 	ret 
40007e70:	91 e8 00 1d 	restore  %g0, %i5, %o0
40007e74:	82 10 20 0c 	mov  0xc, %g1
40007e78:	ba 10 20 00 	clr  %i5
40007e7c:	c2 26 00 00 	st  %g1, [ %i0 ]
40007e80:	81 c7 e0 08 	ret 
40007e84:	91 e8 00 1d 	restore  %g0, %i5, %o0
40007e88:	80 a0 40 1d 	cmp  %g1, %i5
40007e8c:	12 bf ff 40 	bne  40007b8c <_malloc_r+0x54>
40007e90:	88 01 20 02 	add  %g4, 2, %g4
40007e94:	fa 06 e0 10 	ld  [ %i3 + 0x10 ], %i5
40007e98:	9e 06 e0 08 	add  %i3, 8, %o7
40007e9c:	80 a7 40 0f 	cmp  %i5, %o7
40007ea0:	22 bf ff 7b 	be,a   40007c8c <_malloc_r+0x154>
40007ea4:	c6 06 e0 04 	ld  [ %i3 + 4 ], %g3
40007ea8:	c2 07 60 04 	ld  [ %i5 + 4 ], %g1
40007eac:	82 08 7f fc 	and  %g1, -4, %g1
40007eb0:	84 20 40 1c 	sub  %g1, %i4, %g2
40007eb4:	80 a0 a0 0f 	cmp  %g2, 0xf
40007eb8:	14 80 00 9b 	bg  40008124 <_malloc_r+0x5ec>
40007ebc:	80 a0 a0 00 	cmp  %g2, 0
40007ec0:	de 26 e0 14 	st  %o7, [ %i3 + 0x14 ]
40007ec4:	16 80 00 40 	bge  40007fc4 <_malloc_r+0x48c>
40007ec8:	de 26 e0 10 	st  %o7, [ %i3 + 0x10 ]
40007ecc:	80 a0 61 ff 	cmp  %g1, 0x1ff
40007ed0:	18 80 00 50 	bgu  40008010 <_malloc_r+0x4d8>
40007ed4:	80 a0 69 ff 	cmp  %g1, 0x9ff
40007ed8:	c4 06 e0 04 	ld  [ %i3 + 4 ], %g2
40007edc:	b5 30 60 05 	srl  %g1, 5, %i2
40007ee0:	86 10 20 01 	mov  1, %g3
40007ee4:	82 08 7f f8 	and  %g1, -8, %g1
40007ee8:	87 28 c0 1a 	sll  %g3, %i2, %g3
40007eec:	82 00 60 08 	add  %g1, 8, %g1
40007ef0:	86 10 c0 02 	or  %g3, %g2, %g3
40007ef4:	f4 06 c0 01 	ld  [ %i3 + %g1 ], %i2
40007ef8:	84 06 c0 01 	add  %i3, %g1, %g2
40007efc:	f4 27 60 08 	st  %i2, [ %i5 + 8 ]
40007f00:	c6 26 e0 04 	st  %g3, [ %i3 + 4 ]
40007f04:	84 00 bf f8 	add  %g2, -8, %g2
40007f08:	c4 27 60 0c 	st  %g2, [ %i5 + 0xc ]
40007f0c:	fa 26 c0 01 	st  %i5, [ %i3 + %g1 ]
40007f10:	fa 26 a0 0c 	st  %i5, [ %i2 + 0xc ]
40007f14:	83 39 20 02 	sra  %g4, 2, %g1
40007f18:	b4 10 20 01 	mov  1, %i2
40007f1c:	b5 2e 80 01 	sll  %i2, %g1, %i2
40007f20:	80 a6 80 03 	cmp  %i2, %g3
40007f24:	38 bf ff 61 	bgu,a   40007ca8 <_malloc_r+0x170>
40007f28:	fa 06 e0 08 	ld  [ %i3 + 8 ], %i5
40007f2c:	80 8e 80 03 	btst  %i2, %g3
40007f30:	12 80 00 08 	bne  40007f50 <_malloc_r+0x418>
40007f34:	9b 29 20 03 	sll  %g4, 3, %o5
40007f38:	88 09 3f fc 	and  %g4, -4, %g4
40007f3c:	b5 2e a0 01 	sll  %i2, 1, %i2
40007f40:	80 8e 80 03 	btst  %i2, %g3
40007f44:	02 bf ff fe 	be  40007f3c <_malloc_r+0x404>
40007f48:	88 01 20 04 	add  %g4, 4, %g4
40007f4c:	9b 29 20 03 	sll  %g4, 3, %o5
40007f50:	98 10 00 04 	mov  %g4, %o4
40007f54:	9a 06 c0 0d 	add  %i3, %o5, %o5
40007f58:	b2 10 00 0d 	mov  %o5, %i1
40007f5c:	10 80 00 0b 	b  40007f88 <_malloc_r+0x450>
40007f60:	c2 06 60 0c 	ld  [ %i1 + 0xc ], %g1
40007f64:	ba 10 00 01 	mov  %g1, %i5
40007f68:	84 08 bf fc 	and  %g2, -4, %g2
40007f6c:	86 20 80 1c 	sub  %g2, %i4, %g3
40007f70:	80 a0 e0 0f 	cmp  %g3, 0xf
40007f74:	14 80 00 4f 	bg  400080b0 <_malloc_r+0x578>
40007f78:	c2 00 60 0c 	ld  [ %g1 + 0xc ], %g1
40007f7c:	80 a0 e0 00 	cmp  %g3, 0
40007f80:	36 80 00 5d 	bge,a   400080f4 <_malloc_r+0x5bc>
40007f84:	84 07 40 02 	add  %i5, %g2, %g2
40007f88:	80 a6 40 01 	cmp  %i1, %g1
40007f8c:	32 bf ff f6 	bne,a   40007f64 <_malloc_r+0x42c>
40007f90:	c4 00 60 04 	ld  [ %g1 + 4 ], %g2
40007f94:	98 03 20 01 	inc  %o4
40007f98:	80 8b 20 03 	btst  3, %o4
40007f9c:	12 bf ff f0 	bne  40007f5c <_malloc_r+0x424>
40007fa0:	b2 06 60 08 	add  %i1, 8, %i1
40007fa4:	10 80 00 7b 	b  40008190 <_malloc_r+0x658>
40007fa8:	80 89 20 03 	btst  3, %g4
40007fac:	88 10 20 40 	mov  0x40, %g4
40007fb0:	10 bf ff 1b 	b  40007c1c <_malloc_r+0xe4>
40007fb4:	b4 10 20 3f 	mov  0x3f, %i2
40007fb8:	c6 07 60 08 	ld  [ %i5 + 8 ], %g3
40007fbc:	c4 20 e0 0c 	st  %g2, [ %g3 + 0xc ]
40007fc0:	c6 20 a0 08 	st  %g3, [ %g2 + 8 ]
40007fc4:	82 07 40 01 	add  %i5, %g1, %g1
40007fc8:	c4 00 60 04 	ld  [ %g1 + 4 ], %g2
40007fcc:	84 10 a0 01 	or  %g2, 1, %g2
40007fd0:	90 10 00 18 	mov  %i0, %o0
40007fd4:	c4 20 60 04 	st  %g2, [ %g1 + 4 ]
40007fd8:	40 00 01 56 	call  40008530 <__malloc_unlock>
40007fdc:	ba 07 60 08 	add  %i5, 8, %i5
40007fe0:	30 bf fe f8 	b,a   40007bc0 <_malloc_r+0x88>
40007fe4:	c2 27 60 04 	st  %g1, [ %i5 + 4 ]
40007fe8:	b8 07 40 1c 	add  %i5, %i4, %i4
40007fec:	84 10 a0 01 	or  %g2, 1, %g2
40007ff0:	f8 26 e0 08 	st  %i4, [ %i3 + 8 ]
40007ff4:	90 10 00 18 	mov  %i0, %o0
40007ff8:	c4 27 20 04 	st  %g2, [ %i4 + 4 ]
40007ffc:	40 00 01 4d 	call  40008530 <__malloc_unlock>
40008000:	ba 07 60 08 	add  %i5, 8, %i5
40008004:	b0 10 00 1d 	mov  %i5, %i0
40008008:	81 c7 e0 08 	ret 
4000800c:	81 e8 00 00 	restore 
40008010:	08 80 00 53 	bleu  4000815c <_malloc_r+0x624>
40008014:	85 30 60 09 	srl  %g1, 9, %g2
40008018:	80 a0 a0 14 	cmp  %g2, 0x14
4000801c:	18 80 00 84 	bgu  4000822c <_malloc_r+0x6f4>
40008020:	80 a0 a0 54 	cmp  %g2, 0x54
40008024:	b4 00 a0 5c 	add  %g2, 0x5c, %i2
40008028:	86 00 a0 5b 	add  %g2, 0x5b, %g3
4000802c:	85 2e a0 03 	sll  %i2, 3, %g2
40008030:	b4 06 c0 02 	add  %i3, %g2, %i2
40008034:	c4 06 c0 02 	ld  [ %i3 + %g2 ], %g2
40008038:	b4 06 bf f8 	add  %i2, -8, %i2
4000803c:	80 a6 80 02 	cmp  %i2, %g2
40008040:	22 80 00 75 	be,a   40008214 <_malloc_r+0x6dc>
40008044:	f2 06 e0 04 	ld  [ %i3 + 4 ], %i1
40008048:	c6 00 a0 04 	ld  [ %g2 + 4 ], %g3
4000804c:	86 08 ff fc 	and  %g3, -4, %g3
40008050:	80 a0 c0 01 	cmp  %g3, %g1
40008054:	28 80 00 07 	bleu,a   40008070 <_malloc_r+0x538>
40008058:	f4 00 a0 0c 	ld  [ %g2 + 0xc ], %i2
4000805c:	c4 00 a0 08 	ld  [ %g2 + 8 ], %g2
40008060:	80 a6 80 02 	cmp  %i2, %g2
40008064:	32 bf ff fa 	bne,a   4000804c <_malloc_r+0x514>
40008068:	c6 00 a0 04 	ld  [ %g2 + 4 ], %g3
4000806c:	f4 00 a0 0c 	ld  [ %g2 + 0xc ], %i2
40008070:	c6 06 e0 04 	ld  [ %i3 + 4 ], %g3
40008074:	f4 27 60 0c 	st  %i2, [ %i5 + 0xc ]
40008078:	c4 27 60 08 	st  %g2, [ %i5 + 8 ]
4000807c:	fa 26 a0 08 	st  %i5, [ %i2 + 8 ]
40008080:	10 bf ff a5 	b  40007f14 <_malloc_r+0x3dc>
40008084:	fa 20 a0 0c 	st  %i5, [ %g2 + 0xc ]
40008088:	08 80 00 3a 	bleu  40008170 <_malloc_r+0x638>
4000808c:	88 00 60 5c 	add  %g1, 0x5c, %g4
40008090:	80 a0 60 54 	cmp  %g1, 0x54
40008094:	18 80 00 6d 	bgu  40008248 <_malloc_r+0x710>
40008098:	80 a0 61 54 	cmp  %g1, 0x154
4000809c:	83 37 20 0c 	srl  %i4, 0xc, %g1
400080a0:	88 00 60 6f 	add  %g1, 0x6f, %g4
400080a4:	b4 00 60 6e 	add  %g1, 0x6e, %i2
400080a8:	10 bf fe dd 	b  40007c1c <_malloc_r+0xe4>
400080ac:	83 29 20 03 	sll  %g4, 3, %g1
400080b0:	88 17 20 01 	or  %i4, 1, %g4
400080b4:	c8 27 60 04 	st  %g4, [ %i5 + 4 ]
400080b8:	c8 07 60 08 	ld  [ %i5 + 8 ], %g4
400080bc:	c2 21 20 0c 	st  %g1, [ %g4 + 0xc ]
400080c0:	c8 20 60 08 	st  %g4, [ %g1 + 8 ]
400080c4:	b8 07 40 1c 	add  %i5, %i4, %i4
400080c8:	f8 26 e0 14 	st  %i4, [ %i3 + 0x14 ]
400080cc:	f8 26 e0 10 	st  %i4, [ %i3 + 0x10 ]
400080d0:	de 27 20 0c 	st  %o7, [ %i4 + 0xc ]
400080d4:	de 27 20 08 	st  %o7, [ %i4 + 8 ]
400080d8:	82 10 e0 01 	or  %g3, 1, %g1
400080dc:	c2 27 20 04 	st  %g1, [ %i4 + 4 ]
400080e0:	c6 27 40 02 	st  %g3, [ %i5 + %g2 ]
400080e4:	90 10 00 18 	mov  %i0, %o0
400080e8:	40 00 01 12 	call  40008530 <__malloc_unlock>
400080ec:	ba 07 60 08 	add  %i5, 8, %i5
400080f0:	30 bf ff 64 	b,a   40007e80 <_malloc_r+0x348>
400080f4:	c6 00 a0 04 	ld  [ %g2 + 4 ], %g3
400080f8:	86 10 e0 01 	or  %g3, 1, %g3
400080fc:	c6 20 a0 04 	st  %g3, [ %g2 + 4 ]
40008100:	c4 07 60 08 	ld  [ %i5 + 8 ], %g2
40008104:	c2 20 a0 0c 	st  %g1, [ %g2 + 0xc ]
40008108:	c4 20 60 08 	st  %g2, [ %g1 + 8 ]
4000810c:	90 10 00 18 	mov  %i0, %o0
40008110:	40 00 01 08 	call  40008530 <__malloc_unlock>
40008114:	ba 07 60 08 	add  %i5, 8, %i5
40008118:	30 bf ff 5a 	b,a   40007e80 <_malloc_r+0x348>
4000811c:	10 bf fe 94 	b  40007b6c <_malloc_r+0x34>
40008120:	82 07 20 08 	add  %i4, 8, %g1
40008124:	86 17 20 01 	or  %i4, 1, %g3
40008128:	c6 27 60 04 	st  %g3, [ %i5 + 4 ]
4000812c:	b8 07 40 1c 	add  %i5, %i4, %i4
40008130:	f8 26 e0 14 	st  %i4, [ %i3 + 0x14 ]
40008134:	f8 26 e0 10 	st  %i4, [ %i3 + 0x10 ]
40008138:	de 27 20 0c 	st  %o7, [ %i4 + 0xc ]
4000813c:	de 27 20 08 	st  %o7, [ %i4 + 8 ]
40008140:	86 10 a0 01 	or  %g2, 1, %g3
40008144:	c6 27 20 04 	st  %g3, [ %i4 + 4 ]
40008148:	c4 27 40 01 	st  %g2, [ %i5 + %g1 ]
4000814c:	90 10 00 18 	mov  %i0, %o0
40008150:	40 00 00 f8 	call  40008530 <__malloc_unlock>
40008154:	ba 07 60 08 	add  %i5, 8, %i5
40008158:	30 bf ff 4a 	b,a   40007e80 <_malloc_r+0x348>
4000815c:	85 30 60 06 	srl  %g1, 6, %g2
40008160:	b4 00 a0 39 	add  %g2, 0x39, %i2
40008164:	86 00 a0 38 	add  %g2, 0x38, %g3
40008168:	10 bf ff b2 	b  40008030 <_malloc_r+0x4f8>
4000816c:	85 2e a0 03 	sll  %i2, 3, %g2
40008170:	b4 00 60 5b 	add  %g1, 0x5b, %i2
40008174:	10 bf fe aa 	b  40007c1c <_malloc_r+0xe4>
40008178:	83 29 20 03 	sll  %g4, 3, %g1
4000817c:	c2 03 60 08 	ld  [ %o5 + 8 ], %g1
40008180:	80 a0 40 0d 	cmp  %g1, %o5
40008184:	12 80 00 60 	bne  40008304 <_malloc_r+0x7cc>
40008188:	88 01 3f ff 	add  %g4, -1, %g4
4000818c:	80 89 20 03 	btst  3, %g4
40008190:	32 bf ff fb 	bne,a   4000817c <_malloc_r+0x644>
40008194:	9a 03 7f f8 	add  %o5, -8, %o5
40008198:	c2 06 e0 04 	ld  [ %i3 + 4 ], %g1
4000819c:	82 28 40 1a 	andn  %g1, %i2, %g1
400081a0:	c2 26 e0 04 	st  %g1, [ %i3 + 4 ]
400081a4:	b4 86 80 1a 	addcc  %i2, %i2, %i2
400081a8:	02 bf fe bf 	be  40007ca4 <_malloc_r+0x16c>
400081ac:	80 a0 40 1a 	cmp  %g1, %i2
400081b0:	1a 80 00 06 	bcc  400081c8 <_malloc_r+0x690>
400081b4:	80 8e 80 01 	btst  %i2, %g1
400081b8:	10 bf fe bc 	b  40007ca8 <_malloc_r+0x170>
400081bc:	fa 06 e0 08 	ld  [ %i3 + 8 ], %i5
400081c0:	98 03 20 04 	add  %o4, 4, %o4
400081c4:	80 8e 80 01 	btst  %i2, %g1
400081c8:	22 bf ff fe 	be,a   400081c0 <_malloc_r+0x688>
400081cc:	b5 2e a0 01 	sll  %i2, 1, %i2
400081d0:	10 bf ff 5f 	b  40007f4c <_malloc_r+0x414>
400081d4:	88 10 00 0c 	mov  %o4, %g4
400081d8:	fa 06 e0 08 	ld  [ %i3 + 8 ], %i5
400081dc:	10 bf ff 16 	b  40007e34 <_malloc_r+0x2fc>
400081e0:	c2 07 60 04 	ld  [ %i5 + 4 ], %g1
400081e4:	80 8c 6f ff 	btst  0xfff, %l1
400081e8:	32 bf fe da 	bne,a   40007d50 <_malloc_r+0x218>
400081ec:	c2 04 e3 e0 	ld  [ %l3 + 0x3e0 ], %g1
400081f0:	fa 06 e0 08 	ld  [ %i3 + 8 ], %i5
400081f4:	82 06 40 1a 	add  %i1, %i2, %g1
400081f8:	82 10 60 01 	or  %g1, 1, %g1
400081fc:	10 bf ff 04 	b  40007e0c <_malloc_r+0x2d4>
40008200:	c2 27 60 04 	st  %g1, [ %i5 + 4 ]
40008204:	10 bf fe d8 	b  40007d64 <_malloc_r+0x22c>
40008208:	e0 24 e3 e0 	st  %l0, [ %l3 + 0x3e0 ]
4000820c:	10 bf fe bf 	b  40007d08 <_malloc_r+0x1d0>
40008210:	b4 06 a0 10 	add  %i2, 0x10, %i2
40008214:	83 38 e0 02 	sra  %g3, 2, %g1
40008218:	86 10 20 01 	mov  1, %g3
4000821c:	87 28 c0 01 	sll  %g3, %g1, %g3
40008220:	86 10 c0 19 	or  %g3, %i1, %g3
40008224:	10 bf ff 94 	b  40008074 <_malloc_r+0x53c>
40008228:	c6 26 e0 04 	st  %g3, [ %i3 + 4 ]
4000822c:	18 80 00 15 	bgu  40008280 <_malloc_r+0x748>
40008230:	80 a0 a1 54 	cmp  %g2, 0x154
40008234:	85 30 60 0c 	srl  %g1, 0xc, %g2
40008238:	b4 00 a0 6f 	add  %g2, 0x6f, %i2
4000823c:	86 00 a0 6e 	add  %g2, 0x6e, %g3
40008240:	10 bf ff 7c 	b  40008030 <_malloc_r+0x4f8>
40008244:	85 2e a0 03 	sll  %i2, 3, %g2
40008248:	18 80 00 15 	bgu  4000829c <_malloc_r+0x764>
4000824c:	80 a0 65 54 	cmp  %g1, 0x554
40008250:	83 37 20 0f 	srl  %i4, 0xf, %g1
40008254:	88 00 60 78 	add  %g1, 0x78, %g4
40008258:	b4 00 60 77 	add  %g1, 0x77, %i2
4000825c:	10 bf fe 70 	b  40007c1c <_malloc_r+0xe4>
40008260:	83 29 20 03 	sll  %g4, 3, %g1
40008264:	10 bf fe d3 	b  40007db0 <_malloc_r+0x278>
40008268:	b4 10 20 00 	clr  %i2
4000826c:	10 bf fe e8 	b  40007e0c <_malloc_r+0x2d4>
40008270:	ba 10 00 10 	mov  %l0, %i5
40008274:	82 10 20 01 	mov  1, %g1
40008278:	10 bf fe fa 	b  40007e60 <_malloc_r+0x328>
4000827c:	c2 24 20 04 	st  %g1, [ %l0 + 4 ]
40008280:	18 80 00 15 	bgu  400082d4 <_malloc_r+0x79c>
40008284:	80 a0 a5 54 	cmp  %g2, 0x554
40008288:	85 30 60 0f 	srl  %g1, 0xf, %g2
4000828c:	b4 00 a0 78 	add  %g2, 0x78, %i2
40008290:	86 00 a0 77 	add  %g2, 0x77, %g3
40008294:	10 bf ff 67 	b  40008030 <_malloc_r+0x4f8>
40008298:	85 2e a0 03 	sll  %i2, 3, %g2
4000829c:	38 80 00 15 	bgu,a   400082f0 <_malloc_r+0x7b8>
400082a0:	82 10 23 f8 	mov  0x3f8, %g1
400082a4:	83 37 20 12 	srl  %i4, 0x12, %g1
400082a8:	88 00 60 7d 	add  %g1, 0x7d, %g4
400082ac:	b4 00 60 7c 	add  %g1, 0x7c, %i2
400082b0:	10 bf fe 5b 	b  40007c1c <_malloc_r+0xe4>
400082b4:	83 29 20 03 	sll  %g4, 3, %g1
400082b8:	92 07 60 08 	add  %i5, 8, %o1
400082bc:	7f ff fc 86 	call  400074d4 <_free_r>
400082c0:	90 10 00 18 	mov  %i0, %o0
400082c4:	d2 04 a2 d0 	ld  [ %l2 + 0x2d0 ], %o1
400082c8:	fa 06 e0 08 	ld  [ %i3 + 8 ], %i5
400082cc:	10 bf fe d0 	b  40007e0c <_malloc_r+0x2d4>
400082d0:	c2 07 60 04 	ld  [ %i5 + 4 ], %g1
400082d4:	38 80 00 0a 	bgu,a   400082fc <_malloc_r+0x7c4>
400082d8:	84 10 23 f8 	mov  0x3f8, %g2
400082dc:	85 30 60 12 	srl  %g1, 0x12, %g2
400082e0:	b4 00 a0 7d 	add  %g2, 0x7d, %i2
400082e4:	86 00 a0 7c 	add  %g2, 0x7c, %g3
400082e8:	10 bf ff 52 	b  40008030 <_malloc_r+0x4f8>
400082ec:	85 2e a0 03 	sll  %i2, 3, %g2
400082f0:	88 10 20 7f 	mov  0x7f, %g4
400082f4:	10 bf fe 4a 	b  40007c1c <_malloc_r+0xe4>
400082f8:	b4 10 20 7e 	mov  0x7e, %i2
400082fc:	10 bf ff 4d 	b  40008030 <_malloc_r+0x4f8>
40008300:	86 10 20 7e 	mov  0x7e, %g3
40008304:	10 bf ff a8 	b  400081a4 <_malloc_r+0x66c>
40008308:	c2 06 e0 04 	ld  [ %i3 + 4 ], %g1

4000830c <memchr>:
4000830c:	80 8a 20 03 	btst  3, %o0
40008310:	02 80 00 14 	be  40008360 <memchr+0x54>
40008314:	88 10 00 09 	mov  %o1, %g4
40008318:	80 a2 a0 00 	cmp  %o2, 0
4000831c:	02 80 00 18 	be  4000837c <memchr+0x70>
40008320:	82 02 bf ff 	add  %o2, -1, %g1
40008324:	10 80 00 09 	b  40008348 <memchr+0x3c>
40008328:	86 0a 60 ff 	and  %o1, 0xff, %g3
4000832c:	80 8a 20 03 	btst  3, %o0
40008330:	02 80 00 0e 	be  40008368 <memchr+0x5c>
40008334:	80 a0 60 03 	cmp  %g1, 3
40008338:	82 00 7f ff 	add  %g1, -1, %g1
4000833c:	80 a0 7f ff 	cmp  %g1, -1
40008340:	02 80 00 0f 	be  4000837c <memchr+0x70>
40008344:	01 00 00 00 	nop 
40008348:	c4 0a 00 00 	ldub  [ %o0 ], %g2
4000834c:	80 a0 80 03 	cmp  %g2, %g3
40008350:	32 bf ff f7 	bne,a   4000832c <memchr+0x20>
40008354:	90 02 20 01 	inc  %o0
40008358:	81 c3 e0 08 	retl 
4000835c:	01 00 00 00 	nop 
40008360:	82 10 00 0a 	mov  %o2, %g1
40008364:	80 a0 60 03 	cmp  %g1, 3
40008368:	38 80 00 12 	bgu,a   400083b0 <memchr+0xa4>
4000836c:	92 0a 60 ff 	and  %o1, 0xff, %o1
40008370:	80 a0 60 00 	cmp  %g1, 0
40008374:	12 80 00 04 	bne  40008384 <memchr+0x78>
40008378:	82 02 00 01 	add  %o0, %g1, %g1
4000837c:	81 c3 e0 08 	retl 
40008380:	90 10 20 00 	clr  %o0
40008384:	10 80 00 05 	b  40008398 <memchr+0x8c>
40008388:	86 09 20 ff 	and  %g4, 0xff, %g3
4000838c:	80 a2 00 01 	cmp  %o0, %g1
40008390:	02 bf ff fb 	be  4000837c <memchr+0x70>
40008394:	01 00 00 00 	nop 
40008398:	c4 0a 00 00 	ldub  [ %o0 ], %g2
4000839c:	80 a0 80 03 	cmp  %g2, %g3
400083a0:	32 bf ff fb 	bne,a   4000838c <memchr+0x80>
400083a4:	90 02 20 01 	inc  %o0
400083a8:	81 c3 e0 08 	retl 
400083ac:	01 00 00 00 	nop 
400083b0:	19 3f bf bf 	sethi  %hi(0xfefefc00), %o4
400083b4:	85 2a 60 08 	sll  %o1, 8, %g2
400083b8:	1b 20 20 20 	sethi  %hi(0x80808000), %o5
400083bc:	84 10 80 09 	or  %g2, %o1, %g2
400083c0:	98 13 22 ff 	or  %o4, 0x2ff, %o4
400083c4:	93 28 a0 10 	sll  %g2, 0x10, %o1
400083c8:	9a 13 60 80 	or  %o5, 0x80, %o5
400083cc:	92 12 40 02 	or  %o1, %g2, %o1
400083d0:	c4 02 00 00 	ld  [ %o0 ], %g2
400083d4:	84 1a 40 02 	xor  %o1, %g2, %g2
400083d8:	86 00 80 0c 	add  %g2, %o4, %g3
400083dc:	84 28 c0 02 	andn  %g3, %g2, %g2
400083e0:	80 88 80 0d 	btst  %g2, %o5
400083e4:	32 bf ff e8 	bne,a   40008384 <memchr+0x78>
400083e8:	82 02 00 01 	add  %o0, %g1, %g1
400083ec:	82 00 7f fc 	add  %g1, -4, %g1
400083f0:	80 a0 60 03 	cmp  %g1, 3
400083f4:	18 bf ff f7 	bgu  400083d0 <memchr+0xc4>
400083f8:	90 02 20 04 	add  %o0, 4, %o0
400083fc:	10 bf ff de 	b  40008374 <memchr+0x68>
40008400:	80 a0 60 00 	cmp  %g1, 0

40008404 <memset>:
40008404:	80 8a 20 03 	btst  3, %o0
40008408:	02 80 00 41 	be  4000850c <memset+0x108>
4000840c:	80 a2 a0 00 	cmp  %o2, 0
40008410:	84 02 bf ff 	add  %o2, -1, %g2
40008414:	86 10 00 09 	mov  %o1, %g3
40008418:	12 80 00 06 	bne  40008430 <memset+0x2c>
4000841c:	82 10 00 08 	mov  %o0, %g1
40008420:	30 80 00 3e 	b,a   40008518 <memset+0x114>
40008424:	80 a0 bf ff 	cmp  %g2, -1
40008428:	02 80 00 3c 	be  40008518 <memset+0x114>
4000842c:	01 00 00 00 	nop 
40008430:	c6 28 40 00 	stb  %g3, [ %g1 ]
40008434:	82 00 60 01 	inc  %g1
40008438:	80 88 60 03 	btst  3, %g1
4000843c:	32 bf ff fa 	bne,a   40008424 <memset+0x20>
40008440:	84 00 bf ff 	add  %g2, -1, %g2
40008444:	80 a0 a0 03 	cmp  %g2, 3
40008448:	08 80 00 28 	bleu  400084e8 <memset+0xe4>
4000844c:	80 a0 a0 00 	cmp  %g2, 0
40008450:	88 0a 60 ff 	and  %o1, 0xff, %g4
40008454:	87 29 20 08 	sll  %g4, 8, %g3
40008458:	80 a0 a0 0f 	cmp  %g2, 0xf
4000845c:	88 10 c0 04 	or  %g3, %g4, %g4
40008460:	87 29 20 10 	sll  %g4, 0x10, %g3
40008464:	08 80 00 2f 	bleu  40008520 <memset+0x11c>
40008468:	86 10 c0 04 	or  %g3, %g4, %g3
4000846c:	88 00 bf f0 	add  %g2, -16, %g4
40008470:	88 09 3f f0 	and  %g4, -16, %g4
40008474:	88 01 20 10 	add  %g4, 0x10, %g4
40008478:	88 00 40 04 	add  %g1, %g4, %g4
4000847c:	c6 20 40 00 	st  %g3, [ %g1 ]
40008480:	c6 20 60 04 	st  %g3, [ %g1 + 4 ]
40008484:	c6 20 60 08 	st  %g3, [ %g1 + 8 ]
40008488:	c6 20 60 0c 	st  %g3, [ %g1 + 0xc ]
4000848c:	82 00 60 10 	add  %g1, 0x10, %g1
40008490:	80 a1 00 01 	cmp  %g4, %g1
40008494:	32 bf ff fb 	bne,a   40008480 <memset+0x7c>
40008498:	c6 20 40 00 	st  %g3, [ %g1 ]
4000849c:	9a 08 a0 0c 	and  %g2, 0xc, %o5
400084a0:	88 08 a0 0f 	and  %g2, 0xf, %g4
400084a4:	80 a3 60 00 	cmp  %o5, 0
400084a8:	02 80 00 0f 	be  400084e4 <memset+0xe0>
400084ac:	84 10 00 04 	mov  %g4, %g2
400084b0:	84 01 3f fc 	add  %g4, -4, %g2
400084b4:	80 a0 a0 03 	cmp  %g2, 3
400084b8:	08 80 00 07 	bleu  400084d4 <memset+0xd0>
400084bc:	c6 20 40 00 	st  %g3, [ %g1 ]
400084c0:	9a 01 3f f8 	add  %g4, -8, %o5
400084c4:	80 a3 60 03 	cmp  %o5, 3
400084c8:	08 80 00 03 	bleu  400084d4 <memset+0xd0>
400084cc:	c6 20 60 04 	st  %g3, [ %g1 + 4 ]
400084d0:	c6 20 60 08 	st  %g3, [ %g1 + 8 ]
400084d4:	86 08 bf fc 	and  %g2, -4, %g3
400084d8:	84 09 20 03 	and  %g4, 3, %g2
400084dc:	86 00 e0 04 	add  %g3, 4, %g3
400084e0:	82 00 40 03 	add  %g1, %g3, %g1
400084e4:	80 a0 a0 00 	cmp  %g2, 0
400084e8:	02 80 00 0c 	be  40008518 <memset+0x114>
400084ec:	80 a0 a0 01 	cmp  %g2, 1
400084f0:	02 80 00 0a 	be  40008518 <memset+0x114>
400084f4:	d2 28 40 00 	stb  %o1, [ %g1 ]
400084f8:	80 a0 a0 02 	cmp  %g2, 2
400084fc:	02 80 00 07 	be  40008518 <memset+0x114>
40008500:	d2 28 60 01 	stb  %o1, [ %g1 + 1 ]
40008504:	81 c3 e0 08 	retl 
40008508:	d2 28 60 02 	stb  %o1, [ %g1 + 2 ]
4000850c:	82 10 00 08 	mov  %o0, %g1
40008510:	10 bf ff cd 	b  40008444 <memset+0x40>
40008514:	84 10 00 0a 	mov  %o2, %g2
40008518:	81 c3 e0 08 	retl 
4000851c:	01 00 00 00 	nop 
40008520:	10 bf ff e4 	b  400084b0 <memset+0xac>
40008524:	88 10 00 02 	mov  %g2, %g4

40008528 <__malloc_lock>:
40008528:	81 c3 e0 08 	retl 
4000852c:	01 00 00 00 	nop 

40008530 <__malloc_unlock>:
40008530:	81 c3 e0 08 	retl 
40008534:	01 00 00 00 	nop 

40008538 <_Balloc>:
40008538:	9d e3 bf a0 	save  %sp, -96, %sp
4000853c:	fa 06 20 24 	ld  [ %i0 + 0x24 ], %i5
40008540:	80 a7 60 00 	cmp  %i5, 0
40008544:	02 80 00 11 	be  40008588 <_Balloc+0x50>
40008548:	01 00 00 00 	nop 
4000854c:	c2 07 60 0c 	ld  [ %i5 + 0xc ], %g1
40008550:	80 a0 60 00 	cmp  %g1, 0
40008554:	02 80 00 16 	be  400085ac <_Balloc+0x74>
40008558:	94 10 20 21 	mov  0x21, %o2
4000855c:	85 2e 60 02 	sll  %i1, 2, %g2
40008560:	d0 00 40 02 	ld  [ %g1 + %g2 ], %o0
40008564:	80 a2 20 00 	cmp  %o0, 0
40008568:	02 80 00 1c 	be  400085d8 <_Balloc+0xa0>
4000856c:	92 10 20 01 	mov  1, %o1
40008570:	c6 02 00 00 	ld  [ %o0 ], %g3
40008574:	c6 20 40 02 	st  %g3, [ %g1 + %g2 ]
40008578:	c0 22 20 10 	clr  [ %o0 + 0x10 ]
4000857c:	c0 22 20 0c 	clr  [ %o0 + 0xc ]
40008580:	81 c7 e0 08 	ret 
40008584:	91 e8 00 08 	restore  %g0, %o0, %o0
40008588:	7f ff fd 60 	call  40007b08 <malloc>
4000858c:	90 10 20 10 	mov  0x10, %o0
40008590:	d0 26 20 24 	st  %o0, [ %i0 + 0x24 ]
40008594:	ba 10 00 08 	mov  %o0, %i5
40008598:	c0 22 20 04 	clr  [ %o0 + 4 ]
4000859c:	c0 22 20 08 	clr  [ %o0 + 8 ]
400085a0:	c0 22 00 00 	clr  [ %o0 ]
400085a4:	c0 22 20 0c 	clr  [ %o0 + 0xc ]
400085a8:	94 10 20 21 	mov  0x21, %o2
400085ac:	92 10 20 04 	mov  4, %o1
400085b0:	40 00 0e 5a 	call  4000bf18 <_calloc_r>
400085b4:	90 10 00 18 	mov  %i0, %o0
400085b8:	d0 27 60 0c 	st  %o0, [ %i5 + 0xc ]
400085bc:	c2 06 20 24 	ld  [ %i0 + 0x24 ], %g1
400085c0:	c2 00 60 0c 	ld  [ %g1 + 0xc ], %g1
400085c4:	80 a0 60 00 	cmp  %g1, 0
400085c8:	12 bf ff e6 	bne  40008560 <_Balloc+0x28>
400085cc:	85 2e 60 02 	sll  %i1, 2, %g2
400085d0:	10 bf ff ec 	b  40008580 <_Balloc+0x48>
400085d4:	90 10 20 00 	clr  %o0
400085d8:	ba 10 20 01 	mov  1, %i5
400085dc:	90 10 00 18 	mov  %i0, %o0
400085e0:	bb 2f 40 19 	sll  %i5, %i1, %i5
400085e4:	94 07 60 05 	add  %i5, 5, %o2
400085e8:	40 00 0e 4c 	call  4000bf18 <_calloc_r>
400085ec:	95 2a a0 02 	sll  %o2, 2, %o2
400085f0:	80 a2 20 00 	cmp  %o0, 0
400085f4:	22 bf ff e3 	be,a   40008580 <_Balloc+0x48>
400085f8:	90 10 20 00 	clr  %o0
400085fc:	f2 22 20 04 	st  %i1, [ %o0 + 4 ]
40008600:	10 bf ff de 	b  40008578 <_Balloc+0x40>
40008604:	fa 22 20 08 	st  %i5, [ %o0 + 8 ]

40008608 <_Bfree>:
40008608:	9d e3 bf a0 	save  %sp, -96, %sp
4000860c:	d0 06 20 24 	ld  [ %i0 + 0x24 ], %o0
40008610:	80 a2 20 00 	cmp  %o0, 0
40008614:	02 80 00 0d 	be  40008648 <_Bfree+0x40>
40008618:	01 00 00 00 	nop 
4000861c:	80 a6 60 00 	cmp  %i1, 0
40008620:	02 80 00 08 	be  40008640 <_Bfree+0x38>
40008624:	01 00 00 00 	nop 
40008628:	c4 02 20 0c 	ld  [ %o0 + 0xc ], %g2
4000862c:	c2 06 60 04 	ld  [ %i1 + 4 ], %g1
40008630:	83 28 60 02 	sll  %g1, 2, %g1
40008634:	c6 00 80 01 	ld  [ %g2 + %g1 ], %g3
40008638:	c6 26 40 00 	st  %g3, [ %i1 ]
4000863c:	f2 20 80 01 	st  %i1, [ %g2 + %g1 ]
40008640:	81 c7 e0 08 	ret 
40008644:	81 e8 00 00 	restore 
40008648:	7f ff fd 30 	call  40007b08 <malloc>
4000864c:	90 10 20 10 	mov  0x10, %o0
40008650:	d0 26 20 24 	st  %o0, [ %i0 + 0x24 ]
40008654:	c0 22 20 04 	clr  [ %o0 + 4 ]
40008658:	c0 22 20 08 	clr  [ %o0 + 8 ]
4000865c:	c0 22 00 00 	clr  [ %o0 ]
40008660:	10 bf ff ef 	b  4000861c <_Bfree+0x14>
40008664:	c0 22 20 0c 	clr  [ %o0 + 0xc ]

40008668 <__multadd>:
40008668:	9d e3 bf a0 	save  %sp, -96, %sp
4000866c:	25 00 00 3f 	sethi  %hi(0xfc00), %l2
40008670:	e0 06 60 10 	ld  [ %i1 + 0x10 ], %l0
40008674:	ba 06 60 14 	add  %i1, 0x14, %i5
40008678:	b8 10 20 00 	clr  %i4
4000867c:	a4 14 a3 ff 	or  %l2, 0x3ff, %l2
40008680:	e2 07 40 00 	ld  [ %i5 ], %l1
40008684:	92 10 00 1a 	mov  %i2, %o1
40008688:	40 00 16 11 	call  4000decc <.umul>
4000868c:	90 0c 40 12 	and  %l1, %l2, %o0
40008690:	92 10 00 1a 	mov  %i2, %o1
40008694:	b6 02 00 1b 	add  %o0, %i3, %i3
40008698:	40 00 16 0d 	call  4000decc <.umul>
4000869c:	91 34 60 10 	srl  %l1, 0x10, %o0
400086a0:	83 36 e0 10 	srl  %i3, 0x10, %g1
400086a4:	ba 07 60 04 	add  %i5, 4, %i5
400086a8:	90 02 00 01 	add  %o0, %g1, %o0
400086ac:	b6 0e c0 12 	and  %i3, %l2, %i3
400086b0:	83 2a 20 10 	sll  %o0, 0x10, %g1
400086b4:	b6 00 40 1b 	add  %g1, %i3, %i3
400086b8:	f6 27 7f fc 	st  %i3, [ %i5 + -4 ]
400086bc:	b8 07 20 01 	inc  %i4
400086c0:	80 a4 00 1c 	cmp  %l0, %i4
400086c4:	14 bf ff ef 	bg  40008680 <__multadd+0x18>
400086c8:	b7 32 20 10 	srl  %o0, 0x10, %i3
400086cc:	80 a6 e0 00 	cmp  %i3, 0
400086d0:	02 80 00 0c 	be  40008700 <__multadd+0x98>
400086d4:	01 00 00 00 	nop 
400086d8:	c2 06 60 08 	ld  [ %i1 + 8 ], %g1
400086dc:	80 a0 40 10 	cmp  %g1, %l0
400086e0:	24 80 00 0a 	ble,a   40008708 <__multadd+0xa0>
400086e4:	d2 06 60 04 	ld  [ %i1 + 4 ], %o1
400086e8:	82 04 20 04 	add  %l0, 4, %g1
400086ec:	83 28 60 02 	sll  %g1, 2, %g1
400086f0:	82 06 40 01 	add  %i1, %g1, %g1
400086f4:	f6 20 60 04 	st  %i3, [ %g1 + 4 ]
400086f8:	a0 04 20 01 	inc  %l0
400086fc:	e0 26 60 10 	st  %l0, [ %i1 + 0x10 ]
40008700:	81 c7 e0 08 	ret 
40008704:	91 e8 00 19 	restore  %g0, %i1, %o0
40008708:	90 10 00 18 	mov  %i0, %o0
4000870c:	7f ff ff 8b 	call  40008538 <_Balloc>
40008710:	92 02 60 01 	inc  %o1
40008714:	d4 06 60 10 	ld  [ %i1 + 0x10 ], %o2
40008718:	b8 10 00 08 	mov  %o0, %i4
4000871c:	94 02 a0 02 	add  %o2, 2, %o2
40008720:	92 06 60 0c 	add  %i1, 0xc, %o1
40008724:	95 2a a0 02 	sll  %o2, 2, %o2
40008728:	7f ff e6 c4 	call  40002238 <memcpy>
4000872c:	90 02 20 0c 	add  %o0, 0xc, %o0
40008730:	fa 06 20 24 	ld  [ %i0 + 0x24 ], %i5
40008734:	80 a7 60 00 	cmp  %i5, 0
40008738:	02 80 00 0a 	be  40008760 <__multadd+0xf8>
4000873c:	01 00 00 00 	nop 
40008740:	fa 07 60 0c 	ld  [ %i5 + 0xc ], %i5
40008744:	c2 06 60 04 	ld  [ %i1 + 4 ], %g1
40008748:	83 28 60 02 	sll  %g1, 2, %g1
4000874c:	c4 07 40 01 	ld  [ %i5 + %g1 ], %g2
40008750:	c4 26 40 00 	st  %g2, [ %i1 ]
40008754:	f2 27 40 01 	st  %i1, [ %i5 + %g1 ]
40008758:	10 bf ff e4 	b  400086e8 <__multadd+0x80>
4000875c:	b2 10 00 1c 	mov  %i4, %i1
40008760:	7f ff fc ea 	call  40007b08 <malloc>
40008764:	90 10 20 10 	mov  0x10, %o0
40008768:	d0 26 20 24 	st  %o0, [ %i0 + 0x24 ]
4000876c:	c0 22 20 04 	clr  [ %o0 + 4 ]
40008770:	c0 22 20 08 	clr  [ %o0 + 8 ]
40008774:	c0 22 00 00 	clr  [ %o0 ]
40008778:	10 bf ff f3 	b  40008744 <__multadd+0xdc>
4000877c:	c0 22 20 0c 	clr  [ %o0 + 0xc ]

40008780 <__s2b>:
40008780:	9d e3 bf a0 	save  %sp, -96, %sp
40008784:	92 10 20 09 	mov  9, %o1
40008788:	40 00 16 0d 	call  4000dfbc <.div>
4000878c:	90 06 e0 08 	add  %i3, 8, %o0
40008790:	80 a6 e0 09 	cmp  %i3, 9
40008794:	04 80 00 2f 	ble  40008850 <__s2b+0xd0>
40008798:	82 10 20 01 	mov  1, %g1
4000879c:	92 10 20 00 	clr  %o1
400087a0:	83 28 60 01 	sll  %g1, 1, %g1
400087a4:	80 a2 00 01 	cmp  %o0, %g1
400087a8:	14 bf ff fe 	bg  400087a0 <__s2b+0x20>
400087ac:	92 02 60 01 	inc  %o1
400087b0:	7f ff ff 62 	call  40008538 <_Balloc>
400087b4:	90 10 00 18 	mov  %i0, %o0
400087b8:	82 10 20 01 	mov  1, %g1
400087bc:	f8 22 20 14 	st  %i4, [ %o0 + 0x14 ]
400087c0:	c2 22 20 10 	st  %g1, [ %o0 + 0x10 ]
400087c4:	80 a6 a0 09 	cmp  %i2, 9
400087c8:	04 80 00 1f 	ble  40008844 <__s2b+0xc4>
400087cc:	92 10 00 08 	mov  %o0, %o1
400087d0:	b8 06 60 09 	add  %i1, 9, %i4
400087d4:	b2 06 40 1a 	add  %i1, %i2, %i1
400087d8:	ba 10 00 1c 	mov  %i4, %i5
400087dc:	d6 4f 40 00 	ldsb  [ %i5 ], %o3
400087e0:	94 10 20 0a 	mov  0xa, %o2
400087e4:	96 02 ff d0 	add  %o3, -48, %o3
400087e8:	7f ff ff a0 	call  40008668 <__multadd>
400087ec:	90 10 00 18 	mov  %i0, %o0
400087f0:	ba 07 60 01 	inc  %i5
400087f4:	80 a6 40 1d 	cmp  %i1, %i5
400087f8:	12 bf ff f9 	bne  400087dc <__s2b+0x5c>
400087fc:	92 10 00 08 	mov  %o0, %o1
40008800:	b2 06 bf f8 	add  %i2, -8, %i1
40008804:	b2 07 00 19 	add  %i4, %i1, %i1
40008808:	80 a6 c0 1a 	cmp  %i3, %i2
4000880c:	04 80 00 0c 	ble  4000883c <__s2b+0xbc>
40008810:	b6 26 c0 1a 	sub  %i3, %i2, %i3
40008814:	b6 06 40 1b 	add  %i1, %i3, %i3
40008818:	d6 4e 40 00 	ldsb  [ %i1 ], %o3
4000881c:	94 10 20 0a 	mov  0xa, %o2
40008820:	96 02 ff d0 	add  %o3, -48, %o3
40008824:	7f ff ff 91 	call  40008668 <__multadd>
40008828:	90 10 00 18 	mov  %i0, %o0
4000882c:	b2 06 60 01 	inc  %i1
40008830:	80 a6 c0 19 	cmp  %i3, %i1
40008834:	12 bf ff f9 	bne  40008818 <__s2b+0x98>
40008838:	92 10 00 08 	mov  %o0, %o1
4000883c:	81 c7 e0 08 	ret 
40008840:	91 e8 00 09 	restore  %g0, %o1, %o0
40008844:	b2 06 60 0a 	add  %i1, 0xa, %i1
40008848:	10 bf ff f0 	b  40008808 <__s2b+0x88>
4000884c:	b4 10 20 09 	mov  9, %i2
40008850:	10 bf ff d8 	b  400087b0 <__s2b+0x30>
40008854:	92 10 20 00 	clr  %o1

40008858 <__hi0bits>:
40008858:	05 3f ff c0 	sethi  %hi(0xffff0000), %g2
4000885c:	80 8a 00 02 	btst  %o0, %g2
40008860:	12 80 00 1d 	bne  400088d4 <__hi0bits+0x7c>
40008864:	82 10 00 08 	mov  %o0, %g1
40008868:	83 2a 20 10 	sll  %o0, 0x10, %g1
4000886c:	86 10 20 18 	mov  0x18, %g3
40008870:	90 10 20 10 	mov  0x10, %o0
40008874:	05 3f c0 00 	sethi  %hi(0xff000000), %g2
40008878:	80 88 40 02 	btst  %g1, %g2
4000887c:	12 80 00 04 	bne  4000888c <__hi0bits+0x34>
40008880:	05 3c 00 00 	sethi  %hi(0xf0000000), %g2
40008884:	83 28 60 08 	sll  %g1, 8, %g1
40008888:	90 10 00 03 	mov  %g3, %o0
4000888c:	80 88 40 02 	btst  %g1, %g2
40008890:	12 80 00 04 	bne  400088a0 <__hi0bits+0x48>
40008894:	05 30 00 00 	sethi  %hi(0xc0000000), %g2
40008898:	90 02 20 04 	add  %o0, 4, %o0
4000889c:	83 28 60 04 	sll  %g1, 4, %g1
400088a0:	80 88 40 02 	btst  %g1, %g2
400088a4:	12 80 00 05 	bne  400088b8 <__hi0bits+0x60>
400088a8:	80 a0 60 00 	cmp  %g1, 0
400088ac:	90 02 20 02 	add  %o0, 2, %o0
400088b0:	83 28 60 02 	sll  %g1, 2, %g1
400088b4:	80 a0 60 00 	cmp  %g1, 0
400088b8:	06 80 00 05 	bl  400088cc <__hi0bits+0x74>
400088bc:	05 10 00 00 	sethi  %hi(0x40000000), %g2
400088c0:	80 88 40 02 	btst  %g1, %g2
400088c4:	02 80 00 07 	be  400088e0 <__hi0bits+0x88>
400088c8:	90 02 20 01 	inc  %o0
400088cc:	81 c3 e0 08 	retl 
400088d0:	01 00 00 00 	nop 
400088d4:	86 10 20 08 	mov  8, %g3	! 8 <fpu_state_f2>
400088d8:	10 bf ff e7 	b  40008874 <__hi0bits+0x1c>
400088dc:	90 10 20 00 	clr  %o0
400088e0:	81 c3 e0 08 	retl 
400088e4:	90 10 20 20 	mov  0x20, %o0

400088e8 <__lo0bits>:
400088e8:	c2 02 00 00 	ld  [ %o0 ], %g1
400088ec:	80 88 60 07 	btst  7, %g1
400088f0:	22 80 00 0c 	be,a   40008920 <__lo0bits+0x38>
400088f4:	05 00 00 3f 	sethi  %hi(0xfc00), %g2
400088f8:	80 88 60 01 	btst  1, %g1
400088fc:	12 80 00 07 	bne  40008918 <__lo0bits+0x30>
40008900:	84 10 20 00 	clr  %g2
40008904:	80 88 60 02 	btst  2, %g1
40008908:	02 80 00 2a 	be  400089b0 <__lo0bits+0xc8>
4000890c:	84 10 20 01 	mov  1, %g2
40008910:	83 30 60 01 	srl  %g1, 1, %g1
40008914:	c2 22 00 00 	st  %g1, [ %o0 ]
40008918:	81 c3 e0 08 	retl 
4000891c:	90 10 00 02 	mov  %g2, %o0
40008920:	84 10 a3 ff 	or  %g2, 0x3ff, %g2
40008924:	80 88 40 02 	btst  %g1, %g2
40008928:	22 80 00 1d 	be,a   4000899c <__lo0bits+0xb4>
4000892c:	83 30 60 10 	srl  %g1, 0x10, %g1
40008930:	86 10 20 08 	mov  8, %g3
40008934:	84 10 20 00 	clr  %g2
40008938:	80 88 60 ff 	btst  0xff, %g1
4000893c:	12 80 00 05 	bne  40008950 <__lo0bits+0x68>
40008940:	80 88 60 0f 	btst  0xf, %g1
40008944:	83 30 60 08 	srl  %g1, 8, %g1
40008948:	84 10 00 03 	mov  %g3, %g2
4000894c:	80 88 60 0f 	btst  0xf, %g1
40008950:	12 80 00 05 	bne  40008964 <__lo0bits+0x7c>
40008954:	80 88 60 03 	btst  3, %g1
40008958:	84 00 a0 04 	add  %g2, 4, %g2
4000895c:	83 30 60 04 	srl  %g1, 4, %g1
40008960:	80 88 60 03 	btst  3, %g1
40008964:	12 80 00 05 	bne  40008978 <__lo0bits+0x90>
40008968:	80 88 60 01 	btst  1, %g1
4000896c:	84 00 a0 02 	add  %g2, 2, %g2
40008970:	83 30 60 02 	srl  %g1, 2, %g1
40008974:	80 88 60 01 	btst  1, %g1
40008978:	32 80 00 07 	bne,a   40008994 <__lo0bits+0xac>
4000897c:	c2 22 00 00 	st  %g1, [ %o0 ]
40008980:	83 30 60 01 	srl  %g1, 1, %g1
40008984:	80 a0 60 00 	cmp  %g1, 0
40008988:	02 80 00 08 	be  400089a8 <__lo0bits+0xc0>
4000898c:	84 00 a0 01 	inc  %g2
40008990:	c2 22 00 00 	st  %g1, [ %o0 ]
40008994:	81 c3 e0 08 	retl 
40008998:	90 10 00 02 	mov  %g2, %o0
4000899c:	86 10 20 18 	mov  0x18, %g3
400089a0:	10 bf ff e6 	b  40008938 <__lo0bits+0x50>
400089a4:	84 10 20 10 	mov  0x10, %g2
400089a8:	10 bf ff dc 	b  40008918 <__lo0bits+0x30>
400089ac:	84 10 20 20 	mov  0x20, %g2
400089b0:	83 30 60 02 	srl  %g1, 2, %g1
400089b4:	84 10 20 02 	mov  2, %g2
400089b8:	c2 22 00 00 	st  %g1, [ %o0 ]
400089bc:	81 c3 e0 08 	retl 
400089c0:	90 10 00 02 	mov  %g2, %o0

400089c4 <__i2b>:
400089c4:	9d e3 bf a0 	save  %sp, -96, %sp
400089c8:	fa 06 20 24 	ld  [ %i0 + 0x24 ], %i5
400089cc:	80 a7 60 00 	cmp  %i5, 0
400089d0:	02 80 00 12 	be  40008a18 <__i2b+0x54>
400089d4:	01 00 00 00 	nop 
400089d8:	c2 07 60 0c 	ld  [ %i5 + 0xc ], %g1
400089dc:	80 a0 60 00 	cmp  %g1, 0
400089e0:	02 80 00 17 	be  40008a3c <__i2b+0x78>
400089e4:	94 10 20 21 	mov  0x21, %o2
400089e8:	d0 00 60 04 	ld  [ %g1 + 4 ], %o0
400089ec:	80 a2 20 00 	cmp  %o0, 0
400089f0:	02 80 00 1e 	be  40008a68 <__i2b+0xa4>
400089f4:	94 10 20 1c 	mov  0x1c, %o2
400089f8:	c4 02 00 00 	ld  [ %o0 ], %g2
400089fc:	c4 20 60 04 	st  %g2, [ %g1 + 4 ]
40008a00:	c0 22 20 0c 	clr  [ %o0 + 0xc ]
40008a04:	82 10 20 01 	mov  1, %g1
40008a08:	f2 22 20 14 	st  %i1, [ %o0 + 0x14 ]
40008a0c:	c2 22 20 10 	st  %g1, [ %o0 + 0x10 ]
40008a10:	81 c7 e0 08 	ret 
40008a14:	91 e8 00 08 	restore  %g0, %o0, %o0
40008a18:	7f ff fc 3c 	call  40007b08 <malloc>
40008a1c:	90 10 20 10 	mov  0x10, %o0
40008a20:	d0 26 20 24 	st  %o0, [ %i0 + 0x24 ]
40008a24:	ba 10 00 08 	mov  %o0, %i5
40008a28:	c0 22 20 04 	clr  [ %o0 + 4 ]
40008a2c:	c0 22 20 08 	clr  [ %o0 + 8 ]
40008a30:	c0 22 00 00 	clr  [ %o0 ]
40008a34:	c0 22 20 0c 	clr  [ %o0 + 0xc ]
40008a38:	94 10 20 21 	mov  0x21, %o2
40008a3c:	92 10 20 04 	mov  4, %o1
40008a40:	40 00 0d 36 	call  4000bf18 <_calloc_r>
40008a44:	90 10 00 18 	mov  %i0, %o0
40008a48:	d0 27 60 0c 	st  %o0, [ %i5 + 0xc ]
40008a4c:	c2 06 20 24 	ld  [ %i0 + 0x24 ], %g1
40008a50:	c2 00 60 0c 	ld  [ %g1 + 0xc ], %g1
40008a54:	80 a0 60 00 	cmp  %g1, 0
40008a58:	32 bf ff e5 	bne,a   400089ec <__i2b+0x28>
40008a5c:	d0 00 60 04 	ld  [ %g1 + 4 ], %o0
40008a60:	c0 20 20 14 	clr  [ 0x14 ]
40008a64:	91 d0 20 05 	ta  5
40008a68:	92 10 20 01 	mov  1, %o1
40008a6c:	40 00 0d 2b 	call  4000bf18 <_calloc_r>
40008a70:	90 10 00 18 	mov  %i0, %o0
40008a74:	80 a2 20 00 	cmp  %o0, 0
40008a78:	02 bf ff fa 	be  40008a60 <__i2b+0x9c>
40008a7c:	82 10 20 01 	mov  1, %g1
40008a80:	c2 22 20 04 	st  %g1, [ %o0 + 4 ]
40008a84:	82 10 20 02 	mov  2, %g1
40008a88:	c0 22 20 0c 	clr  [ %o0 + 0xc ]
40008a8c:	c2 22 20 08 	st  %g1, [ %o0 + 8 ]
40008a90:	f2 22 20 14 	st  %i1, [ %o0 + 0x14 ]
40008a94:	82 10 20 01 	mov  1, %g1
40008a98:	c2 22 20 10 	st  %g1, [ %o0 + 0x10 ]
40008a9c:	81 c7 e0 08 	ret 
40008aa0:	91 e8 00 08 	restore  %g0, %o0, %o0

40008aa4 <__multiply>:
40008aa4:	9d e3 bf 90 	save  %sp, -112, %sp
40008aa8:	e6 06 60 10 	ld  [ %i1 + 0x10 ], %l3
40008aac:	f6 06 a0 10 	ld  [ %i2 + 0x10 ], %i3
40008ab0:	80 a4 c0 1b 	cmp  %l3, %i3
40008ab4:	06 80 00 09 	bl  40008ad8 <__multiply+0x34>
40008ab8:	a4 06 c0 13 	add  %i3, %l3, %l2
40008abc:	84 10 00 1b 	mov  %i3, %g2
40008ac0:	82 10 00 1a 	mov  %i2, %g1
40008ac4:	b6 10 00 13 	mov  %l3, %i3
40008ac8:	b4 10 00 19 	mov  %i1, %i2
40008acc:	a6 10 00 02 	mov  %g2, %l3
40008ad0:	b2 10 00 01 	mov  %g1, %i1
40008ad4:	a4 06 c0 13 	add  %i3, %l3, %l2
40008ad8:	c2 06 a0 08 	ld  [ %i2 + 8 ], %g1
40008adc:	80 a0 40 12 	cmp  %g1, %l2
40008ae0:	16 80 00 03 	bge  40008aec <__multiply+0x48>
40008ae4:	d2 06 a0 04 	ld  [ %i2 + 4 ], %o1
40008ae8:	92 02 60 01 	inc  %o1
40008aec:	7f ff fe 93 	call  40008538 <_Balloc>
40008af0:	90 10 00 18 	mov  %i0, %o0
40008af4:	d0 27 bf f4 	st  %o0, [ %fp + -12 ]
40008af8:	a2 02 20 14 	add  %o0, 0x14, %l1
40008afc:	a1 2c a0 02 	sll  %l2, 2, %l0
40008b00:	a0 04 40 10 	add  %l1, %l0, %l0
40008b04:	80 a4 40 10 	cmp  %l1, %l0
40008b08:	1a 80 00 07 	bcc  40008b24 <__multiply+0x80>
40008b0c:	82 10 00 11 	mov  %l1, %g1
40008b10:	c0 20 40 00 	clr  [ %g1 ]
40008b14:	82 00 60 04 	add  %g1, 4, %g1
40008b18:	80 a4 00 01 	cmp  %l0, %g1
40008b1c:	38 bf ff fe 	bgu,a   40008b14 <__multiply+0x70>
40008b20:	c0 20 40 00 	clr  [ %g1 ]
40008b24:	82 06 a0 14 	add  %i2, 0x14, %g1
40008b28:	c2 27 bf f8 	st  %g1, [ %fp + -8 ]
40008b2c:	b2 06 60 14 	add  %i1, 0x14, %i1
40008b30:	b7 2e e0 02 	sll  %i3, 2, %i3
40008b34:	a7 2c e0 02 	sll  %l3, 2, %l3
40008b38:	a6 06 40 13 	add  %i1, %l3, %l3
40008b3c:	80 a6 40 13 	cmp  %i1, %l3
40008b40:	1a 80 00 5b 	bcc  40008cac <__multiply+0x208>
40008b44:	b6 00 40 1b 	add  %g1, %i3, %i3
40008b48:	84 10 20 04 	mov  4, %g2
40008b4c:	82 06 a0 15 	add  %i2, 0x15, %g1
40008b50:	80 a6 c0 01 	cmp  %i3, %g1
40008b54:	1a 80 00 66 	bcc  40008cec <__multiply+0x248>
40008b58:	c4 27 bf fc 	st  %g2, [ %fp + -4 ]
40008b5c:	39 00 00 3f 	sethi  %hi(0xfc00), %i4
40008b60:	10 80 00 09 	b  40008b84 <__multiply+0xe0>
40008b64:	b8 17 23 ff 	or  %i4, 0x3ff, %i4	! ffff <__data_size+0xf9ef>
40008b68:	80 a6 a0 00 	cmp  %i2, 0
40008b6c:	32 80 00 2e 	bne,a   40008c24 <__multiply+0x180>
40008b70:	fa 04 40 00 	ld  [ %l1 ], %i5
40008b74:	b2 06 60 04 	add  %i1, 4, %i1
40008b78:	80 a4 c0 19 	cmp  %l3, %i1
40008b7c:	08 80 00 4c 	bleu  40008cac <__multiply+0x208>
40008b80:	a2 04 60 04 	add  %l1, 4, %l1
40008b84:	f4 06 40 00 	ld  [ %i1 ], %i2
40008b88:	ac 8e 80 1c 	andcc  %i2, %i4, %l6
40008b8c:	02 bf ff f7 	be  40008b68 <__multiply+0xc4>
40008b90:	b5 36 a0 10 	srl  %i2, 0x10, %i2
40008b94:	b0 10 00 11 	mov  %l1, %i0
40008b98:	ee 07 bf f8 	ld  [ %fp + -8 ], %l7
40008b9c:	ba 10 20 00 	clr  %i5
40008ba0:	e8 05 c0 00 	ld  [ %l7 ], %l4
40008ba4:	92 10 00 16 	mov  %l6, %o1
40008ba8:	40 00 14 c9 	call  4000decc <.umul>
40008bac:	90 0d 00 1c 	and  %l4, %i4, %o0
40008bb0:	f4 06 00 00 	ld  [ %i0 ], %i2
40008bb4:	82 10 00 08 	mov  %o0, %g1
40008bb8:	88 0e 80 1c 	and  %i2, %i4, %g4
40008bbc:	82 00 40 04 	add  %g1, %g4, %g1
40008bc0:	92 10 00 16 	mov  %l6, %o1
40008bc4:	ba 00 40 1d 	add  %g1, %i5, %i5
40008bc8:	40 00 14 c1 	call  4000decc <.umul>
40008bcc:	91 35 20 10 	srl  %l4, 0x10, %o0
40008bd0:	83 37 60 10 	srl  %i5, 0x10, %g1
40008bd4:	b0 06 20 04 	add  %i0, 4, %i0
40008bd8:	b5 36 a0 10 	srl  %i2, 0x10, %i2
40008bdc:	ba 0f 40 1c 	and  %i5, %i4, %i5
40008be0:	90 02 00 1a 	add  %o0, %i2, %o0
40008be4:	90 02 00 01 	add  %o0, %g1, %o0
40008be8:	83 2a 20 10 	sll  %o0, 0x10, %g1
40008bec:	ba 10 40 1d 	or  %g1, %i5, %i5
40008bf0:	fa 26 3f fc 	st  %i5, [ %i0 + -4 ]
40008bf4:	ae 05 e0 04 	add  %l7, 4, %l7
40008bf8:	80 a6 c0 17 	cmp  %i3, %l7
40008bfc:	18 bf ff e9 	bgu  40008ba0 <__multiply+0xfc>
40008c00:	bb 32 20 10 	srl  %o0, 0x10, %i5
40008c04:	c2 07 bf fc 	ld  [ %fp + -4 ], %g1
40008c08:	fa 24 40 01 	st  %i5, [ %l1 + %g1 ]
40008c0c:	f4 06 40 00 	ld  [ %i1 ], %i2
40008c10:	b5 36 a0 10 	srl  %i2, 0x10, %i2
40008c14:	80 a6 a0 00 	cmp  %i2, 0
40008c18:	22 bf ff d8 	be,a   40008b78 <__multiply+0xd4>
40008c1c:	b2 06 60 04 	add  %i1, 4, %i1
40008c20:	fa 04 40 00 	ld  [ %l1 ], %i5
40008c24:	a8 10 00 11 	mov  %l1, %l4
40008c28:	aa 10 00 1d 	mov  %i5, %l5
40008c2c:	ee 07 bf f8 	ld  [ %fp + -8 ], %l7
40008c30:	b0 10 20 00 	clr  %i0
40008c34:	d0 05 c0 00 	ld  [ %l7 ], %o0
40008c38:	ad 35 60 10 	srl  %l5, 0x10, %l6
40008c3c:	92 10 00 1a 	mov  %i2, %o1
40008c40:	40 00 14 a3 	call  4000decc <.umul>
40008c44:	90 0a 00 1c 	and  %o0, %i4, %o0
40008c48:	90 02 00 16 	add  %o0, %l6, %o0
40008c4c:	ac 02 00 18 	add  %o0, %i0, %l6
40008c50:	83 2d a0 10 	sll  %l6, 0x10, %g1
40008c54:	ae 05 e0 04 	add  %l7, 4, %l7
40008c58:	ba 0f 40 1c 	and  %i5, %i4, %i5
40008c5c:	92 10 00 1a 	mov  %i2, %o1
40008c60:	ba 10 40 1d 	or  %g1, %i5, %i5
40008c64:	fa 25 00 00 	st  %i5, [ %l4 ]
40008c68:	40 00 14 99 	call  4000decc <.umul>
40008c6c:	d0 15 ff fc 	lduh  [ %l7 + -4 ], %o0
40008c70:	a8 05 20 04 	add  %l4, 4, %l4
40008c74:	ad 35 a0 10 	srl  %l6, 0x10, %l6
40008c78:	ea 05 00 00 	ld  [ %l4 ], %l5
40008c7c:	80 a6 c0 17 	cmp  %i3, %l7
40008c80:	ba 0d 40 1c 	and  %l5, %i4, %i5
40008c84:	ba 02 00 1d 	add  %o0, %i5, %i5
40008c88:	ba 07 40 16 	add  %i5, %l6, %i5
40008c8c:	18 bf ff ea 	bgu  40008c34 <__multiply+0x190>
40008c90:	b1 37 60 10 	srl  %i5, 0x10, %i0
40008c94:	c2 07 bf fc 	ld  [ %fp + -4 ], %g1
40008c98:	fa 24 40 01 	st  %i5, [ %l1 + %g1 ]
40008c9c:	b2 06 60 04 	add  %i1, 4, %i1
40008ca0:	80 a4 c0 19 	cmp  %l3, %i1
40008ca4:	18 bf ff b8 	bgu  40008b84 <__multiply+0xe0>
40008ca8:	a2 04 60 04 	add  %l1, 4, %l1
40008cac:	80 a4 a0 00 	cmp  %l2, 0
40008cb0:	34 80 00 07 	bg,a   40008ccc <__multiply+0x228>
40008cb4:	a0 04 3f fc 	add  %l0, -4, %l0
40008cb8:	10 80 00 0a 	b  40008ce0 <__multiply+0x23c>
40008cbc:	c2 07 bf f4 	ld  [ %fp + -12 ], %g1
40008cc0:	02 80 00 08 	be  40008ce0 <__multiply+0x23c>
40008cc4:	c2 07 bf f4 	ld  [ %fp + -12 ], %g1
40008cc8:	a0 04 3f fc 	add  %l0, -4, %l0
40008ccc:	c2 04 00 00 	ld  [ %l0 ], %g1
40008cd0:	80 a0 60 00 	cmp  %g1, 0
40008cd4:	22 bf ff fb 	be,a   40008cc0 <__multiply+0x21c>
40008cd8:	a4 84 bf ff 	addcc  %l2, -1, %l2
40008cdc:	c2 07 bf f4 	ld  [ %fp + -12 ], %g1
40008ce0:	e4 20 60 10 	st  %l2, [ %g1 + 0x10 ]
40008ce4:	81 c7 e0 08 	ret 
40008ce8:	91 e8 00 01 	restore  %g0, %g1, %o0
40008cec:	aa 26 c0 1a 	sub  %i3, %i2, %l5
40008cf0:	aa 05 7f eb 	add  %l5, -21, %l5
40008cf4:	aa 0d 7f fc 	and  %l5, -4, %l5
40008cf8:	82 05 60 04 	add  %l5, 4, %g1
40008cfc:	10 bf ff 98 	b  40008b5c <__multiply+0xb8>
40008d00:	c2 27 bf fc 	st  %g1, [ %fp + -4 ]

40008d04 <__pow5mult>:
40008d04:	9d e3 bf a0 	save  %sp, -96, %sp
40008d08:	82 8e a0 03 	andcc  %i2, 3, %g1
40008d0c:	32 80 00 44 	bne,a   40008e1c <__pow5mult+0x118>
40008d10:	82 00 7f ff 	add  %g1, -1, %g1
40008d14:	b5 3e a0 02 	sra  %i2, 2, %i2
40008d18:	80 a6 a0 00 	cmp  %i2, 0
40008d1c:	02 80 00 2e 	be  40008dd4 <__pow5mult+0xd0>
40008d20:	b8 10 00 19 	mov  %i1, %i4
40008d24:	f8 06 20 24 	ld  [ %i0 + 0x24 ], %i4
40008d28:	80 a7 20 00 	cmp  %i4, 0
40008d2c:	02 80 00 46 	be  40008e44 <__pow5mult+0x140>
40008d30:	01 00 00 00 	nop 
40008d34:	fa 07 20 08 	ld  [ %i4 + 8 ], %i5
40008d38:	80 a7 60 00 	cmp  %i5, 0
40008d3c:	02 80 00 4b 	be  40008e68 <__pow5mult+0x164>
40008d40:	92 10 20 01 	mov  1, %o1
40008d44:	80 8e a0 01 	btst  1, %i2
40008d48:	12 80 00 0e 	bne  40008d80 <__pow5mult+0x7c>
40008d4c:	b8 10 00 19 	mov  %i1, %i4
40008d50:	b5 3e a0 01 	sra  %i2, 1, %i2
40008d54:	80 a6 a0 00 	cmp  %i2, 0
40008d58:	02 80 00 1f 	be  40008dd4 <__pow5mult+0xd0>
40008d5c:	01 00 00 00 	nop 
40008d60:	d0 07 40 00 	ld  [ %i5 ], %o0
40008d64:	80 a2 20 00 	cmp  %o0, 0
40008d68:	02 80 00 1d 	be  40008ddc <__pow5mult+0xd8>
40008d6c:	94 10 00 1d 	mov  %i5, %o2
40008d70:	ba 10 00 08 	mov  %o0, %i5
40008d74:	80 8e a0 01 	btst  1, %i2
40008d78:	22 bf ff f7 	be,a   40008d54 <__pow5mult+0x50>
40008d7c:	b5 3e a0 01 	sra  %i2, 1, %i2
40008d80:	94 10 00 1d 	mov  %i5, %o2
40008d84:	92 10 00 1c 	mov  %i4, %o1
40008d88:	7f ff ff 47 	call  40008aa4 <__multiply>
40008d8c:	90 10 00 18 	mov  %i0, %o0
40008d90:	c2 06 20 24 	ld  [ %i0 + 0x24 ], %g1
40008d94:	80 a0 60 00 	cmp  %g1, 0
40008d98:	02 80 00 18 	be  40008df8 <__pow5mult+0xf4>
40008d9c:	b6 10 00 08 	mov  %o0, %i3
40008da0:	80 a7 20 00 	cmp  %i4, 0
40008da4:	22 bf ff eb 	be,a   40008d50 <__pow5mult+0x4c>
40008da8:	b8 10 00 1b 	mov  %i3, %i4
40008dac:	c4 00 60 0c 	ld  [ %g1 + 0xc ], %g2
40008db0:	c2 07 20 04 	ld  [ %i4 + 4 ], %g1
40008db4:	83 28 60 02 	sll  %g1, 2, %g1
40008db8:	c6 00 80 01 	ld  [ %g2 + %g1 ], %g3
40008dbc:	c6 27 00 00 	st  %g3, [ %i4 ]
40008dc0:	f8 20 80 01 	st  %i4, [ %g2 + %g1 ]
40008dc4:	b5 3e a0 01 	sra  %i2, 1, %i2
40008dc8:	80 a6 a0 00 	cmp  %i2, 0
40008dcc:	12 bf ff e5 	bne  40008d60 <__pow5mult+0x5c>
40008dd0:	b8 10 00 1b 	mov  %i3, %i4
40008dd4:	81 c7 e0 08 	ret 
40008dd8:	91 e8 00 1c 	restore  %g0, %i4, %o0
40008ddc:	92 10 00 1d 	mov  %i5, %o1
40008de0:	7f ff ff 31 	call  40008aa4 <__multiply>
40008de4:	90 10 00 18 	mov  %i0, %o0
40008de8:	d0 27 40 00 	st  %o0, [ %i5 ]
40008dec:	c0 22 00 00 	clr  [ %o0 ]
40008df0:	10 bf ff e1 	b  40008d74 <__pow5mult+0x70>
40008df4:	ba 10 00 08 	mov  %o0, %i5
40008df8:	7f ff fb 44 	call  40007b08 <malloc>
40008dfc:	90 10 20 10 	mov  0x10, %o0
40008e00:	d0 26 20 24 	st  %o0, [ %i0 + 0x24 ]
40008e04:	82 10 00 08 	mov  %o0, %g1
40008e08:	c0 22 20 08 	clr  [ %o0 + 8 ]
40008e0c:	c0 22 00 00 	clr  [ %o0 ]
40008e10:	c0 22 20 0c 	clr  [ %o0 + 0xc ]
40008e14:	10 bf ff e3 	b  40008da0 <__pow5mult+0x9c>
40008e18:	c0 22 20 04 	clr  [ %o0 + 4 ]
40008e1c:	05 10 00 3b 	sethi  %hi(0x4000ec00), %g2
40008e20:	83 28 60 02 	sll  %g1, 2, %g1
40008e24:	84 10 a2 60 	or  %g2, 0x260, %g2
40008e28:	92 10 00 19 	mov  %i1, %o1
40008e2c:	96 10 20 00 	clr  %o3
40008e30:	90 10 00 18 	mov  %i0, %o0
40008e34:	7f ff fe 0d 	call  40008668 <__multadd>
40008e38:	d4 00 80 01 	ld  [ %g2 + %g1 ], %o2
40008e3c:	10 bf ff b6 	b  40008d14 <__pow5mult+0x10>
40008e40:	b2 10 00 08 	mov  %o0, %i1
40008e44:	7f ff fb 31 	call  40007b08 <malloc>
40008e48:	90 10 20 10 	mov  0x10, %o0
40008e4c:	d0 26 20 24 	st  %o0, [ %i0 + 0x24 ]
40008e50:	b8 10 00 08 	mov  %o0, %i4
40008e54:	c0 22 20 04 	clr  [ %o0 + 4 ]
40008e58:	c0 22 20 08 	clr  [ %o0 + 8 ]
40008e5c:	c0 22 00 00 	clr  [ %o0 ]
40008e60:	c0 22 20 0c 	clr  [ %o0 + 0xc ]
40008e64:	92 10 20 01 	mov  1, %o1
40008e68:	7f ff fd b4 	call  40008538 <_Balloc>
40008e6c:	90 10 00 18 	mov  %i0, %o0
40008e70:	82 10 22 71 	mov  0x271, %g1
40008e74:	c2 22 20 14 	st  %g1, [ %o0 + 0x14 ]
40008e78:	82 10 20 01 	mov  1, %g1
40008e7c:	c2 22 20 10 	st  %g1, [ %o0 + 0x10 ]
40008e80:	d0 27 20 08 	st  %o0, [ %i4 + 8 ]
40008e84:	ba 10 00 08 	mov  %o0, %i5
40008e88:	10 bf ff af 	b  40008d44 <__pow5mult+0x40>
40008e8c:	c0 22 00 00 	clr  [ %o0 ]

40008e90 <__lshift>:
40008e90:	9d e3 bf a0 	save  %sp, -96, %sp
40008e94:	e0 06 60 10 	ld  [ %i1 + 0x10 ], %l0
40008e98:	bb 3e a0 05 	sra  %i2, 5, %i5
40008e9c:	c2 06 60 08 	ld  [ %i1 + 8 ], %g1
40008ea0:	a0 07 40 10 	add  %i5, %l0, %l0
40008ea4:	b6 04 20 01 	add  %l0, 1, %i3
40008ea8:	80 a6 c0 01 	cmp  %i3, %g1
40008eac:	04 80 00 06 	ble  40008ec4 <__lshift+0x34>
40008eb0:	d2 06 60 04 	ld  [ %i1 + 4 ], %o1
40008eb4:	83 28 60 01 	sll  %g1, 1, %g1
40008eb8:	80 a6 c0 01 	cmp  %i3, %g1
40008ebc:	14 bf ff fe 	bg  40008eb4 <__lshift+0x24>
40008ec0:	92 02 60 01 	inc  %o1
40008ec4:	7f ff fd 9d 	call  40008538 <_Balloc>
40008ec8:	90 10 00 18 	mov  %i0, %o0
40008ecc:	80 a7 60 00 	cmp  %i5, 0
40008ed0:	a2 10 00 08 	mov  %o0, %l1
40008ed4:	04 80 00 0d 	ble  40008f08 <__lshift+0x78>
40008ed8:	88 02 20 14 	add  %o0, 0x14, %g4
40008edc:	ba 07 60 05 	add  %i5, 5, %i5
40008ee0:	82 10 00 04 	mov  %g4, %g1
40008ee4:	bb 2f 60 02 	sll  %i5, 2, %i5
40008ee8:	84 02 00 1d 	add  %o0, %i5, %g2
40008eec:	c0 20 40 00 	clr  [ %g1 ]
40008ef0:	82 00 60 04 	add  %g1, 4, %g1
40008ef4:	80 a0 80 01 	cmp  %g2, %g1
40008ef8:	32 bf ff fe 	bne,a   40008ef0 <__lshift+0x60>
40008efc:	c0 20 40 00 	clr  [ %g1 ]
40008f00:	ba 07 7f ec 	add  %i5, -20, %i5
40008f04:	88 01 00 1d 	add  %g4, %i5, %g4
40008f08:	82 06 60 14 	add  %i1, 0x14, %g1
40008f0c:	fa 06 60 10 	ld  [ %i1 + 0x10 ], %i5
40008f10:	b4 8e a0 1f 	andcc  %i2, 0x1f, %i2
40008f14:	bb 2f 60 02 	sll  %i5, 2, %i5
40008f18:	02 80 00 24 	be  40008fa8 <__lshift+0x118>
40008f1c:	ba 00 40 1d 	add  %g1, %i5, %i5
40008f20:	9e 10 20 20 	mov  0x20, %o7
40008f24:	b8 10 00 04 	mov  %g4, %i4
40008f28:	9e 23 c0 1a 	sub  %o7, %i2, %o7
40008f2c:	86 10 20 00 	clr  %g3
40008f30:	c4 00 40 00 	ld  [ %g1 ], %g2
40008f34:	b8 07 20 04 	add  %i4, 4, %i4
40008f38:	85 28 80 1a 	sll  %g2, %i2, %g2
40008f3c:	84 10 80 03 	or  %g2, %g3, %g2
40008f40:	c4 27 3f fc 	st  %g2, [ %i4 + -4 ]
40008f44:	82 00 60 04 	add  %g1, 4, %g1
40008f48:	c4 00 7f fc 	ld  [ %g1 + -4 ], %g2
40008f4c:	80 a7 40 01 	cmp  %i5, %g1
40008f50:	18 bf ff f8 	bgu  40008f30 <__lshift+0xa0>
40008f54:	87 30 80 0f 	srl  %g2, %o7, %g3
40008f58:	84 06 60 15 	add  %i1, 0x15, %g2
40008f5c:	80 a7 40 02 	cmp  %i5, %g2
40008f60:	1a 80 00 34 	bcc  40009030 <__lshift+0x1a0>
40008f64:	82 10 20 04 	mov  4, %g1
40008f68:	80 a0 e0 00 	cmp  %g3, 0
40008f6c:	12 80 00 1d 	bne  40008fe0 <__lshift+0x150>
40008f70:	c6 21 00 01 	st  %g3, [ %g4 + %g1 ]
40008f74:	e0 24 60 10 	st  %l0, [ %l1 + 0x10 ]
40008f78:	fa 06 20 24 	ld  [ %i0 + 0x24 ], %i5
40008f7c:	80 a7 60 00 	cmp  %i5, 0
40008f80:	02 80 00 1e 	be  40008ff8 <__lshift+0x168>
40008f84:	01 00 00 00 	nop 
40008f88:	fa 07 60 0c 	ld  [ %i5 + 0xc ], %i5
40008f8c:	c2 06 60 04 	ld  [ %i1 + 4 ], %g1
40008f90:	83 28 60 02 	sll  %g1, 2, %g1
40008f94:	c4 07 40 01 	ld  [ %i5 + %g1 ], %g2
40008f98:	c4 26 40 00 	st  %g2, [ %i1 ]
40008f9c:	f2 27 40 01 	st  %i1, [ %i5 + %g1 ]
40008fa0:	81 c7 e0 08 	ret 
40008fa4:	91 e8 00 11 	restore  %g0, %l1, %o0
40008fa8:	c4 00 40 00 	ld  [ %g1 ], %g2
40008fac:	c4 21 00 00 	st  %g2, [ %g4 ]
40008fb0:	82 00 60 04 	add  %g1, 4, %g1
40008fb4:	80 a7 40 01 	cmp  %i5, %g1
40008fb8:	08 bf ff ef 	bleu  40008f74 <__lshift+0xe4>
40008fbc:	88 01 20 04 	add  %g4, 4, %g4
40008fc0:	c4 00 40 00 	ld  [ %g1 ], %g2
40008fc4:	c4 21 00 00 	st  %g2, [ %g4 ]
40008fc8:	82 00 60 04 	add  %g1, 4, %g1
40008fcc:	80 a7 40 01 	cmp  %i5, %g1
40008fd0:	18 bf ff f6 	bgu  40008fa8 <__lshift+0x118>
40008fd4:	88 01 20 04 	add  %g4, 4, %g4
40008fd8:	10 bf ff e8 	b  40008f78 <__lshift+0xe8>
40008fdc:	e0 24 60 10 	st  %l0, [ %l1 + 0x10 ]
40008fe0:	a0 10 00 1b 	mov  %i3, %l0
40008fe4:	e0 24 60 10 	st  %l0, [ %l1 + 0x10 ]
40008fe8:	fa 06 20 24 	ld  [ %i0 + 0x24 ], %i5
40008fec:	80 a7 60 00 	cmp  %i5, 0
40008ff0:	32 bf ff e7 	bne,a   40008f8c <__lshift+0xfc>
40008ff4:	fa 07 60 0c 	ld  [ %i5 + 0xc ], %i5
40008ff8:	7f ff fa c4 	call  40007b08 <malloc>
40008ffc:	90 10 20 10 	mov  0x10, %o0
40009000:	d0 26 20 24 	st  %o0, [ %i0 + 0x24 ]
40009004:	c0 22 20 08 	clr  [ %o0 + 8 ]
40009008:	c0 22 00 00 	clr  [ %o0 ]
4000900c:	c0 22 20 04 	clr  [ %o0 + 4 ]
40009010:	c0 22 20 0c 	clr  [ %o0 + 0xc ]
40009014:	c2 06 60 04 	ld  [ %i1 + 4 ], %g1
40009018:	83 28 60 02 	sll  %g1, 2, %g1
4000901c:	c4 07 40 01 	ld  [ %i5 + %g1 ], %g2
40009020:	c4 26 40 00 	st  %g2, [ %i1 ]
40009024:	f2 27 40 01 	st  %i1, [ %i5 + %g1 ]
40009028:	81 c7 e0 08 	ret 
4000902c:	91 e8 00 11 	restore  %g0, %l1, %o0
40009030:	82 27 40 19 	sub  %i5, %i1, %g1
40009034:	82 00 7f eb 	add  %g1, -21, %g1
40009038:	82 08 7f fc 	and  %g1, -4, %g1
4000903c:	82 00 60 04 	add  %g1, 4, %g1
40009040:	80 a0 e0 00 	cmp  %g3, 0
40009044:	02 bf ff cc 	be  40008f74 <__lshift+0xe4>
40009048:	c6 21 00 01 	st  %g3, [ %g4 + %g1 ]
4000904c:	10 bf ff e6 	b  40008fe4 <__lshift+0x154>
40009050:	a0 10 00 1b 	mov  %i3, %l0

40009054 <__mcmp>:
40009054:	88 10 00 08 	mov  %o0, %g4
40009058:	c2 02 60 10 	ld  [ %o1 + 0x10 ], %g1
4000905c:	d0 02 20 10 	ld  [ %o0 + 0x10 ], %o0
40009060:	90 a2 00 01 	subcc  %o0, %g1, %o0
40009064:	12 80 00 12 	bne  400090ac <__mcmp+0x58>
40009068:	85 28 60 02 	sll  %g1, 2, %g2
4000906c:	88 01 20 14 	add  %g4, 0x14, %g4
40009070:	92 02 60 14 	add  %o1, 0x14, %o1
40009074:	82 01 00 02 	add  %g4, %g2, %g1
40009078:	10 80 00 04 	b  40009088 <__mcmp+0x34>
4000907c:	92 02 40 02 	add  %o1, %g2, %o1
40009080:	1a 80 00 0b 	bcc  400090ac <__mcmp+0x58>
40009084:	01 00 00 00 	nop 
40009088:	82 00 7f fc 	add  %g1, -4, %g1
4000908c:	92 02 7f fc 	add  %o1, -4, %o1
40009090:	c6 00 40 00 	ld  [ %g1 ], %g3
40009094:	c4 02 40 00 	ld  [ %o1 ], %g2
40009098:	80 a0 c0 02 	cmp  %g3, %g2
4000909c:	22 bf ff f9 	be,a   40009080 <__mcmp+0x2c>
400090a0:	80 a1 00 01 	cmp  %g4, %g1
400090a4:	1a 80 00 04 	bcc  400090b4 <__mcmp+0x60>
400090a8:	90 10 3f ff 	mov  -1, %o0
400090ac:	81 c3 e0 08 	retl 
400090b0:	01 00 00 00 	nop 
400090b4:	81 c3 e0 08 	retl 
400090b8:	90 10 20 01 	mov  1, %o0	! 1 <_CONTEXT_I_>

400090bc <__mdiff>:
400090bc:	9d e3 bf a0 	save  %sp, -96, %sp
400090c0:	e2 06 60 10 	ld  [ %i1 + 0x10 ], %l1
400090c4:	c4 06 a0 10 	ld  [ %i2 + 0x10 ], %g2
400090c8:	b8 06 60 14 	add  %i1, 0x14, %i4
400090cc:	a2 24 40 02 	sub  %l1, %g2, %l1
400090d0:	80 a4 60 00 	cmp  %l1, 0
400090d4:	12 80 00 67 	bne  40009270 <__mdiff+0x1b4>
400090d8:	a0 06 a0 14 	add  %i2, 0x14, %l0
400090dc:	85 28 a0 02 	sll  %g2, 2, %g2
400090e0:	82 07 00 02 	add  %i4, %g2, %g1
400090e4:	10 80 00 04 	b  400090f4 <__mdiff+0x38>
400090e8:	84 04 00 02 	add  %l0, %g2, %g2
400090ec:	08 80 00 75 	bleu  400092c0 <__mdiff+0x204>
400090f0:	92 10 20 00 	clr  %o1
400090f4:	82 00 7f fc 	add  %g1, -4, %g1
400090f8:	84 00 bf fc 	add  %g2, -4, %g2
400090fc:	c8 00 40 00 	ld  [ %g1 ], %g4
40009100:	c6 00 80 00 	ld  [ %g2 ], %g3
40009104:	80 a1 00 03 	cmp  %g4, %g3
40009108:	22 bf ff f9 	be,a   400090ec <__mdiff+0x30>
4000910c:	80 a0 40 1c 	cmp  %g1, %i4
40009110:	0a 80 00 5b 	bcs  4000927c <__mdiff+0x1c0>
40009114:	84 10 00 1c 	mov  %i4, %g2
40009118:	d2 06 60 04 	ld  [ %i1 + 4 ], %o1
4000911c:	7f ff fd 07 	call  40008538 <_Balloc>
40009120:	90 10 00 18 	mov  %i0, %o0
40009124:	de 06 a0 10 	ld  [ %i2 + 0x10 ], %o7
40009128:	f6 06 60 10 	ld  [ %i1 + 0x10 ], %i3
4000912c:	9f 2b e0 02 	sll  %o7, 2, %o7
40009130:	bb 2e e0 02 	sll  %i3, 2, %i5
40009134:	35 00 00 3f 	sethi  %hi(0xfc00), %i2
40009138:	b0 10 00 08 	mov  %o0, %i0
4000913c:	e2 22 20 0c 	st  %l1, [ %o0 + 0xc ]
40009140:	ba 07 00 1d 	add  %i4, %i5, %i5
40009144:	9e 04 00 0f 	add  %l0, %o7, %o7
40009148:	b2 02 20 14 	add  %o0, 0x14, %i1
4000914c:	9a 10 20 00 	clr  %o5
40009150:	82 10 20 00 	clr  %g1
40009154:	b4 16 a3 ff 	or  %i2, 0x3ff, %i2
40009158:	c8 04 00 0d 	ld  [ %l0 + %o5 ], %g4
4000915c:	c4 07 00 0d 	ld  [ %i4 + %o5 ], %g2
40009160:	86 08 80 1a 	and  %g2, %i2, %g3
40009164:	85 30 a0 10 	srl  %g2, 0x10, %g2
40009168:	98 09 00 1a 	and  %g4, %i2, %o4
4000916c:	86 00 c0 01 	add  %g3, %g1, %g3
40009170:	83 31 20 10 	srl  %g4, 0x10, %g1
40009174:	86 20 c0 0c 	sub  %g3, %o4, %g3
40009178:	82 20 80 01 	sub  %g2, %g1, %g1
4000917c:	89 38 e0 10 	sra  %g3, 0x10, %g4
40009180:	86 08 c0 1a 	and  %g3, %i2, %g3
40009184:	82 00 40 04 	add  %g1, %g4, %g1
40009188:	85 28 60 10 	sll  %g1, 0x10, %g2
4000918c:	86 10 80 03 	or  %g2, %g3, %g3
40009190:	c6 26 40 0d 	st  %g3, [ %i1 + %o5 ]
40009194:	9a 03 60 04 	add  %o5, 4, %o5
40009198:	84 04 00 0d 	add  %l0, %o5, %g2
4000919c:	80 a3 c0 02 	cmp  %o7, %g2
400091a0:	18 bf ff ee 	bgu  40009158 <__mdiff+0x9c>
400091a4:	83 38 60 10 	sra  %g1, 0x10, %g1
400091a8:	88 04 20 01 	add  %l0, 1, %g4
400091ac:	84 10 20 00 	clr  %g2
400091b0:	a0 38 00 10 	xnor  %g0, %l0, %l0
400091b4:	80 a3 c0 04 	cmp  %o7, %g4
400091b8:	a0 03 c0 10 	add  %o7, %l0, %l0
400091bc:	1a 80 00 3a 	bcc  400092a4 <__mdiff+0x1e8>
400091c0:	a1 34 20 02 	srl  %l0, 2, %l0
400091c4:	84 06 40 02 	add  %i1, %g2, %g2
400091c8:	80 a3 c0 04 	cmp  %o7, %g4
400091cc:	1a 80 00 33 	bcc  40009298 <__mdiff+0x1dc>
400091d0:	b4 10 20 04 	mov  4, %i2
400091d4:	b8 07 00 1a 	add  %i4, %i2, %i4
400091d8:	80 a7 40 1c 	cmp  %i5, %i4
400091dc:	08 80 00 1a 	bleu  40009244 <__mdiff+0x188>
400091e0:	b4 06 40 1a 	add  %i1, %i2, %i2
400091e4:	ba 07 7f ff 	add  %i5, -1, %i5
400091e8:	33 00 00 3f 	sethi  %hi(0xfc00), %i1
400091ec:	ba 27 40 1c 	sub  %i5, %i4, %i5
400091f0:	88 10 20 00 	clr  %g4
400091f4:	bb 37 60 02 	srl  %i5, 2, %i5
400091f8:	b2 16 63 ff 	or  %i1, 0x3ff, %i1
400091fc:	9e 07 60 01 	add  %i5, 1, %o7
40009200:	9f 2b e0 02 	sll  %o7, 2, %o7
40009204:	c4 07 00 04 	ld  [ %i4 + %g4 ], %g2
40009208:	86 08 80 19 	and  %g2, %i1, %g3
4000920c:	85 30 a0 10 	srl  %g2, 0x10, %g2
40009210:	86 00 c0 01 	add  %g3, %g1, %g3
40009214:	83 38 e0 10 	sra  %g3, 0x10, %g1
40009218:	86 08 c0 19 	and  %g3, %i1, %g3
4000921c:	82 00 80 01 	add  %g2, %g1, %g1
40009220:	85 28 60 10 	sll  %g1, 0x10, %g2
40009224:	86 10 80 03 	or  %g2, %g3, %g3
40009228:	c6 26 80 04 	st  %g3, [ %i2 + %g4 ]
4000922c:	88 01 20 04 	add  %g4, 4, %g4
40009230:	80 a3 c0 04 	cmp  %o7, %g4
40009234:	12 bf ff f4 	bne  40009204 <__mdiff+0x148>
40009238:	83 38 60 10 	sra  %g1, 0x10, %g1
4000923c:	85 2f 60 02 	sll  %i5, 2, %g2
40009240:	84 06 80 02 	add  %i2, %g2, %g2
40009244:	80 a0 e0 00 	cmp  %g3, 0
40009248:	32 80 00 08 	bne,a   40009268 <__mdiff+0x1ac>
4000924c:	f6 26 20 10 	st  %i3, [ %i0 + 0x10 ]
40009250:	84 00 bf fc 	add  %g2, -4, %g2
40009254:	c2 00 80 00 	ld  [ %g2 ], %g1
40009258:	80 a0 60 00 	cmp  %g1, 0
4000925c:	02 bf ff fd 	be  40009250 <__mdiff+0x194>
40009260:	b6 06 ff ff 	add  %i3, -1, %i3
40009264:	f6 26 20 10 	st  %i3, [ %i0 + 0x10 ]
40009268:	81 c7 e0 08 	ret 
4000926c:	81 e8 00 00 	restore 
40009270:	16 bf ff aa 	bge  40009118 <__mdiff+0x5c>
40009274:	a2 10 20 00 	clr  %l1
40009278:	84 10 00 1c 	mov  %i4, %g2
4000927c:	82 10 00 19 	mov  %i1, %g1
40009280:	b8 10 00 10 	mov  %l0, %i4
40009284:	b2 10 00 1a 	mov  %i2, %i1
40009288:	a0 10 00 02 	mov  %g2, %l0
4000928c:	b4 10 00 01 	mov  %g1, %i2
40009290:	10 bf ff a2 	b  40009118 <__mdiff+0x5c>
40009294:	a2 10 20 01 	mov  1, %l1
40009298:	a0 04 20 01 	inc  %l0
4000929c:	10 bf ff ce 	b  400091d4 <__mdiff+0x118>
400092a0:	b5 2c 20 02 	sll  %l0, 2, %i2
400092a4:	85 2c 20 02 	sll  %l0, 2, %g2
400092a8:	b4 10 20 04 	mov  4, %i2
400092ac:	80 a3 c0 04 	cmp  %o7, %g4
400092b0:	0a bf ff c9 	bcs  400091d4 <__mdiff+0x118>
400092b4:	84 06 40 02 	add  %i1, %g2, %g2
400092b8:	10 bf ff f9 	b  4000929c <__mdiff+0x1e0>
400092bc:	a0 04 20 01 	inc  %l0
400092c0:	7f ff fc 9e 	call  40008538 <_Balloc>
400092c4:	90 10 00 18 	mov  %i0, %o0
400092c8:	82 10 20 01 	mov  1, %g1
400092cc:	c2 22 20 10 	st  %g1, [ %o0 + 0x10 ]
400092d0:	c0 22 20 14 	clr  [ %o0 + 0x14 ]
400092d4:	81 c7 e0 08 	ret 
400092d8:	91 e8 00 08 	restore  %g0, %o0, %o0

400092dc <__ulp>:
400092dc:	03 1f fc 00 	sethi  %hi(0x7ff00000), %g1
400092e0:	90 0a 00 01 	and  %o0, %g1, %o0
400092e4:	03 3f 30 00 	sethi  %hi(0xfcc00000), %g1
400092e8:	90 02 00 01 	add  %o0, %g1, %o0
400092ec:	80 a2 20 00 	cmp  %o0, 0
400092f0:	04 80 00 08 	ble  40009310 <__ulp+0x34>
400092f4:	9c 03 bf b0 	add  %sp, -80, %sp
400092f8:	84 10 00 08 	mov  %o0, %g2
400092fc:	86 10 20 00 	clr  %g3
40009300:	c4 3b a0 48 	std  %g2, [ %sp + 0x48 ]
40009304:	c1 1b a0 48 	ldd  [ %sp + 0x48 ], %f0
40009308:	81 c3 e0 08 	retl 
4000930c:	9c 03 a0 50 	add  %sp, 0x50, %sp
40009310:	90 20 00 08 	neg  %o0
40009314:	91 3a 20 14 	sra  %o0, 0x14, %o0
40009318:	80 a2 20 13 	cmp  %o0, 0x13
4000931c:	34 80 00 09 	bg,a   40009340 <__ulp+0x64>
40009320:	90 02 3f ec 	add  %o0, -20, %o0
40009324:	03 00 02 00 	sethi  %hi(0x80000), %g1
40009328:	86 10 20 00 	clr  %g3
4000932c:	85 38 40 08 	sra  %g1, %o0, %g2
40009330:	c4 3b a0 48 	std  %g2, [ %sp + 0x48 ]
40009334:	c1 1b a0 48 	ldd  [ %sp + 0x48 ], %f0
40009338:	81 c3 e0 08 	retl 
4000933c:	9c 03 a0 50 	add  %sp, 0x50, %sp
40009340:	84 10 20 00 	clr  %g2
40009344:	80 a2 20 1e 	cmp  %o0, 0x1e
40009348:	14 80 00 04 	bg  40009358 <__ulp+0x7c>
4000934c:	82 10 20 01 	mov  1, %g1
40009350:	03 20 00 00 	sethi  %hi(0x80000000), %g1
40009354:	83 30 40 08 	srl  %g1, %o0, %g1
40009358:	86 10 00 01 	mov  %g1, %g3
4000935c:	c4 3b a0 48 	std  %g2, [ %sp + 0x48 ]
40009360:	c1 1b a0 48 	ldd  [ %sp + 0x48 ], %f0
40009364:	81 c3 e0 08 	retl 
40009368:	9c 03 a0 50 	add  %sp, 0x50, %sp

4000936c <__b2d>:
4000936c:	9d e3 bf 98 	save  %sp, -104, %sp
40009370:	03 3f ff c0 	sethi  %hi(0xffff0000), %g1
40009374:	b6 06 20 14 	add  %i0, 0x14, %i3
40009378:	c6 06 20 10 	ld  [ %i0 + 0x10 ], %g3
4000937c:	87 28 e0 02 	sll  %g3, 2, %g3
40009380:	86 06 c0 03 	add  %i3, %g3, %g3
40009384:	c8 00 ff fc 	ld  [ %g3 + -4 ], %g4
40009388:	80 89 00 01 	btst  %g4, %g1
4000938c:	12 80 00 2d 	bne  40009440 <__b2d+0xd4>
40009390:	b4 00 ff fc 	add  %g3, -4, %i2
40009394:	85 29 20 10 	sll  %g4, 0x10, %g2
40009398:	b8 10 20 18 	mov  0x18, %i4
4000939c:	82 10 20 10 	mov  0x10, %g1
400093a0:	3b 3f c0 00 	sethi  %hi(0xff000000), %i5
400093a4:	80 88 80 1d 	btst  %g2, %i5
400093a8:	12 80 00 04 	bne  400093b8 <__b2d+0x4c>
400093ac:	3b 3c 00 00 	sethi  %hi(0xf0000000), %i5
400093b0:	85 28 a0 08 	sll  %g2, 8, %g2
400093b4:	82 10 00 1c 	mov  %i4, %g1
400093b8:	80 88 80 1d 	btst  %g2, %i5
400093bc:	12 80 00 04 	bne  400093cc <__b2d+0x60>
400093c0:	3b 30 00 00 	sethi  %hi(0xc0000000), %i5
400093c4:	82 00 60 04 	add  %g1, 4, %g1
400093c8:	85 28 a0 04 	sll  %g2, 4, %g2
400093cc:	80 88 80 1d 	btst  %g2, %i5
400093d0:	12 80 00 05 	bne  400093e4 <__b2d+0x78>
400093d4:	80 a0 a0 00 	cmp  %g2, 0
400093d8:	82 00 60 02 	add  %g1, 2, %g1
400093dc:	85 28 a0 02 	sll  %g2, 2, %g2
400093e0:	80 a0 a0 00 	cmp  %g2, 0
400093e4:	06 80 00 05 	bl  400093f8 <__b2d+0x8c>
400093e8:	3b 10 00 00 	sethi  %hi(0x40000000), %i5
400093ec:	80 88 80 1d 	btst  %g2, %i5
400093f0:	02 80 00 31 	be  400094b4 <__b2d+0x148>
400093f4:	82 00 60 01 	inc  %g1
400093f8:	84 10 20 20 	mov  0x20, %g2
400093fc:	ba 20 80 01 	sub  %g2, %g1, %i5
40009400:	80 a0 60 0a 	cmp  %g1, 0xa
40009404:	04 80 00 1b 	ble  40009470 <__b2d+0x104>
40009408:	fa 26 40 00 	st  %i5, [ %i1 ]
4000940c:	80 a6 c0 1a 	cmp  %i3, %i2
40009410:	1a 80 00 10 	bcc  40009450 <__b2d+0xe4>
40009414:	82 00 7f f5 	add  %g1, -11, %g1
40009418:	80 a0 60 00 	cmp  %g1, 0
4000941c:	12 80 00 3a 	bne  40009504 <__b2d+0x198>
40009420:	f4 00 ff f8 	ld  [ %g3 + -8 ], %i2
40009424:	03 0f fc 00 	sethi  %hi(0x3ff00000), %g1
40009428:	b8 11 00 01 	or  %g4, %g1, %i4
4000942c:	ba 10 00 1a 	mov  %i2, %i5
40009430:	f8 3f bf f8 	std  %i4, [ %fp + -8 ]
40009434:	c1 1f bf f8 	ldd  [ %fp + -8 ], %f0
40009438:	81 c7 e0 08 	ret 
4000943c:	81 e8 00 00 	restore 
40009440:	84 10 00 04 	mov  %g4, %g2
40009444:	b8 10 20 08 	mov  8, %i4
40009448:	10 bf ff d6 	b  400093a0 <__b2d+0x34>
4000944c:	82 10 20 00 	clr  %g1
40009450:	80 a0 60 00 	cmp  %g1, 0
40009454:	02 bf ff f4 	be  40009424 <__b2d+0xb8>
40009458:	b4 10 20 00 	clr  %i2
4000945c:	83 29 00 01 	sll  %g4, %g1, %g1
40009460:	05 0f fc 00 	sethi  %hi(0x3ff00000), %g2
40009464:	b4 10 20 00 	clr  %i2
40009468:	10 bf ff f1 	b  4000942c <__b2d+0xc0>
4000946c:	b8 10 40 02 	or  %g1, %g2, %i4
40009470:	84 10 20 0b 	mov  0xb, %g2
40009474:	31 0f fc 00 	sethi  %hi(0x3ff00000), %i0
40009478:	84 20 80 01 	sub  %g2, %g1, %g2
4000947c:	b2 10 20 00 	clr  %i1
40009480:	9f 31 00 02 	srl  %g4, %g2, %o7
40009484:	80 a6 c0 1a 	cmp  %i3, %i2
40009488:	1a 80 00 04 	bcc  40009498 <__b2d+0x12c>
4000948c:	b8 13 c0 18 	or  %o7, %i0, %i4
40009490:	f2 00 ff f8 	ld  [ %g3 + -8 ], %i1
40009494:	b3 36 40 02 	srl  %i1, %g2, %i1
40009498:	82 00 60 15 	add  %g1, 0x15, %g1
4000949c:	83 29 00 01 	sll  %g4, %g1, %g1
400094a0:	ba 10 40 19 	or  %g1, %i1, %i5
400094a4:	f8 3f bf f8 	std  %i4, [ %fp + -8 ]
400094a8:	c1 1f bf f8 	ldd  [ %fp + -8 ], %f0
400094ac:	81 c7 e0 08 	ret 
400094b0:	81 e8 00 00 	restore 
400094b4:	c0 26 40 00 	clr  [ %i1 ]
400094b8:	80 a6 c0 1a 	cmp  %i3, %i2
400094bc:	1a bf ff e8 	bcc  4000945c <__b2d+0xf0>
400094c0:	82 10 20 15 	mov  0x15, %g1
400094c4:	b2 00 ff f8 	add  %g3, -8, %i1
400094c8:	f4 00 ff f8 	ld  [ %g3 + -8 ], %i2
400094cc:	84 10 20 0b 	mov  0xb, %g2
400094d0:	82 10 20 15 	mov  0x15, %g1
400094d4:	89 29 00 01 	sll  %g4, %g1, %g4
400094d8:	87 36 80 02 	srl  %i2, %g2, %g3
400094dc:	80 a6 c0 19 	cmp  %i3, %i1
400094e0:	88 11 00 03 	or  %g4, %g3, %g4
400094e4:	b5 2e 80 01 	sll  %i2, %g1, %i2
400094e8:	03 0f fc 00 	sethi  %hi(0x3ff00000), %g1
400094ec:	1a bf ff d0 	bcc  4000942c <__b2d+0xc0>
400094f0:	b8 11 00 01 	or  %g4, %g1, %i4
400094f4:	c2 06 7f fc 	ld  [ %i1 + -4 ], %g1
400094f8:	85 30 40 02 	srl  %g1, %g2, %g2
400094fc:	10 bf ff cc 	b  4000942c <__b2d+0xc0>
40009500:	b4 16 80 02 	or  %i2, %g2, %i2
40009504:	b2 00 ff f8 	add  %g3, -8, %i1
40009508:	10 bf ff f3 	b  400094d4 <__b2d+0x168>
4000950c:	84 20 80 01 	sub  %g2, %g1, %g2

40009510 <__d2b>:
40009510:	9d e3 bf a0 	save  %sp, -96, %sp
40009514:	86 10 00 1a 	mov  %i2, %g3
40009518:	f4 06 20 24 	ld  [ %i0 + 0x24 ], %i2
4000951c:	80 a6 a0 00 	cmp  %i2, 0
40009520:	02 80 00 b8 	be  40009800 <__d2b+0x2f0>
40009524:	ba 10 00 03 	mov  %g3, %i5
40009528:	c4 06 a0 0c 	ld  [ %i2 + 0xc ], %g2
4000952c:	80 a0 a0 00 	cmp  %g2, 0
40009530:	02 80 00 bd 	be  40009824 <__d2b+0x314>
40009534:	94 10 20 21 	mov  0x21, %o2
40009538:	d0 00 a0 04 	ld  [ %g2 + 4 ], %o0
4000953c:	80 a2 20 00 	cmp  %o0, 0
40009540:	02 80 00 c4 	be  40009850 <__d2b+0x340>
40009544:	94 10 20 1c 	mov  0x1c, %o2
40009548:	c6 02 00 00 	ld  [ %o0 ], %g3
4000954c:	c6 20 a0 04 	st  %g3, [ %g2 + 4 ]
40009550:	c0 22 20 10 	clr  [ %o0 + 0x10 ]
40009554:	c0 22 20 0c 	clr  [ %o0 + 0xc ]
40009558:	85 36 60 14 	srl  %i1, 0x14, %g2
4000955c:	07 3f fc 00 	sethi  %hi(0xfff00000), %g3
40009560:	b4 88 a7 ff 	andcc  %g2, 0x7ff, %i2
40009564:	02 80 00 04 	be  40009574 <__d2b+0x64>
40009568:	82 2e 40 03 	andn  %i1, %g3, %g1
4000956c:	05 00 04 00 	sethi  %hi(0x100000), %g2
40009570:	82 10 40 02 	or  %g1, %g2, %g1
40009574:	84 97 60 00 	orcc  %i5, 0, %g2
40009578:	02 80 00 3d 	be  4000966c <__d2b+0x15c>
4000957c:	80 88 60 07 	btst  7, %g1
40009580:	80 88 a0 07 	btst  7, %g2
40009584:	22 80 00 6e 	be,a   4000973c <__d2b+0x22c>
40009588:	07 00 00 3f 	sethi  %hi(0xfc00), %g3
4000958c:	80 88 a0 01 	btst  1, %g2
40009590:	12 80 00 94 	bne  400097e0 <__d2b+0x2d0>
40009594:	80 88 a0 02 	btst  2, %g2
40009598:	02 80 00 c7 	be  400098b4 <__d2b+0x3a4>
4000959c:	89 30 a0 02 	srl  %g2, 2, %g4
400095a0:	89 30 a0 01 	srl  %g2, 1, %g4
400095a4:	bb 28 60 1f 	sll  %g1, 0x1f, %i5
400095a8:	86 10 20 01 	mov  1, %g3
400095ac:	88 11 00 1d 	or  %g4, %i5, %g4
400095b0:	83 30 40 03 	srl  %g1, %g3, %g1
400095b4:	c8 22 20 14 	st  %g4, [ %o0 + 0x14 ]
400095b8:	80 a0 00 01 	cmp  %g0, %g1
400095bc:	c2 22 20 18 	st  %g1, [ %o0 + 0x18 ]
400095c0:	82 40 20 00 	addx  %g0, 0, %g1
400095c4:	82 00 60 01 	inc  %g1
400095c8:	80 a6 a0 00 	cmp  %i2, 0
400095cc:	12 80 00 37 	bne  400096a8 <__d2b+0x198>
400095d0:	c2 22 20 10 	st  %g1, [ %o0 + 0x10 ]
400095d4:	86 00 fb ce 	add  %g3, -1074, %g3
400095d8:	c6 26 c0 00 	st  %g3, [ %i3 ]
400095dc:	85 28 60 02 	sll  %g1, 2, %g2
400095e0:	07 3f ff c0 	sethi  %hi(0xffff0000), %g3
400095e4:	84 02 00 02 	add  %o0, %g2, %g2
400095e8:	c4 00 a0 10 	ld  [ %g2 + 0x10 ], %g2
400095ec:	80 88 80 03 	btst  %g2, %g3
400095f0:	12 80 00 72 	bne  400097b8 <__d2b+0x2a8>
400095f4:	83 28 60 05 	sll  %g1, 5, %g1
400095f8:	85 28 a0 10 	sll  %g2, 0x10, %g2
400095fc:	ba 10 20 18 	mov  0x18, %i5
40009600:	86 10 20 10 	mov  0x10, %g3
40009604:	09 3f c0 00 	sethi  %hi(0xff000000), %g4
40009608:	80 88 80 04 	btst  %g2, %g4
4000960c:	12 80 00 04 	bne  4000961c <__d2b+0x10c>
40009610:	09 3c 00 00 	sethi  %hi(0xf0000000), %g4
40009614:	85 28 a0 08 	sll  %g2, 8, %g2
40009618:	86 10 00 1d 	mov  %i5, %g3
4000961c:	80 88 80 04 	btst  %g2, %g4
40009620:	12 80 00 04 	bne  40009630 <__d2b+0x120>
40009624:	09 30 00 00 	sethi  %hi(0xc0000000), %g4
40009628:	86 00 e0 04 	add  %g3, 4, %g3
4000962c:	85 28 a0 04 	sll  %g2, 4, %g2
40009630:	80 88 80 04 	btst  %g2, %g4
40009634:	12 80 00 05 	bne  40009648 <__d2b+0x138>
40009638:	80 a0 a0 00 	cmp  %g2, 0
4000963c:	86 00 e0 02 	add  %g3, 2, %g3
40009640:	85 28 a0 02 	sll  %g2, 2, %g2
40009644:	80 a0 a0 00 	cmp  %g2, 0
40009648:	06 80 00 05 	bl  4000965c <__d2b+0x14c>
4000964c:	09 10 00 00 	sethi  %hi(0x40000000), %g4
40009650:	80 88 80 04 	btst  %g2, %g4
40009654:	02 80 00 67 	be  400097f0 <__d2b+0x2e0>
40009658:	86 00 e0 01 	inc  %g3
4000965c:	82 20 40 03 	sub  %g1, %g3, %g1
40009660:	c2 27 00 00 	st  %g1, [ %i4 ]
40009664:	81 c7 e0 08 	ret 
40009668:	91 e8 00 08 	restore  %g0, %o0, %o0
4000966c:	02 80 00 17 	be  400096c8 <__d2b+0x1b8>
40009670:	05 00 00 3f 	sethi  %hi(0xfc00), %g2
40009674:	80 88 60 01 	btst  1, %g1
40009678:	12 80 00 07 	bne  40009694 <__d2b+0x184>
4000967c:	86 10 20 20 	mov  0x20, %g3
40009680:	80 88 60 02 	btst  2, %g1
40009684:	22 80 00 8a 	be,a   400098ac <__d2b+0x39c>
40009688:	83 30 60 02 	srl  %g1, 2, %g1
4000968c:	83 30 60 01 	srl  %g1, 1, %g1
40009690:	86 10 20 21 	mov  0x21, %g3
40009694:	c2 22 20 14 	st  %g1, [ %o0 + 0x14 ]
40009698:	82 10 20 01 	mov  1, %g1
4000969c:	80 a6 a0 00 	cmp  %i2, 0
400096a0:	02 bf ff cd 	be  400095d4 <__d2b+0xc4>
400096a4:	c2 22 20 10 	st  %g1, [ %o0 + 0x10 ]
400096a8:	82 06 bb cd 	add  %i2, -1075, %g1
400096ac:	82 00 40 03 	add  %g1, %g3, %g1
400096b0:	c2 26 c0 00 	st  %g1, [ %i3 ]
400096b4:	82 10 20 35 	mov  0x35, %g1
400096b8:	86 20 40 03 	sub  %g1, %g3, %g3
400096bc:	c6 27 00 00 	st  %g3, [ %i4 ]
400096c0:	81 c7 e0 08 	ret 
400096c4:	91 e8 00 08 	restore  %g0, %o0, %o0
400096c8:	84 10 a3 ff 	or  %g2, 0x3ff, %g2
400096cc:	80 88 40 02 	btst  %g1, %g2
400096d0:	02 80 00 3d 	be  400097c4 <__d2b+0x2b4>
400096d4:	89 30 60 10 	srl  %g1, 0x10, %g4
400096d8:	86 08 60 ff 	and  %g1, 0xff, %g3
400096dc:	88 10 00 01 	mov  %g1, %g4
400096e0:	ba 10 20 08 	mov  8, %i5
400096e4:	84 10 20 00 	clr  %g2
400096e8:	80 a0 e0 00 	cmp  %g3, 0
400096ec:	12 80 00 05 	bne  40009700 <__d2b+0x1f0>
400096f0:	80 89 20 0f 	btst  0xf, %g4
400096f4:	89 31 20 08 	srl  %g4, 8, %g4
400096f8:	84 10 00 1d 	mov  %i5, %g2
400096fc:	80 89 20 0f 	btst  0xf, %g4
40009700:	12 80 00 05 	bne  40009714 <__d2b+0x204>
40009704:	80 89 20 03 	btst  3, %g4
40009708:	84 00 a0 04 	add  %g2, 4, %g2
4000970c:	89 31 20 04 	srl  %g4, 4, %g4
40009710:	80 89 20 03 	btst  3, %g4
40009714:	12 80 00 05 	bne  40009728 <__d2b+0x218>
40009718:	80 89 20 01 	btst  1, %g4
4000971c:	84 00 a0 02 	add  %g2, 2, %g2
40009720:	89 31 20 02 	srl  %g4, 2, %g4
40009724:	80 89 20 01 	btst  1, %g4
40009728:	22 80 00 5b 	be,a   40009894 <__d2b+0x384>
4000972c:	89 31 20 01 	srl  %g4, 1, %g4
40009730:	86 00 a0 20 	add  %g2, 0x20, %g3
40009734:	10 bf ff d8 	b  40009694 <__d2b+0x184>
40009738:	82 10 00 04 	mov  %g4, %g1
4000973c:	86 10 e3 ff 	or  %g3, 0x3ff, %g3
40009740:	80 88 80 03 	btst  %g2, %g3
40009744:	02 80 00 24 	be  400097d4 <__d2b+0x2c4>
40009748:	89 30 a0 10 	srl  %g2, 0x10, %g4
4000974c:	88 10 00 02 	mov  %g2, %g4
40009750:	ba 10 20 08 	mov  8, %i5
40009754:	86 10 20 00 	clr  %g3
40009758:	80 89 20 ff 	btst  0xff, %g4
4000975c:	12 80 00 05 	bne  40009770 <__d2b+0x260>
40009760:	80 89 20 0f 	btst  0xf, %g4
40009764:	89 31 20 08 	srl  %g4, 8, %g4
40009768:	86 10 00 1d 	mov  %i5, %g3
4000976c:	80 89 20 0f 	btst  0xf, %g4
40009770:	12 80 00 05 	bne  40009784 <__d2b+0x274>
40009774:	80 89 20 03 	btst  3, %g4
40009778:	86 00 e0 04 	add  %g3, 4, %g3
4000977c:	89 31 20 04 	srl  %g4, 4, %g4
40009780:	80 89 20 03 	btst  3, %g4
40009784:	12 80 00 3d 	bne  40009878 <__d2b+0x368>
40009788:	80 89 20 01 	btst  1, %g4
4000978c:	89 31 20 02 	srl  %g4, 2, %g4
40009790:	80 89 20 01 	btst  1, %g4
40009794:	12 80 00 06 	bne  400097ac <__d2b+0x29c>
40009798:	86 00 e0 02 	add  %g3, 2, %g3
4000979c:	89 31 20 01 	srl  %g4, 1, %g4
400097a0:	80 a1 20 00 	cmp  %g4, 0
400097a4:	02 80 00 47 	be  400098c0 <__d2b+0x3b0>
400097a8:	86 00 e0 01 	inc  %g3
400097ac:	ba 20 00 03 	neg  %g3, %i5
400097b0:	10 bf ff 7f 	b  400095ac <__d2b+0x9c>
400097b4:	bb 28 40 1d 	sll  %g1, %i5, %i5
400097b8:	ba 10 20 08 	mov  8, %i5
400097bc:	10 bf ff 92 	b  40009604 <__d2b+0xf4>
400097c0:	86 10 20 00 	clr  %g3
400097c4:	ba 10 20 18 	mov  0x18, %i5
400097c8:	86 10 00 04 	mov  %g4, %g3
400097cc:	10 bf ff c7 	b  400096e8 <__d2b+0x1d8>
400097d0:	84 10 20 10 	mov  0x10, %g2
400097d4:	ba 10 20 18 	mov  0x18, %i5
400097d8:	10 bf ff e0 	b  40009758 <__d2b+0x248>
400097dc:	86 10 20 10 	mov  0x10, %g3
400097e0:	88 10 00 02 	mov  %g2, %g4
400097e4:	86 10 20 00 	clr  %g3
400097e8:	10 bf ff 74 	b  400095b8 <__d2b+0xa8>
400097ec:	c8 22 20 14 	st  %g4, [ %o0 + 0x14 ]
400097f0:	86 10 20 20 	mov  0x20, %g3
400097f4:	82 20 40 03 	sub  %g1, %g3, %g1
400097f8:	10 bf ff 9b 	b  40009664 <__d2b+0x154>
400097fc:	c2 27 00 00 	st  %g1, [ %i4 ]
40009800:	7f ff f8 c2 	call  40007b08 <malloc>
40009804:	90 10 20 10 	mov  0x10, %o0
40009808:	d0 26 20 24 	st  %o0, [ %i0 + 0x24 ]
4000980c:	b4 10 00 08 	mov  %o0, %i2
40009810:	c0 22 20 04 	clr  [ %o0 + 4 ]
40009814:	c0 22 20 08 	clr  [ %o0 + 8 ]
40009818:	c0 22 00 00 	clr  [ %o0 ]
4000981c:	c0 22 20 0c 	clr  [ %o0 + 0xc ]
40009820:	94 10 20 21 	mov  0x21, %o2
40009824:	92 10 20 04 	mov  4, %o1
40009828:	40 00 09 bc 	call  4000bf18 <_calloc_r>
4000982c:	90 10 00 18 	mov  %i0, %o0
40009830:	d0 26 a0 0c 	st  %o0, [ %i2 + 0xc ]
40009834:	c4 06 20 24 	ld  [ %i0 + 0x24 ], %g2
40009838:	c4 00 a0 0c 	ld  [ %g2 + 0xc ], %g2
4000983c:	80 a0 a0 00 	cmp  %g2, 0
40009840:	32 bf ff 3f 	bne,a   4000953c <__d2b+0x2c>
40009844:	d0 00 a0 04 	ld  [ %g2 + 4 ], %o0
40009848:	10 bf ff 44 	b  40009558 <__d2b+0x48>
4000984c:	90 10 20 00 	clr  %o0
40009850:	92 10 20 01 	mov  1, %o1
40009854:	40 00 09 b1 	call  4000bf18 <_calloc_r>
40009858:	90 10 00 18 	mov  %i0, %o0
4000985c:	80 a2 20 00 	cmp  %o0, 0
40009860:	02 bf ff fa 	be  40009848 <__d2b+0x338>
40009864:	84 10 20 01 	mov  1, %g2
40009868:	c4 22 20 04 	st  %g2, [ %o0 + 4 ]
4000986c:	84 10 20 02 	mov  2, %g2
40009870:	10 bf ff 38 	b  40009550 <__d2b+0x40>
40009874:	c4 22 20 08 	st  %g2, [ %o0 + 8 ]
40009878:	02 bf ff c9 	be  4000979c <__d2b+0x28c>
4000987c:	80 a0 e0 00 	cmp  %g3, 0
40009880:	12 bf ff cc 	bne  400097b0 <__d2b+0x2a0>
40009884:	ba 20 00 03 	neg  %g3, %i5
40009888:	c8 22 20 14 	st  %g4, [ %o0 + 0x14 ]
4000988c:	10 bf ff 4b 	b  400095b8 <__d2b+0xa8>
40009890:	86 10 20 00 	clr  %g3
40009894:	80 a1 20 00 	cmp  %g4, 0
40009898:	02 bf ff 7f 	be  40009694 <__d2b+0x184>
4000989c:	86 10 20 40 	mov  0x40, %g3
400098a0:	86 00 a0 21 	add  %g2, 0x21, %g3
400098a4:	10 bf ff 7c 	b  40009694 <__d2b+0x184>
400098a8:	82 10 00 04 	mov  %g4, %g1
400098ac:	10 bf ff 7a 	b  40009694 <__d2b+0x184>
400098b0:	86 10 20 22 	mov  0x22, %g3
400098b4:	bb 28 60 1e 	sll  %g1, 0x1e, %i5
400098b8:	10 bf ff 3d 	b  400095ac <__d2b+0x9c>
400098bc:	86 10 20 02 	mov  2, %g3
400098c0:	ba 10 00 01 	mov  %g1, %i5
400098c4:	88 10 00 02 	mov  %g2, %g4
400098c8:	10 bf ff 39 	b  400095ac <__d2b+0x9c>
400098cc:	86 10 20 20 	mov  0x20, %g3

400098d0 <__ratio>:
400098d0:	9d e3 bf 90 	save  %sp, -112, %sp
400098d4:	03 3f ff c0 	sethi  %hi(0xffff0000), %g1
400098d8:	b4 06 20 14 	add  %i0, 0x14, %i2
400098dc:	c6 06 20 10 	ld  [ %i0 + 0x10 ], %g3
400098e0:	87 28 e0 02 	sll  %g3, 2, %g3
400098e4:	86 06 80 03 	add  %i2, %g3, %g3
400098e8:	c8 00 ff fc 	ld  [ %g3 + -4 ], %g4
400098ec:	80 89 00 01 	btst  %g4, %g1
400098f0:	12 80 00 40 	bne  400099f0 <__ratio+0x120>
400098f4:	9e 00 ff fc 	add  %g3, -4, %o7
400098f8:	85 29 20 10 	sll  %g4, 0x10, %g2
400098fc:	b8 10 20 18 	mov  0x18, %i4
40009900:	82 10 20 10 	mov  0x10, %g1
40009904:	3b 3f c0 00 	sethi  %hi(0xff000000), %i5
40009908:	80 88 80 1d 	btst  %g2, %i5
4000990c:	12 80 00 04 	bne  4000991c <__ratio+0x4c>
40009910:	3b 3c 00 00 	sethi  %hi(0xf0000000), %i5
40009914:	85 28 a0 08 	sll  %g2, 8, %g2
40009918:	82 10 00 1c 	mov  %i4, %g1
4000991c:	80 88 80 1d 	btst  %g2, %i5
40009920:	12 80 00 04 	bne  40009930 <__ratio+0x60>
40009924:	3b 30 00 00 	sethi  %hi(0xc0000000), %i5
40009928:	82 00 60 04 	add  %g1, 4, %g1
4000992c:	85 28 a0 04 	sll  %g2, 4, %g2
40009930:	80 88 80 1d 	btst  %g2, %i5
40009934:	12 80 00 05 	bne  40009948 <__ratio+0x78>
40009938:	80 a0 a0 00 	cmp  %g2, 0
4000993c:	82 00 60 02 	add  %g1, 2, %g1
40009940:	85 28 a0 02 	sll  %g2, 2, %g2
40009944:	80 a0 a0 00 	cmp  %g2, 0
40009948:	06 80 00 05 	bl  4000995c <__ratio+0x8c>
4000994c:	3b 10 00 00 	sethi  %hi(0x40000000), %i5
40009950:	80 88 80 1d 	btst  %g2, %i5
40009954:	02 80 00 48 	be  40009a74 <__ratio+0x1a4>
40009958:	82 00 60 01 	inc  %g1
4000995c:	84 10 20 20 	mov  0x20, %g2
40009960:	80 a0 60 0a 	cmp  %g1, 0xa
40009964:	04 80 00 36 	ble  40009a3c <__ratio+0x16c>
40009968:	b6 20 80 01 	sub  %g2, %g1, %i3
4000996c:	80 a6 80 0f 	cmp  %i2, %o7
40009970:	1a 80 00 24 	bcc  40009a00 <__ratio+0x130>
40009974:	82 00 7f f5 	add  %g1, -11, %g1
40009978:	80 a0 60 00 	cmp  %g1, 0
4000997c:	12 80 00 48 	bne  40009a9c <__ratio+0x1cc>
40009980:	de 00 ff f8 	ld  [ %g3 + -8 ], %o7
40009984:	03 0f fc 00 	sethi  %hi(0x3ff00000), %g1
40009988:	b8 11 00 01 	or  %g4, %g1, %i4
4000998c:	ba 10 00 0f 	mov  %o7, %i5
40009990:	92 07 bf fc 	add  %fp, -4, %o1
40009994:	7f ff fe 76 	call  4000936c <__b2d>
40009998:	90 10 00 19 	mov  %i1, %o0
4000999c:	f8 3f bf f0 	std  %i4, [ %fp + -16 ]
400099a0:	c4 06 60 10 	ld  [ %i1 + 0x10 ], %g2
400099a4:	d1 1f bf f0 	ldd  [ %fp + -16 ], %f8
400099a8:	c1 3f bf f0 	std  %f0, [ %fp + -16 ]
400099ac:	c2 06 20 10 	ld  [ %i0 + 0x10 ], %g1
400099b0:	86 10 00 1d 	mov  %i5, %g3
400099b4:	82 20 40 02 	sub  %g1, %g2, %g1
400099b8:	c4 07 bf fc 	ld  [ %fp + -4 ], %g2
400099bc:	83 28 60 05 	sll  %g1, 5, %g1
400099c0:	84 26 c0 02 	sub  %i3, %g2, %g2
400099c4:	82 00 40 02 	add  %g1, %g2, %g1
400099c8:	80 a0 60 00 	cmp  %g1, 0
400099cc:	04 80 00 13 	ble  40009a18 <__ratio+0x148>
400099d0:	f4 1f bf f0 	ldd  [ %fp + -16 ], %i2
400099d4:	83 28 60 14 	sll  %g1, 0x14, %g1
400099d8:	84 00 40 1c 	add  %g1, %i4, %g2
400099dc:	c4 3f bf f0 	std  %g2, [ %fp + -16 ]
400099e0:	d1 1f bf f0 	ldd  [ %fp + -16 ], %f8
400099e4:	81 a2 09 c0 	fdivd  %f8, %f0, %f0
400099e8:	81 c7 e0 08 	ret 
400099ec:	81 e8 00 00 	restore 
400099f0:	84 10 00 04 	mov  %g4, %g2
400099f4:	b8 10 20 08 	mov  8, %i4
400099f8:	10 bf ff c3 	b  40009904 <__ratio+0x34>
400099fc:	82 10 20 00 	clr  %g1
40009a00:	80 a0 60 00 	cmp  %g1, 0
40009a04:	12 80 00 21 	bne  40009a88 <__ratio+0x1b8>
40009a08:	9e 10 20 00 	clr  %o7
40009a0c:	03 0f fc 00 	sethi  %hi(0x3ff00000), %g1
40009a10:	10 bf ff df 	b  4000998c <__ratio+0xbc>
40009a14:	b8 11 00 01 	or  %g4, %g1, %i4
40009a18:	c1 27 bf f0 	st  %f0, [ %fp + -16 ]
40009a1c:	83 28 60 14 	sll  %g1, 0x14, %g1
40009a20:	c4 07 bf f0 	ld  [ %fp + -16 ], %g2
40009a24:	b4 20 80 01 	sub  %g2, %g1, %i2
40009a28:	f4 3f bf f0 	std  %i2, [ %fp + -16 ]
40009a2c:	c1 1f bf f0 	ldd  [ %fp + -16 ], %f0
40009a30:	81 a2 09 c0 	fdivd  %f8, %f0, %f0
40009a34:	81 c7 e0 08 	ret 
40009a38:	81 e8 00 00 	restore 
40009a3c:	84 10 20 0b 	mov  0xb, %g2
40009a40:	19 0f fc 00 	sethi  %hi(0x3ff00000), %o4
40009a44:	84 20 80 01 	sub  %g2, %g1, %g2
40009a48:	9a 10 20 00 	clr  %o5
40009a4c:	97 31 00 02 	srl  %g4, %g2, %o3
40009a50:	80 a6 80 0f 	cmp  %i2, %o7
40009a54:	1a 80 00 04 	bcc  40009a64 <__ratio+0x194>
40009a58:	b8 12 c0 0c 	or  %o3, %o4, %i4
40009a5c:	da 00 ff f8 	ld  [ %g3 + -8 ], %o5
40009a60:	9b 33 40 02 	srl  %o5, %g2, %o5
40009a64:	82 00 60 15 	add  %g1, 0x15, %g1
40009a68:	83 29 00 01 	sll  %g4, %g1, %g1
40009a6c:	10 bf ff c9 	b  40009990 <__ratio+0xc0>
40009a70:	ba 10 40 0d 	or  %g1, %o5, %i5
40009a74:	80 a6 80 0f 	cmp  %i2, %o7
40009a78:	0a 80 00 17 	bcs  40009ad4 <__ratio+0x204>
40009a7c:	9a 00 ff f8 	add  %g3, -8, %o5
40009a80:	82 10 20 15 	mov  0x15, %g1
40009a84:	b6 10 20 00 	clr  %i3
40009a88:	83 29 00 01 	sll  %g4, %g1, %g1
40009a8c:	05 0f fc 00 	sethi  %hi(0x3ff00000), %g2
40009a90:	9e 10 20 00 	clr  %o7
40009a94:	10 bf ff be 	b  4000998c <__ratio+0xbc>
40009a98:	b8 10 40 02 	or  %g1, %g2, %i4
40009a9c:	9a 00 ff f8 	add  %g3, -8, %o5
40009aa0:	84 20 80 01 	sub  %g2, %g1, %g2
40009aa4:	89 29 00 01 	sll  %g4, %g1, %g4
40009aa8:	87 33 c0 02 	srl  %o7, %g2, %g3
40009aac:	80 a6 80 0d 	cmp  %i2, %o5
40009ab0:	88 11 00 03 	or  %g4, %g3, %g4
40009ab4:	9f 2b c0 01 	sll  %o7, %g1, %o7
40009ab8:	03 0f fc 00 	sethi  %hi(0x3ff00000), %g1
40009abc:	1a bf ff b4 	bcc  4000998c <__ratio+0xbc>
40009ac0:	b8 11 00 01 	or  %g4, %g1, %i4
40009ac4:	c2 03 7f fc 	ld  [ %o5 + -4 ], %g1
40009ac8:	85 30 40 02 	srl  %g1, %g2, %g2
40009acc:	10 bf ff b0 	b  4000998c <__ratio+0xbc>
40009ad0:	9e 13 c0 02 	or  %o7, %g2, %o7
40009ad4:	de 00 ff f8 	ld  [ %g3 + -8 ], %o7
40009ad8:	84 10 20 0b 	mov  0xb, %g2
40009adc:	b6 10 20 00 	clr  %i3
40009ae0:	10 bf ff f1 	b  40009aa4 <__ratio+0x1d4>
40009ae4:	82 10 20 15 	mov  0x15, %g1

40009ae8 <_mprec_log10>:
40009ae8:	03 10 00 3b 	sethi  %hi(0x4000ec00), %g1
40009aec:	80 a2 20 17 	cmp  %o0, 0x17
40009af0:	c1 18 61 e0 	ldd  [ %g1 + 0x1e0 ], %f0
40009af4:	03 10 00 3b 	sethi  %hi(0x4000ec00), %g1
40009af8:	04 80 00 07 	ble  40009b14 <_mprec_log10+0x2c>
40009afc:	d1 18 61 e8 	ldd  [ %g1 + 0x1e8 ], %f8	! 4000ede8 <blanks.1+0x58>
40009b00:	90 82 3f ff 	addcc  %o0, -1, %o0
40009b04:	12 bf ff ff 	bne  40009b00 <_mprec_log10+0x18>
40009b08:	81 a0 09 48 	fmuld  %f0, %f8, %f0
40009b0c:	81 c3 e0 08 	retl 
40009b10:	01 00 00 00 	nop 
40009b14:	91 2a 20 03 	sll  %o0, 3, %o0
40009b18:	03 10 00 3b 	sethi  %hi(0x4000ec00), %g1
40009b1c:	82 10 62 c0 	or  %g1, 0x2c0, %g1	! 4000eec0 <__mprec_tens>
40009b20:	81 c3 e0 08 	retl 
40009b24:	c1 18 40 08 	ldd  [ %g1 + %o0 ], %f0

40009b28 <__copybits>:
40009b28:	82 02 a0 14 	add  %o2, 0x14, %g1
40009b2c:	88 02 7f ff 	add  %o1, -1, %g4
40009b30:	c6 02 a0 10 	ld  [ %o2 + 0x10 ], %g3
40009b34:	89 39 20 05 	sra  %g4, 5, %g4
40009b38:	87 28 e0 02 	sll  %g3, 2, %g3
40009b3c:	88 01 20 01 	inc  %g4
40009b40:	86 00 40 03 	add  %g1, %g3, %g3
40009b44:	89 29 20 02 	sll  %g4, 2, %g4
40009b48:	80 a0 40 03 	cmp  %g1, %g3
40009b4c:	1a 80 00 13 	bcc  40009b98 <__copybits+0x70>
40009b50:	88 02 00 04 	add  %o0, %g4, %g4
40009b54:	84 10 00 08 	mov  %o0, %g2
40009b58:	da 00 40 00 	ld  [ %g1 ], %o5
40009b5c:	da 20 80 00 	st  %o5, [ %g2 ]
40009b60:	82 00 60 04 	add  %g1, 4, %g1
40009b64:	80 a0 c0 01 	cmp  %g3, %g1
40009b68:	18 bf ff fc 	bgu  40009b58 <__copybits+0x30>
40009b6c:	84 00 a0 04 	add  %g2, 4, %g2
40009b70:	82 20 c0 0a 	sub  %g3, %o2, %g1
40009b74:	82 00 7f eb 	add  %g1, -21, %g1
40009b78:	82 08 7f fc 	and  %g1, -4, %g1
40009b7c:	82 00 60 04 	add  %g1, 4, %g1
40009b80:	90 02 00 01 	add  %o0, %g1, %o0
40009b84:	80 a1 00 08 	cmp  %g4, %o0
40009b88:	08 80 00 07 	bleu  40009ba4 <__copybits+0x7c>
40009b8c:	01 00 00 00 	nop 
40009b90:	c0 22 00 00 	clr  [ %o0 ]
40009b94:	90 02 20 04 	add  %o0, 4, %o0
40009b98:	80 a1 00 08 	cmp  %g4, %o0
40009b9c:	38 bf ff fe 	bgu,a   40009b94 <__copybits+0x6c>
40009ba0:	c0 22 00 00 	clr  [ %o0 ]
40009ba4:	81 c3 e0 08 	retl 
40009ba8:	01 00 00 00 	nop 

40009bac <__any_on>:
40009bac:	c2 02 20 10 	ld  [ %o0 + 0x10 ], %g1
40009bb0:	85 3a 60 05 	sra  %o1, 5, %g2
40009bb4:	80 a0 40 02 	cmp  %g1, %g2
40009bb8:	16 80 00 0e 	bge  40009bf0 <__any_on+0x44>
40009bbc:	86 02 20 14 	add  %o0, 0x14, %g3
40009bc0:	83 28 60 02 	sll  %g1, 2, %g1
40009bc4:	10 80 00 06 	b  40009bdc <__any_on+0x30>
40009bc8:	82 00 c0 01 	add  %g3, %g1, %g1
40009bcc:	c4 00 40 00 	ld  [ %g1 ], %g2
40009bd0:	80 a0 a0 00 	cmp  %g2, 0
40009bd4:	12 80 00 15 	bne  40009c28 <__any_on+0x7c>
40009bd8:	01 00 00 00 	nop 
40009bdc:	80 a0 40 03 	cmp  %g1, %g3
40009be0:	18 bf ff fb 	bgu  40009bcc <__any_on+0x20>
40009be4:	82 00 7f fc 	add  %g1, -4, %g1
40009be8:	81 c3 e0 08 	retl 
40009bec:	90 10 20 00 	clr  %o0
40009bf0:	85 28 a0 02 	sll  %g2, 2, %g2
40009bf4:	04 bf ff fa 	ble  40009bdc <__any_on+0x30>
40009bf8:	82 00 c0 02 	add  %g3, %g2, %g1
40009bfc:	92 8a 60 1f 	andcc  %o1, 0x1f, %o1
40009c00:	02 bf ff f8 	be  40009be0 <__any_on+0x34>
40009c04:	80 a0 40 03 	cmp  %g1, %g3
40009c08:	c8 00 c0 02 	ld  [ %g3 + %g2 ], %g4
40009c0c:	85 31 00 09 	srl  %g4, %o1, %g2
40009c10:	93 28 80 09 	sll  %g2, %o1, %o1
40009c14:	80 a1 00 09 	cmp  %g4, %o1
40009c18:	02 bf ff f1 	be  40009bdc <__any_on+0x30>
40009c1c:	90 10 20 01 	mov  1, %o0
40009c20:	81 c3 e0 08 	retl 
40009c24:	01 00 00 00 	nop 
40009c28:	81 c3 e0 08 	retl 
40009c2c:	90 10 20 01 	mov  1, %o0	! 1 <_CONTEXT_I_>

40009c30 <frexp>:
40009c30:	c0 22 80 00 	clr  [ %o2 ]
40009c34:	05 1f ff ff 	sethi  %hi(0x7ffffc00), %g2
40009c38:	07 1f fb ff 	sethi  %hi(0x7feffc00), %g3
40009c3c:	84 10 a3 ff 	or  %g2, 0x3ff, %g2
40009c40:	86 10 e3 ff 	or  %g3, 0x3ff, %g3
40009c44:	82 0a 00 02 	and  %o0, %g2, %g1
40009c48:	9c 03 bf b0 	add  %sp, -80, %sp
40009c4c:	80 a0 40 03 	cmp  %g1, %g3
40009c50:	14 80 00 1a 	bg  40009cb8 <frexp+0x88>
40009c54:	88 10 00 08 	mov  %o0, %g4
40009c58:	80 90 40 09 	orcc  %g1, %o1, %g0
40009c5c:	02 80 00 17 	be  40009cb8 <frexp+0x88>
40009c60:	1b 1f fc 00 	sethi  %hi(0x7ff00000), %o5
40009c64:	80 8a 00 0d 	btst  %o0, %o5
40009c68:	12 80 00 0c 	bne  40009c98 <frexp+0x68>
40009c6c:	86 10 20 00 	clr  %g3
40009c70:	d0 3b a0 48 	std  %o0, [ %sp + 0x48 ]
40009c74:	03 10 00 3b 	sethi  %hi(0x4000ec00), %g1
40009c78:	d5 1b a0 48 	ldd  [ %sp + 0x48 ], %f10
40009c7c:	d1 18 63 88 	ldd  [ %g1 + 0x388 ], %f8
40009c80:	86 10 3f ca 	mov  -54, %g3
40009c84:	91 a2 89 48 	fmuld  %f10, %f8, %f8
40009c88:	d1 3b a0 48 	std  %f8, [ %sp + 0x48 ]
40009c8c:	d0 1b a0 48 	ldd  [ %sp + 0x48 ], %o0
40009c90:	88 10 00 08 	mov  %o0, %g4
40009c94:	82 09 00 02 	and  %g4, %g2, %g1
40009c98:	83 38 60 14 	sra  %g1, 0x14, %g1
40009c9c:	82 00 7c 02 	add  %g1, -1022, %g1
40009ca0:	82 00 40 03 	add  %g1, %g3, %g1
40009ca4:	05 1f fc 00 	sethi  %hi(0x7ff00000), %g2
40009ca8:	c2 22 80 00 	st  %g1, [ %o2 ]
40009cac:	88 29 00 02 	andn  %g4, %g2, %g4
40009cb0:	03 0f f8 00 	sethi  %hi(0x3fe00000), %g1
40009cb4:	90 11 00 01 	or  %g4, %g1, %o0
40009cb8:	d0 3b a0 48 	std  %o0, [ %sp + 0x48 ]
40009cbc:	c1 1b a0 48 	ldd  [ %sp + 0x48 ], %f0
40009cc0:	81 c3 e0 08 	retl 
40009cc4:	9c 03 a0 50 	add  %sp, 0x50, %sp

40009cc8 <_sbrk_r>:
40009cc8:	9d e3 bf a0 	save  %sp, -96, %sp
40009ccc:	3b 10 00 3e 	sethi  %hi(0x4000f800), %i5
40009cd0:	90 10 00 19 	mov  %i1, %o0
40009cd4:	40 00 10 00 	call  4000dcd4 <sbrk>
40009cd8:	c0 27 63 08 	clr  [ %i5 + 0x308 ]
40009cdc:	80 a2 3f ff 	cmp  %o0, -1
40009ce0:	02 80 00 04 	be  40009cf0 <_sbrk_r+0x28>
40009ce4:	c2 07 63 08 	ld  [ %i5 + 0x308 ], %g1
40009ce8:	81 c7 e0 08 	ret 
40009cec:	91 e8 00 08 	restore  %g0, %o0, %o0
40009cf0:	80 a0 60 00 	cmp  %g1, 0
40009cf4:	02 bf ff fd 	be  40009ce8 <_sbrk_r+0x20>
40009cf8:	01 00 00 00 	nop 
40009cfc:	c2 26 00 00 	st  %g1, [ %i0 ]
40009d00:	81 c7 e0 08 	ret 
40009d04:	91 e8 00 08 	restore  %g0, %o0, %o0

40009d08 <__sread>:
40009d08:	9d e3 bf a0 	save  %sp, -96, %sp
40009d0c:	90 10 00 18 	mov  %i0, %o0
40009d10:	96 10 00 1b 	mov  %i3, %o3
40009d14:	94 10 00 1a 	mov  %i2, %o2
40009d18:	40 00 0c 42 	call  4000ce20 <_read_r>
40009d1c:	d2 56 60 0e 	ldsh  [ %i1 + 0xe ], %o1
40009d20:	b0 92 20 00 	orcc  %o0, 0, %i0
40009d24:	26 80 00 07 	bl,a   40009d40 <__sread+0x38>
40009d28:	c4 16 60 0c 	lduh  [ %i1 + 0xc ], %g2
40009d2c:	c2 06 60 54 	ld  [ %i1 + 0x54 ], %g1
40009d30:	82 00 40 18 	add  %g1, %i0, %g1
40009d34:	c2 26 60 54 	st  %g1, [ %i1 + 0x54 ]
40009d38:	81 c7 e0 08 	ret 
40009d3c:	81 e8 00 00 	restore 
40009d40:	03 00 00 04 	sethi  %hi(0x1000), %g1
40009d44:	82 28 80 01 	andn  %g2, %g1, %g1
40009d48:	c2 36 60 0c 	sth  %g1, [ %i1 + 0xc ]
40009d4c:	81 c7 e0 08 	ret 
40009d50:	81 e8 00 00 	restore 

40009d54 <__seofread>:
40009d54:	81 c3 e0 08 	retl 
40009d58:	90 10 20 00 	clr  %o0

40009d5c <__swrite>:
40009d5c:	9d e3 bf a0 	save  %sp, -96, %sp
40009d60:	c4 16 60 0c 	lduh  [ %i1 + 0xc ], %g2
40009d64:	ba 10 00 19 	mov  %i1, %i5
40009d68:	80 88 a1 00 	btst  0x100, %g2
40009d6c:	12 80 00 07 	bne  40009d88 <__swrite+0x2c>
40009d70:	f2 56 60 0e 	ldsh  [ %i1 + 0xe ], %i1
40009d74:	03 00 00 04 	sethi  %hi(0x1000), %g1
40009d78:	82 28 80 01 	andn  %g2, %g1, %g1
40009d7c:	c2 37 60 0c 	sth  %g1, [ %i5 + 0xc ]
40009d80:	40 00 08 54 	call  4000bed0 <_write_r>
40009d84:	81 e8 00 00 	restore 
40009d88:	92 10 00 19 	mov  %i1, %o1
40009d8c:	96 10 20 02 	mov  2, %o3
40009d90:	94 10 20 00 	clr  %o2
40009d94:	40 00 0b 63 	call  4000cb20 <_lseek_r>
40009d98:	90 10 00 18 	mov  %i0, %o0
40009d9c:	c4 17 60 0c 	lduh  [ %i5 + 0xc ], %g2
40009da0:	03 00 00 04 	sethi  %hi(0x1000), %g1
40009da4:	f2 57 60 0e 	ldsh  [ %i5 + 0xe ], %i1
40009da8:	82 28 80 01 	andn  %g2, %g1, %g1
40009dac:	c2 37 60 0c 	sth  %g1, [ %i5 + 0xc ]
40009db0:	40 00 08 48 	call  4000bed0 <_write_r>
40009db4:	81 e8 00 00 	restore 

40009db8 <__sseek>:
40009db8:	9d e3 bf a0 	save  %sp, -96, %sp
40009dbc:	90 10 00 18 	mov  %i0, %o0
40009dc0:	96 10 00 1b 	mov  %i3, %o3
40009dc4:	94 10 00 1a 	mov  %i2, %o2
40009dc8:	40 00 0b 56 	call  4000cb20 <_lseek_r>
40009dcc:	d2 56 60 0e 	ldsh  [ %i1 + 0xe ], %o1
40009dd0:	c4 16 60 0c 	lduh  [ %i1 + 0xc ], %g2
40009dd4:	80 a2 3f ff 	cmp  %o0, -1
40009dd8:	02 80 00 08 	be  40009df8 <__sseek+0x40>
40009ddc:	b0 10 00 08 	mov  %o0, %i0
40009de0:	d0 26 60 54 	st  %o0, [ %i1 + 0x54 ]
40009de4:	03 00 00 04 	sethi  %hi(0x1000), %g1
40009de8:	82 10 40 02 	or  %g1, %g2, %g1
40009dec:	c2 36 60 0c 	sth  %g1, [ %i1 + 0xc ]
40009df0:	81 c7 e0 08 	ret 
40009df4:	81 e8 00 00 	restore 
40009df8:	03 00 00 04 	sethi  %hi(0x1000), %g1
40009dfc:	82 28 80 01 	andn  %g2, %g1, %g1
40009e00:	c2 36 60 0c 	sth  %g1, [ %i1 + 0xc ]
40009e04:	81 c7 e0 08 	ret 
40009e08:	81 e8 00 00 	restore 

40009e0c <__sclose>:
40009e0c:	d2 52 60 0e 	ldsh  [ %o1 + 0xe ], %o1
40009e10:	82 13 c0 00 	mov  %o7, %g1
40009e14:	40 00 08 6a 	call  4000bfbc <_close_r>
40009e18:	9e 10 40 00 	mov  %g1, %o7

40009e1c <strlen>:
40009e1c:	80 8a 20 03 	btst  3, %o0
40009e20:	12 80 00 07 	bne  40009e3c <strlen+0x20>
40009e24:	82 10 00 08 	mov  %o0, %g1
40009e28:	10 80 00 0b 	b  40009e54 <strlen+0x38>
40009e2c:	c4 00 40 00 	ld  [ %g1 ], %g2
40009e30:	80 88 60 03 	btst  3, %g1
40009e34:	22 80 00 08 	be,a   40009e54 <strlen+0x38>
40009e38:	c4 00 40 00 	ld  [ %g1 ], %g2
40009e3c:	c4 48 40 00 	ldsb  [ %g1 ], %g2
40009e40:	80 a0 a0 00 	cmp  %g2, 0
40009e44:	32 bf ff fb 	bne,a   40009e30 <strlen+0x14>
40009e48:	82 00 60 01 	inc  %g1
40009e4c:	81 c3 e0 08 	retl 
40009e50:	90 20 40 08 	sub  %g1, %o0, %o0
40009e54:	1b 3f bf bf 	sethi  %hi(0xfefefc00), %o5
40009e58:	09 20 20 20 	sethi  %hi(0x80808000), %g4
40009e5c:	9a 13 62 ff 	or  %o5, 0x2ff, %o5
40009e60:	88 11 20 80 	or  %g4, 0x80, %g4
40009e64:	86 00 80 0d 	add  %g2, %o5, %g3
40009e68:	84 28 c0 02 	andn  %g3, %g2, %g2
40009e6c:	80 88 80 04 	btst  %g2, %g4
40009e70:	32 80 00 11 	bne,a   40009eb4 <strlen+0x98>
40009e74:	c4 48 40 00 	ldsb  [ %g1 ], %g2
40009e78:	c4 00 60 04 	ld  [ %g1 + 4 ], %g2
40009e7c:	86 00 80 0d 	add  %g2, %o5, %g3
40009e80:	84 28 c0 02 	andn  %g3, %g2, %g2
40009e84:	80 88 80 04 	btst  %g2, %g4
40009e88:	12 80 00 0a 	bne  40009eb0 <strlen+0x94>
40009e8c:	82 00 60 04 	add  %g1, 4, %g1
40009e90:	c4 00 60 04 	ld  [ %g1 + 4 ], %g2
40009e94:	86 00 80 0d 	add  %g2, %o5, %g3
40009e98:	84 28 c0 02 	andn  %g3, %g2, %g2
40009e9c:	80 88 80 04 	btst  %g2, %g4
40009ea0:	02 bf ff f6 	be  40009e78 <strlen+0x5c>
40009ea4:	82 00 60 04 	add  %g1, 4, %g1
40009ea8:	10 80 00 03 	b  40009eb4 <strlen+0x98>
40009eac:	c4 48 40 00 	ldsb  [ %g1 ], %g2
40009eb0:	c4 48 40 00 	ldsb  [ %g1 ], %g2
40009eb4:	80 a0 a0 00 	cmp  %g2, 0
40009eb8:	32 bf ff fe 	bne,a   40009eb0 <strlen+0x94>
40009ebc:	82 00 60 01 	inc  %g1
40009ec0:	81 c3 e0 08 	retl 
40009ec4:	90 20 40 08 	sub  %g1, %o0, %o0

40009ec8 <strncpy>:
40009ec8:	82 12 40 08 	or  %o1, %o0, %g1
40009ecc:	80 88 60 03 	btst  3, %g1
40009ed0:	12 80 00 07 	bne  40009eec <strncpy+0x24>
40009ed4:	80 a2 a0 03 	cmp  %o2, 3
40009ed8:	08 80 00 18 	bleu  40009f38 <strncpy+0x70>
40009edc:	82 10 20 01 	mov  1, %g1
40009ee0:	80 88 60 ff 	btst  0xff, %g1
40009ee4:	32 80 00 1a 	bne,a   40009f4c <strncpy+0x84>
40009ee8:	1b 3f bf bf 	sethi  %hi(0xfefefc00), %o5
40009eec:	86 10 00 08 	mov  %o0, %g3
40009ef0:	82 02 bf ff 	add  %o2, -1, %g1
40009ef4:	9a 10 20 01 	mov  1, %o5
40009ef8:	10 80 00 0a 	b  40009f20 <strncpy+0x58>
40009efc:	92 02 40 01 	add  %o1, %g1, %o1
40009f00:	c2 0a 40 01 	ldub  [ %o1 + %g1 ], %g1
40009f04:	c2 28 bf ff 	stb  %g1, [ %g2 + -1 ]
40009f08:	83 28 60 18 	sll  %g1, 0x18, %g1
40009f0c:	80 a0 60 00 	cmp  %g1, 0
40009f10:	02 80 00 21 	be  40009f94 <strncpy+0xcc>
40009f14:	88 02 bf ff 	add  %o2, -1, %g4
40009f18:	86 10 00 02 	mov  %g2, %g3
40009f1c:	94 10 00 04 	mov  %g4, %o2
40009f20:	84 00 e0 01 	add  %g3, 1, %g2
40009f24:	80 a2 a0 00 	cmp  %o2, 0
40009f28:	12 bf ff f6 	bne  40009f00 <strncpy+0x38>
40009f2c:	82 23 40 0a 	sub  %o5, %o2, %g1
40009f30:	81 c3 e0 08 	retl 
40009f34:	01 00 00 00 	nop 
40009f38:	82 10 20 00 	clr  %g1	! 0 <__bcc_cfg_skip_clear_bss>
40009f3c:	80 88 60 ff 	btst  0xff, %g1
40009f40:	02 bf ff ec 	be  40009ef0 <strncpy+0x28>
40009f44:	86 10 00 08 	mov  %o0, %g3
40009f48:	1b 3f bf bf 	sethi  %hi(0xfefefc00), %o5
40009f4c:	09 20 20 20 	sethi  %hi(0x80808000), %g4
40009f50:	86 10 00 08 	mov  %o0, %g3
40009f54:	9a 13 62 ff 	or  %o5, 0x2ff, %o5
40009f58:	88 11 20 80 	or  %g4, 0x80, %g4
40009f5c:	c4 02 40 00 	ld  [ %o1 ], %g2
40009f60:	82 00 80 0d 	add  %g2, %o5, %g1
40009f64:	82 28 40 02 	andn  %g1, %g2, %g1
40009f68:	80 88 40 04 	btst  %g1, %g4
40009f6c:	32 bf ff e2 	bne,a   40009ef4 <strncpy+0x2c>
40009f70:	82 02 bf ff 	add  %o2, -1, %g1
40009f74:	c4 20 c0 00 	st  %g2, [ %g3 ]
40009f78:	94 02 bf fc 	add  %o2, -4, %o2
40009f7c:	86 00 e0 04 	add  %g3, 4, %g3
40009f80:	80 a2 a0 03 	cmp  %o2, 3
40009f84:	18 bf ff f6 	bgu  40009f5c <strncpy+0x94>
40009f88:	92 02 60 04 	add  %o1, 4, %o1
40009f8c:	10 bf ff da 	b  40009ef4 <strncpy+0x2c>
40009f90:	82 02 bf ff 	add  %o2, -1, %g1
40009f94:	80 a1 20 00 	cmp  %g4, 0
40009f98:	02 bf ff e6 	be  40009f30 <strncpy+0x68>
40009f9c:	98 02 bf fe 	add  %o2, -2, %o4
40009fa0:	82 20 00 02 	neg  %g2, %g1
40009fa4:	80 a3 20 05 	cmp  %o4, 5
40009fa8:	08 80 00 22 	bleu  4000a030 <strncpy+0x168>
40009fac:	82 08 60 03 	and  %g1, 3, %g1
40009fb0:	80 a0 60 00 	cmp  %g1, 0
40009fb4:	02 80 00 0f 	be  40009ff0 <strncpy+0x128>
40009fb8:	96 10 00 02 	mov  %g2, %o3
40009fbc:	c0 28 80 00 	clrb  [ %g2 ]
40009fc0:	96 00 e0 02 	add  %g3, 2, %o3
40009fc4:	80 a0 60 01 	cmp  %g1, 1
40009fc8:	02 80 00 0a 	be  40009ff0 <strncpy+0x128>
40009fcc:	98 02 bf fd 	add  %o2, -3, %o4
40009fd0:	c0 28 a0 01 	clrb  [ %g2 + 1 ]
40009fd4:	96 00 e0 03 	add  %g3, 3, %o3
40009fd8:	80 a0 60 03 	cmp  %g1, 3
40009fdc:	12 80 00 05 	bne  40009ff0 <strncpy+0x128>
40009fe0:	98 02 bf fc 	add  %o2, -4, %o4
40009fe4:	96 00 e0 04 	add  %g3, 4, %o3
40009fe8:	c0 28 a0 02 	clrb  [ %g2 + 2 ]
40009fec:	98 02 bf fb 	add  %o2, -5, %o4
40009ff0:	88 21 00 01 	sub  %g4, %g1, %g4
40009ff4:	84 00 80 01 	add  %g2, %g1, %g2
40009ff8:	86 01 3f fc 	add  %g4, -4, %g3
40009ffc:	82 10 20 00 	clr  %g1
4000a000:	87 30 e0 02 	srl  %g3, 2, %g3
4000a004:	86 00 e0 01 	inc  %g3
4000a008:	9b 28 60 02 	sll  %g1, 2, %o5
4000a00c:	82 00 60 01 	inc  %g1
4000a010:	80 a0 c0 01 	cmp  %g3, %g1
4000a014:	18 bf ff fd 	bgu  4000a008 <strncpy+0x140>
4000a018:	c0 20 80 0d 	clr  [ %g2 + %o5 ]
4000a01c:	87 28 e0 02 	sll  %g3, 2, %g3
4000a020:	84 02 c0 03 	add  %o3, %g3, %g2
4000a024:	80 a1 00 03 	cmp  %g4, %g3
4000a028:	02 bf ff c2 	be  40009f30 <strncpy+0x68>
4000a02c:	98 23 00 03 	sub  %o4, %g3, %o4
4000a030:	80 a3 20 00 	cmp  %o4, 0
4000a034:	02 bf ff bf 	be  40009f30 <strncpy+0x68>
4000a038:	c0 28 80 00 	clrb  [ %g2 ]
4000a03c:	80 a3 20 01 	cmp  %o4, 1
4000a040:	02 bf ff bc 	be  40009f30 <strncpy+0x68>
4000a044:	c0 28 a0 01 	clrb  [ %g2 + 1 ]
4000a048:	80 a3 20 02 	cmp  %o4, 2
4000a04c:	02 bf ff b9 	be  40009f30 <strncpy+0x68>
4000a050:	c0 28 a0 02 	clrb  [ %g2 + 2 ]
4000a054:	80 a3 20 03 	cmp  %o4, 3
4000a058:	02 bf ff b6 	be  40009f30 <strncpy+0x68>
4000a05c:	c0 28 a0 03 	clrb  [ %g2 + 3 ]
4000a060:	80 a3 20 04 	cmp  %o4, 4
4000a064:	02 bf ff b3 	be  40009f30 <strncpy+0x68>
4000a068:	c0 28 a0 04 	clrb  [ %g2 + 4 ]
4000a06c:	81 c3 e0 08 	retl 
4000a070:	c0 28 a0 05 	clrb  [ %g2 + 5 ]
4000a074:	40 00 a9 b4 	call  40034744 <__bss_end+0x24c24>
4000a078:	40 00 a5 70 	call  40033638 <__bss_end+0x23b18>
4000a07c:	40 00 a5 70 	call  4003363c <__bss_end+0x23b1c>
4000a080:	40 00 a9 a4 	call  40034710 <__bss_end+0x24bf0>
4000a084:	40 00 a5 70 	call  40033644 <__bss_end+0x23b24>
4000a088:	40 00 a5 70 	call  40033648 <__bss_end+0x23b28>
4000a08c:	40 00 a5 70 	call  4003364c <__bss_end+0x23b2c>
4000a090:	40 00 a6 a8 	call  40033b30 <__bss_end+0x24010>
4000a094:	40 00 a5 70 	call  40033654 <__bss_end+0x23b34>
4000a098:	40 00 a5 70 	call  40033658 <__bss_end+0x23b38>
4000a09c:	40 00 a9 78 	call  4003467c <__bss_end+0x24b5c>
4000a0a0:	40 00 a9 68 	call  40034640 <__bss_end+0x24b20>
4000a0a4:	40 00 a5 70 	call  40033664 <__bss_end+0x23b44>
4000a0a8:	40 00 a9 58 	call  40034608 <__bss_end+0x24ae8>
4000a0ac:	40 00 a9 04 	call  400344bc <__bss_end+0x2499c>
4000a0b0:	40 00 a5 70 	call  40033670 <__bss_end+0x23b50>
4000a0b4:	40 00 a8 f4 	call  40034484 <__bss_end+0x24964>
4000a0b8:	40 00 a6 70 	call  40033a78 <__bss_end+0x23f58>
4000a0bc:	40 00 a6 70 	call  40033a7c <__bss_end+0x23f5c>
4000a0c0:	40 00 a6 70 	call  40033a80 <__bss_end+0x23f60>
4000a0c4:	40 00 a6 70 	call  40033a84 <__bss_end+0x23f64>
4000a0c8:	40 00 a6 70 	call  40033a88 <__bss_end+0x23f68>
4000a0cc:	40 00 a6 70 	call  40033a8c <__bss_end+0x23f6c>
4000a0d0:	40 00 a6 70 	call  40033a90 <__bss_end+0x23f70>
4000a0d4:	40 00 a6 70 	call  40033a94 <__bss_end+0x23f74>
4000a0d8:	40 00 a6 70 	call  40033a98 <__bss_end+0x23f78>
4000a0dc:	40 00 a5 70 	call  4003369c <__bss_end+0x23b7c>
4000a0e0:	40 00 a5 70 	call  400336a0 <__bss_end+0x23b80>
4000a0e4:	40 00 a5 70 	call  400336a4 <__bss_end+0x23b84>
4000a0e8:	40 00 a5 70 	call  400336a8 <__bss_end+0x23b88>
4000a0ec:	40 00 a5 70 	call  400336ac <__bss_end+0x23b8c>
4000a0f0:	40 00 a5 70 	call  400336b0 <__bss_end+0x23b90>
4000a0f4:	40 00 a5 70 	call  400336b4 <__bss_end+0x23b94>
4000a0f8:	40 00 a5 70 	call  400336b8 <__bss_end+0x23b98>
4000a0fc:	40 00 a5 70 	call  400336bc <__bss_end+0x23b9c>
4000a100:	40 00 a7 a8 	call  40033fa0 <__bss_end+0x24480>
4000a104:	40 00 a7 0c 	call  40033d34 <__bss_end+0x24214>
4000a108:	40 00 a5 70 	call  400336c8 <__bss_end+0x23ba8>
4000a10c:	40 00 a5 70 	call  400336cc <__bss_end+0x23bac>
4000a110:	40 00 a5 70 	call  400336d0 <__bss_end+0x23bb0>
4000a114:	40 00 a5 70 	call  400336d4 <__bss_end+0x23bb4>
4000a118:	40 00 a5 70 	call  400336d8 <__bss_end+0x23bb8>
4000a11c:	40 00 a5 70 	call  400336dc <__bss_end+0x23bbc>
4000a120:	40 00 a5 70 	call  400336e0 <__bss_end+0x23bc0>
4000a124:	40 00 a5 70 	call  400336e4 <__bss_end+0x23bc4>
4000a128:	40 00 a5 70 	call  400336e8 <__bss_end+0x23bc8>
4000a12c:	40 00 a5 70 	call  400336ec <__bss_end+0x23bcc>
4000a130:	40 00 a8 20 	call  400341b0 <__bss_end+0x24690>
4000a134:	40 00 a5 70 	call  400336f4 <__bss_end+0x23bd4>
4000a138:	40 00 a5 70 	call  400336f8 <__bss_end+0x23bd8>
4000a13c:	40 00 a5 70 	call  400336fc <__bss_end+0x23bdc>
4000a140:	40 00 a7 d4 	call  40034090 <__bss_end+0x24570>
4000a144:	40 00 a5 70 	call  40033704 <__bss_end+0x23be4>
4000a148:	40 00 a9 f0 	call  40034908 <__bss_end+0x24de8>
4000a14c:	40 00 a5 70 	call  4003370c <__bss_end+0x23bec>
4000a150:	40 00 a5 70 	call  40033710 <__bss_end+0x23bf0>
4000a154:	40 00 b9 a4 	call  400387e4 <__bss_end+0x28cc4>
4000a158:	40 00 a5 70 	call  40033718 <__bss_end+0x23bf8>
4000a15c:	40 00 a5 70 	call  4003371c <__bss_end+0x23bfc>
4000a160:	40 00 a5 70 	call  40033720 <__bss_end+0x23c00>
4000a164:	40 00 a5 70 	call  40033724 <__bss_end+0x23c04>
4000a168:	40 00 a5 70 	call  40033728 <__bss_end+0x23c08>
4000a16c:	40 00 a5 70 	call  4003372c <__bss_end+0x23c0c>
4000a170:	40 00 a5 70 	call  40033730 <__bss_end+0x23c10>
4000a174:	40 00 a5 70 	call  40033734 <__bss_end+0x23c14>
4000a178:	40 00 a5 70 	call  40033738 <__bss_end+0x23c18>
4000a17c:	40 00 a5 70 	call  4003373c <__bss_end+0x23c1c>
4000a180:	40 00 a7 a8 	call  40034020 <__bss_end+0x24500>
4000a184:	40 00 a7 10 	call  40033dc4 <__bss_end+0x242a4>
4000a188:	40 00 a5 70 	call  40033748 <__bss_end+0x23c28>
4000a18c:	40 00 a5 70 	call  4003374c <__bss_end+0x23c2c>
4000a190:	40 00 a5 70 	call  40033750 <__bss_end+0x23c30>
4000a194:	40 00 a9 d0 	call  400348d4 <__bss_end+0x24db4>
4000a198:	40 00 a7 10 	call  40033dd8 <__bss_end+0x242b8>
4000a19c:	40 00 a6 fc 	call  40033d8c <__bss_end+0x2426c>
4000a1a0:	40 00 a5 70 	call  40033760 <__bss_end+0x23c40>
4000a1a4:	40 00 aa 64 	call  40034b34 <__bss_end+0x25014>
4000a1a8:	40 00 a5 70 	call  40033768 <__bss_end+0x23c48>
4000a1ac:	40 00 a8 ac 	call  4003445c <__bss_end+0x2493c>
4000a1b0:	40 00 a8 24 	call  40034240 <__bss_end+0x24720>
4000a1b4:	40 00 aa 28 	call  40034a54 <__bss_end+0x24f34>
4000a1b8:	40 00 a6 fc 	call  40033da8 <__bss_end+0x24288>
4000a1bc:	40 00 a5 70 	call  4003377c <__bss_end+0x23c5c>
4000a1c0:	40 00 a7 d4 	call  40034110 <__bss_end+0x245f0>
4000a1c4:	40 00 a6 f0 	call  40033d84 <__bss_end+0x24264>
4000a1c8:	40 00 b9 9c 	call  40038838 <__bss_end+0x28d18>
4000a1cc:	40 00 a5 70 	call  4003378c <__bss_end+0x23c6c>
4000a1d0:	40 00 a5 70 	call  40033790 <__bss_end+0x23c70>
4000a1d4:	40 00 b9 2c 	call  40038684 <__bss_end+0x28b64>
4000a1d8:	40 00 a5 70 	call  40033798 <__bss_end+0x23c78>
4000a1dc:	40 00 a6 f0 	call  40033d9c <__bss_end+0x2427c>

4000a1e0 <__sprint_r>:
4000a1e0:	9d e3 bf a0 	save  %sp, -96, %sp
4000a1e4:	c2 06 a0 08 	ld  [ %i2 + 8 ], %g1
4000a1e8:	80 a0 60 00 	cmp  %g1, 0
4000a1ec:	02 80 00 2d 	be  4000a2a0 <__sprint_r+0xc0>
4000a1f0:	05 00 00 08 	sethi  %hi(0x2000), %g2
4000a1f4:	c6 06 60 60 	ld  [ %i1 + 0x60 ], %g3
4000a1f8:	80 88 c0 02 	btst  %g3, %g2
4000a1fc:	02 80 00 1a 	be  4000a264 <__sprint_r+0x84>
4000a200:	94 10 00 1a 	mov  %i2, %o2
4000a204:	e0 06 80 00 	ld  [ %i2 ], %l0
4000a208:	e2 04 20 04 	ld  [ %l0 + 4 ], %l1
4000a20c:	b9 34 60 02 	srl  %l1, 2, %i4
4000a210:	80 a7 20 00 	cmp  %i4, 0
4000a214:	02 80 00 1b 	be  4000a280 <__sprint_r+0xa0>
4000a218:	f6 04 00 00 	ld  [ %l0 ], %i3
4000a21c:	10 80 00 05 	b  4000a230 <__sprint_r+0x50>
4000a220:	ba 10 20 00 	clr  %i5
4000a224:	80 a7 00 1d 	cmp  %i4, %i5
4000a228:	22 80 00 16 	be,a   4000a280 <__sprint_r+0xa0>
4000a22c:	c2 06 a0 08 	ld  [ %i2 + 8 ], %g1
4000a230:	83 2f 60 02 	sll  %i5, 2, %g1
4000a234:	94 10 00 19 	mov  %i1, %o2
4000a238:	d2 06 c0 01 	ld  [ %i3 + %g1 ], %o1
4000a23c:	40 00 08 4f 	call  4000c378 <_fputwc_r>
4000a240:	90 10 00 18 	mov  %i0, %o0
4000a244:	80 a2 3f ff 	cmp  %o0, -1
4000a248:	32 bf ff f7 	bne,a   4000a224 <__sprint_r+0x44>
4000a24c:	ba 07 60 01 	inc  %i5
4000a250:	b0 10 3f ff 	mov  -1, %i0
4000a254:	c0 26 a0 08 	clr  [ %i2 + 8 ]
4000a258:	c0 26 a0 04 	clr  [ %i2 + 4 ]
4000a25c:	81 c7 e0 08 	ret 
4000a260:	81 e8 00 00 	restore 
4000a264:	92 10 00 19 	mov  %i1, %o1
4000a268:	40 00 08 90 	call  4000c4a8 <__sfvwrite_r>
4000a26c:	90 10 00 18 	mov  %i0, %o0
4000a270:	c0 26 a0 08 	clr  [ %i2 + 8 ]
4000a274:	c0 26 a0 04 	clr  [ %i2 + 4 ]
4000a278:	81 c7 e0 08 	ret 
4000a27c:	91 e8 00 08 	restore  %g0, %o0, %o0
4000a280:	a2 0c 7f fc 	and  %l1, -4, %l1
4000a284:	82 20 40 11 	sub  %g1, %l1, %g1
4000a288:	c2 26 a0 08 	st  %g1, [ %i2 + 8 ]
4000a28c:	80 a0 60 00 	cmp  %g1, 0
4000a290:	12 bf ff de 	bne  4000a208 <__sprint_r+0x28>
4000a294:	a0 04 20 08 	add  %l0, 8, %l0
4000a298:	10 bf ff ef 	b  4000a254 <__sprint_r+0x74>
4000a29c:	b0 10 20 00 	clr  %i0
4000a2a0:	c0 26 a0 04 	clr  [ %i2 + 4 ]
4000a2a4:	81 c7 e0 08 	ret 
4000a2a8:	91 e8 20 00 	restore  %g0, 0, %o0

4000a2ac <_vfiprintf_r>:
4000a2ac:	9d e3 be 78 	save  %sp, -392, %sp
4000a2b0:	f6 27 bf 04 	st  %i3, [ %fp + -252 ]
4000a2b4:	a4 10 00 18 	mov  %i0, %l2
4000a2b8:	aa 10 00 19 	mov  %i1, %l5
4000a2bc:	80 a6 20 00 	cmp  %i0, 0
4000a2c0:	02 80 00 06 	be  4000a2d8 <_vfiprintf_r+0x2c>
4000a2c4:	a2 10 00 1a 	mov  %i2, %l1
4000a2c8:	c2 06 20 18 	ld  [ %i0 + 0x18 ], %g1
4000a2cc:	80 a0 60 00 	cmp  %g1, 0
4000a2d0:	02 80 00 7a 	be  4000a4b8 <_vfiprintf_r+0x20c>
4000a2d4:	01 00 00 00 	nop 
4000a2d8:	03 10 00 3b 	sethi  %hi(0x4000ec00), %g1
4000a2dc:	82 10 62 40 	or  %g1, 0x240, %g1	! 4000ee40 <__sf_fake_stdin>
4000a2e0:	80 a5 40 01 	cmp  %l5, %g1
4000a2e4:	22 80 00 0b 	be,a   4000a310 <_vfiprintf_r+0x64>
4000a2e8:	ea 04 a0 04 	ld  [ %l2 + 4 ], %l5
4000a2ec:	03 10 00 3b 	sethi  %hi(0x4000ec00), %g1
4000a2f0:	82 10 62 20 	or  %g1, 0x220, %g1	! 4000ee20 <__sf_fake_stdout>
4000a2f4:	80 a5 40 01 	cmp  %l5, %g1
4000a2f8:	02 80 00 79 	be  4000a4dc <_vfiprintf_r+0x230>
4000a2fc:	03 10 00 3b 	sethi  %hi(0x4000ec00), %g1
4000a300:	82 10 62 00 	or  %g1, 0x200, %g1	! 4000ee00 <__sf_fake_stderr>
4000a304:	80 a5 40 01 	cmp  %l5, %g1
4000a308:	22 80 00 02 	be,a   4000a310 <_vfiprintf_r+0x64>
4000a30c:	ea 04 a0 0c 	ld  [ %l2 + 0xc ], %l5
4000a310:	c2 15 60 0c 	lduh  [ %l5 + 0xc ], %g1
4000a314:	05 00 00 08 	sethi  %hi(0x2000), %g2
4000a318:	80 88 80 01 	btst  %g2, %g1
4000a31c:	12 80 00 08 	bne  4000a33c <_vfiprintf_r+0x90>
4000a320:	80 88 60 08 	btst  8, %g1
4000a324:	82 10 40 02 	or  %g1, %g2, %g1
4000a328:	c6 05 60 60 	ld  [ %l5 + 0x60 ], %g3
4000a32c:	c2 35 60 0c 	sth  %g1, [ %l5 + 0xc ]
4000a330:	84 28 c0 02 	andn  %g3, %g2, %g2
4000a334:	c4 25 60 60 	st  %g2, [ %l5 + 0x60 ]
4000a338:	80 88 60 08 	btst  8, %g1
4000a33c:	02 80 04 8c 	be  4000b56c <_vfiprintf_r+0x12c0>
4000a340:	92 10 00 15 	mov  %l5, %o1
4000a344:	c4 05 60 10 	ld  [ %l5 + 0x10 ], %g2
4000a348:	80 a0 a0 00 	cmp  %g2, 0
4000a34c:	02 80 04 88 	be  4000b56c <_vfiprintf_r+0x12c0>
4000a350:	82 08 60 1a 	and  %g1, 0x1a, %g1
4000a354:	80 a0 60 0a 	cmp  %g1, 0xa
4000a358:	22 80 04 90 	be,a   4000b598 <_vfiprintf_r+0x12ec>
4000a35c:	c2 55 60 0e 	ldsh  [ %l5 + 0xe ], %g1
4000a360:	82 07 bf 58 	add  %fp, -168, %g1
4000a364:	c2 27 bf 4c 	st  %g1, [ %fp + -180 ]
4000a368:	b2 10 00 01 	mov  %g1, %i1
4000a36c:	03 10 00 28 	sethi  %hi(0x4000a000), %g1
4000a370:	82 10 60 74 	or  %g1, 0x74, %g1	! 4000a074 <strncpy+0x1ac>
4000a374:	c2 27 be f0 	st  %g1, [ %fp + -272 ]
4000a378:	03 10 00 3b 	sethi  %hi(0x4000ec00), %g1
4000a37c:	82 10 63 a0 	or  %g1, 0x3a0, %g1	! 4000efa0 <blanks.1>
4000a380:	c2 27 bf 10 	st  %g1, [ %fp + -240 ]
4000a384:	03 10 00 3b 	sethi  %hi(0x4000ec00), %g1
4000a388:	82 10 63 90 	or  %g1, 0x390, %g1	! 4000ef90 <zeroes.0>
4000a38c:	c0 27 bf 54 	clr  [ %fp + -172 ]
4000a390:	c2 27 bf 14 	st  %g1, [ %fp + -236 ]
4000a394:	c0 27 bf 50 	clr  [ %fp + -176 ]
4000a398:	03 10 00 3b 	sethi  %hi(0x4000ec00), %g1
4000a39c:	c0 27 be ec 	clr  [ %fp + -276 ]
4000a3a0:	82 10 61 18 	or  %g1, 0x118, %g1
4000a3a4:	c0 27 be e8 	clr  [ %fp + -280 ]
4000a3a8:	c0 27 be dc 	clr  [ %fp + -292 ]
4000a3ac:	c0 27 be e0 	clr  [ %fp + -288 ]
4000a3b0:	c0 27 bf 08 	clr  [ %fp + -248 ]
4000a3b4:	c2 27 be e4 	st  %g1, [ %fp + -284 ]
4000a3b8:	c2 0c 40 00 	ldub  [ %l1 ], %g1
4000a3bc:	83 28 60 18 	sll  %g1, 0x18, %g1
4000a3c0:	85 38 60 18 	sra  %g1, 0x18, %g2
4000a3c4:	80 a0 a0 25 	cmp  %g2, 0x25
4000a3c8:	02 80 00 55 	be  4000a51c <_vfiprintf_r+0x270>
4000a3cc:	ba 10 00 11 	mov  %l1, %i5
4000a3d0:	80 a0 a0 00 	cmp  %g2, 0
4000a3d4:	02 80 00 53 	be  4000a520 <_vfiprintf_r+0x274>
4000a3d8:	80 a0 60 00 	cmp  %g1, 0
4000a3dc:	b8 10 00 1d 	mov  %i5, %i4
4000a3e0:	ba 07 60 01 	inc  %i5
4000a3e4:	c2 0f 40 00 	ldub  [ %i5 ], %g1
4000a3e8:	83 28 60 18 	sll  %g1, 0x18, %g1
4000a3ec:	80 a0 60 00 	cmp  %g1, 0
4000a3f0:	02 80 00 05 	be  4000a404 <_vfiprintf_r+0x158>
4000a3f4:	85 38 60 18 	sra  %g1, 0x18, %g2
4000a3f8:	80 a0 a0 25 	cmp  %g2, 0x25
4000a3fc:	32 bf ff f9 	bne,a   4000a3e0 <_vfiprintf_r+0x134>
4000a400:	b8 10 00 1d 	mov  %i5, %i4
4000a404:	b6 a7 40 11 	subcc  %i5, %l1, %i3
4000a408:	02 80 00 45 	be  4000a51c <_vfiprintf_r+0x270>
4000a40c:	c4 07 bf 50 	ld  [ %fp + -176 ], %g2
4000a410:	c2 07 bf 54 	ld  [ %fp + -172 ], %g1
4000a414:	82 06 c0 01 	add  %i3, %g1, %g1
4000a418:	84 00 a0 01 	inc  %g2
4000a41c:	e2 26 40 00 	st  %l1, [ %i1 ]
4000a420:	f6 26 60 04 	st  %i3, [ %i1 + 4 ]
4000a424:	c2 27 bf 54 	st  %g1, [ %fp + -172 ]
4000a428:	c4 27 bf 50 	st  %g2, [ %fp + -176 ]
4000a42c:	80 a0 a0 07 	cmp  %g2, 7
4000a430:	04 80 00 36 	ble  4000a508 <_vfiprintf_r+0x25c>
4000a434:	b2 06 60 08 	add  %i1, 8, %i1
4000a438:	80 a0 60 00 	cmp  %g1, 0
4000a43c:	02 80 04 96 	be  4000b694 <_vfiprintf_r+0x13e8>
4000a440:	05 00 00 08 	sethi  %hi(0x2000), %g2
4000a444:	c6 05 60 60 	ld  [ %l5 + 0x60 ], %g3
4000a448:	80 88 c0 02 	btst  %g3, %g2
4000a44c:	02 80 00 26 	be  4000a4e4 <_vfiprintf_r+0x238>
4000a450:	f0 07 bf 4c 	ld  [ %fp + -180 ], %i0
4000a454:	e2 06 20 04 	ld  [ %i0 + 4 ], %l1
4000a458:	b3 34 60 02 	srl  %l1, 2, %i1
4000a45c:	80 a6 60 00 	cmp  %i1, 0
4000a460:	02 80 04 87 	be  4000b67c <_vfiprintf_r+0x13d0>
4000a464:	e0 06 00 00 	ld  [ %i0 ], %l0
4000a468:	10 80 00 05 	b  4000a47c <_vfiprintf_r+0x1d0>
4000a46c:	b4 10 20 00 	clr  %i2
4000a470:	80 a6 40 1a 	cmp  %i1, %i2
4000a474:	02 80 04 82 	be  4000b67c <_vfiprintf_r+0x13d0>
4000a478:	c2 07 bf 54 	ld  [ %fp + -172 ], %g1
4000a47c:	83 2e a0 02 	sll  %i2, 2, %g1
4000a480:	94 10 00 15 	mov  %l5, %o2
4000a484:	d2 04 00 01 	ld  [ %l0 + %g1 ], %o1
4000a488:	40 00 07 bc 	call  4000c378 <_fputwc_r>
4000a48c:	90 10 00 12 	mov  %l2, %o0
4000a490:	80 a2 3f ff 	cmp  %o0, -1
4000a494:	32 bf ff f7 	bne,a   4000a470 <_vfiprintf_r+0x1c4>
4000a498:	b4 06 a0 01 	inc  %i2
4000a49c:	c2 15 60 0c 	lduh  [ %l5 + 0xc ], %g1
4000a4a0:	80 88 60 40 	btst  0x40, %g1
4000a4a4:	12 80 06 3c 	bne  4000bd94 <_vfiprintf_r+0x1ae8>
4000a4a8:	82 10 3f ff 	mov  -1, %g1
4000a4ac:	f0 07 bf 08 	ld  [ %fp + -248 ], %i0
4000a4b0:	81 c7 e0 08 	ret 
4000a4b4:	81 e8 00 00 	restore 
4000a4b8:	7f ff f3 c2 	call  400073c0 <__sinit>
4000a4bc:	90 10 00 18 	mov  %i0, %o0
4000a4c0:	03 10 00 3b 	sethi  %hi(0x4000ec00), %g1
4000a4c4:	82 10 62 40 	or  %g1, 0x240, %g1	! 4000ee40 <__sf_fake_stdin>
4000a4c8:	80 a5 40 01 	cmp  %l5, %g1
4000a4cc:	12 bf ff 89 	bne  4000a2f0 <_vfiprintf_r+0x44>
4000a4d0:	03 10 00 3b 	sethi  %hi(0x4000ec00), %g1
4000a4d4:	10 bf ff 8f 	b  4000a310 <_vfiprintf_r+0x64>
4000a4d8:	ea 04 a0 04 	ld  [ %l2 + 4 ], %l5
4000a4dc:	10 bf ff 8d 	b  4000a310 <_vfiprintf_r+0x64>
4000a4e0:	ea 04 a0 08 	ld  [ %l2 + 8 ], %l5
4000a4e4:	94 07 bf 4c 	add  %fp, -180, %o2
4000a4e8:	92 10 00 15 	mov  %l5, %o1
4000a4ec:	40 00 07 ef 	call  4000c4a8 <__sfvwrite_r>
4000a4f0:	90 10 00 12 	mov  %l2, %o0
4000a4f4:	c0 27 bf 54 	clr  [ %fp + -172 ]
4000a4f8:	80 a2 20 00 	cmp  %o0, 0
4000a4fc:	12 bf ff e8 	bne  4000a49c <_vfiprintf_r+0x1f0>
4000a500:	c0 27 bf 50 	clr  [ %fp + -176 ]
4000a504:	b2 07 bf 58 	add  %fp, -168, %i1
4000a508:	c4 07 bf 08 	ld  [ %fp + -248 ], %g2
4000a50c:	c2 0f 20 01 	ldub  [ %i4 + 1 ], %g1
4000a510:	84 00 80 1b 	add  %g2, %i3, %g2
4000a514:	83 28 60 18 	sll  %g1, 0x18, %g1
4000a518:	c4 27 bf 08 	st  %g2, [ %fp + -248 ]
4000a51c:	80 a0 60 00 	cmp  %g1, 0
4000a520:	02 80 05 96 	be  4000bb78 <_vfiprintf_r+0x18cc>
4000a524:	a2 07 60 01 	add  %i5, 1, %l1
4000a528:	c2 0f 60 01 	ldub  [ %i5 + 1 ], %g1
4000a52c:	c0 2f bf 1f 	clrb  [ %fp + -225 ]
4000a530:	b6 10 3f ff 	mov  -1, %i3
4000a534:	b4 10 20 00 	clr  %i2
4000a538:	a0 10 20 00 	clr  %l0
4000a53c:	83 28 60 18 	sll  %g1, 0x18, %g1
4000a540:	ba 10 20 2b 	mov  0x2b, %i5
4000a544:	b8 10 20 20 	mov  0x20, %i4
4000a548:	a2 04 60 01 	inc  %l1
4000a54c:	83 38 60 18 	sra  %g1, 0x18, %g1
4000a550:	84 00 7f e0 	add  %g1, -32, %g2
4000a554:	80 a0 a0 5a 	cmp  %g2, 0x5a
4000a558:	18 80 00 06 	bgu  4000a570 <_vfiprintf_r+0x2c4>
4000a55c:	85 28 a0 02 	sll  %g2, 2, %g2
4000a560:	c6 07 be f0 	ld  [ %fp + -272 ], %g3
4000a564:	c4 00 c0 02 	ld  [ %g3 + %g2 ], %g2
4000a568:	81 c0 80 00 	jmp  %g2
4000a56c:	01 00 00 00 	nop 
4000a570:	80 a0 60 00 	cmp  %g1, 0
4000a574:	02 80 05 81 	be  4000bb78 <_vfiprintf_r+0x18cc>
4000a578:	a8 10 20 01 	mov  1, %l4
4000a57c:	c2 2f bf 98 	stb  %g1, [ %fp + -104 ]
4000a580:	c0 2f bf 1f 	clrb  [ %fp + -225 ]
4000a584:	82 10 20 01 	mov  1, %g1
4000a588:	c2 27 bf 0c 	st  %g1, [ %fp + -244 ]
4000a58c:	b0 07 bf 98 	add  %fp, -104, %i0
4000a590:	b6 10 20 00 	clr  %i3
4000a594:	82 8c 20 02 	andcc  %l0, 2, %g1
4000a598:	02 80 00 03 	be  4000a5a4 <_vfiprintf_r+0x2f8>
4000a59c:	c2 27 be f4 	st  %g1, [ %fp + -268 ]
4000a5a0:	a8 05 20 02 	add  %l4, 2, %l4
4000a5a4:	84 8c 20 84 	andcc  %l0, 0x84, %g2
4000a5a8:	c4 27 bf 00 	st  %g2, [ %fp + -256 ]
4000a5ac:	d0 07 bf 50 	ld  [ %fp + -176 ], %o0
4000a5b0:	c2 07 bf 54 	ld  [ %fp + -172 ], %g1
4000a5b4:	86 02 20 01 	add  %o0, 1, %g3
4000a5b8:	12 80 00 06 	bne  4000a5d0 <_vfiprintf_r+0x324>
4000a5bc:	84 10 00 03 	mov  %g3, %g2
4000a5c0:	a6 26 80 14 	sub  %i2, %l4, %l3
4000a5c4:	80 a4 e0 00 	cmp  %l3, 0
4000a5c8:	14 80 02 fc 	bg  4000b1b8 <_vfiprintf_r+0xf0c>
4000a5cc:	80 a4 e0 10 	cmp  %l3, 0x10
4000a5d0:	c8 4f bf 1f 	ldsb  [ %fp + -225 ], %g4
4000a5d4:	80 a1 20 00 	cmp  %g4, 0
4000a5d8:	02 80 01 41 	be  4000aadc <_vfiprintf_r+0x830>
4000a5dc:	86 06 60 08 	add  %i1, 8, %g3
4000a5e0:	88 07 bf 1f 	add  %fp, -225, %g4
4000a5e4:	82 00 60 01 	inc  %g1
4000a5e8:	c8 26 40 00 	st  %g4, [ %i1 ]
4000a5ec:	c2 27 bf 54 	st  %g1, [ %fp + -172 ]
4000a5f0:	88 10 20 01 	mov  1, %g4
4000a5f4:	c4 27 bf 50 	st  %g2, [ %fp + -176 ]
4000a5f8:	80 a0 a0 07 	cmp  %g2, 7
4000a5fc:	04 80 01 34 	ble  4000aacc <_vfiprintf_r+0x820>
4000a600:	c8 26 60 04 	st  %g4, [ %i1 + 4 ]
4000a604:	80 a0 60 00 	cmp  %g1, 0
4000a608:	02 80 02 db 	be  4000b174 <_vfiprintf_r+0xec8>
4000a60c:	05 00 00 08 	sethi  %hi(0x2000), %g2
4000a610:	c6 05 60 60 	ld  [ %l5 + 0x60 ], %g3
4000a614:	80 88 c0 02 	btst  %g3, %g2
4000a618:	02 80 02 cf 	be  4000b154 <_vfiprintf_r+0xea8>
4000a61c:	f2 07 bf 4c 	ld  [ %fp + -180 ], %i1
4000a620:	ec 06 60 04 	ld  [ %i1 + 4 ], %l6
4000a624:	b9 35 a0 02 	srl  %l6, 2, %i4
4000a628:	80 a7 20 00 	cmp  %i4, 0
4000a62c:	02 80 04 22 	be  4000b6b4 <_vfiprintf_r+0x1408>
4000a630:	e6 06 40 00 	ld  [ %i1 ], %l3
4000a634:	10 80 00 05 	b  4000a648 <_vfiprintf_r+0x39c>
4000a638:	ba 10 20 00 	clr  %i5
4000a63c:	80 a7 00 1d 	cmp  %i4, %i5
4000a640:	02 80 04 1d 	be  4000b6b4 <_vfiprintf_r+0x1408>
4000a644:	c2 07 bf 54 	ld  [ %fp + -172 ], %g1
4000a648:	83 2f 60 02 	sll  %i5, 2, %g1
4000a64c:	94 10 00 15 	mov  %l5, %o2
4000a650:	d2 04 c0 01 	ld  [ %l3 + %g1 ], %o1
4000a654:	40 00 07 49 	call  4000c378 <_fputwc_r>
4000a658:	90 10 00 12 	mov  %l2, %o0
4000a65c:	80 a2 3f ff 	cmp  %o0, -1
4000a660:	32 bf ff f7 	bne,a   4000a63c <_vfiprintf_r+0x390>
4000a664:	ba 07 60 01 	inc  %i5
4000a668:	10 bf ff 8e 	b  4000a4a0 <_vfiprintf_r+0x1f4>
4000a66c:	c2 15 60 0c 	lduh  [ %l5 + 0xc ], %g1
4000a670:	b4 10 20 00 	clr  %i2
4000a674:	84 00 7f d0 	add  %g1, -48, %g2
4000a678:	83 2e a0 02 	sll  %i2, 2, %g1
4000a67c:	a2 04 60 01 	inc  %l1
4000a680:	b4 00 40 1a 	add  %g1, %i2, %i2
4000a684:	c2 4c 7f ff 	ldsb  [ %l1 + -1 ], %g1
4000a688:	b5 2e a0 01 	sll  %i2, 1, %i2
4000a68c:	b4 00 80 1a 	add  %g2, %i2, %i2
4000a690:	84 00 7f d0 	add  %g1, -48, %g2
4000a694:	80 a0 a0 09 	cmp  %g2, 9
4000a698:	28 bf ff f9 	bleu,a   4000a67c <_vfiprintf_r+0x3d0>
4000a69c:	83 2e a0 02 	sll  %i2, 2, %g1
4000a6a0:	10 bf ff ad 	b  4000a554 <_vfiprintf_r+0x2a8>
4000a6a4:	84 00 7f e0 	add  %g1, -32, %g2
4000a6a8:	7f ff f4 88 	call  400078c8 <_localeconv_r>
4000a6ac:	90 10 00 12 	mov  %l2, %o0
4000a6b0:	c2 02 20 04 	ld  [ %o0 + 4 ], %g1
4000a6b4:	c2 27 be e0 	st  %g1, [ %fp + -288 ]
4000a6b8:	7f ff fd d9 	call  40009e1c <strlen>
4000a6bc:	90 10 00 01 	mov  %g1, %o0
4000a6c0:	82 10 00 08 	mov  %o0, %g1
4000a6c4:	90 10 00 12 	mov  %l2, %o0
4000a6c8:	b0 10 00 01 	mov  %g1, %i0
4000a6cc:	7f ff f4 7f 	call  400078c8 <_localeconv_r>
4000a6d0:	c2 27 be dc 	st  %g1, [ %fp + -292 ]
4000a6d4:	82 96 20 00 	orcc  %i0, 0, %g1
4000a6d8:	c2 02 20 08 	ld  [ %o0 + 8 ], %g1
4000a6dc:	02 80 00 05 	be  4000a6f0 <_vfiprintf_r+0x444>
4000a6e0:	c2 27 be e8 	st  %g1, [ %fp + -280 ]
4000a6e4:	80 a0 60 00 	cmp  %g1, 0
4000a6e8:	32 80 04 83 	bne,a   4000b8f4 <_vfiprintf_r+0x1648>
4000a6ec:	c6 48 40 00 	ldsb  [ %g1 ], %g3
4000a6f0:	c4 0c 40 00 	ldub  [ %l1 ], %g2
4000a6f4:	10 bf ff 95 	b  4000a548 <_vfiprintf_r+0x29c>
4000a6f8:	83 28 a0 18 	sll  %g2, 0x18, %g1
4000a6fc:	c4 0c 40 00 	ldub  [ %l1 ], %g2
4000a700:	a0 14 20 20 	or  %l0, 0x20, %l0
4000a704:	10 bf ff 91 	b  4000a548 <_vfiprintf_r+0x29c>
4000a708:	83 28 a0 18 	sll  %g2, 0x18, %g1
4000a70c:	a0 14 20 10 	or  %l0, 0x10, %l0
4000a710:	80 8c 20 20 	btst  0x20, %l0
4000a714:	02 80 04 13 	be  4000b760 <_vfiprintf_r+0x14b4>
4000a718:	c4 07 bf 04 	ld  [ %fp + -252 ], %g2
4000a71c:	c2 07 bf 04 	ld  [ %fp + -252 ], %g1
4000a720:	92 10 00 01 	mov  %g1, %o1
4000a724:	82 00 60 08 	add  %g1, 8, %g1
4000a728:	94 10 20 08 	mov  8, %o2
4000a72c:	c2 27 bf 04 	st  %g1, [ %fp + -252 ]
4000a730:	7f ff de c2 	call  40002238 <memcpy>
4000a734:	90 07 bf 28 	add  %fp, -216, %o0
4000a738:	c2 07 bf 28 	ld  [ %fp + -216 ], %g1
4000a73c:	c4 07 bf 2c 	ld  [ %fp + -212 ], %g2
4000a740:	c2 27 be f8 	st  %g1, [ %fp + -264 ]
4000a744:	c4 27 be fc 	st  %g2, [ %fp + -260 ]
4000a748:	80 a0 60 00 	cmp  %g1, 0
4000a74c:	06 80 04 1f 	bl  4000b7c8 <_vfiprintf_r+0x151c>
4000a750:	f8 1f be f8 	ldd  [ %fp + -264 ], %i4
4000a754:	80 a6 ff ff 	cmp  %i3, -1
4000a758:	02 80 03 98 	be  4000b5b8 <_vfiprintf_r+0x130c>
4000a75c:	80 a6 e0 00 	cmp  %i3, 0
4000a760:	12 80 03 96 	bne  4000b5b8 <_vfiprintf_r+0x130c>
4000a764:	a0 0c 3f 7f 	and  %l0, -129, %l0
4000a768:	c4 1f be f8 	ldd  [ %fp + -264 ], %g2
4000a76c:	82 10 00 02 	mov  %g2, %g1
4000a770:	80 90 40 03 	orcc  %g1, %g3, %g0
4000a774:	12 80 03 93 	bne  4000b5c0 <_vfiprintf_r+0x1314>
4000a778:	ba 10 00 10 	mov  %l0, %i5
4000a77c:	c0 27 bf 0c 	clr  [ %fp + -244 ]
4000a780:	b0 07 bf fc 	add  %fp, -4, %i0
4000a784:	c2 07 bf 0c 	ld  [ %fp + -244 ], %g1
4000a788:	80 a6 c0 01 	cmp  %i3, %g1
4000a78c:	16 80 00 03 	bge  4000a798 <_vfiprintf_r+0x4ec>
4000a790:	a8 10 00 1b 	mov  %i3, %l4
4000a794:	a8 10 00 01 	mov  %g1, %l4
4000a798:	c2 4f bf 1f 	ldsb  [ %fp + -225 ], %g1
4000a79c:	80 a0 00 01 	cmp  %g0, %g1
4000a7a0:	10 bf ff 7d 	b  4000a594 <_vfiprintf_r+0x2e8>
4000a7a4:	a8 40 00 14 	addx  %g0, %l4, %l4
4000a7a8:	c4 07 bf 04 	ld  [ %fp + -252 ], %g2
4000a7ac:	c2 00 80 00 	ld  [ %g2 ], %g1
4000a7b0:	c0 2f bf 1f 	clrb  [ %fp + -225 ]
4000a7b4:	84 00 a0 04 	add  %g2, 4, %g2
4000a7b8:	c2 2f bf 98 	stb  %g1, [ %fp + -104 ]
4000a7bc:	c4 27 bf 04 	st  %g2, [ %fp + -252 ]
4000a7c0:	82 10 20 01 	mov  1, %g1
4000a7c4:	a8 10 20 01 	mov  1, %l4
4000a7c8:	c2 27 bf 0c 	st  %g1, [ %fp + -244 ]
4000a7cc:	10 bf ff 71 	b  4000a590 <_vfiprintf_r+0x2e4>
4000a7d0:	b0 07 bf 98 	add  %fp, -104, %i0
4000a7d4:	c2 07 bf 04 	ld  [ %fp + -252 ], %g1
4000a7d8:	c0 2f bf 1f 	clrb  [ %fp + -225 ]
4000a7dc:	f0 00 40 00 	ld  [ %g1 ], %i0
4000a7e0:	82 00 60 04 	add  %g1, 4, %g1
4000a7e4:	80 a6 20 00 	cmp  %i0, 0
4000a7e8:	02 80 04 c6 	be  4000bb00 <_vfiprintf_r+0x1854>
4000a7ec:	c2 27 bf 04 	st  %g1, [ %fp + -252 ]
4000a7f0:	80 a6 ff ff 	cmp  %i3, -1
4000a7f4:	02 80 04 7f 	be  4000b9f0 <_vfiprintf_r+0x1744>
4000a7f8:	94 10 00 1b 	mov  %i3, %o2
4000a7fc:	92 10 20 00 	clr  %o1
4000a800:	7f ff f6 c3 	call  4000830c <memchr>
4000a804:	90 10 00 18 	mov  %i0, %o0
4000a808:	80 a2 20 00 	cmp  %o0, 0
4000a80c:	02 80 05 5d 	be  4000bd80 <_vfiprintf_r+0x1ad4>
4000a810:	82 22 00 18 	sub  %o0, %i0, %g1
4000a814:	b6 10 20 00 	clr  %i3
4000a818:	10 bf ff db 	b  4000a784 <_vfiprintf_r+0x4d8>
4000a81c:	c2 27 bf 0c 	st  %g1, [ %fp + -244 ]
4000a820:	a0 14 20 10 	or  %l0, 0x10, %l0
4000a824:	80 8c 20 20 	btst  0x20, %l0
4000a828:	02 80 03 b6 	be  4000b700 <_vfiprintf_r+0x1454>
4000a82c:	c4 07 bf 04 	ld  [ %fp + -252 ], %g2
4000a830:	c2 07 bf 04 	ld  [ %fp + -252 ], %g1
4000a834:	92 10 00 01 	mov  %g1, %o1
4000a838:	82 00 60 08 	add  %g1, 8, %g1
4000a83c:	94 10 20 08 	mov  8, %o2
4000a840:	c2 27 bf 04 	st  %g1, [ %fp + -252 ]
4000a844:	7f ff de 7d 	call  40002238 <memcpy>
4000a848:	90 07 bf 30 	add  %fp, -208, %o0
4000a84c:	c4 1f bf 30 	ldd  [ %fp + -208 ], %g2
4000a850:	ba 0c 3b ff 	and  %l0, -1025, %i5
4000a854:	c4 3f be f8 	std  %g2, [ %fp + -264 ]
4000a858:	82 10 20 00 	clr  %g1
4000a85c:	c0 2f bf 1f 	clrb  [ %fp + -225 ]
4000a860:	80 a6 ff ff 	cmp  %i3, -1
4000a864:	02 80 01 4c 	be  4000ad94 <_vfiprintf_r+0xae8>
4000a868:	c4 1f be f8 	ldd  [ %fp + -264 ], %g2
4000a86c:	88 10 00 02 	mov  %g2, %g4
4000a870:	80 91 00 03 	orcc  %g4, %g3, %g0
4000a874:	12 80 01 47 	bne  4000ad90 <_vfiprintf_r+0xae4>
4000a878:	a0 0f 7f 7f 	and  %i5, -129, %l0
4000a87c:	80 a6 e0 00 	cmp  %i3, 0
4000a880:	12 80 01 44 	bne  4000ad90 <_vfiprintf_r+0xae4>
4000a884:	80 88 60 ff 	btst  0xff, %g1
4000a888:	12 bf ff bd 	bne  4000a77c <_vfiprintf_r+0x4d0>
4000a88c:	b6 10 20 00 	clr  %i3
4000a890:	82 8f 60 01 	andcc  %i5, 1, %g1
4000a894:	02 bf ff bb 	be  4000a780 <_vfiprintf_r+0x4d4>
4000a898:	c2 27 bf 0c 	st  %g1, [ %fp + -244 ]
4000a89c:	82 10 20 30 	mov  0x30, %g1
4000a8a0:	b0 07 bf fb 	add  %fp, -5, %i0
4000a8a4:	10 bf ff b8 	b  4000a784 <_vfiprintf_r+0x4d8>
4000a8a8:	c2 2f bf fb 	stb  %g1, [ %fp + -5 ]
4000a8ac:	c4 07 bf 04 	ld  [ %fp + -252 ], %g2
4000a8b0:	c2 00 80 00 	ld  [ %g2 ], %g1
4000a8b4:	84 00 a0 04 	add  %g2, 4, %g2
4000a8b8:	80 8c 20 20 	btst  0x20, %l0
4000a8bc:	12 80 04 09 	bne  4000b8e0 <_vfiprintf_r+0x1634>
4000a8c0:	c4 27 bf 04 	st  %g2, [ %fp + -252 ]
4000a8c4:	80 8c 20 10 	btst  0x10, %l0
4000a8c8:	12 80 04 a2 	bne  4000bb50 <_vfiprintf_r+0x18a4>
4000a8cc:	c4 07 bf 08 	ld  [ %fp + -248 ], %g2
4000a8d0:	80 8c 20 40 	btst  0x40, %l0
4000a8d4:	32 bf fe b9 	bne,a   4000a3b8 <_vfiprintf_r+0x10c>
4000a8d8:	c4 30 40 00 	sth  %g2, [ %g1 ]
4000a8dc:	80 8c 22 00 	btst  0x200, %l0
4000a8e0:	22 bf fe b6 	be,a   4000a3b8 <_vfiprintf_r+0x10c>
4000a8e4:	c4 20 40 00 	st  %g2, [ %g1 ]
4000a8e8:	c4 07 bf 08 	ld  [ %fp + -248 ], %g2
4000a8ec:	10 bf fe b3 	b  4000a3b8 <_vfiprintf_r+0x10c>
4000a8f0:	c4 28 40 00 	stb  %g2, [ %g1 ]
4000a8f4:	c4 0c 40 00 	ldub  [ %l1 ], %g2
4000a8f8:	a0 14 20 80 	or  %l0, 0x80, %l0
4000a8fc:	10 bf ff 13 	b  4000a548 <_vfiprintf_r+0x29c>
4000a900:	83 28 a0 18 	sll  %g2, 0x18, %g1
4000a904:	c2 4c 40 00 	ldsb  [ %l1 ], %g1
4000a908:	80 a0 60 2a 	cmp  %g1, 0x2a
4000a90c:	02 80 05 33 	be  4000bdd8 <_vfiprintf_r+0x1b2c>
4000a910:	86 04 60 01 	add  %l1, 1, %g3
4000a914:	84 00 7f d0 	add  %g1, -48, %g2
4000a918:	a2 10 00 03 	mov  %g3, %l1
4000a91c:	80 a0 a0 09 	cmp  %g2, 9
4000a920:	18 bf ff 0c 	bgu  4000a550 <_vfiprintf_r+0x2a4>
4000a924:	b6 10 20 00 	clr  %i3
4000a928:	83 2e e0 02 	sll  %i3, 2, %g1
4000a92c:	a2 04 60 01 	inc  %l1
4000a930:	b6 00 40 1b 	add  %g1, %i3, %i3
4000a934:	c2 4c 7f ff 	ldsb  [ %l1 + -1 ], %g1
4000a938:	b7 2e e0 01 	sll  %i3, 1, %i3
4000a93c:	b6 06 c0 02 	add  %i3, %g2, %i3
4000a940:	84 00 7f d0 	add  %g1, -48, %g2
4000a944:	80 a0 a0 09 	cmp  %g2, 9
4000a948:	28 bf ff f9 	bleu,a   4000a92c <_vfiprintf_r+0x680>
4000a94c:	83 2e e0 02 	sll  %i3, 2, %g1
4000a950:	10 bf ff 01 	b  4000a554 <_vfiprintf_r+0x2a8>
4000a954:	84 00 7f e0 	add  %g1, -32, %g2
4000a958:	c4 0c 40 00 	ldub  [ %l1 ], %g2
4000a95c:	a0 14 20 04 	or  %l0, 4, %l0
4000a960:	10 bf fe fa 	b  4000a548 <_vfiprintf_r+0x29c>
4000a964:	83 28 a0 18 	sll  %g2, 0x18, %g1
4000a968:	c4 0c 40 00 	ldub  [ %l1 ], %g2
4000a96c:	fa 2f bf 1f 	stb  %i5, [ %fp + -225 ]
4000a970:	10 bf fe f6 	b  4000a548 <_vfiprintf_r+0x29c>
4000a974:	83 28 a0 18 	sll  %g2, 0x18, %g1
4000a978:	c2 07 bf 04 	ld  [ %fp + -252 ], %g1
4000a97c:	f4 00 40 00 	ld  [ %g1 ], %i2
4000a980:	82 00 60 04 	add  %g1, 4, %g1
4000a984:	c2 27 bf 04 	st  %g1, [ %fp + -252 ]
4000a988:	c4 0c 40 00 	ldub  [ %l1 ], %g2
4000a98c:	80 a6 a0 00 	cmp  %i2, 0
4000a990:	16 bf fe ee 	bge  4000a548 <_vfiprintf_r+0x29c>
4000a994:	83 28 a0 18 	sll  %g2, 0x18, %g1
4000a998:	b4 20 00 1a 	neg  %i2
4000a99c:	10 bf fe eb 	b  4000a548 <_vfiprintf_r+0x29c>
4000a9a0:	a0 14 20 04 	or  %l0, 4, %l0
4000a9a4:	c4 0c 40 00 	ldub  [ %l1 ], %g2
4000a9a8:	a0 14 20 01 	or  %l0, 1, %l0
4000a9ac:	10 bf fe e7 	b  4000a548 <_vfiprintf_r+0x29c>
4000a9b0:	83 28 a0 18 	sll  %g2, 0x18, %g1
4000a9b4:	c4 0c 40 00 	ldub  [ %l1 ], %g2
4000a9b8:	c6 4f bf 1f 	ldsb  [ %fp + -225 ], %g3
4000a9bc:	80 a0 e0 00 	cmp  %g3, 0
4000a9c0:	12 bf fe e2 	bne  4000a548 <_vfiprintf_r+0x29c>
4000a9c4:	83 28 a0 18 	sll  %g2, 0x18, %g1
4000a9c8:	10 bf fe e0 	b  4000a548 <_vfiprintf_r+0x29c>
4000a9cc:	f8 2f bf 1f 	stb  %i4, [ %fp + -225 ]
4000a9d0:	c4 0c 40 00 	ldub  [ %l1 ], %g2
4000a9d4:	83 28 a0 18 	sll  %g2, 0x18, %g1
4000a9d8:	85 38 60 18 	sra  %g1, 0x18, %g2
4000a9dc:	80 a0 a0 68 	cmp  %g2, 0x68
4000a9e0:	22 80 04 3c 	be,a   4000bad0 <_vfiprintf_r+0x1824>
4000a9e4:	c4 0c 60 01 	ldub  [ %l1 + 1 ], %g2
4000a9e8:	10 bf fe d8 	b  4000a548 <_vfiprintf_r+0x29c>
4000a9ec:	a0 14 20 40 	or  %l0, 0x40, %l0
4000a9f0:	ba 14 20 10 	or  %l0, 0x10, %i5
4000a9f4:	80 8f 60 20 	btst  0x20, %i5
4000a9f8:	02 80 03 7c 	be  4000b7e8 <_vfiprintf_r+0x153c>
4000a9fc:	c2 07 bf 04 	ld  [ %fp + -252 ], %g1
4000aa00:	92 10 00 01 	mov  %g1, %o1
4000aa04:	82 00 60 08 	add  %g1, 8, %g1
4000aa08:	94 10 20 08 	mov  8, %o2
4000aa0c:	c2 27 bf 04 	st  %g1, [ %fp + -252 ]
4000aa10:	7f ff de 0a 	call  40002238 <memcpy>
4000aa14:	90 07 bf 38 	add  %fp, -200, %o0
4000aa18:	c4 1f bf 38 	ldd  [ %fp + -200 ], %g2
4000aa1c:	82 10 20 01 	mov  1, %g1
4000aa20:	10 bf ff 8f 	b  4000a85c <_vfiprintf_r+0x5b0>
4000aa24:	c4 3f be f8 	std  %g2, [ %fp + -264 ]
4000aa28:	c4 07 bf 04 	ld  [ %fp + -252 ], %g2
4000aa2c:	c2 00 80 00 	ld  [ %g2 ], %g1
4000aa30:	86 10 00 01 	mov  %g1, %g3
4000aa34:	03 00 00 0c 	sethi  %hi(0x3000), %g1
4000aa38:	82 10 60 78 	or  %g1, 0x78, %g1	! 3078 <__data_size+0x2a68>
4000aa3c:	84 00 a0 04 	add  %g2, 4, %g2
4000aa40:	c2 37 bf 20 	sth  %g1, [ %fp + -224 ]
4000aa44:	c2 07 be e4 	ld  [ %fp + -284 ], %g1
4000aa48:	c4 27 bf 04 	st  %g2, [ %fp + -252 ]
4000aa4c:	c2 27 be ec 	st  %g1, [ %fp + -276 ]
4000aa50:	84 10 20 00 	clr  %g2
4000aa54:	ba 14 20 02 	or  %l0, 2, %i5
4000aa58:	c4 3f be f8 	std  %g2, [ %fp + -264 ]
4000aa5c:	10 bf ff 80 	b  4000a85c <_vfiprintf_r+0x5b0>
4000aa60:	82 10 20 02 	mov  2, %g1
4000aa64:	c4 0c 40 00 	ldub  [ %l1 ], %g2
4000aa68:	83 28 a0 18 	sll  %g2, 0x18, %g1
4000aa6c:	85 38 60 18 	sra  %g1, 0x18, %g2
4000aa70:	80 a0 a0 6c 	cmp  %g2, 0x6c
4000aa74:	22 80 04 13 	be,a   4000bac0 <_vfiprintf_r+0x1814>
4000aa78:	c4 0c 60 01 	ldub  [ %l1 + 1 ], %g2
4000aa7c:	10 bf fe b3 	b  4000a548 <_vfiprintf_r+0x29c>
4000aa80:	a0 14 20 10 	or  %l0, 0x10, %l0
4000aa84:	94 07 bf 4c 	add  %fp, -180, %o2
4000aa88:	92 10 00 15 	mov  %l5, %o1
4000aa8c:	40 00 06 87 	call  4000c4a8 <__sfvwrite_r>
4000aa90:	90 10 00 12 	mov  %l2, %o0
4000aa94:	c0 27 bf 54 	clr  [ %fp + -172 ]
4000aa98:	80 a2 20 00 	cmp  %o0, 0
4000aa9c:	12 bf fe 80 	bne  4000a49c <_vfiprintf_r+0x1f0>
4000aaa0:	c0 27 bf 50 	clr  [ %fp + -176 ]
4000aaa4:	c2 4f bf 1f 	ldsb  [ %fp + -225 ], %g1
4000aaa8:	80 a0 60 00 	cmp  %g1, 0
4000aaac:	02 80 03 98 	be  4000b90c <_vfiprintf_r+0x1660>
4000aab0:	c2 07 be f4 	ld  [ %fp + -268 ], %g1
4000aab4:	82 07 bf 1f 	add  %fp, -225, %g1
4000aab8:	86 07 bf 60 	add  %fp, -160, %g3
4000aabc:	c2 27 bf 58 	st  %g1, [ %fp + -168 ]
4000aac0:	84 10 20 01 	mov  1, %g2
4000aac4:	82 10 20 01 	mov  1, %g1
4000aac8:	c2 27 bf 5c 	st  %g1, [ %fp + -164 ]
4000aacc:	90 10 00 02 	mov  %g2, %o0
4000aad0:	b2 10 00 03 	mov  %g3, %i1
4000aad4:	84 00 a0 01 	inc  %g2
4000aad8:	86 00 e0 08 	add  %g3, 8, %g3
4000aadc:	c8 07 be f4 	ld  [ %fp + -268 ], %g4
4000aae0:	80 a1 20 00 	cmp  %g4, 0
4000aae4:	02 80 00 31 	be  4000aba8 <_vfiprintf_r+0x8fc>
4000aae8:	c8 07 bf 00 	ld  [ %fp + -256 ], %g4
4000aaec:	88 07 bf 20 	add  %fp, -224, %g4
4000aaf0:	82 00 60 02 	add  %g1, 2, %g1
4000aaf4:	c8 26 40 00 	st  %g4, [ %i1 ]
4000aaf8:	c2 27 bf 54 	st  %g1, [ %fp + -172 ]
4000aafc:	88 10 20 02 	mov  2, %g4
4000ab00:	c4 27 bf 50 	st  %g2, [ %fp + -176 ]
4000ab04:	80 a0 a0 07 	cmp  %g2, 7
4000ab08:	04 80 00 23 	ble  4000ab94 <_vfiprintf_r+0x8e8>
4000ab0c:	c8 26 60 04 	st  %g4, [ %i1 + 4 ]
4000ab10:	80 a0 60 00 	cmp  %g1, 0
4000ab14:	02 80 02 f7 	be  4000b6f0 <_vfiprintf_r+0x1444>
4000ab18:	86 07 bf 60 	add  %fp, -160, %g3
4000ab1c:	c6 05 60 60 	ld  [ %l5 + 0x60 ], %g3
4000ab20:	05 00 00 08 	sethi  %hi(0x2000), %g2
4000ab24:	80 88 c0 02 	btst  %g3, %g2
4000ab28:	02 80 02 84 	be  4000b538 <_vfiprintf_r+0x128c>
4000ab2c:	f2 07 bf 4c 	ld  [ %fp + -180 ], %i1
4000ab30:	ec 06 60 04 	ld  [ %i1 + 4 ], %l6
4000ab34:	b9 35 a0 02 	srl  %l6, 2, %i4
4000ab38:	80 a7 20 00 	cmp  %i4, 0
4000ab3c:	02 80 02 e6 	be  4000b6d4 <_vfiprintf_r+0x1428>
4000ab40:	e6 06 40 00 	ld  [ %i1 ], %l3
4000ab44:	10 80 00 05 	b  4000ab58 <_vfiprintf_r+0x8ac>
4000ab48:	ba 10 20 00 	clr  %i5
4000ab4c:	80 a7 00 1d 	cmp  %i4, %i5
4000ab50:	02 80 02 e1 	be  4000b6d4 <_vfiprintf_r+0x1428>
4000ab54:	c2 07 bf 54 	ld  [ %fp + -172 ], %g1
4000ab58:	83 2f 60 02 	sll  %i5, 2, %g1
4000ab5c:	94 10 00 15 	mov  %l5, %o2
4000ab60:	d2 04 c0 01 	ld  [ %l3 + %g1 ], %o1
4000ab64:	40 00 06 05 	call  4000c378 <_fputwc_r>
4000ab68:	90 10 00 12 	mov  %l2, %o0
4000ab6c:	80 a2 3f ff 	cmp  %o0, -1
4000ab70:	32 bf ff f7 	bne,a   4000ab4c <_vfiprintf_r+0x8a0>
4000ab74:	ba 07 60 01 	inc  %i5
4000ab78:	10 bf fe 4a 	b  4000a4a0 <_vfiprintf_r+0x1f4>
4000ab7c:	c2 15 60 0c 	lduh  [ %l5 + 0xc ], %g1
4000ab80:	86 07 bf 60 	add  %fp, -160, %g3
4000ab84:	c2 27 bf 58 	st  %g1, [ %fp + -168 ]
4000ab88:	84 10 20 01 	mov  1, %g2
4000ab8c:	82 10 20 02 	mov  2, %g1
4000ab90:	c2 27 bf 5c 	st  %g1, [ %fp + -164 ]
4000ab94:	b2 10 00 03 	mov  %g3, %i1
4000ab98:	90 10 00 02 	mov  %g2, %o0
4000ab9c:	86 06 60 08 	add  %i1, 8, %g3
4000aba0:	84 02 20 01 	add  %o0, 1, %g2
4000aba4:	c8 07 bf 00 	ld  [ %fp + -256 ], %g4
4000aba8:	80 a1 20 80 	cmp  %g4, 0x80
4000abac:	02 80 00 99 	be  4000ae10 <_vfiprintf_r+0xb64>
4000abb0:	a6 26 80 14 	sub  %i2, %l4, %l3
4000abb4:	c8 07 bf 0c 	ld  [ %fp + -244 ], %g4
4000abb8:	b6 26 c0 04 	sub  %i3, %g4, %i3
4000abbc:	80 a6 e0 00 	cmp  %i3, 0
4000abc0:	14 80 00 fc 	bg  4000afb0 <_vfiprintf_r+0xd04>
4000abc4:	80 a6 e0 10 	cmp  %i3, 0x10
4000abc8:	c8 07 bf 0c 	ld  [ %fp + -244 ], %g4
4000abcc:	f0 26 40 00 	st  %i0, [ %i1 ]
4000abd0:	82 01 00 01 	add  %g4, %g1, %g1
4000abd4:	c8 26 60 04 	st  %g4, [ %i1 + 4 ]
4000abd8:	c2 27 bf 54 	st  %g1, [ %fp + -172 ]
4000abdc:	80 a0 a0 07 	cmp  %g2, 7
4000abe0:	04 80 00 2c 	ble  4000ac90 <_vfiprintf_r+0x9e4>
4000abe4:	c4 27 bf 50 	st  %g2, [ %fp + -176 ]
4000abe8:	80 a0 60 00 	cmp  %g1, 0
4000abec:	02 80 00 59 	be  4000ad50 <_vfiprintf_r+0xaa4>
4000abf0:	05 00 00 08 	sethi  %hi(0x2000), %g2
4000abf4:	c6 05 60 60 	ld  [ %l5 + 0x60 ], %g3
4000abf8:	80 88 c0 02 	btst  %g3, %g2
4000abfc:	02 80 00 4d 	be  4000ad30 <_vfiprintf_r+0xa84>
4000ac00:	f6 07 bf 4c 	ld  [ %fp + -180 ], %i3
4000ac04:	f0 06 e0 04 	ld  [ %i3 + 4 ], %i0
4000ac08:	b9 36 20 02 	srl  %i0, 2, %i4
4000ac0c:	80 a7 20 00 	cmp  %i4, 0
4000ac10:	02 80 01 62 	be  4000b198 <_vfiprintf_r+0xeec>
4000ac14:	f2 06 c0 00 	ld  [ %i3 ], %i1
4000ac18:	10 80 00 05 	b  4000ac2c <_vfiprintf_r+0x980>
4000ac1c:	ba 10 20 00 	clr  %i5
4000ac20:	80 a7 00 1d 	cmp  %i4, %i5
4000ac24:	02 80 01 5d 	be  4000b198 <_vfiprintf_r+0xeec>
4000ac28:	c2 07 bf 54 	ld  [ %fp + -172 ], %g1
4000ac2c:	83 2f 60 02 	sll  %i5, 2, %g1
4000ac30:	94 10 00 15 	mov  %l5, %o2
4000ac34:	d2 06 40 01 	ld  [ %i1 + %g1 ], %o1
4000ac38:	40 00 05 d0 	call  4000c378 <_fputwc_r>
4000ac3c:	90 10 00 12 	mov  %l2, %o0
4000ac40:	80 a2 3f ff 	cmp  %o0, -1
4000ac44:	32 bf ff f7 	bne,a   4000ac20 <_vfiprintf_r+0x974>
4000ac48:	ba 07 60 01 	inc  %i5
4000ac4c:	10 bf fe 15 	b  4000a4a0 <_vfiprintf_r+0x1f4>
4000ac50:	c2 15 60 0c 	lduh  [ %l5 + 0xc ], %g1
4000ac54:	94 07 bf 4c 	add  %fp, -180, %o2
4000ac58:	92 10 00 15 	mov  %l5, %o1
4000ac5c:	40 00 06 13 	call  4000c4a8 <__sfvwrite_r>
4000ac60:	90 10 00 12 	mov  %l2, %o0
4000ac64:	c0 27 bf 54 	clr  [ %fp + -172 ]
4000ac68:	80 a2 20 00 	cmp  %o0, 0
4000ac6c:	12 bf fe 0c 	bne  4000a49c <_vfiprintf_r+0x1f0>
4000ac70:	c0 27 bf 50 	clr  [ %fp + -176 ]
4000ac74:	c2 07 bf 0c 	ld  [ %fp + -244 ], %g1
4000ac78:	84 10 20 01 	mov  1, %g2
4000ac7c:	f0 27 bf 58 	st  %i0, [ %fp + -168 ]
4000ac80:	c2 27 bf 5c 	st  %g1, [ %fp + -164 ]
4000ac84:	c2 27 bf 54 	st  %g1, [ %fp + -172 ]
4000ac88:	c4 27 bf 50 	st  %g2, [ %fp + -176 ]
4000ac8c:	86 07 bf 60 	add  %fp, -160, %g3
4000ac90:	80 8c 20 04 	btst  4, %l0
4000ac94:	02 80 00 07 	be  4000acb0 <_vfiprintf_r+0xa04>
4000ac98:	80 a6 80 14 	cmp  %i2, %l4
4000ac9c:	b6 26 80 14 	sub  %i2, %l4, %i3
4000aca0:	80 a6 e0 00 	cmp  %i3, 0
4000aca4:	14 80 01 b8 	bg  4000b384 <_vfiprintf_r+0x10d8>
4000aca8:	80 a6 e0 10 	cmp  %i3, 0x10
4000acac:	80 a6 80 14 	cmp  %i2, %l4
4000acb0:	26 80 00 02 	bl,a   4000acb8 <_vfiprintf_r+0xa0c>
4000acb4:	b4 10 00 14 	mov  %l4, %i2
4000acb8:	c4 07 bf 08 	ld  [ %fp + -248 ], %g2
4000acbc:	84 00 80 1a 	add  %g2, %i2, %g2
4000acc0:	80 a0 60 00 	cmp  %g1, 0
4000acc4:	02 80 00 30 	be  4000ad84 <_vfiprintf_r+0xad8>
4000acc8:	c4 27 bf 08 	st  %g2, [ %fp + -248 ]
4000accc:	c6 05 60 60 	ld  [ %l5 + 0x60 ], %g3
4000acd0:	05 00 00 08 	sethi  %hi(0x2000), %g2
4000acd4:	80 88 c0 02 	btst  %g3, %g2
4000acd8:	02 80 01 14 	be  4000b128 <_vfiprintf_r+0xe7c>
4000acdc:	f6 07 bf 4c 	ld  [ %fp + -180 ], %i3
4000ace0:	f2 06 e0 04 	ld  [ %i3 + 4 ], %i1
4000ace4:	b9 36 60 02 	srl  %i1, 2, %i4
4000ace8:	80 a7 20 00 	cmp  %i4, 0
4000acec:	02 80 01 88 	be  4000b30c <_vfiprintf_r+0x1060>
4000acf0:	f4 06 c0 00 	ld  [ %i3 ], %i2
4000acf4:	10 80 00 05 	b  4000ad08 <_vfiprintf_r+0xa5c>
4000acf8:	ba 10 20 00 	clr  %i5
4000acfc:	80 a7 00 1d 	cmp  %i4, %i5
4000ad00:	02 80 01 83 	be  4000b30c <_vfiprintf_r+0x1060>
4000ad04:	c2 07 bf 54 	ld  [ %fp + -172 ], %g1
4000ad08:	83 2f 60 02 	sll  %i5, 2, %g1
4000ad0c:	94 10 00 15 	mov  %l5, %o2
4000ad10:	d2 06 80 01 	ld  [ %i2 + %g1 ], %o1
4000ad14:	40 00 05 99 	call  4000c378 <_fputwc_r>
4000ad18:	90 10 00 12 	mov  %l2, %o0
4000ad1c:	80 a2 3f ff 	cmp  %o0, -1
4000ad20:	32 bf ff f7 	bne,a   4000acfc <_vfiprintf_r+0xa50>
4000ad24:	ba 07 60 01 	inc  %i5
4000ad28:	10 bf fd de 	b  4000a4a0 <_vfiprintf_r+0x1f4>
4000ad2c:	c2 15 60 0c 	lduh  [ %l5 + 0xc ], %g1
4000ad30:	94 07 bf 4c 	add  %fp, -180, %o2
4000ad34:	92 10 00 15 	mov  %l5, %o1
4000ad38:	40 00 05 dc 	call  4000c4a8 <__sfvwrite_r>
4000ad3c:	90 10 00 12 	mov  %l2, %o0
4000ad40:	c0 27 bf 54 	clr  [ %fp + -172 ]
4000ad44:	80 a2 20 00 	cmp  %o0, 0
4000ad48:	12 bf fd d5 	bne  4000a49c <_vfiprintf_r+0x1f0>
4000ad4c:	c0 27 bf 50 	clr  [ %fp + -176 ]
4000ad50:	80 8c 20 04 	btst  4, %l0
4000ad54:	02 80 00 07 	be  4000ad70 <_vfiprintf_r+0xac4>
4000ad58:	80 a6 80 14 	cmp  %i2, %l4
4000ad5c:	b6 26 80 14 	sub  %i2, %l4, %i3
4000ad60:	80 a6 e0 00 	cmp  %i3, 0
4000ad64:	14 80 01 85 	bg  4000b378 <_vfiprintf_r+0x10cc>
4000ad68:	84 10 20 00 	clr  %g2
4000ad6c:	80 a6 80 14 	cmp  %i2, %l4
4000ad70:	26 80 00 02 	bl,a   4000ad78 <_vfiprintf_r+0xacc>
4000ad74:	b4 10 00 14 	mov  %l4, %i2
4000ad78:	c2 07 bf 08 	ld  [ %fp + -248 ], %g1
4000ad7c:	82 00 40 1a 	add  %g1, %i2, %g1
4000ad80:	c2 27 bf 08 	st  %g1, [ %fp + -248 ]
4000ad84:	c0 27 bf 50 	clr  [ %fp + -176 ]
4000ad88:	10 bf fd 8c 	b  4000a3b8 <_vfiprintf_r+0x10c>
4000ad8c:	b2 07 bf 58 	add  %fp, -168, %i1
4000ad90:	ba 10 00 10 	mov  %l0, %i5
4000ad94:	82 08 60 ff 	and  %g1, 0xff, %g1
4000ad98:	80 a0 60 01 	cmp  %g1, 1
4000ad9c:	02 80 02 08 	be  4000b5bc <_vfiprintf_r+0x1310>
4000ada0:	b8 07 bf fc 	add  %fp, -4, %i4
4000ada4:	80 a0 60 02 	cmp  %g1, 2
4000ada8:	02 80 01 62 	be  4000b330 <_vfiprintf_r+0x1084>
4000adac:	b0 10 00 1c 	mov  %i4, %i0
4000adb0:	c4 1f be f8 	ldd  [ %fp + -264 ], %g2
4000adb4:	9e 10 00 18 	mov  %i0, %o7
4000adb8:	82 08 e0 07 	and  %g3, 7, %g1
4000adbc:	b0 06 3f ff 	add  %i0, -1, %i0
4000adc0:	82 00 60 30 	add  %g1, 0x30, %g1
4000adc4:	c2 2e 00 00 	stb  %g1, [ %i0 ]
4000adc8:	9b 28 a0 1d 	sll  %g2, 0x1d, %o5
4000adcc:	99 30 a0 03 	srl  %g2, 3, %o4
4000add0:	89 30 e0 03 	srl  %g3, 3, %g4
4000add4:	86 13 40 04 	or  %o5, %g4, %g3
4000add8:	80 93 00 03 	orcc  %o4, %g3, %g0
4000addc:	12 bf ff f6 	bne  4000adb4 <_vfiprintf_r+0xb08>
4000ade0:	84 10 00 0c 	mov  %o4, %g2
4000ade4:	82 08 60 7f 	and  %g1, 0x7f, %g1
4000ade8:	80 a0 60 30 	cmp  %g1, 0x30
4000adec:	02 80 00 05 	be  4000ae00 <_vfiprintf_r+0xb54>
4000adf0:	c4 3f be f8 	std  %g2, [ %fp + -264 ]
4000adf4:	80 8f 60 01 	btst  1, %i5
4000adf8:	32 80 02 b3 	bne,a   4000b8c4 <_vfiprintf_r+0x1618>
4000adfc:	9e 03 ff fe 	add  %o7, -2, %o7
4000ae00:	82 27 00 18 	sub  %i4, %i0, %g1
4000ae04:	a0 10 00 1d 	mov  %i5, %l0
4000ae08:	10 bf fe 5f 	b  4000a784 <_vfiprintf_r+0x4d8>
4000ae0c:	c2 27 bf 0c 	st  %g1, [ %fp + -244 ]
4000ae10:	80 a4 e0 00 	cmp  %l3, 0
4000ae14:	04 bf ff 69 	ble  4000abb8 <_vfiprintf_r+0x90c>
4000ae18:	c8 07 bf 0c 	ld  [ %fp + -244 ], %g4
4000ae1c:	80 a4 e0 10 	cmp  %l3, 0x10
4000ae20:	04 80 03 df 	ble  4000bd9c <_vfiprintf_r+0x1af0>
4000ae24:	ba 10 00 03 	mov  %g3, %i5
4000ae28:	ae 10 20 10 	mov  0x10, %l7
4000ae2c:	10 80 00 09 	b  4000ae50 <_vfiprintf_r+0xba4>
4000ae30:	f6 27 bf 00 	st  %i3, [ %fp + -256 ]
4000ae34:	88 02 20 02 	add  %o0, 2, %g4
4000ae38:	b2 06 60 08 	add  %i1, 8, %i1
4000ae3c:	90 10 00 02 	mov  %g2, %o0
4000ae40:	a6 04 ff f0 	add  %l3, -16, %l3
4000ae44:	80 a4 e0 10 	cmp  %l3, 0x10
4000ae48:	04 80 00 35 	ble  4000af1c <_vfiprintf_r+0xc70>
4000ae4c:	f6 07 bf 00 	ld  [ %fp + -256 ], %i3
4000ae50:	84 02 20 01 	add  %o0, 1, %g2
4000ae54:	82 00 60 10 	add  %g1, 0x10, %g1
4000ae58:	c6 07 bf 14 	ld  [ %fp + -236 ], %g3
4000ae5c:	ee 26 60 04 	st  %l7, [ %i1 + 4 ]
4000ae60:	c6 26 40 00 	st  %g3, [ %i1 ]
4000ae64:	c2 27 bf 54 	st  %g1, [ %fp + -172 ]
4000ae68:	80 a0 a0 07 	cmp  %g2, 7
4000ae6c:	04 bf ff f2 	ble  4000ae34 <_vfiprintf_r+0xb88>
4000ae70:	c4 27 bf 50 	st  %g2, [ %fp + -176 ]
4000ae74:	80 a0 60 00 	cmp  %g1, 0
4000ae78:	02 80 00 a8 	be  4000b118 <_vfiprintf_r+0xe6c>
4000ae7c:	07 00 00 08 	sethi  %hi(0x2000), %g3
4000ae80:	c4 05 60 60 	ld  [ %l5 + 0x60 ], %g2
4000ae84:	80 88 80 03 	btst  %g2, %g3
4000ae88:	02 80 00 16 	be  4000aee0 <_vfiprintf_r+0xc34>
4000ae8c:	f2 07 bf 4c 	ld  [ %fp + -180 ], %i1
4000ae90:	f6 06 60 04 	ld  [ %i1 + 4 ], %i3
4000ae94:	bb 36 e0 02 	srl  %i3, 2, %i5
4000ae98:	80 a7 60 00 	cmp  %i5, 0
4000ae9c:	02 80 00 99 	be  4000b100 <_vfiprintf_r+0xe54>
4000aea0:	f8 06 40 00 	ld  [ %i1 ], %i4
4000aea4:	10 80 00 05 	b  4000aeb8 <_vfiprintf_r+0xc0c>
4000aea8:	ac 10 20 00 	clr  %l6
4000aeac:	80 a7 40 16 	cmp  %i5, %l6
4000aeb0:	02 80 00 94 	be  4000b100 <_vfiprintf_r+0xe54>
4000aeb4:	c2 07 bf 54 	ld  [ %fp + -172 ], %g1
4000aeb8:	83 2d a0 02 	sll  %l6, 2, %g1
4000aebc:	94 10 00 15 	mov  %l5, %o2
4000aec0:	d2 07 00 01 	ld  [ %i4 + %g1 ], %o1
4000aec4:	40 00 05 2d 	call  4000c378 <_fputwc_r>
4000aec8:	90 10 00 12 	mov  %l2, %o0
4000aecc:	80 a2 3f ff 	cmp  %o0, -1
4000aed0:	32 bf ff f7 	bne,a   4000aeac <_vfiprintf_r+0xc00>
4000aed4:	ac 05 a0 01 	inc  %l6
4000aed8:	10 bf fd 72 	b  4000a4a0 <_vfiprintf_r+0x1f4>
4000aedc:	c2 15 60 0c 	lduh  [ %l5 + 0xc ], %g1
4000aee0:	94 07 bf 4c 	add  %fp, -180, %o2
4000aee4:	92 10 00 15 	mov  %l5, %o1
4000aee8:	40 00 05 70 	call  4000c4a8 <__sfvwrite_r>
4000aeec:	90 10 00 12 	mov  %l2, %o0
4000aef0:	c0 27 bf 54 	clr  [ %fp + -172 ]
4000aef4:	80 a2 20 00 	cmp  %o0, 0
4000aef8:	12 bf fd 69 	bne  4000a49c <_vfiprintf_r+0x1f0>
4000aefc:	c0 27 bf 50 	clr  [ %fp + -176 ]
4000af00:	a6 04 ff f0 	add  %l3, -16, %l3
4000af04:	88 10 20 01 	mov  1, %g4
4000af08:	82 10 20 00 	clr  %g1
4000af0c:	80 a4 e0 10 	cmp  %l3, 0x10
4000af10:	14 bf ff d0 	bg  4000ae50 <_vfiprintf_r+0xba4>
4000af14:	b2 07 bf 58 	add  %fp, -168, %i1
4000af18:	f6 07 bf 00 	ld  [ %fp + -256 ], %i3
4000af1c:	ba 06 60 08 	add  %i1, 8, %i5
4000af20:	82 00 40 13 	add  %g1, %l3, %g1
4000af24:	c4 07 bf 14 	ld  [ %fp + -236 ], %g2
4000af28:	e6 26 60 04 	st  %l3, [ %i1 + 4 ]
4000af2c:	c4 26 40 00 	st  %g2, [ %i1 ]
4000af30:	c2 27 bf 54 	st  %g1, [ %fp + -172 ]
4000af34:	80 a1 20 07 	cmp  %g4, 7
4000af38:	04 80 02 59 	ble  4000b89c <_vfiprintf_r+0x15f0>
4000af3c:	c8 27 bf 50 	st  %g4, [ %fp + -176 ]
4000af40:	80 a0 60 00 	cmp  %g1, 0
4000af44:	02 80 03 5e 	be  4000bcbc <_vfiprintf_r+0x1a10>
4000af48:	86 07 bf 60 	add  %fp, -160, %g3
4000af4c:	c6 05 60 60 	ld  [ %l5 + 0x60 ], %g3
4000af50:	05 00 00 08 	sethi  %hi(0x2000), %g2
4000af54:	80 88 c0 02 	btst  %g3, %g2
4000af58:	02 80 02 f1 	be  4000bb1c <_vfiprintf_r+0x1870>
4000af5c:	e6 07 bf 4c 	ld  [ %fp + -180 ], %l3
4000af60:	ec 04 e0 04 	ld  [ %l3 + 4 ], %l6
4000af64:	b9 35 a0 02 	srl  %l6, 2, %i4
4000af68:	80 a7 20 00 	cmp  %i4, 0
4000af6c:	02 80 03 4d 	be  4000bca0 <_vfiprintf_r+0x19f4>
4000af70:	f2 04 c0 00 	ld  [ %l3 ], %i1
4000af74:	10 80 00 05 	b  4000af88 <_vfiprintf_r+0xcdc>
4000af78:	ba 10 20 00 	clr  %i5
4000af7c:	80 a7 00 1d 	cmp  %i4, %i5
4000af80:	02 80 03 48 	be  4000bca0 <_vfiprintf_r+0x19f4>
4000af84:	c2 07 bf 54 	ld  [ %fp + -172 ], %g1
4000af88:	83 2f 60 02 	sll  %i5, 2, %g1
4000af8c:	94 10 00 15 	mov  %l5, %o2
4000af90:	d2 06 40 01 	ld  [ %i1 + %g1 ], %o1
4000af94:	40 00 04 f9 	call  4000c378 <_fputwc_r>
4000af98:	90 10 00 12 	mov  %l2, %o0
4000af9c:	80 a2 3f ff 	cmp  %o0, -1
4000afa0:	32 bf ff f7 	bne,a   4000af7c <_vfiprintf_r+0xcd0>
4000afa4:	ba 07 60 01 	inc  %i5
4000afa8:	10 bf fd 3e 	b  4000a4a0 <_vfiprintf_r+0x1f4>
4000afac:	c2 15 60 0c 	lduh  [ %l5 + 0xc ], %g1
4000afb0:	04 80 00 3e 	ble  4000b0a8 <_vfiprintf_r+0xdfc>
4000afb4:	88 10 00 03 	mov  %g3, %g4
4000afb8:	10 80 00 09 	b  4000afdc <_vfiprintf_r+0xd30>
4000afbc:	ac 10 20 10 	mov  0x10, %l6
4000afc0:	84 02 20 02 	add  %o0, 2, %g2
4000afc4:	b2 06 60 08 	add  %i1, 8, %i1
4000afc8:	90 10 00 03 	mov  %g3, %o0
4000afcc:	b6 06 ff f0 	add  %i3, -16, %i3
4000afd0:	80 a6 e0 10 	cmp  %i3, 0x10
4000afd4:	04 80 00 35 	ble  4000b0a8 <_vfiprintf_r+0xdfc>
4000afd8:	88 06 60 08 	add  %i1, 8, %g4
4000afdc:	86 02 20 01 	add  %o0, 1, %g3
4000afe0:	82 00 60 10 	add  %g1, 0x10, %g1
4000afe4:	c4 07 bf 14 	ld  [ %fp + -236 ], %g2
4000afe8:	ec 26 60 04 	st  %l6, [ %i1 + 4 ]
4000afec:	c4 26 40 00 	st  %g2, [ %i1 ]
4000aff0:	c2 27 bf 54 	st  %g1, [ %fp + -172 ]
4000aff4:	80 a0 e0 07 	cmp  %g3, 7
4000aff8:	04 bf ff f2 	ble  4000afc0 <_vfiprintf_r+0xd14>
4000affc:	c6 27 bf 50 	st  %g3, [ %fp + -176 ]
4000b000:	80 a0 60 00 	cmp  %g1, 0
4000b004:	02 80 00 3b 	be  4000b0f0 <_vfiprintf_r+0xe44>
4000b008:	07 00 00 08 	sethi  %hi(0x2000), %g3
4000b00c:	c4 05 60 60 	ld  [ %l5 + 0x60 ], %g2
4000b010:	80 88 80 03 	btst  %g2, %g3
4000b014:	02 80 00 16 	be  4000b06c <_vfiprintf_r+0xdc0>
4000b018:	f2 07 bf 4c 	ld  [ %fp + -180 ], %i1
4000b01c:	e6 06 60 04 	ld  [ %i1 + 4 ], %l3
4000b020:	bb 34 e0 02 	srl  %l3, 2, %i5
4000b024:	80 a7 60 00 	cmp  %i5, 0
4000b028:	02 80 00 2c 	be  4000b0d8 <_vfiprintf_r+0xe2c>
4000b02c:	f8 06 40 00 	ld  [ %i1 ], %i4
4000b030:	10 80 00 05 	b  4000b044 <_vfiprintf_r+0xd98>
4000b034:	ae 10 20 00 	clr  %l7
4000b038:	80 a7 40 17 	cmp  %i5, %l7
4000b03c:	02 80 00 27 	be  4000b0d8 <_vfiprintf_r+0xe2c>
4000b040:	c2 07 bf 54 	ld  [ %fp + -172 ], %g1
4000b044:	83 2d e0 02 	sll  %l7, 2, %g1
4000b048:	94 10 00 15 	mov  %l5, %o2
4000b04c:	d2 07 00 01 	ld  [ %i4 + %g1 ], %o1
4000b050:	40 00 04 ca 	call  4000c378 <_fputwc_r>
4000b054:	90 10 00 12 	mov  %l2, %o0
4000b058:	80 a2 3f ff 	cmp  %o0, -1
4000b05c:	32 bf ff f7 	bne,a   4000b038 <_vfiprintf_r+0xd8c>
4000b060:	ae 05 e0 01 	inc  %l7
4000b064:	10 bf fd 0f 	b  4000a4a0 <_vfiprintf_r+0x1f4>
4000b068:	c2 15 60 0c 	lduh  [ %l5 + 0xc ], %g1
4000b06c:	94 07 bf 4c 	add  %fp, -180, %o2
4000b070:	92 10 00 15 	mov  %l5, %o1
4000b074:	40 00 05 0d 	call  4000c4a8 <__sfvwrite_r>
4000b078:	90 10 00 12 	mov  %l2, %o0
4000b07c:	c0 27 bf 54 	clr  [ %fp + -172 ]
4000b080:	80 a2 20 00 	cmp  %o0, 0
4000b084:	12 bf fd 06 	bne  4000a49c <_vfiprintf_r+0x1f0>
4000b088:	c0 27 bf 50 	clr  [ %fp + -176 ]
4000b08c:	b6 06 ff f0 	add  %i3, -16, %i3
4000b090:	84 10 20 01 	mov  1, %g2
4000b094:	82 10 20 00 	clr  %g1
4000b098:	80 a6 e0 10 	cmp  %i3, 0x10
4000b09c:	14 bf ff d0 	bg  4000afdc <_vfiprintf_r+0xd30>
4000b0a0:	b2 07 bf 58 	add  %fp, -168, %i1
4000b0a4:	88 06 60 08 	add  %i1, 8, %g4
4000b0a8:	82 00 40 1b 	add  %g1, %i3, %g1
4000b0ac:	c6 07 bf 14 	ld  [ %fp + -236 ], %g3
4000b0b0:	f6 26 60 04 	st  %i3, [ %i1 + 4 ]
4000b0b4:	c6 26 40 00 	st  %g3, [ %i1 ]
4000b0b8:	c2 27 bf 54 	st  %g1, [ %fp + -172 ]
4000b0bc:	80 a0 a0 07 	cmp  %g2, 7
4000b0c0:	14 80 01 4c 	bg  4000b5f0 <_vfiprintf_r+0x1344>
4000b0c4:	c4 27 bf 50 	st  %g2, [ %fp + -176 ]
4000b0c8:	84 00 a0 01 	inc  %g2
4000b0cc:	86 01 20 08 	add  %g4, 8, %g3
4000b0d0:	10 bf fe be 	b  4000abc8 <_vfiprintf_r+0x91c>
4000b0d4:	b2 10 00 04 	mov  %g4, %i1
4000b0d8:	a6 0c ff fc 	and  %l3, -4, %l3
4000b0dc:	82 20 40 13 	sub  %g1, %l3, %g1
4000b0e0:	c2 27 bf 54 	st  %g1, [ %fp + -172 ]
4000b0e4:	80 a0 60 00 	cmp  %g1, 0
4000b0e8:	12 bf ff cd 	bne  4000b01c <_vfiprintf_r+0xd70>
4000b0ec:	b2 06 60 08 	add  %i1, 8, %i1
4000b0f0:	84 10 20 01 	mov  1, %g2
4000b0f4:	90 10 20 00 	clr  %o0
4000b0f8:	10 bf ff b5 	b  4000afcc <_vfiprintf_r+0xd20>
4000b0fc:	b2 07 bf 58 	add  %fp, -168, %i1
4000b100:	b6 0e ff fc 	and  %i3, -4, %i3
4000b104:	82 20 40 1b 	sub  %g1, %i3, %g1
4000b108:	c2 27 bf 54 	st  %g1, [ %fp + -172 ]
4000b10c:	80 a0 60 00 	cmp  %g1, 0
4000b110:	12 bf ff 60 	bne  4000ae90 <_vfiprintf_r+0xbe4>
4000b114:	b2 06 60 08 	add  %i1, 8, %i1
4000b118:	88 10 20 01 	mov  1, %g4
4000b11c:	90 10 20 00 	clr  %o0
4000b120:	10 bf ff 48 	b  4000ae40 <_vfiprintf_r+0xb94>
4000b124:	b2 07 bf 58 	add  %fp, -168, %i1
4000b128:	94 07 bf 4c 	add  %fp, -180, %o2
4000b12c:	92 10 00 15 	mov  %l5, %o1
4000b130:	40 00 04 de 	call  4000c4a8 <__sfvwrite_r>
4000b134:	90 10 00 12 	mov  %l2, %o0
4000b138:	c0 27 bf 54 	clr  [ %fp + -172 ]
4000b13c:	80 a2 20 00 	cmp  %o0, 0
4000b140:	12 bf fc d7 	bne  4000a49c <_vfiprintf_r+0x1f0>
4000b144:	c0 27 bf 50 	clr  [ %fp + -176 ]
4000b148:	c0 27 bf 50 	clr  [ %fp + -176 ]
4000b14c:	10 bf fc 9b 	b  4000a3b8 <_vfiprintf_r+0x10c>
4000b150:	b2 07 bf 58 	add  %fp, -168, %i1
4000b154:	94 07 bf 4c 	add  %fp, -180, %o2
4000b158:	92 10 00 15 	mov  %l5, %o1
4000b15c:	40 00 04 d3 	call  4000c4a8 <__sfvwrite_r>
4000b160:	90 10 00 12 	mov  %l2, %o0
4000b164:	c0 27 bf 54 	clr  [ %fp + -172 ]
4000b168:	80 a2 20 00 	cmp  %o0, 0
4000b16c:	12 bf fc cc 	bne  4000a49c <_vfiprintf_r+0x1f0>
4000b170:	c0 27 bf 50 	clr  [ %fp + -176 ]
4000b174:	c2 07 be f4 	ld  [ %fp + -268 ], %g1
4000b178:	80 a0 60 00 	cmp  %g1, 0
4000b17c:	32 80 01 38 	bne,a   4000b65c <_vfiprintf_r+0x13b0>
4000b180:	82 07 bf 20 	add  %fp, -224, %g1
4000b184:	90 10 20 00 	clr  %o0
4000b188:	86 07 bf 60 	add  %fp, -160, %g3
4000b18c:	84 10 20 01 	mov  1, %g2
4000b190:	10 bf fe 85 	b  4000aba4 <_vfiprintf_r+0x8f8>
4000b194:	b2 07 bf 58 	add  %fp, -168, %i1
4000b198:	b0 0e 3f fc 	and  %i0, -4, %i0
4000b19c:	82 20 40 18 	sub  %g1, %i0, %g1
4000b1a0:	c2 27 bf 54 	st  %g1, [ %fp + -172 ]
4000b1a4:	80 a0 60 00 	cmp  %g1, 0
4000b1a8:	12 bf fe 97 	bne  4000ac04 <_vfiprintf_r+0x958>
4000b1ac:	b6 06 e0 08 	add  %i3, 8, %i3
4000b1b0:	10 bf fe e9 	b  4000ad54 <_vfiprintf_r+0xaa8>
4000b1b4:	80 8c 20 04 	btst  4, %l0
4000b1b8:	24 80 00 3f 	ble,a   4000b2b4 <_vfiprintf_r+0x1008>
4000b1bc:	88 10 00 03 	mov  %g3, %g4
4000b1c0:	ae 10 20 10 	mov  0x10, %l7
4000b1c4:	10 80 00 0a 	b  4000b1ec <_vfiprintf_r+0xf40>
4000b1c8:	f6 27 be d8 	st  %i3, [ %fp + -296 ]
4000b1cc:	88 02 20 02 	add  %o0, 2, %g4
4000b1d0:	b2 06 60 08 	add  %i1, 8, %i1
4000b1d4:	90 10 00 03 	mov  %g3, %o0
4000b1d8:	a6 04 ff f0 	add  %l3, -16, %l3
4000b1dc:	80 a4 e0 10 	cmp  %l3, 0x10
4000b1e0:	04 80 00 35 	ble  4000b2b4 <_vfiprintf_r+0x1008>
4000b1e4:	f6 07 be d8 	ld  [ %fp + -296 ], %i3
4000b1e8:	86 02 20 01 	add  %o0, 1, %g3
4000b1ec:	82 00 60 10 	add  %g1, 0x10, %g1
4000b1f0:	c4 07 bf 10 	ld  [ %fp + -240 ], %g2
4000b1f4:	ee 26 60 04 	st  %l7, [ %i1 + 4 ]
4000b1f8:	c4 26 40 00 	st  %g2, [ %i1 ]
4000b1fc:	c2 27 bf 54 	st  %g1, [ %fp + -172 ]
4000b200:	80 a0 e0 07 	cmp  %g3, 7
4000b204:	04 bf ff f2 	ble  4000b1cc <_vfiprintf_r+0xf20>
4000b208:	c6 27 bf 50 	st  %g3, [ %fp + -176 ]
4000b20c:	80 a0 60 00 	cmp  %g1, 0
4000b210:	02 80 00 3b 	be  4000b2fc <_vfiprintf_r+0x1050>
4000b214:	07 00 00 08 	sethi  %hi(0x2000), %g3
4000b218:	c4 05 60 60 	ld  [ %l5 + 0x60 ], %g2
4000b21c:	80 88 80 03 	btst  %g2, %g3
4000b220:	02 80 00 16 	be  4000b278 <_vfiprintf_r+0xfcc>
4000b224:	f2 07 bf 4c 	ld  [ %fp + -180 ], %i1
4000b228:	f6 06 60 04 	ld  [ %i1 + 4 ], %i3
4000b22c:	bb 36 e0 02 	srl  %i3, 2, %i5
4000b230:	80 a7 60 00 	cmp  %i5, 0
4000b234:	02 80 00 2c 	be  4000b2e4 <_vfiprintf_r+0x1038>
4000b238:	f8 06 40 00 	ld  [ %i1 ], %i4
4000b23c:	10 80 00 05 	b  4000b250 <_vfiprintf_r+0xfa4>
4000b240:	ac 10 20 00 	clr  %l6
4000b244:	80 a7 40 16 	cmp  %i5, %l6
4000b248:	02 80 00 27 	be  4000b2e4 <_vfiprintf_r+0x1038>
4000b24c:	c2 07 bf 54 	ld  [ %fp + -172 ], %g1
4000b250:	83 2d a0 02 	sll  %l6, 2, %g1
4000b254:	94 10 00 15 	mov  %l5, %o2
4000b258:	d2 07 00 01 	ld  [ %i4 + %g1 ], %o1
4000b25c:	40 00 04 47 	call  4000c378 <_fputwc_r>
4000b260:	90 10 00 12 	mov  %l2, %o0
4000b264:	80 a2 3f ff 	cmp  %o0, -1
4000b268:	32 bf ff f7 	bne,a   4000b244 <_vfiprintf_r+0xf98>
4000b26c:	ac 05 a0 01 	inc  %l6
4000b270:	10 bf fc 8c 	b  4000a4a0 <_vfiprintf_r+0x1f4>
4000b274:	c2 15 60 0c 	lduh  [ %l5 + 0xc ], %g1
4000b278:	94 07 bf 4c 	add  %fp, -180, %o2
4000b27c:	92 10 00 15 	mov  %l5, %o1
4000b280:	40 00 04 8a 	call  4000c4a8 <__sfvwrite_r>
4000b284:	90 10 00 12 	mov  %l2, %o0
4000b288:	c0 27 bf 54 	clr  [ %fp + -172 ]
4000b28c:	80 a2 20 00 	cmp  %o0, 0
4000b290:	12 bf fc 83 	bne  4000a49c <_vfiprintf_r+0x1f0>
4000b294:	c0 27 bf 50 	clr  [ %fp + -176 ]
4000b298:	a6 04 ff f0 	add  %l3, -16, %l3
4000b29c:	88 10 20 01 	mov  1, %g4
4000b2a0:	82 10 20 00 	clr  %g1
4000b2a4:	80 a4 e0 10 	cmp  %l3, 0x10
4000b2a8:	14 bf ff d0 	bg  4000b1e8 <_vfiprintf_r+0xf3c>
4000b2ac:	b2 07 bf 58 	add  %fp, -168, %i1
4000b2b0:	f6 07 be d8 	ld  [ %fp + -296 ], %i3
4000b2b4:	82 00 40 13 	add  %g1, %l3, %g1
4000b2b8:	c4 07 bf 10 	ld  [ %fp + -240 ], %g2
4000b2bc:	e6 26 60 04 	st  %l3, [ %i1 + 4 ]
4000b2c0:	c4 26 40 00 	st  %g2, [ %i1 ]
4000b2c4:	c2 27 bf 54 	st  %g1, [ %fp + -172 ]
4000b2c8:	80 a1 20 07 	cmp  %g4, 7
4000b2cc:	14 80 01 51 	bg  4000b810 <_vfiprintf_r+0x1564>
4000b2d0:	c8 27 bf 50 	st  %g4, [ %fp + -176 ]
4000b2d4:	b2 06 60 08 	add  %i1, 8, %i1
4000b2d8:	84 01 20 01 	add  %g4, 1, %g2
4000b2dc:	10 bf fc bd 	b  4000a5d0 <_vfiprintf_r+0x324>
4000b2e0:	90 10 00 04 	mov  %g4, %o0
4000b2e4:	b6 0e ff fc 	and  %i3, -4, %i3
4000b2e8:	82 20 40 1b 	sub  %g1, %i3, %g1
4000b2ec:	c2 27 bf 54 	st  %g1, [ %fp + -172 ]
4000b2f0:	80 a0 60 00 	cmp  %g1, 0
4000b2f4:	12 bf ff cd 	bne  4000b228 <_vfiprintf_r+0xf7c>
4000b2f8:	b2 06 60 08 	add  %i1, 8, %i1
4000b2fc:	90 10 20 00 	clr  %o0
4000b300:	88 10 20 01 	mov  1, %g4
4000b304:	10 bf ff b5 	b  4000b1d8 <_vfiprintf_r+0xf2c>
4000b308:	b2 07 bf 58 	add  %fp, -168, %i1
4000b30c:	b2 0e 7f fc 	and  %i1, -4, %i1
4000b310:	82 20 40 19 	sub  %g1, %i1, %g1
4000b314:	c2 27 bf 54 	st  %g1, [ %fp + -172 ]
4000b318:	80 a0 60 00 	cmp  %g1, 0
4000b31c:	12 bf fe 71 	bne  4000ace0 <_vfiprintf_r+0xa34>
4000b320:	b6 06 e0 08 	add  %i3, 8, %i3
4000b324:	c0 27 bf 50 	clr  [ %fp + -176 ]
4000b328:	10 bf fc 24 	b  4000a3b8 <_vfiprintf_r+0x10c>
4000b32c:	b2 07 bf 58 	add  %fp, -168, %i1
4000b330:	da 07 be ec 	ld  [ %fp + -276 ], %o5
4000b334:	c4 1f be f8 	ldd  [ %fp + -264 ], %g2
4000b338:	82 08 e0 0f 	and  %g3, 0xf, %g1
4000b33c:	b0 06 3f ff 	add  %i0, -1, %i0
4000b340:	c2 0b 40 01 	ldub  [ %o5 + %g1 ], %g1
4000b344:	c2 2e 00 00 	stb  %g1, [ %i0 ]
4000b348:	89 28 a0 1c 	sll  %g2, 0x1c, %g4
4000b34c:	9f 30 a0 04 	srl  %g2, 4, %o7
4000b350:	83 30 e0 04 	srl  %g3, 4, %g1
4000b354:	86 11 00 01 	or  %g4, %g1, %g3
4000b358:	80 93 c0 03 	orcc  %o7, %g3, %g0
4000b35c:	12 bf ff f7 	bne  4000b338 <_vfiprintf_r+0x108c>
4000b360:	84 10 00 0f 	mov  %o7, %g2
4000b364:	82 27 00 18 	sub  %i4, %i0, %g1
4000b368:	c4 3f be f8 	std  %g2, [ %fp + -264 ]
4000b36c:	c2 27 bf 0c 	st  %g1, [ %fp + -244 ]
4000b370:	10 bf fd 05 	b  4000a784 <_vfiprintf_r+0x4d8>
4000b374:	a0 10 00 1d 	mov  %i5, %l0
4000b378:	82 10 20 00 	clr  %g1
4000b37c:	86 07 bf 58 	add  %fp, -168, %g3
4000b380:	80 a6 e0 10 	cmp  %i3, 0x10
4000b384:	24 80 00 3f 	ble,a   4000b480 <_vfiprintf_r+0x11d4>
4000b388:	ba 00 a0 01 	add  %g2, 1, %i5
4000b38c:	a0 10 20 10 	mov  0x10, %l0
4000b390:	27 00 00 08 	sethi  %hi(0x2000), %l3
4000b394:	10 80 00 09 	b  4000b3b8 <_vfiprintf_r+0x110c>
4000b398:	90 10 00 02 	mov  %g2, %o0
4000b39c:	ba 02 20 02 	add  %o0, 2, %i5
4000b3a0:	86 00 e0 08 	add  %g3, 8, %g3
4000b3a4:	90 10 00 04 	mov  %g4, %o0
4000b3a8:	b6 06 ff f0 	add  %i3, -16, %i3
4000b3ac:	80 a6 e0 10 	cmp  %i3, 0x10
4000b3b0:	24 80 00 35 	ble,a   4000b484 <_vfiprintf_r+0x11d8>
4000b3b4:	82 00 40 1b 	add  %g1, %i3, %g1
4000b3b8:	88 02 20 01 	add  %o0, 1, %g4
4000b3bc:	82 00 60 10 	add  %g1, 0x10, %g1
4000b3c0:	c4 07 bf 10 	ld  [ %fp + -240 ], %g2
4000b3c4:	e0 20 e0 04 	st  %l0, [ %g3 + 4 ]
4000b3c8:	c4 20 c0 00 	st  %g2, [ %g3 ]
4000b3cc:	c2 27 bf 54 	st  %g1, [ %fp + -172 ]
4000b3d0:	80 a1 20 08 	cmp  %g4, 8
4000b3d4:	12 bf ff f2 	bne  4000b39c <_vfiprintf_r+0x10f0>
4000b3d8:	c8 27 bf 50 	st  %g4, [ %fp + -176 ]
4000b3dc:	80 a0 60 00 	cmp  %g1, 0
4000b3e0:	22 80 00 53 	be,a   4000b52c <_vfiprintf_r+0x1280>
4000b3e4:	ba 10 20 01 	mov  1, %i5
4000b3e8:	c4 05 60 60 	ld  [ %l5 + 0x60 ], %g2
4000b3ec:	80 88 80 13 	btst  %g2, %l3
4000b3f0:	02 80 00 16 	be  4000b448 <_vfiprintf_r+0x119c>
4000b3f4:	f2 07 bf 4c 	ld  [ %fp + -180 ], %i1
4000b3f8:	ec 06 60 04 	ld  [ %i1 + 4 ], %l6
4000b3fc:	b9 35 a0 02 	srl  %l6, 2, %i4
4000b400:	80 a7 20 00 	cmp  %i4, 0
4000b404:	02 80 00 43 	be  4000b510 <_vfiprintf_r+0x1264>
4000b408:	f0 06 40 00 	ld  [ %i1 ], %i0
4000b40c:	10 80 00 05 	b  4000b420 <_vfiprintf_r+0x1174>
4000b410:	ba 10 20 00 	clr  %i5
4000b414:	80 a7 00 1d 	cmp  %i4, %i5
4000b418:	02 80 00 3e 	be  4000b510 <_vfiprintf_r+0x1264>
4000b41c:	c2 07 bf 54 	ld  [ %fp + -172 ], %g1
4000b420:	83 2f 60 02 	sll  %i5, 2, %g1
4000b424:	94 10 00 15 	mov  %l5, %o2
4000b428:	d2 06 00 01 	ld  [ %i0 + %g1 ], %o1
4000b42c:	40 00 03 d3 	call  4000c378 <_fputwc_r>
4000b430:	90 10 00 12 	mov  %l2, %o0
4000b434:	80 a2 3f ff 	cmp  %o0, -1
4000b438:	32 bf ff f7 	bne,a   4000b414 <_vfiprintf_r+0x1168>
4000b43c:	ba 07 60 01 	inc  %i5
4000b440:	10 bf fc 18 	b  4000a4a0 <_vfiprintf_r+0x1f4>
4000b444:	c2 15 60 0c 	lduh  [ %l5 + 0xc ], %g1
4000b448:	94 07 bf 4c 	add  %fp, -180, %o2
4000b44c:	92 10 00 15 	mov  %l5, %o1
4000b450:	40 00 04 16 	call  4000c4a8 <__sfvwrite_r>
4000b454:	90 10 00 12 	mov  %l2, %o0
4000b458:	c0 27 bf 54 	clr  [ %fp + -172 ]
4000b45c:	80 a2 20 00 	cmp  %o0, 0
4000b460:	12 bf fc 0f 	bne  4000a49c <_vfiprintf_r+0x1f0>
4000b464:	c0 27 bf 50 	clr  [ %fp + -176 ]
4000b468:	b6 06 ff f0 	add  %i3, -16, %i3
4000b46c:	ba 10 20 01 	mov  1, %i5
4000b470:	82 10 20 00 	clr  %g1
4000b474:	80 a6 e0 10 	cmp  %i3, 0x10
4000b478:	14 bf ff d0 	bg  4000b3b8 <_vfiprintf_r+0x110c>
4000b47c:	86 07 bf 58 	add  %fp, -168, %g3
4000b480:	82 00 40 1b 	add  %g1, %i3, %g1
4000b484:	c4 07 bf 10 	ld  [ %fp + -240 ], %g2
4000b488:	f6 20 e0 04 	st  %i3, [ %g3 + 4 ]
4000b48c:	c4 20 c0 00 	st  %g2, [ %g3 ]
4000b490:	c2 27 bf 54 	st  %g1, [ %fp + -172 ]
4000b494:	80 a7 60 08 	cmp  %i5, 8
4000b498:	12 bf fe 05 	bne  4000acac <_vfiprintf_r+0xa00>
4000b49c:	fa 27 bf 50 	st  %i5, [ %fp + -176 ]
4000b4a0:	80 a0 60 00 	cmp  %g1, 0
4000b4a4:	02 bf fe 32 	be  4000ad6c <_vfiprintf_r+0xac0>
4000b4a8:	05 00 00 08 	sethi  %hi(0x2000), %g2
4000b4ac:	c6 05 60 60 	ld  [ %l5 + 0x60 ], %g3
4000b4b0:	80 88 c0 02 	btst  %g3, %g2
4000b4b4:	02 80 01 7a 	be  4000ba9c <_vfiprintf_r+0x17f0>
4000b4b8:	94 07 bf 4c 	add  %fp, -180, %o2
4000b4bc:	f6 07 bf 4c 	ld  [ %fp + -180 ], %i3
4000b4c0:	f0 06 e0 04 	ld  [ %i3 + 4 ], %i0
4000b4c4:	b3 36 20 02 	srl  %i0, 2, %i1
4000b4c8:	80 a6 60 00 	cmp  %i1, 0
4000b4cc:	02 80 01 a3 	be  4000bb58 <_vfiprintf_r+0x18ac>
4000b4d0:	f8 06 c0 00 	ld  [ %i3 ], %i4
4000b4d4:	10 80 00 05 	b  4000b4e8 <_vfiprintf_r+0x123c>
4000b4d8:	ba 10 20 00 	clr  %i5
4000b4dc:	80 a6 40 1d 	cmp  %i1, %i5
4000b4e0:	02 80 01 9e 	be  4000bb58 <_vfiprintf_r+0x18ac>
4000b4e4:	c2 07 bf 54 	ld  [ %fp + -172 ], %g1
4000b4e8:	83 2f 60 02 	sll  %i5, 2, %g1
4000b4ec:	94 10 00 15 	mov  %l5, %o2
4000b4f0:	d2 07 00 01 	ld  [ %i4 + %g1 ], %o1
4000b4f4:	40 00 03 a1 	call  4000c378 <_fputwc_r>
4000b4f8:	90 10 00 12 	mov  %l2, %o0
4000b4fc:	80 a2 3f ff 	cmp  %o0, -1
4000b500:	32 bf ff f7 	bne,a   4000b4dc <_vfiprintf_r+0x1230>
4000b504:	ba 07 60 01 	inc  %i5
4000b508:	10 bf fb e6 	b  4000a4a0 <_vfiprintf_r+0x1f4>
4000b50c:	c2 15 60 0c 	lduh  [ %l5 + 0xc ], %g1
4000b510:	ac 0d bf fc 	and  %l6, -4, %l6
4000b514:	82 20 40 16 	sub  %g1, %l6, %g1
4000b518:	c2 27 bf 54 	st  %g1, [ %fp + -172 ]
4000b51c:	80 a0 60 00 	cmp  %g1, 0
4000b520:	12 bf ff b6 	bne  4000b3f8 <_vfiprintf_r+0x114c>
4000b524:	b2 06 60 08 	add  %i1, 8, %i1
4000b528:	ba 10 20 01 	mov  1, %i5
4000b52c:	90 10 20 00 	clr  %o0
4000b530:	10 bf ff 9e 	b  4000b3a8 <_vfiprintf_r+0x10fc>
4000b534:	86 07 bf 58 	add  %fp, -168, %g3
4000b538:	94 07 bf 4c 	add  %fp, -180, %o2
4000b53c:	92 10 00 15 	mov  %l5, %o1
4000b540:	40 00 03 da 	call  4000c4a8 <__sfvwrite_r>
4000b544:	90 10 00 12 	mov  %l2, %o0
4000b548:	c0 27 bf 54 	clr  [ %fp + -172 ]
4000b54c:	80 a2 20 00 	cmp  %o0, 0
4000b550:	12 bf fb d3 	bne  4000a49c <_vfiprintf_r+0x1f0>
4000b554:	c0 27 bf 50 	clr  [ %fp + -176 ]
4000b558:	86 07 bf 60 	add  %fp, -160, %g3
4000b55c:	84 10 20 01 	mov  1, %g2
4000b560:	82 10 20 00 	clr  %g1
4000b564:	10 bf fd 90 	b  4000aba4 <_vfiprintf_r+0x8f8>
4000b568:	b2 07 bf 58 	add  %fp, -168, %i1
4000b56c:	7f ff e7 1d 	call  400051e0 <__swsetup_r>
4000b570:	90 10 00 12 	mov  %l2, %o0
4000b574:	80 a2 20 00 	cmp  %o0, 0
4000b578:	12 80 02 07 	bne  4000bd94 <_vfiprintf_r+0x1ae8>
4000b57c:	82 10 3f ff 	mov  -1, %g1
4000b580:	c2 15 60 0c 	lduh  [ %l5 + 0xc ], %g1
4000b584:	82 08 60 1a 	and  %g1, 0x1a, %g1
4000b588:	80 a0 60 0a 	cmp  %g1, 0xa
4000b58c:	12 bf fb 76 	bne  4000a364 <_vfiprintf_r+0xb8>
4000b590:	82 07 bf 58 	add  %fp, -168, %g1
4000b594:	c2 55 60 0e 	ldsh  [ %l5 + 0xe ], %g1
4000b598:	80 a0 60 00 	cmp  %g1, 0
4000b59c:	06 bf fb 72 	bl  4000a364 <_vfiprintf_r+0xb8>
4000b5a0:	82 07 bf 58 	add  %fp, -168, %g1
4000b5a4:	f6 07 bf 04 	ld  [ %fp + -252 ], %i3
4000b5a8:	b4 10 00 11 	mov  %l1, %i2
4000b5ac:	b2 10 00 15 	mov  %l5, %i1
4000b5b0:	40 00 02 1d 	call  4000be24 <__sbprintf>
4000b5b4:	91 e8 00 12 	restore  %g0, %l2, %o0
4000b5b8:	ba 10 00 10 	mov  %l0, %i5
4000b5bc:	c4 1f be f8 	ldd  [ %fp + -264 ], %g2
4000b5c0:	82 90 a0 00 	orcc  %g2, 0, %g1
4000b5c4:	12 80 01 10 	bne  4000ba04 <_vfiprintf_r+0x1758>
4000b5c8:	80 a0 e0 09 	cmp  %g3, 9
4000b5cc:	18 80 01 0e 	bgu  4000ba04 <_vfiprintf_r+0x1758>
4000b5d0:	c2 07 be fc 	ld  [ %fp + -260 ], %g1
4000b5d4:	82 00 60 30 	add  %g1, 0x30, %g1
4000b5d8:	a0 10 00 1d 	mov  %i5, %l0
4000b5dc:	c2 2f bf fb 	stb  %g1, [ %fp + -5 ]
4000b5e0:	b0 07 bf fb 	add  %fp, -5, %i0
4000b5e4:	82 10 20 01 	mov  1, %g1
4000b5e8:	10 bf fc 67 	b  4000a784 <_vfiprintf_r+0x4d8>
4000b5ec:	c2 27 bf 0c 	st  %g1, [ %fp + -244 ]
4000b5f0:	80 a0 60 00 	cmp  %g1, 0
4000b5f4:	02 bf fd a0 	be  4000ac74 <_vfiprintf_r+0x9c8>
4000b5f8:	05 00 00 08 	sethi  %hi(0x2000), %g2
4000b5fc:	c6 05 60 60 	ld  [ %l5 + 0x60 ], %g3
4000b600:	80 88 c0 02 	btst  %g3, %g2
4000b604:	02 bf fd 94 	be  4000ac54 <_vfiprintf_r+0x9a8>
4000b608:	f6 07 bf 4c 	ld  [ %fp + -180 ], %i3
4000b60c:	e6 06 e0 04 	ld  [ %i3 + 4 ], %l3
4000b610:	b9 34 e0 02 	srl  %l3, 2, %i4
4000b614:	80 a7 20 00 	cmp  %i4, 0
4000b618:	02 80 00 99 	be  4000b87c <_vfiprintf_r+0x15d0>
4000b61c:	f2 06 c0 00 	ld  [ %i3 ], %i1
4000b620:	10 80 00 05 	b  4000b634 <_vfiprintf_r+0x1388>
4000b624:	ba 10 20 00 	clr  %i5
4000b628:	80 a7 00 1d 	cmp  %i4, %i5
4000b62c:	02 80 00 94 	be  4000b87c <_vfiprintf_r+0x15d0>
4000b630:	c2 07 bf 54 	ld  [ %fp + -172 ], %g1
4000b634:	83 2f 60 02 	sll  %i5, 2, %g1
4000b638:	94 10 00 15 	mov  %l5, %o2
4000b63c:	d2 06 40 01 	ld  [ %i1 + %g1 ], %o1
4000b640:	40 00 03 4e 	call  4000c378 <_fputwc_r>
4000b644:	90 10 00 12 	mov  %l2, %o0
4000b648:	80 a2 3f ff 	cmp  %o0, -1
4000b64c:	32 bf ff f7 	bne,a   4000b628 <_vfiprintf_r+0x137c>
4000b650:	ba 07 60 01 	inc  %i5
4000b654:	10 bf fb 93 	b  4000a4a0 <_vfiprintf_r+0x1f4>
4000b658:	c2 15 60 0c 	lduh  [ %l5 + 0xc ], %g1
4000b65c:	b2 07 bf 60 	add  %fp, -160, %i1
4000b660:	c2 27 bf 58 	st  %g1, [ %fp + -168 ]
4000b664:	90 10 20 01 	mov  1, %o0
4000b668:	82 10 20 02 	mov  2, %g1
4000b66c:	84 02 20 01 	add  %o0, 1, %g2
4000b670:	c2 27 bf 5c 	st  %g1, [ %fp + -164 ]
4000b674:	10 bf fd 4c 	b  4000aba4 <_vfiprintf_r+0x8f8>
4000b678:	86 06 60 08 	add  %i1, 8, %g3
4000b67c:	a2 0c 7f fc 	and  %l1, -4, %l1
4000b680:	82 20 40 11 	sub  %g1, %l1, %g1
4000b684:	c2 27 bf 54 	st  %g1, [ %fp + -172 ]
4000b688:	80 a0 60 00 	cmp  %g1, 0
4000b68c:	12 bf fb 72 	bne  4000a454 <_vfiprintf_r+0x1a8>
4000b690:	b0 06 20 08 	add  %i0, 8, %i0
4000b694:	c4 07 bf 08 	ld  [ %fp + -248 ], %g2
4000b698:	c0 27 bf 50 	clr  [ %fp + -176 ]
4000b69c:	84 00 80 1b 	add  %g2, %i3, %g2
4000b6a0:	c2 0f 20 01 	ldub  [ %i4 + 1 ], %g1
4000b6a4:	b2 07 bf 58 	add  %fp, -168, %i1
4000b6a8:	c4 27 bf 08 	st  %g2, [ %fp + -248 ]
4000b6ac:	10 bf fb 9c 	b  4000a51c <_vfiprintf_r+0x270>
4000b6b0:	83 28 60 18 	sll  %g1, 0x18, %g1
4000b6b4:	ac 0d bf fc 	and  %l6, -4, %l6
4000b6b8:	82 20 40 16 	sub  %g1, %l6, %g1
4000b6bc:	c2 27 bf 54 	st  %g1, [ %fp + -172 ]
4000b6c0:	80 a0 60 00 	cmp  %g1, 0
4000b6c4:	12 bf fb d7 	bne  4000a620 <_vfiprintf_r+0x374>
4000b6c8:	b2 06 60 08 	add  %i1, 8, %i1
4000b6cc:	10 bf fe ab 	b  4000b178 <_vfiprintf_r+0xecc>
4000b6d0:	c2 07 be f4 	ld  [ %fp + -268 ], %g1
4000b6d4:	ac 0d bf fc 	and  %l6, -4, %l6
4000b6d8:	82 20 40 16 	sub  %g1, %l6, %g1
4000b6dc:	c2 27 bf 54 	st  %g1, [ %fp + -172 ]
4000b6e0:	80 a0 60 00 	cmp  %g1, 0
4000b6e4:	12 bf fd 13 	bne  4000ab30 <_vfiprintf_r+0x884>
4000b6e8:	b2 06 60 08 	add  %i1, 8, %i1
4000b6ec:	86 07 bf 60 	add  %fp, -160, %g3
4000b6f0:	84 10 20 01 	mov  1, %g2
4000b6f4:	90 10 20 00 	clr  %o0
4000b6f8:	10 bf fd 2b 	b  4000aba4 <_vfiprintf_r+0x8f8>
4000b6fc:	b2 07 bf 58 	add  %fp, -168, %i1
4000b700:	80 8c 20 10 	btst  0x10, %l0
4000b704:	12 80 00 0f 	bne  4000b740 <_vfiprintf_r+0x1494>
4000b708:	82 00 a0 04 	add  %g2, 4, %g1
4000b70c:	80 8c 20 40 	btst  0x40, %l0
4000b710:	02 80 00 0a 	be  4000b738 <_vfiprintf_r+0x148c>
4000b714:	80 8c 22 00 	btst  0x200, %l0
4000b718:	c4 10 a0 02 	lduh  [ %g2 + 2 ], %g2
4000b71c:	c2 27 bf 04 	st  %g1, [ %fp + -252 ]
4000b720:	86 10 00 02 	mov  %g2, %g3
4000b724:	ba 0c 3b ff 	and  %l0, -1025, %i5
4000b728:	84 10 20 00 	clr  %g2
4000b72c:	82 10 20 00 	clr  %g1
4000b730:	10 bf fc 4b 	b  4000a85c <_vfiprintf_r+0x5b0>
4000b734:	c4 3f be f8 	std  %g2, [ %fp + -264 ]
4000b738:	32 80 01 70 	bne,a   4000bcf8 <_vfiprintf_r+0x1a4c>
4000b73c:	c4 08 a0 03 	ldub  [ %g2 + 3 ], %g2
4000b740:	c4 00 80 00 	ld  [ %g2 ], %g2
4000b744:	ba 0c 3b ff 	and  %l0, -1025, %i5
4000b748:	86 10 00 02 	mov  %g2, %g3
4000b74c:	c2 27 bf 04 	st  %g1, [ %fp + -252 ]
4000b750:	84 10 20 00 	clr  %g2
4000b754:	82 10 20 00 	clr  %g1
4000b758:	10 bf fc 41 	b  4000a85c <_vfiprintf_r+0x5b0>
4000b75c:	c4 3f be f8 	std  %g2, [ %fp + -264 ]
4000b760:	80 8c 20 10 	btst  0x10, %l0
4000b764:	12 80 00 10 	bne  4000b7a4 <_vfiprintf_r+0x14f8>
4000b768:	82 00 a0 04 	add  %g2, 4, %g1
4000b76c:	80 8c 20 40 	btst  0x40, %l0
4000b770:	02 80 00 0b 	be  4000b79c <_vfiprintf_r+0x14f0>
4000b774:	80 8c 22 00 	btst  0x200, %l0
4000b778:	c4 00 80 00 	ld  [ %g2 ], %g2
4000b77c:	c2 27 bf 04 	st  %g1, [ %fp + -252 ]
4000b780:	83 28 a0 10 	sll  %g2, 0x10, %g1
4000b784:	85 38 60 1f 	sra  %g1, 0x1f, %g2
4000b788:	83 38 60 10 	sra  %g1, 0x10, %g1
4000b78c:	c4 27 be f8 	st  %g2, [ %fp + -264 ]
4000b790:	c2 27 be fc 	st  %g1, [ %fp + -260 ]
4000b794:	10 bf fb ed 	b  4000a748 <_vfiprintf_r+0x49c>
4000b798:	82 10 00 02 	mov  %g2, %g1
4000b79c:	32 80 01 4f 	bne,a   4000bcd8 <_vfiprintf_r+0x1a2c>
4000b7a0:	c4 00 80 00 	ld  [ %g2 ], %g2
4000b7a4:	c6 00 80 00 	ld  [ %g2 ], %g3
4000b7a8:	c2 27 bf 04 	st  %g1, [ %fp + -252 ]
4000b7ac:	85 38 e0 1f 	sra  %g3, 0x1f, %g2
4000b7b0:	c6 27 be fc 	st  %g3, [ %fp + -260 ]
4000b7b4:	82 10 00 02 	mov  %g2, %g1
4000b7b8:	80 a0 60 00 	cmp  %g1, 0
4000b7bc:	16 bf fb e6 	bge  4000a754 <_vfiprintf_r+0x4a8>
4000b7c0:	c4 27 be f8 	st  %g2, [ %fp + -264 ]
4000b7c4:	f8 1f be f8 	ldd  [ %fp + -264 ], %i4
4000b7c8:	82 10 20 2d 	mov  0x2d, %g1
4000b7cc:	86 a0 00 1d 	subcc  %g0, %i5, %g3
4000b7d0:	c2 2f bf 1f 	stb  %g1, [ %fp + -225 ]
4000b7d4:	84 60 00 1c 	subx  %g0, %i4, %g2
4000b7d8:	ba 10 00 10 	mov  %l0, %i5
4000b7dc:	c4 3f be f8 	std  %g2, [ %fp + -264 ]
4000b7e0:	10 bf fc 20 	b  4000a860 <_vfiprintf_r+0x5b4>
4000b7e4:	82 10 20 01 	mov  1, %g1
4000b7e8:	80 8f 60 10 	btst  0x10, %i5
4000b7ec:	02 80 00 31 	be  4000b8b0 <_vfiprintf_r+0x1604>
4000b7f0:	84 00 60 04 	add  %g1, 4, %g2
4000b7f4:	c6 00 40 00 	ld  [ %g1 ], %g3
4000b7f8:	9a 10 00 03 	mov  %g3, %o5
4000b7fc:	98 10 20 00 	clr  %o4
4000b800:	82 10 20 01 	mov  1, %g1
4000b804:	d8 3f be f8 	std  %o4, [ %fp + -264 ]
4000b808:	10 bf fc 15 	b  4000a85c <_vfiprintf_r+0x5b0>
4000b80c:	c4 27 bf 04 	st  %g2, [ %fp + -252 ]
4000b810:	80 a0 60 00 	cmp  %g1, 0
4000b814:	02 bf fc a4 	be  4000aaa4 <_vfiprintf_r+0x7f8>
4000b818:	05 00 00 08 	sethi  %hi(0x2000), %g2
4000b81c:	c6 05 60 60 	ld  [ %l5 + 0x60 ], %g3
4000b820:	80 88 c0 02 	btst  %g3, %g2
4000b824:	02 bf fc 98 	be  4000aa84 <_vfiprintf_r+0x7d8>
4000b828:	e6 07 bf 4c 	ld  [ %fp + -180 ], %l3
4000b82c:	ec 04 e0 04 	ld  [ %l3 + 4 ], %l6
4000b830:	b9 35 a0 02 	srl  %l6, 2, %i4
4000b834:	80 a7 20 00 	cmp  %i4, 0
4000b838:	02 80 00 aa 	be  4000bae0 <_vfiprintf_r+0x1834>
4000b83c:	f2 04 c0 00 	ld  [ %l3 ], %i1
4000b840:	10 80 00 05 	b  4000b854 <_vfiprintf_r+0x15a8>
4000b844:	ba 10 20 00 	clr  %i5
4000b848:	80 a7 00 1d 	cmp  %i4, %i5
4000b84c:	02 80 00 a5 	be  4000bae0 <_vfiprintf_r+0x1834>
4000b850:	c2 07 bf 54 	ld  [ %fp + -172 ], %g1
4000b854:	83 2f 60 02 	sll  %i5, 2, %g1
4000b858:	94 10 00 15 	mov  %l5, %o2
4000b85c:	d2 06 40 01 	ld  [ %i1 + %g1 ], %o1
4000b860:	40 00 02 c6 	call  4000c378 <_fputwc_r>
4000b864:	90 10 00 12 	mov  %l2, %o0
4000b868:	80 a2 3f ff 	cmp  %o0, -1
4000b86c:	32 bf ff f7 	bne,a   4000b848 <_vfiprintf_r+0x159c>
4000b870:	ba 07 60 01 	inc  %i5
4000b874:	10 bf fb 0b 	b  4000a4a0 <_vfiprintf_r+0x1f4>
4000b878:	c2 15 60 0c 	lduh  [ %l5 + 0xc ], %g1
4000b87c:	a6 0c ff fc 	and  %l3, -4, %l3
4000b880:	82 20 40 13 	sub  %g1, %l3, %g1
4000b884:	c2 27 bf 54 	st  %g1, [ %fp + -172 ]
4000b888:	80 a0 60 00 	cmp  %g1, 0
4000b88c:	12 bf ff 60 	bne  4000b60c <_vfiprintf_r+0x1360>
4000b890:	b6 06 e0 08 	add  %i3, 8, %i3
4000b894:	10 bf fc f9 	b  4000ac78 <_vfiprintf_r+0x9cc>
4000b898:	c2 07 bf 0c 	ld  [ %fp + -244 ], %g1
4000b89c:	84 01 20 01 	add  %g4, 1, %g2
4000b8a0:	86 07 60 08 	add  %i5, 8, %g3
4000b8a4:	90 10 00 04 	mov  %g4, %o0
4000b8a8:	10 bf fc c3 	b  4000abb4 <_vfiprintf_r+0x908>
4000b8ac:	b2 10 00 1d 	mov  %i5, %i1
4000b8b0:	80 8f 60 40 	btst  0x40, %i5
4000b8b4:	02 80 00 cf 	be  4000bbf0 <_vfiprintf_r+0x1944>
4000b8b8:	80 8f 62 00 	btst  0x200, %i5
4000b8bc:	10 bf ff cf 	b  4000b7f8 <_vfiprintf_r+0x154c>
4000b8c0:	c6 10 60 02 	lduh  [ %g1 + 2 ], %g3
4000b8c4:	82 27 00 0f 	sub  %i4, %o7, %g1
4000b8c8:	a0 10 00 1d 	mov  %i5, %l0
4000b8cc:	c2 27 bf 0c 	st  %g1, [ %fp + -244 ]
4000b8d0:	82 10 20 30 	mov  0x30, %g1
4000b8d4:	c2 2e 3f ff 	stb  %g1, [ %i0 + -1 ]
4000b8d8:	10 bf fb ab 	b  4000a784 <_vfiprintf_r+0x4d8>
4000b8dc:	b0 10 00 0f 	mov  %o7, %i0
4000b8e0:	c6 07 bf 08 	ld  [ %fp + -248 ], %g3
4000b8e4:	85 38 e0 1f 	sra  %g3, 0x1f, %g2
4000b8e8:	c6 20 60 04 	st  %g3, [ %g1 + 4 ]
4000b8ec:	10 bf fa b3 	b  4000a3b8 <_vfiprintf_r+0x10c>
4000b8f0:	c4 20 40 00 	st  %g2, [ %g1 ]
4000b8f4:	c4 0c 40 00 	ldub  [ %l1 ], %g2
4000b8f8:	80 a0 e0 00 	cmp  %g3, 0
4000b8fc:	02 bf fb 13 	be  4000a548 <_vfiprintf_r+0x29c>
4000b900:	83 28 a0 18 	sll  %g2, 0x18, %g1
4000b904:	10 bf fb 11 	b  4000a548 <_vfiprintf_r+0x29c>
4000b908:	a0 14 24 00 	or  %l0, 0x400, %l0
4000b90c:	80 a0 60 00 	cmp  %g1, 0
4000b910:	32 bf fc 9c 	bne,a   4000ab80 <_vfiprintf_r+0x8d4>
4000b914:	82 07 bf 20 	add  %fp, -224, %g1
4000b918:	90 10 20 00 	clr  %o0
4000b91c:	86 07 bf 60 	add  %fp, -160, %g3
4000b920:	84 10 20 01 	mov  1, %g2
4000b924:	10 bf fc a4 	b  4000abb4 <_vfiprintf_r+0x908>
4000b928:	b2 07 bf 58 	add  %fp, -168, %i1
4000b92c:	c2 07 be e4 	ld  [ %fp + -284 ], %g1
4000b930:	c2 27 be ec 	st  %g1, [ %fp + -276 ]
4000b934:	80 8c 20 20 	btst  0x20, %l0
4000b938:	02 80 00 21 	be  4000b9bc <_vfiprintf_r+0x1710>
4000b93c:	ba 10 20 78 	mov  0x78, %i5
4000b940:	c2 07 bf 04 	ld  [ %fp + -252 ], %g1
4000b944:	92 10 00 01 	mov  %g1, %o1
4000b948:	82 00 60 08 	add  %g1, 8, %g1
4000b94c:	94 10 20 08 	mov  8, %o2
4000b950:	90 07 bf 40 	add  %fp, -192, %o0
4000b954:	7f ff da 39 	call  40002238 <memcpy>
4000b958:	c2 27 bf 04 	st  %g1, [ %fp + -252 ]
4000b95c:	c4 1f bf 40 	ldd  [ %fp + -192 ], %g2
4000b960:	c4 3f be f8 	std  %g2, [ %fp + -264 ]
4000b964:	80 90 80 03 	orcc  %g2, %g3, %g0
4000b968:	02 80 00 04 	be  4000b978 <_vfiprintf_r+0x16cc>
4000b96c:	80 8c 20 01 	btst  1, %l0
4000b970:	32 80 00 05 	bne,a   4000b984 <_vfiprintf_r+0x16d8>
4000b974:	82 10 20 30 	mov  0x30, %g1
4000b978:	ba 0c 3b ff 	and  %l0, -1025, %i5
4000b97c:	10 bf fb b8 	b  4000a85c <_vfiprintf_r+0x5b0>
4000b980:	82 10 20 02 	mov  2, %g1
4000b984:	fa 2f bf 21 	stb  %i5, [ %fp + -223 ]
4000b988:	c2 2f bf 20 	stb  %g1, [ %fp + -224 ]
4000b98c:	a0 14 20 02 	or  %l0, 2, %l0
4000b990:	82 10 20 02 	mov  2, %g1
4000b994:	10 bf fb b2 	b  4000a85c <_vfiprintf_r+0x5b0>
4000b998:	ba 0c 3b ff 	and  %l0, -1025, %i5
4000b99c:	10 bf fc 16 	b  4000a9f4 <_vfiprintf_r+0x748>
4000b9a0:	ba 10 00 10 	mov  %l0, %i5
4000b9a4:	03 10 00 3b 	sethi  %hi(0x4000ec00), %g1
4000b9a8:	82 10 61 30 	or  %g1, 0x130, %g1	! 4000ed30 <_global_impure_ptr+0x3c>
4000b9ac:	c2 27 be ec 	st  %g1, [ %fp + -276 ]
4000b9b0:	80 8c 20 20 	btst  0x20, %l0
4000b9b4:	12 bf ff e3 	bne  4000b940 <_vfiprintf_r+0x1694>
4000b9b8:	ba 10 20 58 	mov  0x58, %i5
4000b9bc:	c4 07 bf 04 	ld  [ %fp + -252 ], %g2
4000b9c0:	80 8c 20 10 	btst  0x10, %l0
4000b9c4:	12 80 00 30 	bne  4000ba84 <_vfiprintf_r+0x17d8>
4000b9c8:	82 00 a0 04 	add  %g2, 4, %g1
4000b9cc:	80 8c 20 40 	btst  0x40, %l0
4000b9d0:	02 80 00 2b 	be  4000ba7c <_vfiprintf_r+0x17d0>
4000b9d4:	80 8c 22 00 	btst  0x200, %l0
4000b9d8:	c4 10 a0 02 	lduh  [ %g2 + 2 ], %g2
4000b9dc:	c2 27 bf 04 	st  %g1, [ %fp + -252 ]
4000b9e0:	86 10 00 02 	mov  %g2, %g3
4000b9e4:	84 10 20 00 	clr  %g2
4000b9e8:	10 bf ff df 	b  4000b964 <_vfiprintf_r+0x16b8>
4000b9ec:	c4 3f be f8 	std  %g2, [ %fp + -264 ]
4000b9f0:	90 10 00 18 	mov  %i0, %o0
4000b9f4:	7f ff f9 0a 	call  40009e1c <strlen>
4000b9f8:	b6 10 20 00 	clr  %i3
4000b9fc:	10 bf fb 62 	b  4000a784 <_vfiprintf_r+0x4d8>
4000ba00:	d0 27 bf 0c 	st  %o0, [ %fp + -244 ]
4000ba04:	80 8f 64 00 	btst  0x400, %i5
4000ba08:	12 80 00 7e 	bne  4000bc00 <_vfiprintf_r+0x1954>
4000ba0c:	b8 07 bf fc 	add  %fp, -4, %i4
4000ba10:	a6 10 00 11 	mov  %l1, %l3
4000ba14:	b0 10 00 1c 	mov  %i4, %i0
4000ba18:	e0 1f be f8 	ldd  [ %fp + -264 ], %l0
4000ba1c:	94 10 20 00 	clr  %o2
4000ba20:	96 10 20 0a 	mov  0xa, %o3
4000ba24:	90 10 00 10 	mov  %l0, %o0
4000ba28:	40 00 0b 90 	call  4000e868 <__umoddi3>
4000ba2c:	92 10 00 11 	mov  %l1, %o1
4000ba30:	82 02 60 30 	add  %o1, 0x30, %g1
4000ba34:	90 10 00 10 	mov  %l0, %o0
4000ba38:	92 10 00 11 	mov  %l1, %o1
4000ba3c:	94 10 20 00 	clr  %o2
4000ba40:	96 10 20 0a 	mov  0xa, %o3
4000ba44:	40 00 0a b4 	call  4000e514 <__udivdi3>
4000ba48:	c2 2e 3f ff 	stb  %g1, [ %i0 + -1 ]
4000ba4c:	b0 06 3f ff 	add  %i0, -1, %i0
4000ba50:	84 10 00 11 	mov  %l1, %g2
4000ba54:	80 a4 20 00 	cmp  %l0, 0
4000ba58:	a2 10 00 09 	mov  %o1, %l1
4000ba5c:	12 bf ff f0 	bne  4000ba1c <_vfiprintf_r+0x1770>
4000ba60:	a0 10 00 08 	mov  %o0, %l0
4000ba64:	80 a0 a0 09 	cmp  %g2, 9
4000ba68:	18 bf ff ee 	bgu  4000ba20 <_vfiprintf_r+0x1774>
4000ba6c:	94 10 20 00 	clr  %o2
4000ba70:	e0 3f be f8 	std  %l0, [ %fp + -264 ]
4000ba74:	10 bf fc e3 	b  4000ae00 <_vfiprintf_r+0xb54>
4000ba78:	a2 10 00 13 	mov  %l3, %l1
4000ba7c:	32 80 00 a6 	bne,a   4000bd14 <_vfiprintf_r+0x1a68>
4000ba80:	c4 08 a0 03 	ldub  [ %g2 + 3 ], %g2
4000ba84:	c4 00 80 00 	ld  [ %g2 ], %g2
4000ba88:	c2 27 bf 04 	st  %g1, [ %fp + -252 ]
4000ba8c:	86 10 00 02 	mov  %g2, %g3
4000ba90:	84 10 20 00 	clr  %g2
4000ba94:	10 bf ff b4 	b  4000b964 <_vfiprintf_r+0x16b8>
4000ba98:	c4 3f be f8 	std  %g2, [ %fp + -264 ]
4000ba9c:	92 10 00 15 	mov  %l5, %o1
4000baa0:	40 00 02 82 	call  4000c4a8 <__sfvwrite_r>
4000baa4:	90 10 00 12 	mov  %l2, %o0
4000baa8:	c0 27 bf 54 	clr  [ %fp + -172 ]
4000baac:	80 a2 20 00 	cmp  %o0, 0
4000bab0:	02 bf fc af 	be  4000ad6c <_vfiprintf_r+0xac0>
4000bab4:	c0 27 bf 50 	clr  [ %fp + -176 ]
4000bab8:	10 bf fa 7a 	b  4000a4a0 <_vfiprintf_r+0x1f4>
4000babc:	c2 15 60 0c 	lduh  [ %l5 + 0xc ], %g1
4000bac0:	a0 14 20 20 	or  %l0, 0x20, %l0
4000bac4:	a2 04 60 01 	inc  %l1
4000bac8:	10 bf fa a0 	b  4000a548 <_vfiprintf_r+0x29c>
4000bacc:	83 28 a0 18 	sll  %g2, 0x18, %g1
4000bad0:	a0 14 22 00 	or  %l0, 0x200, %l0
4000bad4:	a2 04 60 01 	inc  %l1
4000bad8:	10 bf fa 9c 	b  4000a548 <_vfiprintf_r+0x29c>
4000badc:	83 28 a0 18 	sll  %g2, 0x18, %g1
4000bae0:	ac 0d bf fc 	and  %l6, -4, %l6
4000bae4:	82 20 40 16 	sub  %g1, %l6, %g1
4000bae8:	c2 27 bf 54 	st  %g1, [ %fp + -172 ]
4000baec:	80 a0 60 00 	cmp  %g1, 0
4000baf0:	12 bf ff 4f 	bne  4000b82c <_vfiprintf_r+0x1580>
4000baf4:	a6 04 e0 08 	add  %l3, 8, %l3
4000baf8:	10 bf fb ec 	b  4000aaa8 <_vfiprintf_r+0x7fc>
4000bafc:	c2 4f bf 1f 	ldsb  [ %fp + -225 ], %g1
4000bb00:	80 a6 e0 06 	cmp  %i3, 6
4000bb04:	18 80 00 72 	bgu  4000bccc <_vfiprintf_r+0x1a20>
4000bb08:	f6 27 bf 0c 	st  %i3, [ %fp + -244 ]
4000bb0c:	31 10 00 3b 	sethi  %hi(0x4000ec00), %i0
4000bb10:	e8 07 bf 0c 	ld  [ %fp + -244 ], %l4
4000bb14:	10 bf fa 9f 	b  4000a590 <_vfiprintf_r+0x2e4>
4000bb18:	b0 16 21 48 	or  %i0, 0x148, %i0
4000bb1c:	94 07 bf 4c 	add  %fp, -180, %o2
4000bb20:	92 10 00 15 	mov  %l5, %o1
4000bb24:	40 00 02 61 	call  4000c4a8 <__sfvwrite_r>
4000bb28:	90 10 00 12 	mov  %l2, %o0
4000bb2c:	c0 27 bf 54 	clr  [ %fp + -172 ]
4000bb30:	80 a2 20 00 	cmp  %o0, 0
4000bb34:	12 bf fa 5a 	bne  4000a49c <_vfiprintf_r+0x1f0>
4000bb38:	c0 27 bf 50 	clr  [ %fp + -176 ]
4000bb3c:	86 07 bf 60 	add  %fp, -160, %g3
4000bb40:	84 10 20 01 	mov  1, %g2
4000bb44:	82 10 20 00 	clr  %g1
4000bb48:	10 bf fc 1b 	b  4000abb4 <_vfiprintf_r+0x908>
4000bb4c:	b2 07 bf 58 	add  %fp, -168, %i1
4000bb50:	10 bf fa 1a 	b  4000a3b8 <_vfiprintf_r+0x10c>
4000bb54:	c4 20 40 00 	st  %g2, [ %g1 ]
4000bb58:	b0 0e 3f fc 	and  %i0, -4, %i0
4000bb5c:	82 20 40 18 	sub  %g1, %i0, %g1
4000bb60:	c2 27 bf 54 	st  %g1, [ %fp + -172 ]
4000bb64:	80 a0 60 00 	cmp  %g1, 0
4000bb68:	12 bf fe 56 	bne  4000b4c0 <_vfiprintf_r+0x1214>
4000bb6c:	b6 06 e0 08 	add  %i3, 8, %i3
4000bb70:	10 bf fc 80 	b  4000ad70 <_vfiprintf_r+0xac4>
4000bb74:	80 a6 80 14 	cmp  %i2, %l4
4000bb78:	c2 07 bf 54 	ld  [ %fp + -172 ], %g1
4000bb7c:	80 a0 60 00 	cmp  %g1, 0
4000bb80:	22 bf fa 48 	be,a   4000a4a0 <_vfiprintf_r+0x1f4>
4000bb84:	c2 15 60 0c 	lduh  [ %l5 + 0xc ], %g1
4000bb88:	c6 05 60 60 	ld  [ %l5 + 0x60 ], %g3
4000bb8c:	05 00 00 08 	sethi  %hi(0x2000), %g2
4000bb90:	80 88 c0 02 	btst  %g3, %g2
4000bb94:	02 80 00 8c 	be  4000bdc4 <_vfiprintf_r+0x1b18>
4000bb98:	94 07 bf 4c 	add  %fp, -180, %o2
4000bb9c:	f4 07 bf 4c 	ld  [ %fp + -180 ], %i2
4000bba0:	f2 06 a0 04 	ld  [ %i2 + 4 ], %i1
4000bba4:	b9 36 60 02 	srl  %i1, 2, %i4
4000bba8:	80 a7 20 00 	cmp  %i4, 0
4000bbac:	02 80 00 7e 	be  4000bda4 <_vfiprintf_r+0x1af8>
4000bbb0:	f6 06 80 00 	ld  [ %i2 ], %i3
4000bbb4:	10 80 00 05 	b  4000bbc8 <_vfiprintf_r+0x191c>
4000bbb8:	ba 10 20 00 	clr  %i5
4000bbbc:	80 a7 00 1d 	cmp  %i4, %i5
4000bbc0:	02 80 00 79 	be  4000bda4 <_vfiprintf_r+0x1af8>
4000bbc4:	c2 07 bf 54 	ld  [ %fp + -172 ], %g1
4000bbc8:	83 2f 60 02 	sll  %i5, 2, %g1
4000bbcc:	94 10 00 15 	mov  %l5, %o2
4000bbd0:	d2 06 c0 01 	ld  [ %i3 + %g1 ], %o1
4000bbd4:	40 00 01 e9 	call  4000c378 <_fputwc_r>
4000bbd8:	90 10 00 12 	mov  %l2, %o0
4000bbdc:	80 a2 3f ff 	cmp  %o0, -1
4000bbe0:	32 bf ff f7 	bne,a   4000bbbc <_vfiprintf_r+0x1910>
4000bbe4:	ba 07 60 01 	inc  %i5
4000bbe8:	10 bf fa 2e 	b  4000a4a0 <_vfiprintf_r+0x1f4>
4000bbec:	c2 15 60 0c 	lduh  [ %l5 + 0xc ], %g1
4000bbf0:	22 bf ff 02 	be,a   4000b7f8 <_vfiprintf_r+0x154c>
4000bbf4:	c6 00 40 00 	ld  [ %g1 ], %g3
4000bbf8:	10 bf ff 00 	b  4000b7f8 <_vfiprintf_r+0x154c>
4000bbfc:	c6 08 60 03 	ldub  [ %g1 + 3 ], %g3
4000bc00:	ae 10 00 15 	mov  %l5, %l7
4000bc04:	a0 10 20 00 	clr  %l0
4000bc08:	b0 10 00 1c 	mov  %i4, %i0
4000bc0c:	ec 07 be dc 	ld  [ %fp + -292 ], %l6
4000bc10:	e6 07 be e8 	ld  [ %fp + -280 ], %l3
4000bc14:	e8 1f be f8 	ldd  [ %fp + -264 ], %l4
4000bc18:	94 10 20 00 	clr  %o2
4000bc1c:	96 10 20 0a 	mov  0xa, %o3
4000bc20:	90 10 00 14 	mov  %l4, %o0
4000bc24:	40 00 0b 11 	call  4000e868 <__umoddi3>
4000bc28:	92 10 00 15 	mov  %l5, %o1
4000bc2c:	92 02 60 30 	add  %o1, 0x30, %o1
4000bc30:	d2 2e 3f ff 	stb  %o1, [ %i0 + -1 ]
4000bc34:	a0 04 20 01 	inc  %l0
4000bc38:	c2 4c c0 00 	ldsb  [ %l3 ], %g1
4000bc3c:	80 a0 40 10 	cmp  %g1, %l0
4000bc40:	12 80 00 05 	bne  4000bc54 <_vfiprintf_r+0x19a8>
4000bc44:	b0 06 3f ff 	add  %i0, -1, %i0
4000bc48:	80 a0 60 7f 	cmp  %g1, 0x7f
4000bc4c:	12 80 00 0d 	bne  4000bc80 <_vfiprintf_r+0x19d4>
4000bc50:	80 a5 20 00 	cmp  %l4, 0
4000bc54:	94 10 20 00 	clr  %o2
4000bc58:	96 10 20 0a 	mov  0xa, %o3
4000bc5c:	90 10 00 14 	mov  %l4, %o0
4000bc60:	40 00 0a 2d 	call  4000e514 <__udivdi3>
4000bc64:	92 10 00 15 	mov  %l5, %o1
4000bc68:	80 a5 20 00 	cmp  %l4, 0
4000bc6c:	02 80 00 40 	be  4000bd6c <_vfiprintf_r+0x1ac0>
4000bc70:	80 a5 60 09 	cmp  %l5, 9
4000bc74:	a8 10 00 08 	mov  %o0, %l4
4000bc78:	10 bf ff e8 	b  4000bc18 <_vfiprintf_r+0x196c>
4000bc7c:	aa 10 00 09 	mov  %o1, %l5
4000bc80:	12 80 00 2a 	bne  4000bd28 <_vfiprintf_r+0x1a7c>
4000bc84:	80 a5 60 09 	cmp  %l5, 9
4000bc88:	18 80 00 29 	bgu  4000bd2c <_vfiprintf_r+0x1a80>
4000bc8c:	94 10 00 16 	mov  %l6, %o2
4000bc90:	e8 3f be f8 	std  %l4, [ %fp + -264 ]
4000bc94:	e6 27 be e8 	st  %l3, [ %fp + -280 ]
4000bc98:	10 bf fc 5a 	b  4000ae00 <_vfiprintf_r+0xb54>
4000bc9c:	aa 10 00 17 	mov  %l7, %l5
4000bca0:	ac 0d bf fc 	and  %l6, -4, %l6
4000bca4:	82 20 40 16 	sub  %g1, %l6, %g1
4000bca8:	c2 27 bf 54 	st  %g1, [ %fp + -172 ]
4000bcac:	80 a0 60 00 	cmp  %g1, 0
4000bcb0:	12 bf fc ac 	bne  4000af60 <_vfiprintf_r+0xcb4>
4000bcb4:	a6 04 e0 08 	add  %l3, 8, %l3
4000bcb8:	86 07 bf 60 	add  %fp, -160, %g3
4000bcbc:	84 10 20 01 	mov  1, %g2
4000bcc0:	90 10 20 00 	clr  %o0
4000bcc4:	10 bf fb bc 	b  4000abb4 <_vfiprintf_r+0x908>
4000bcc8:	b2 07 bf 58 	add  %fp, -168, %i1
4000bccc:	82 10 20 06 	mov  6, %g1
4000bcd0:	10 bf ff 8f 	b  4000bb0c <_vfiprintf_r+0x1860>
4000bcd4:	c2 27 bf 0c 	st  %g1, [ %fp + -244 ]
4000bcd8:	c2 27 bf 04 	st  %g1, [ %fp + -252 ]
4000bcdc:	83 28 a0 18 	sll  %g2, 0x18, %g1
4000bce0:	85 38 60 1f 	sra  %g1, 0x1f, %g2
4000bce4:	83 38 60 18 	sra  %g1, 0x18, %g1
4000bce8:	c4 27 be f8 	st  %g2, [ %fp + -264 ]
4000bcec:	c2 27 be fc 	st  %g1, [ %fp + -260 ]
4000bcf0:	10 bf fa 96 	b  4000a748 <_vfiprintf_r+0x49c>
4000bcf4:	82 10 00 02 	mov  %g2, %g1
4000bcf8:	c2 27 bf 04 	st  %g1, [ %fp + -252 ]
4000bcfc:	86 10 00 02 	mov  %g2, %g3
4000bd00:	ba 0c 3b ff 	and  %l0, -1025, %i5
4000bd04:	84 10 20 00 	clr  %g2
4000bd08:	82 10 20 00 	clr  %g1
4000bd0c:	10 bf fa d4 	b  4000a85c <_vfiprintf_r+0x5b0>
4000bd10:	c4 3f be f8 	std  %g2, [ %fp + -264 ]
4000bd14:	c2 27 bf 04 	st  %g1, [ %fp + -252 ]
4000bd18:	86 10 00 02 	mov  %g2, %g3
4000bd1c:	84 10 20 00 	clr  %g2
4000bd20:	10 bf ff 11 	b  4000b964 <_vfiprintf_r+0x16b8>
4000bd24:	c4 3f be f8 	std  %g2, [ %fp + -264 ]
4000bd28:	94 10 00 16 	mov  %l6, %o2
4000bd2c:	d2 07 be e0 	ld  [ %fp + -288 ], %o1
4000bd30:	b0 26 00 16 	sub  %i0, %l6, %i0
4000bd34:	7f ff f8 65 	call  40009ec8 <strncpy>
4000bd38:	90 10 00 18 	mov  %i0, %o0
4000bd3c:	c2 4c e0 01 	ldsb  [ %l3 + 1 ], %g1
4000bd40:	80 a0 00 01 	cmp  %g0, %g1
4000bd44:	90 10 00 14 	mov  %l4, %o0
4000bd48:	92 10 00 15 	mov  %l5, %o1
4000bd4c:	94 10 20 00 	clr  %o2
4000bd50:	96 10 20 0a 	mov  0xa, %o3
4000bd54:	a6 40 00 13 	addx  %g0, %l3, %l3
4000bd58:	40 00 09 ef 	call  4000e514 <__udivdi3>
4000bd5c:	a0 10 20 00 	clr  %l0
4000bd60:	a8 10 00 08 	mov  %o0, %l4
4000bd64:	10 bf ff ad 	b  4000bc18 <_vfiprintf_r+0x196c>
4000bd68:	aa 10 00 09 	mov  %o1, %l5
4000bd6c:	28 bf ff ca 	bleu,a   4000bc94 <_vfiprintf_r+0x19e8>
4000bd70:	e8 3f be f8 	std  %l4, [ %fp + -264 ]
4000bd74:	a8 10 00 08 	mov  %o0, %l4
4000bd78:	10 bf ff a8 	b  4000bc18 <_vfiprintf_r+0x196c>
4000bd7c:	aa 10 00 09 	mov  %o1, %l5
4000bd80:	f6 27 bf 0c 	st  %i3, [ %fp + -244 ]
4000bd84:	10 bf fa 80 	b  4000a784 <_vfiprintf_r+0x4d8>
4000bd88:	b6 10 20 00 	clr  %i3
4000bd8c:	10 bf fd bd 	b  4000b480 <_vfiprintf_r+0x11d4>
4000bd90:	ba 00 a0 01 	add  %g2, 1, %i5
4000bd94:	10 bf f9 c6 	b  4000a4ac <_vfiprintf_r+0x200>
4000bd98:	c2 27 bf 08 	st  %g1, [ %fp + -248 ]
4000bd9c:	10 bf fc 61 	b  4000af20 <_vfiprintf_r+0xc74>
4000bda0:	88 10 00 02 	mov  %g2, %g4
4000bda4:	b2 0e 7f fc 	and  %i1, -4, %i1
4000bda8:	82 20 40 19 	sub  %g1, %i1, %g1
4000bdac:	c2 27 bf 54 	st  %g1, [ %fp + -172 ]
4000bdb0:	80 a0 60 00 	cmp  %g1, 0
4000bdb4:	12 bf ff 7b 	bne  4000bba0 <_vfiprintf_r+0x18f4>
4000bdb8:	b4 06 a0 08 	add  %i2, 8, %i2
4000bdbc:	10 bf f9 b9 	b  4000a4a0 <_vfiprintf_r+0x1f4>
4000bdc0:	c2 15 60 0c 	lduh  [ %l5 + 0xc ], %g1
4000bdc4:	92 10 00 15 	mov  %l5, %o1
4000bdc8:	40 00 01 b8 	call  4000c4a8 <__sfvwrite_r>
4000bdcc:	90 10 00 12 	mov  %l2, %o0
4000bdd0:	10 bf f9 b4 	b  4000a4a0 <_vfiprintf_r+0x1f4>
4000bdd4:	c2 15 60 0c 	lduh  [ %l5 + 0xc ], %g1
4000bdd8:	c2 07 bf 04 	ld  [ %fp + -252 ], %g1
4000bddc:	f6 00 40 00 	ld  [ %g1 ], %i3
4000bde0:	82 00 60 04 	add  %g1, 4, %g1
4000bde4:	80 a6 e0 00 	cmp  %i3, 0
4000bde8:	16 80 00 03 	bge  4000bdf4 <_vfiprintf_r+0x1b48>
4000bdec:	c2 27 bf 04 	st  %g1, [ %fp + -252 ]
4000bdf0:	b6 10 3f ff 	mov  -1, %i3
4000bdf4:	c4 0c 60 01 	ldub  [ %l1 + 1 ], %g2
4000bdf8:	a2 10 00 03 	mov  %g3, %l1
4000bdfc:	10 bf f9 d3 	b  4000a548 <_vfiprintf_r+0x29c>
4000be00:	83 28 a0 18 	sll  %g2, 0x18, %g1

4000be04 <vfiprintf>:
4000be04:	96 10 00 0a 	mov  %o2, %o3
4000be08:	03 10 00 3c 	sethi  %hi(0x4000f000), %g1
4000be0c:	94 10 00 09 	mov  %o1, %o2
4000be10:	92 10 00 08 	mov  %o0, %o1
4000be14:	d0 00 63 7c 	ld  [ %g1 + 0x37c ], %o0
4000be18:	82 13 c0 00 	mov  %o7, %g1
4000be1c:	7f ff f9 24 	call  4000a2ac <_vfiprintf_r>
4000be20:	9e 10 40 00 	mov  %g1, %o7

4000be24 <__sbprintf>:
4000be24:	9d e3 bb 38 	save  %sp, -1224, %sp
4000be28:	84 10 24 00 	mov  0x400, %g2
4000be2c:	86 07 bc 00 	add  %fp, -1024, %g3
4000be30:	fa 06 60 20 	ld  [ %i1 + 0x20 ], %i5
4000be34:	c2 16 60 0c 	lduh  [ %i1 + 0xc ], %g1
4000be38:	de 06 60 60 	ld  [ %i1 + 0x60 ], %o7
4000be3c:	82 08 7f fd 	and  %g1, -3, %g1
4000be40:	c8 06 60 28 	ld  [ %i1 + 0x28 ], %g4
4000be44:	f8 16 60 0e 	lduh  [ %i1 + 0xe ], %i4
4000be48:	fa 27 bb bc 	st  %i5, [ %fp + -1092 ]
4000be4c:	c2 37 bb a8 	sth  %g1, [ %fp + -1112 ]
4000be50:	de 27 bb fc 	st  %o7, [ %fp + -1028 ]
4000be54:	f8 37 bb aa 	sth  %i4, [ %fp + -1110 ]
4000be58:	c8 27 bb c4 	st  %g4, [ %fp + -1084 ]
4000be5c:	c6 27 bb 9c 	st  %g3, [ %fp + -1124 ]
4000be60:	c6 27 bb ac 	st  %g3, [ %fp + -1108 ]
4000be64:	c4 27 bb a4 	st  %g2, [ %fp + -1116 ]
4000be68:	c4 27 bb b0 	st  %g2, [ %fp + -1104 ]
4000be6c:	c0 27 bb b4 	clr  [ %fp + -1100 ]
4000be70:	96 10 00 1b 	mov  %i3, %o3
4000be74:	94 10 00 1a 	mov  %i2, %o2
4000be78:	92 07 bb 9c 	add  %fp, -1124, %o1
4000be7c:	7f ff f9 0c 	call  4000a2ac <_vfiprintf_r>
4000be80:	90 10 00 18 	mov  %i0, %o0
4000be84:	ba 92 20 00 	orcc  %o0, 0, %i5
4000be88:	16 80 00 0b 	bge  4000beb4 <__sbprintf+0x90>
4000be8c:	92 07 bb 9c 	add  %fp, -1124, %o1
4000be90:	c2 17 bb a8 	lduh  [ %fp + -1112 ], %g1
4000be94:	80 88 60 40 	btst  0x40, %g1
4000be98:	02 80 00 05 	be  4000beac <__sbprintf+0x88>
4000be9c:	01 00 00 00 	nop 
4000bea0:	c2 16 60 0c 	lduh  [ %i1 + 0xc ], %g1
4000bea4:	82 10 60 40 	or  %g1, 0x40, %g1
4000bea8:	c2 36 60 0c 	sth  %g1, [ %i1 + 0xc ]
4000beac:	81 c7 e0 08 	ret 
4000beb0:	91 e8 00 1d 	restore  %g0, %i5, %o0
4000beb4:	7f ff ec 1c 	call  40006f24 <_fflush_r>
4000beb8:	90 10 00 18 	mov  %i0, %o0
4000bebc:	80 a2 20 00 	cmp  %o0, 0
4000bec0:	32 bf ff f4 	bne,a   4000be90 <__sbprintf+0x6c>
4000bec4:	ba 10 3f ff 	mov  -1, %i5
4000bec8:	10 bf ff f3 	b  4000be94 <__sbprintf+0x70>
4000becc:	c2 17 bb a8 	lduh  [ %fp + -1112 ], %g1

4000bed0 <_write_r>:
4000bed0:	9d e3 bf a0 	save  %sp, -96, %sp
4000bed4:	3b 10 00 3e 	sethi  %hi(0x4000f800), %i5
4000bed8:	94 10 00 1b 	mov  %i3, %o2
4000bedc:	c0 27 63 08 	clr  [ %i5 + 0x308 ]
4000bee0:	92 10 00 1a 	mov  %i2, %o1
4000bee4:	40 00 07 a8 	call  4000dd84 <write>
4000bee8:	90 10 00 19 	mov  %i1, %o0
4000beec:	80 a2 3f ff 	cmp  %o0, -1
4000bef0:	02 80 00 04 	be  4000bf00 <_write_r+0x30>
4000bef4:	c2 07 63 08 	ld  [ %i5 + 0x308 ], %g1
4000bef8:	81 c7 e0 08 	ret 
4000befc:	91 e8 00 08 	restore  %g0, %o0, %o0
4000bf00:	80 a0 60 00 	cmp  %g1, 0
4000bf04:	02 bf ff fd 	be  4000bef8 <_write_r+0x28>
4000bf08:	01 00 00 00 	nop 
4000bf0c:	c2 26 00 00 	st  %g1, [ %i0 ]
4000bf10:	81 c7 e0 08 	ret 
4000bf14:	91 e8 00 08 	restore  %g0, %o0, %o0

4000bf18 <_calloc_r>:
4000bf18:	9d e3 bf a0 	save  %sp, -96, %sp
4000bf1c:	92 10 00 1a 	mov  %i2, %o1
4000bf20:	40 00 07 eb 	call  4000decc <.umul>
4000bf24:	90 10 00 19 	mov  %i1, %o0
4000bf28:	92 10 00 08 	mov  %o0, %o1
4000bf2c:	7f ff ef 03 	call  40007b38 <_malloc_r>
4000bf30:	90 10 00 18 	mov  %i0, %o0
4000bf34:	b0 92 20 00 	orcc  %o0, 0, %i0
4000bf38:	02 80 00 16 	be  4000bf90 <_calloc_r+0x78>
4000bf3c:	01 00 00 00 	nop 
4000bf40:	d4 06 3f fc 	ld  [ %i0 + -4 ], %o2
4000bf44:	94 0a bf fc 	and  %o2, -4, %o2
4000bf48:	94 02 bf fc 	add  %o2, -4, %o2
4000bf4c:	80 a2 a0 24 	cmp  %o2, 0x24
4000bf50:	18 80 00 0e 	bgu  4000bf88 <_calloc_r+0x70>
4000bf54:	80 a2 a0 13 	cmp  %o2, 0x13
4000bf58:	08 80 00 07 	bleu  4000bf74 <_calloc_r+0x5c>
4000bf5c:	82 10 00 18 	mov  %i0, %g1
4000bf60:	c0 26 00 00 	clr  [ %i0 ]
4000bf64:	c0 26 20 04 	clr  [ %i0 + 4 ]
4000bf68:	80 a2 a0 1b 	cmp  %o2, 0x1b
4000bf6c:	18 80 00 0b 	bgu  4000bf98 <_calloc_r+0x80>
4000bf70:	82 06 20 08 	add  %i0, 8, %g1
4000bf74:	c0 20 40 00 	clr  [ %g1 ]
4000bf78:	c0 20 60 04 	clr  [ %g1 + 4 ]
4000bf7c:	c0 20 60 08 	clr  [ %g1 + 8 ]
4000bf80:	81 c7 e0 08 	ret 
4000bf84:	81 e8 00 00 	restore 
4000bf88:	7f ff f1 1f 	call  40008404 <memset>
4000bf8c:	92 10 20 00 	clr  %o1
4000bf90:	81 c7 e0 08 	ret 
4000bf94:	81 e8 00 00 	restore 
4000bf98:	c0 26 20 08 	clr  [ %i0 + 8 ]
4000bf9c:	c0 26 20 0c 	clr  [ %i0 + 0xc ]
4000bfa0:	80 a2 a0 24 	cmp  %o2, 0x24
4000bfa4:	12 bf ff f4 	bne  4000bf74 <_calloc_r+0x5c>
4000bfa8:	82 06 20 10 	add  %i0, 0x10, %g1
4000bfac:	c0 26 20 10 	clr  [ %i0 + 0x10 ]
4000bfb0:	82 06 20 18 	add  %i0, 0x18, %g1
4000bfb4:	10 bf ff f0 	b  4000bf74 <_calloc_r+0x5c>
4000bfb8:	c0 26 20 14 	clr  [ %i0 + 0x14 ]

4000bfbc <_close_r>:
4000bfbc:	9d e3 bf a0 	save  %sp, -96, %sp
4000bfc0:	3b 10 00 3e 	sethi  %hi(0x4000f800), %i5
4000bfc4:	90 10 00 19 	mov  %i1, %o0
4000bfc8:	40 00 07 88 	call  4000dde8 <close>
4000bfcc:	c0 27 63 08 	clr  [ %i5 + 0x308 ]
4000bfd0:	80 a2 3f ff 	cmp  %o0, -1
4000bfd4:	02 80 00 04 	be  4000bfe4 <_close_r+0x28>
4000bfd8:	c2 07 63 08 	ld  [ %i5 + 0x308 ], %g1
4000bfdc:	81 c7 e0 08 	ret 
4000bfe0:	91 e8 00 08 	restore  %g0, %o0, %o0
4000bfe4:	80 a0 60 00 	cmp  %g1, 0
4000bfe8:	02 bf ff fd 	be  4000bfdc <_close_r+0x20>
4000bfec:	01 00 00 00 	nop 
4000bff0:	c2 26 00 00 	st  %g1, [ %i0 ]
4000bff4:	81 c7 e0 08 	ret 
4000bff8:	91 e8 00 08 	restore  %g0, %o0, %o0

4000bffc <_fclose_r>:
4000bffc:	9d e3 bf a0 	save  %sp, -96, %sp
4000c000:	80 a6 60 00 	cmp  %i1, 0
4000c004:	02 80 00 3e 	be  4000c0fc <_fclose_r+0x100>
4000c008:	ba 10 00 18 	mov  %i0, %i5
4000c00c:	80 a6 20 00 	cmp  %i0, 0
4000c010:	02 80 00 07 	be  4000c02c <_fclose_r+0x30>
4000c014:	03 10 00 3b 	sethi  %hi(0x4000ec00), %g1
4000c018:	c2 06 20 18 	ld  [ %i0 + 0x18 ], %g1
4000c01c:	80 a0 60 00 	cmp  %g1, 0
4000c020:	02 80 00 3b 	be  4000c10c <_fclose_r+0x110>
4000c024:	01 00 00 00 	nop 
4000c028:	03 10 00 3b 	sethi  %hi(0x4000ec00), %g1
4000c02c:	82 10 62 40 	or  %g1, 0x240, %g1	! 4000ee40 <__sf_fake_stdin>
4000c030:	80 a6 40 01 	cmp  %i1, %g1
4000c034:	02 80 00 34 	be  4000c104 <_fclose_r+0x108>
4000c038:	03 10 00 3b 	sethi  %hi(0x4000ec00), %g1
4000c03c:	82 10 62 20 	or  %g1, 0x220, %g1	! 4000ee20 <__sf_fake_stdout>
4000c040:	80 a6 40 01 	cmp  %i1, %g1
4000c044:	02 80 00 36 	be  4000c11c <_fclose_r+0x120>
4000c048:	03 10 00 3b 	sethi  %hi(0x4000ec00), %g1
4000c04c:	82 10 62 00 	or  %g1, 0x200, %g1	! 4000ee00 <__sf_fake_stderr>
4000c050:	80 a6 40 01 	cmp  %i1, %g1
4000c054:	22 80 00 02 	be,a   4000c05c <_fclose_r+0x60>
4000c058:	f2 07 60 0c 	ld  [ %i5 + 0xc ], %i1
4000c05c:	c2 56 60 0c 	ldsh  [ %i1 + 0xc ], %g1
4000c060:	80 a0 60 00 	cmp  %g1, 0
4000c064:	02 80 00 26 	be  4000c0fc <_fclose_r+0x100>
4000c068:	92 10 00 19 	mov  %i1, %o1
4000c06c:	7f ff eb 18 	call  40006ccc <__sflush_r>
4000c070:	90 10 00 1d 	mov  %i5, %o0
4000c074:	c2 06 60 30 	ld  [ %i1 + 0x30 ], %g1
4000c078:	80 a0 60 00 	cmp  %g1, 0
4000c07c:	02 80 00 08 	be  4000c09c <_fclose_r+0xa0>
4000c080:	b0 10 00 08 	mov  %o0, %i0
4000c084:	d2 06 60 20 	ld  [ %i1 + 0x20 ], %o1
4000c088:	9f c0 40 00 	call  %g1
4000c08c:	90 10 00 1d 	mov  %i5, %o0
4000c090:	80 a2 20 00 	cmp  %o0, 0
4000c094:	26 80 00 24 	bl,a   4000c124 <_fclose_r+0x128>
4000c098:	c2 16 60 0c 	lduh  [ %i1 + 0xc ], %g1
4000c09c:	c2 16 60 0c 	lduh  [ %i1 + 0xc ], %g1
4000c0a0:	80 88 60 80 	btst  0x80, %g1
4000c0a4:	32 80 00 24 	bne,a   4000c134 <_fclose_r+0x138>
4000c0a8:	d2 06 60 10 	ld  [ %i1 + 0x10 ], %o1
4000c0ac:	d2 06 60 34 	ld  [ %i1 + 0x34 ], %o1
4000c0b0:	80 a2 60 00 	cmp  %o1, 0
4000c0b4:	02 80 00 08 	be  4000c0d4 <_fclose_r+0xd8>
4000c0b8:	82 06 60 44 	add  %i1, 0x44, %g1
4000c0bc:	80 a2 40 01 	cmp  %o1, %g1
4000c0c0:	22 80 00 05 	be,a   4000c0d4 <_fclose_r+0xd8>
4000c0c4:	c0 26 60 34 	clr  [ %i1 + 0x34 ]
4000c0c8:	7f ff ed 03 	call  400074d4 <_free_r>
4000c0cc:	90 10 00 1d 	mov  %i5, %o0
4000c0d0:	c0 26 60 34 	clr  [ %i1 + 0x34 ]
4000c0d4:	d2 06 60 48 	ld  [ %i1 + 0x48 ], %o1
4000c0d8:	80 a2 60 00 	cmp  %o1, 0
4000c0dc:	22 80 00 06 	be,a   4000c0f4 <_fclose_r+0xf8>
4000c0e0:	c0 36 60 0c 	clrh  [ %i1 + 0xc ]
4000c0e4:	7f ff ec fc 	call  400074d4 <_free_r>
4000c0e8:	90 10 00 1d 	mov  %i5, %o0
4000c0ec:	c0 26 60 48 	clr  [ %i1 + 0x48 ]
4000c0f0:	c0 36 60 0c 	clrh  [ %i1 + 0xc ]
4000c0f4:	81 c7 e0 08 	ret 
4000c0f8:	81 e8 00 00 	restore 
4000c0fc:	81 c7 e0 08 	ret 
4000c100:	91 e8 20 00 	restore  %g0, 0, %o0
4000c104:	10 bf ff d6 	b  4000c05c <_fclose_r+0x60>
4000c108:	f2 07 60 04 	ld  [ %i5 + 4 ], %i1
4000c10c:	7f ff ec ad 	call  400073c0 <__sinit>
4000c110:	90 10 00 18 	mov  %i0, %o0
4000c114:	10 bf ff c6 	b  4000c02c <_fclose_r+0x30>
4000c118:	03 10 00 3b 	sethi  %hi(0x4000ec00), %g1
4000c11c:	10 bf ff d0 	b  4000c05c <_fclose_r+0x60>
4000c120:	f2 07 60 08 	ld  [ %i5 + 8 ], %i1
4000c124:	80 88 60 80 	btst  0x80, %g1
4000c128:	02 bf ff e1 	be  4000c0ac <_fclose_r+0xb0>
4000c12c:	b0 10 3f ff 	mov  -1, %i0
4000c130:	d2 06 60 10 	ld  [ %i1 + 0x10 ], %o1
4000c134:	7f ff ec e8 	call  400074d4 <_free_r>
4000c138:	90 10 00 1d 	mov  %i5, %o0
4000c13c:	10 bf ff dd 	b  4000c0b0 <_fclose_r+0xb4>
4000c140:	d2 06 60 34 	ld  [ %i1 + 0x34 ], %o1

4000c144 <fclose>:
4000c144:	9d e3 bf a0 	save  %sp, -96, %sp
4000c148:	ba 96 20 00 	orcc  %i0, 0, %i5
4000c14c:	02 80 00 3f 	be  4000c248 <fclose+0x104>
4000c150:	03 10 00 3c 	sethi  %hi(0x4000f000), %g1
4000c154:	f8 00 63 7c 	ld  [ %g1 + 0x37c ], %i4	! 4000f37c <_impure_ptr>
4000c158:	80 a7 20 00 	cmp  %i4, 0
4000c15c:	02 80 00 07 	be  4000c178 <fclose+0x34>
4000c160:	03 10 00 3b 	sethi  %hi(0x4000ec00), %g1
4000c164:	c2 07 20 18 	ld  [ %i4 + 0x18 ], %g1
4000c168:	80 a0 60 00 	cmp  %g1, 0
4000c16c:	02 80 00 3b 	be  4000c258 <fclose+0x114>
4000c170:	01 00 00 00 	nop 
4000c174:	03 10 00 3b 	sethi  %hi(0x4000ec00), %g1
4000c178:	82 10 62 40 	or  %g1, 0x240, %g1	! 4000ee40 <__sf_fake_stdin>
4000c17c:	80 a7 40 01 	cmp  %i5, %g1
4000c180:	02 80 00 34 	be  4000c250 <fclose+0x10c>
4000c184:	03 10 00 3b 	sethi  %hi(0x4000ec00), %g1
4000c188:	82 10 62 20 	or  %g1, 0x220, %g1	! 4000ee20 <__sf_fake_stdout>
4000c18c:	80 a7 40 01 	cmp  %i5, %g1
4000c190:	02 80 00 36 	be  4000c268 <fclose+0x124>
4000c194:	03 10 00 3b 	sethi  %hi(0x4000ec00), %g1
4000c198:	82 10 62 00 	or  %g1, 0x200, %g1	! 4000ee00 <__sf_fake_stderr>
4000c19c:	80 a7 40 01 	cmp  %i5, %g1
4000c1a0:	22 80 00 02 	be,a   4000c1a8 <fclose+0x64>
4000c1a4:	fa 07 20 0c 	ld  [ %i4 + 0xc ], %i5
4000c1a8:	c2 57 60 0c 	ldsh  [ %i5 + 0xc ], %g1
4000c1ac:	80 a0 60 00 	cmp  %g1, 0
4000c1b0:	02 80 00 26 	be  4000c248 <fclose+0x104>
4000c1b4:	92 10 00 1d 	mov  %i5, %o1
4000c1b8:	7f ff ea c5 	call  40006ccc <__sflush_r>
4000c1bc:	90 10 00 1c 	mov  %i4, %o0
4000c1c0:	c2 07 60 30 	ld  [ %i5 + 0x30 ], %g1
4000c1c4:	80 a0 60 00 	cmp  %g1, 0
4000c1c8:	02 80 00 08 	be  4000c1e8 <fclose+0xa4>
4000c1cc:	b0 10 00 08 	mov  %o0, %i0
4000c1d0:	d2 07 60 20 	ld  [ %i5 + 0x20 ], %o1
4000c1d4:	9f c0 40 00 	call  %g1
4000c1d8:	90 10 00 1c 	mov  %i4, %o0
4000c1dc:	80 a2 20 00 	cmp  %o0, 0
4000c1e0:	26 80 00 24 	bl,a   4000c270 <fclose+0x12c>
4000c1e4:	c2 17 60 0c 	lduh  [ %i5 + 0xc ], %g1
4000c1e8:	c2 17 60 0c 	lduh  [ %i5 + 0xc ], %g1
4000c1ec:	80 88 60 80 	btst  0x80, %g1
4000c1f0:	32 80 00 24 	bne,a   4000c280 <fclose+0x13c>
4000c1f4:	d2 07 60 10 	ld  [ %i5 + 0x10 ], %o1
4000c1f8:	d2 07 60 34 	ld  [ %i5 + 0x34 ], %o1
4000c1fc:	80 a2 60 00 	cmp  %o1, 0
4000c200:	02 80 00 08 	be  4000c220 <fclose+0xdc>
4000c204:	82 07 60 44 	add  %i5, 0x44, %g1
4000c208:	80 a2 40 01 	cmp  %o1, %g1
4000c20c:	22 80 00 05 	be,a   4000c220 <fclose+0xdc>
4000c210:	c0 27 60 34 	clr  [ %i5 + 0x34 ]
4000c214:	7f ff ec b0 	call  400074d4 <_free_r>
4000c218:	90 10 00 1c 	mov  %i4, %o0
4000c21c:	c0 27 60 34 	clr  [ %i5 + 0x34 ]
4000c220:	d2 07 60 48 	ld  [ %i5 + 0x48 ], %o1
4000c224:	80 a2 60 00 	cmp  %o1, 0
4000c228:	22 80 00 06 	be,a   4000c240 <fclose+0xfc>
4000c22c:	c0 37 60 0c 	clrh  [ %i5 + 0xc ]
4000c230:	7f ff ec a9 	call  400074d4 <_free_r>
4000c234:	90 10 00 1c 	mov  %i4, %o0
4000c238:	c0 27 60 48 	clr  [ %i5 + 0x48 ]
4000c23c:	c0 37 60 0c 	clrh  [ %i5 + 0xc ]
4000c240:	81 c7 e0 08 	ret 
4000c244:	81 e8 00 00 	restore 
4000c248:	81 c7 e0 08 	ret 
4000c24c:	91 e8 20 00 	restore  %g0, 0, %o0
4000c250:	10 bf ff d6 	b  4000c1a8 <fclose+0x64>
4000c254:	fa 07 20 04 	ld  [ %i4 + 4 ], %i5
4000c258:	7f ff ec 5a 	call  400073c0 <__sinit>
4000c25c:	90 10 00 1c 	mov  %i4, %o0
4000c260:	10 bf ff c6 	b  4000c178 <fclose+0x34>
4000c264:	03 10 00 3b 	sethi  %hi(0x4000ec00), %g1
4000c268:	10 bf ff d0 	b  4000c1a8 <fclose+0x64>
4000c26c:	fa 07 20 08 	ld  [ %i4 + 8 ], %i5
4000c270:	80 88 60 80 	btst  0x80, %g1
4000c274:	02 bf ff e1 	be  4000c1f8 <fclose+0xb4>
4000c278:	b0 10 3f ff 	mov  -1, %i0
4000c27c:	d2 07 60 10 	ld  [ %i5 + 0x10 ], %o1
4000c280:	7f ff ec 95 	call  400074d4 <_free_r>
4000c284:	90 10 00 1c 	mov  %i4, %o0
4000c288:	10 bf ff dd 	b  4000c1fc <fclose+0xb8>
4000c28c:	d2 07 60 34 	ld  [ %i5 + 0x34 ], %o1

4000c290 <__fputwc>:
4000c290:	9d e3 bf 98 	save  %sp, -104, %sp
4000c294:	40 00 01 ee 	call  4000ca4c <__locale_mb_cur_max>
4000c298:	01 00 00 00 	nop 
4000c29c:	80 a2 20 01 	cmp  %o0, 1
4000c2a0:	12 80 00 05 	bne  4000c2b4 <__fputwc+0x24>
4000c2a4:	82 06 7f ff 	add  %i1, -1, %g1
4000c2a8:	80 a0 60 fe 	cmp  %g1, 0xfe
4000c2ac:	28 80 00 0d 	bleu,a   4000c2e0 <__fputwc+0x50>
4000c2b0:	f2 2f bf f8 	stb  %i1, [ %fp + -8 ]
4000c2b4:	96 06 a0 58 	add  %i2, 0x58, %o3
4000c2b8:	94 10 00 19 	mov  %i1, %o2
4000c2bc:	92 07 bf f8 	add  %fp, -8, %o1
4000c2c0:	40 00 05 f6 	call  4000da98 <_wcrtomb_r>
4000c2c4:	90 10 00 18 	mov  %i0, %o0
4000c2c8:	80 a2 3f ff 	cmp  %o0, -1
4000c2cc:	22 80 00 28 	be,a   4000c36c <__fputwc+0xdc>
4000c2d0:	c2 16 a0 0c 	lduh  [ %i2 + 0xc ], %g1
4000c2d4:	80 a2 20 00 	cmp  %o0, 0
4000c2d8:	02 80 00 19 	be  4000c33c <__fputwc+0xac>
4000c2dc:	90 10 00 19 	mov  %i1, %o0
4000c2e0:	c2 06 a0 08 	ld  [ %i2 + 8 ], %g1
4000c2e4:	82 00 7f ff 	add  %g1, -1, %g1
4000c2e8:	c2 26 a0 08 	st  %g1, [ %i2 + 8 ]
4000c2ec:	80 a0 60 00 	cmp  %g1, 0
4000c2f0:	16 80 00 0e 	bge  4000c328 <__fputwc+0x98>
4000c2f4:	d2 0f bf f8 	ldub  [ %fp + -8 ], %o1
4000c2f8:	c6 06 a0 18 	ld  [ %i2 + 0x18 ], %g3
4000c2fc:	80 a0 40 03 	cmp  %g1, %g3
4000c300:	16 80 00 03 	bge  4000c30c <__fputwc+0x7c>
4000c304:	84 10 20 01 	mov  1, %g2
4000c308:	84 10 20 00 	clr  %g2
4000c30c:	80 88 a0 ff 	btst  0xff, %g2
4000c310:	02 80 00 0d 	be  4000c344 <__fputwc+0xb4>
4000c314:	83 2a 60 18 	sll  %o1, 0x18, %g1
4000c318:	83 38 60 18 	sra  %g1, 0x18, %g1
4000c31c:	80 a0 60 0a 	cmp  %g1, 0xa
4000c320:	02 80 00 0a 	be  4000c348 <__fputwc+0xb8>
4000c324:	94 10 00 1a 	mov  %i2, %o2
4000c328:	c2 06 80 00 	ld  [ %i2 ], %g1
4000c32c:	84 00 60 01 	add  %g1, 1, %g2
4000c330:	c4 26 80 00 	st  %g2, [ %i2 ]
4000c334:	d2 28 40 00 	stb  %o1, [ %g1 ]
4000c338:	90 10 00 19 	mov  %i1, %o0
4000c33c:	81 c7 e0 08 	ret 
4000c340:	91 e8 00 08 	restore  %g0, %o0, %o0
4000c344:	94 10 00 1a 	mov  %i2, %o2
4000c348:	92 0a 60 ff 	and  %o1, 0xff, %o1
4000c34c:	40 00 04 fe 	call  4000d744 <__swbuf_r>
4000c350:	90 10 00 18 	mov  %i0, %o0
4000c354:	80 a2 3f ff 	cmp  %o0, -1
4000c358:	12 bf ff f9 	bne  4000c33c <__fputwc+0xac>
4000c35c:	90 10 00 19 	mov  %i1, %o0
4000c360:	90 10 3f ff 	mov  -1, %o0
4000c364:	81 c7 e0 08 	ret 
4000c368:	91 e8 00 08 	restore  %g0, %o0, %o0
4000c36c:	82 10 60 40 	or  %g1, 0x40, %g1
4000c370:	10 bf ff f3 	b  4000c33c <__fputwc+0xac>
4000c374:	c2 36 a0 0c 	sth  %g1, [ %i2 + 0xc ]

4000c378 <_fputwc_r>:
4000c378:	05 00 00 08 	sethi  %hi(0x2000), %g2
4000c37c:	c2 12 a0 0c 	lduh  [ %o2 + 0xc ], %g1
4000c380:	80 88 80 01 	btst  %g2, %g1
4000c384:	12 80 00 06 	bne  4000c39c <_fputwc_r+0x24>
4000c388:	82 10 40 02 	or  %g1, %g2, %g1
4000c38c:	c6 02 a0 60 	ld  [ %o2 + 0x60 ], %g3
4000c390:	84 10 c0 02 	or  %g3, %g2, %g2
4000c394:	c2 32 a0 0c 	sth  %g1, [ %o2 + 0xc ]
4000c398:	c4 22 a0 60 	st  %g2, [ %o2 + 0x60 ]
4000c39c:	82 13 c0 00 	mov  %o7, %g1
4000c3a0:	7f ff ff bc 	call  4000c290 <__fputwc>
4000c3a4:	9e 10 40 00 	mov  %g1, %o7

4000c3a8 <fputwc>:
4000c3a8:	9d e3 bf a0 	save  %sp, -96, %sp
4000c3ac:	03 10 00 3c 	sethi  %hi(0x4000f000), %g1
4000c3b0:	fa 00 63 7c 	ld  [ %g1 + 0x37c ], %i5	! 4000f37c <_impure_ptr>
4000c3b4:	80 a7 60 00 	cmp  %i5, 0
4000c3b8:	02 80 00 06 	be  4000c3d0 <fputwc+0x28>
4000c3bc:	b4 10 00 19 	mov  %i1, %i2
4000c3c0:	c2 07 60 18 	ld  [ %i5 + 0x18 ], %g1
4000c3c4:	80 a0 60 00 	cmp  %g1, 0
4000c3c8:	02 80 00 1c 	be  4000c438 <fputwc+0x90>
4000c3cc:	01 00 00 00 	nop 
4000c3d0:	03 10 00 3b 	sethi  %hi(0x4000ec00), %g1
4000c3d4:	82 10 62 40 	or  %g1, 0x240, %g1	! 4000ee40 <__sf_fake_stdin>
4000c3d8:	80 a6 80 01 	cmp  %i2, %g1
4000c3dc:	22 80 00 0b 	be,a   4000c408 <fputwc+0x60>
4000c3e0:	f4 07 60 04 	ld  [ %i5 + 4 ], %i2
4000c3e4:	03 10 00 3b 	sethi  %hi(0x4000ec00), %g1
4000c3e8:	82 10 62 20 	or  %g1, 0x220, %g1	! 4000ee20 <__sf_fake_stdout>
4000c3ec:	80 a6 80 01 	cmp  %i2, %g1
4000c3f0:	02 80 00 1b 	be  4000c45c <fputwc+0xb4>
4000c3f4:	03 10 00 3b 	sethi  %hi(0x4000ec00), %g1
4000c3f8:	82 10 62 00 	or  %g1, 0x200, %g1	! 4000ee00 <__sf_fake_stderr>
4000c3fc:	80 a6 80 01 	cmp  %i2, %g1
4000c400:	22 80 00 02 	be,a   4000c408 <fputwc+0x60>
4000c404:	f4 07 60 0c 	ld  [ %i5 + 0xc ], %i2
4000c408:	c2 16 a0 0c 	lduh  [ %i2 + 0xc ], %g1
4000c40c:	05 00 00 08 	sethi  %hi(0x2000), %g2
4000c410:	80 88 80 01 	btst  %g2, %g1
4000c414:	12 80 00 07 	bne  4000c430 <fputwc+0x88>
4000c418:	b2 10 00 18 	mov  %i0, %i1
4000c41c:	c6 06 a0 60 	ld  [ %i2 + 0x60 ], %g3
4000c420:	82 10 40 02 	or  %g1, %g2, %g1
4000c424:	84 10 c0 02 	or  %g3, %g2, %g2
4000c428:	c2 36 a0 0c 	sth  %g1, [ %i2 + 0xc ]
4000c42c:	c4 26 a0 60 	st  %g2, [ %i2 + 0x60 ]
4000c430:	7f ff ff 98 	call  4000c290 <__fputwc>
4000c434:	91 e8 00 1d 	restore  %g0, %i5, %o0
4000c438:	7f ff eb e2 	call  400073c0 <__sinit>
4000c43c:	90 10 00 1d 	mov  %i5, %o0
4000c440:	03 10 00 3b 	sethi  %hi(0x4000ec00), %g1
4000c444:	82 10 62 40 	or  %g1, 0x240, %g1	! 4000ee40 <__sf_fake_stdin>
4000c448:	80 a6 80 01 	cmp  %i2, %g1
4000c44c:	12 bf ff e7 	bne  4000c3e8 <fputwc+0x40>
4000c450:	03 10 00 3b 	sethi  %hi(0x4000ec00), %g1
4000c454:	10 bf ff ed 	b  4000c408 <fputwc+0x60>
4000c458:	f4 07 60 04 	ld  [ %i5 + 4 ], %i2
4000c45c:	10 bf ff eb 	b  4000c408 <fputwc+0x60>
4000c460:	f4 07 60 08 	ld  [ %i5 + 8 ], %i2

4000c464 <_fstat_r>:
4000c464:	9d e3 bf a0 	save  %sp, -96, %sp
4000c468:	3b 10 00 3e 	sethi  %hi(0x4000f800), %i5
4000c46c:	92 10 00 1a 	mov  %i2, %o1
4000c470:	c0 27 63 08 	clr  [ %i5 + 0x308 ]
4000c474:	40 00 06 5d 	call  4000dde8 <close>
4000c478:	90 10 00 19 	mov  %i1, %o0
4000c47c:	80 a2 3f ff 	cmp  %o0, -1
4000c480:	02 80 00 04 	be  4000c490 <_fstat_r+0x2c>
4000c484:	c2 07 63 08 	ld  [ %i5 + 0x308 ], %g1
4000c488:	81 c7 e0 08 	ret 
4000c48c:	91 e8 00 08 	restore  %g0, %o0, %o0
4000c490:	80 a0 60 00 	cmp  %g1, 0
4000c494:	02 bf ff fd 	be  4000c488 <_fstat_r+0x24>
4000c498:	01 00 00 00 	nop 
4000c49c:	c2 26 00 00 	st  %g1, [ %i0 ]
4000c4a0:	81 c7 e0 08 	ret 
4000c4a4:	91 e8 00 08 	restore  %g0, %o0, %o0

4000c4a8 <__sfvwrite_r>:
4000c4a8:	9d e3 bf a0 	save  %sp, -96, %sp
4000c4ac:	c2 06 a0 08 	ld  [ %i2 + 8 ], %g1
4000c4b0:	80 a0 60 00 	cmp  %g1, 0
4000c4b4:	02 80 00 63 	be  4000c640 <__sfvwrite_r+0x198>
4000c4b8:	01 00 00 00 	nop 
4000c4bc:	c2 16 60 0c 	lduh  [ %i1 + 0xc ], %g1
4000c4c0:	80 88 60 08 	btst  8, %g1
4000c4c4:	02 80 00 61 	be  4000c648 <__sfvwrite_r+0x1a0>
4000c4c8:	92 10 00 19 	mov  %i1, %o1
4000c4cc:	c4 06 60 10 	ld  [ %i1 + 0x10 ], %g2
4000c4d0:	80 a0 a0 00 	cmp  %g2, 0
4000c4d4:	02 80 00 5d 	be  4000c648 <__sfvwrite_r+0x1a0>
4000c4d8:	01 00 00 00 	nop 
4000c4dc:	80 88 60 02 	btst  2, %g1
4000c4e0:	02 80 00 24 	be  4000c570 <__sfvwrite_r+0xc8>
4000c4e4:	fa 06 80 00 	ld  [ %i2 ], %i5
4000c4e8:	c2 06 60 28 	ld  [ %i1 + 0x28 ], %g1
4000c4ec:	d2 06 60 20 	ld  [ %i1 + 0x20 ], %o1
4000c4f0:	b6 10 20 00 	clr  %i3
4000c4f4:	b8 10 20 00 	clr  %i4
4000c4f8:	21 1f ff ff 	sethi  %hi(0x7ffffc00), %l0
4000c4fc:	94 10 00 1b 	mov  %i3, %o2
4000c500:	80 a7 20 00 	cmp  %i4, 0
4000c504:	02 80 00 17 	be  4000c560 <__sfvwrite_r+0xb8>
4000c508:	90 10 00 18 	mov  %i0, %o0
4000c50c:	80 a7 00 10 	cmp  %i4, %l0
4000c510:	08 80 00 03 	bleu  4000c51c <__sfvwrite_r+0x74>
4000c514:	96 10 00 1c 	mov  %i4, %o3
4000c518:	96 10 00 10 	mov  %l0, %o3
4000c51c:	9f c0 40 00 	call  %g1
4000c520:	01 00 00 00 	nop 
4000c524:	80 a2 20 00 	cmp  %o0, 0
4000c528:	04 80 00 55 	ble  4000c67c <__sfvwrite_r+0x1d4>
4000c52c:	b6 06 c0 08 	add  %i3, %o0, %i3
4000c530:	c2 06 a0 08 	ld  [ %i2 + 8 ], %g1
4000c534:	82 20 40 08 	sub  %g1, %o0, %g1
4000c538:	c2 26 a0 08 	st  %g1, [ %i2 + 8 ]
4000c53c:	80 a0 60 00 	cmp  %g1, 0
4000c540:	02 80 00 40 	be  4000c640 <__sfvwrite_r+0x198>
4000c544:	b8 27 00 08 	sub  %i4, %o0, %i4
4000c548:	c2 06 60 28 	ld  [ %i1 + 0x28 ], %g1
4000c54c:	d2 06 60 20 	ld  [ %i1 + 0x20 ], %o1
4000c550:	94 10 00 1b 	mov  %i3, %o2
4000c554:	80 a7 20 00 	cmp  %i4, 0
4000c558:	12 bf ff ed 	bne  4000c50c <__sfvwrite_r+0x64>
4000c55c:	90 10 00 18 	mov  %i0, %o0
4000c560:	f6 07 40 00 	ld  [ %i5 ], %i3
4000c564:	f8 07 60 04 	ld  [ %i5 + 4 ], %i4
4000c568:	10 bf ff e5 	b  4000c4fc <__sfvwrite_r+0x54>
4000c56c:	ba 07 60 08 	add  %i5, 8, %i5
4000c570:	80 88 60 01 	btst  1, %g1
4000c574:	02 80 00 55 	be  4000c6c8 <__sfvwrite_r+0x220>
4000c578:	25 1f ff ff 	sethi  %hi(0x7ffffc00), %l2
4000c57c:	a4 10 20 00 	clr  %l2
4000c580:	90 10 20 00 	clr  %o0
4000c584:	a2 10 20 00 	clr  %l1
4000c588:	a0 10 20 00 	clr  %l0
4000c58c:	80 a4 20 00 	cmp  %l0, 0
4000c590:	22 80 00 41 	be,a   4000c694 <__sfvwrite_r+0x1ec>
4000c594:	e0 07 60 04 	ld  [ %i5 + 4 ], %l0
4000c598:	80 a2 20 00 	cmp  %o0, 0
4000c59c:	02 80 00 43 	be  4000c6a8 <__sfvwrite_r+0x200>
4000c5a0:	94 10 00 10 	mov  %l0, %o2
4000c5a4:	82 10 00 12 	mov  %l2, %g1
4000c5a8:	80 a4 00 01 	cmp  %l0, %g1
4000c5ac:	08 80 00 03 	bleu  4000c5b8 <__sfvwrite_r+0x110>
4000c5b0:	b6 10 00 10 	mov  %l0, %i3
4000c5b4:	b6 10 00 01 	mov  %g1, %i3
4000c5b8:	d6 06 60 14 	ld  [ %i1 + 0x14 ], %o3
4000c5bc:	f8 06 60 08 	ld  [ %i1 + 8 ], %i4
4000c5c0:	d0 06 40 00 	ld  [ %i1 ], %o0
4000c5c4:	c2 06 60 10 	ld  [ %i1 + 0x10 ], %g1
4000c5c8:	80 a0 40 08 	cmp  %g1, %o0
4000c5cc:	1a 80 00 09 	bcc  4000c5f0 <__sfvwrite_r+0x148>
4000c5d0:	b8 02 c0 1c 	add  %o3, %i4, %i4
4000c5d4:	80 a6 c0 1c 	cmp  %i3, %i4
4000c5d8:	14 80 00 03 	bg  4000c5e4 <__sfvwrite_r+0x13c>
4000c5dc:	82 10 20 01 	mov  1, %g1
4000c5e0:	82 10 20 00 	clr  %g1
4000c5e4:	80 88 60 ff 	btst  0xff, %g1
4000c5e8:	12 80 00 c9 	bne  4000c90c <__sfvwrite_r+0x464>
4000c5ec:	94 10 00 1c 	mov  %i4, %o2
4000c5f0:	80 a2 c0 1b 	cmp  %o3, %i3
4000c5f4:	14 80 00 bb 	bg  4000c8e0 <__sfvwrite_r+0x438>
4000c5f8:	94 10 00 11 	mov  %l1, %o2
4000c5fc:	c2 06 60 28 	ld  [ %i1 + 0x28 ], %g1
4000c600:	d2 06 60 20 	ld  [ %i1 + 0x20 ], %o1
4000c604:	9f c0 40 00 	call  %g1
4000c608:	90 10 00 18 	mov  %i0, %o0
4000c60c:	b8 92 20 00 	orcc  %o0, 0, %i4
4000c610:	24 80 00 1c 	ble,a   4000c680 <__sfvwrite_r+0x1d8>
4000c614:	c2 16 60 0c 	lduh  [ %i1 + 0xc ], %g1
4000c618:	a4 a4 80 1c 	subcc  %l2, %i4, %l2
4000c61c:	02 80 00 12 	be  4000c664 <__sfvwrite_r+0x1bc>
4000c620:	90 10 20 01 	mov  1, %o0
4000c624:	c2 06 a0 08 	ld  [ %i2 + 8 ], %g1
4000c628:	82 20 40 1c 	sub  %g1, %i4, %g1
4000c62c:	c2 26 a0 08 	st  %g1, [ %i2 + 8 ]
4000c630:	a2 04 40 1c 	add  %l1, %i4, %l1
4000c634:	80 a0 60 00 	cmp  %g1, 0
4000c638:	12 bf ff d5 	bne  4000c58c <__sfvwrite_r+0xe4>
4000c63c:	a0 24 00 1c 	sub  %l0, %i4, %l0
4000c640:	81 c7 e0 08 	ret 
4000c644:	91 e8 20 00 	restore  %g0, 0, %o0
4000c648:	7f ff e2 e6 	call  400051e0 <__swsetup_r>
4000c64c:	90 10 00 18 	mov  %i0, %o0
4000c650:	80 a2 20 00 	cmp  %o0, 0
4000c654:	12 80 00 cf 	bne  4000c990 <__sfvwrite_r+0x4e8>
4000c658:	01 00 00 00 	nop 
4000c65c:	10 bf ff a0 	b  4000c4dc <__sfvwrite_r+0x34>
4000c660:	c2 16 60 0c 	lduh  [ %i1 + 0xc ], %g1
4000c664:	92 10 00 19 	mov  %i1, %o1
4000c668:	7f ff ea 2f 	call  40006f24 <_fflush_r>
4000c66c:	90 10 00 18 	mov  %i0, %o0
4000c670:	80 a2 20 00 	cmp  %o0, 0
4000c674:	22 bf ff ed 	be,a   4000c628 <__sfvwrite_r+0x180>
4000c678:	c2 06 a0 08 	ld  [ %i2 + 8 ], %g1
4000c67c:	c2 16 60 0c 	lduh  [ %i1 + 0xc ], %g1
4000c680:	82 10 60 40 	or  %g1, 0x40, %g1
4000c684:	c2 36 60 0c 	sth  %g1, [ %i1 + 0xc ]
4000c688:	81 c7 e0 08 	ret 
4000c68c:	91 e8 3f ff 	restore  %g0, -1, %o0
4000c690:	e0 07 60 04 	ld  [ %i5 + 4 ], %l0
4000c694:	e2 07 40 00 	ld  [ %i5 ], %l1
4000c698:	80 a4 20 00 	cmp  %l0, 0
4000c69c:	02 bf ff fd 	be  4000c690 <__sfvwrite_r+0x1e8>
4000c6a0:	ba 07 60 08 	add  %i5, 8, %i5
4000c6a4:	94 10 00 10 	mov  %l0, %o2
4000c6a8:	92 10 20 0a 	mov  0xa, %o1
4000c6ac:	7f ff ef 18 	call  4000830c <memchr>
4000c6b0:	90 10 00 11 	mov  %l1, %o0
4000c6b4:	80 a2 20 00 	cmp  %o0, 0
4000c6b8:	02 80 00 af 	be  4000c974 <__sfvwrite_r+0x4cc>
4000c6bc:	90 02 20 01 	inc  %o0
4000c6c0:	10 bf ff b9 	b  4000c5a4 <__sfvwrite_r+0xfc>
4000c6c4:	a4 22 00 11 	sub  %o0, %l1, %l2
4000c6c8:	e2 06 60 08 	ld  [ %i1 + 8 ], %l1
4000c6cc:	a6 14 a3 fe 	or  %l2, 0x3fe, %l3
4000c6d0:	d0 06 40 00 	ld  [ %i1 ], %o0
4000c6d4:	a0 10 20 00 	clr  %l0
4000c6d8:	b8 10 20 00 	clr  %i4
4000c6dc:	a4 14 a3 ff 	or  %l2, 0x3ff, %l2
4000c6e0:	80 a7 20 00 	cmp  %i4, 0
4000c6e4:	22 80 00 49 	be,a   4000c808 <__sfvwrite_r+0x360>
4000c6e8:	e0 07 40 00 	ld  [ %i5 ], %l0
4000c6ec:	80 88 62 00 	btst  0x200, %g1
4000c6f0:	22 80 00 49 	be,a   4000c814 <__sfvwrite_r+0x36c>
4000c6f4:	c2 06 60 10 	ld  [ %i1 + 0x10 ], %g1
4000c6f8:	80 a4 40 1c 	cmp  %l1, %i4
4000c6fc:	18 80 00 76 	bgu  4000c8d4 <__sfvwrite_r+0x42c>
4000c700:	a8 10 00 11 	mov  %l1, %l4
4000c704:	84 08 64 80 	and  %g1, 0x480, %g2
4000c708:	80 a0 a0 00 	cmp  %g2, 0
4000c70c:	22 80 00 29 	be,a   4000c7b0 <__sfvwrite_r+0x308>
4000c710:	94 10 00 14 	mov  %l4, %o2
4000c714:	f6 06 60 14 	ld  [ %i1 + 0x14 ], %i3
4000c718:	d2 06 60 10 	ld  [ %i1 + 0x10 ], %o1
4000c71c:	87 2e e0 01 	sll  %i3, 1, %g3
4000c720:	a8 22 00 09 	sub  %o0, %o1, %l4
4000c724:	86 00 c0 1b 	add  %g3, %i3, %g3
4000c728:	84 07 20 01 	add  %i4, 1, %g2
4000c72c:	b7 30 e0 1f 	srl  %g3, 0x1f, %i3
4000c730:	84 00 80 14 	add  %g2, %l4, %g2
4000c734:	b6 06 c0 03 	add  %i3, %g3, %i3
4000c738:	b7 3e e0 01 	sra  %i3, 1, %i3
4000c73c:	80 a0 80 1b 	cmp  %g2, %i3
4000c740:	08 80 00 04 	bleu  4000c750 <__sfvwrite_r+0x2a8>
4000c744:	94 10 00 1b 	mov  %i3, %o2
4000c748:	b6 10 00 02 	mov  %g2, %i3
4000c74c:	94 10 00 02 	mov  %g2, %o2
4000c750:	80 88 64 00 	btst  0x400, %g1
4000c754:	02 80 00 7b 	be  4000c940 <__sfvwrite_r+0x498>
4000c758:	01 00 00 00 	nop 
4000c75c:	92 10 00 0a 	mov  %o2, %o1
4000c760:	7f ff ec f6 	call  40007b38 <_malloc_r>
4000c764:	90 10 00 18 	mov  %i0, %o0
4000c768:	a2 92 20 00 	orcc  %o0, 0, %l1
4000c76c:	02 80 00 85 	be  4000c980 <__sfvwrite_r+0x4d8>
4000c770:	94 10 00 14 	mov  %l4, %o2
4000c774:	7f ff d6 b1 	call  40002238 <memcpy>
4000c778:	d2 06 60 10 	ld  [ %i1 + 0x10 ], %o1
4000c77c:	c2 16 60 0c 	lduh  [ %i1 + 0xc ], %g1
4000c780:	82 08 7b 7f 	and  %g1, -1153, %g1
4000c784:	82 10 60 80 	or  %g1, 0x80, %g1
4000c788:	c2 36 60 0c 	sth  %g1, [ %i1 + 0xc ]
4000c78c:	90 04 40 14 	add  %l1, %l4, %o0
4000c790:	82 26 c0 14 	sub  %i3, %l4, %g1
4000c794:	e2 26 60 10 	st  %l1, [ %i1 + 0x10 ]
4000c798:	d0 26 40 00 	st  %o0, [ %i1 ]
4000c79c:	f6 26 60 14 	st  %i3, [ %i1 + 0x14 ]
4000c7a0:	a2 10 00 1c 	mov  %i4, %l1
4000c7a4:	c2 26 60 08 	st  %g1, [ %i1 + 8 ]
4000c7a8:	a8 10 00 1c 	mov  %i4, %l4
4000c7ac:	94 10 00 14 	mov  %l4, %o2
4000c7b0:	40 00 01 1d 	call  4000cc24 <memmove>
4000c7b4:	92 10 00 10 	mov  %l0, %o1
4000c7b8:	c4 06 60 08 	ld  [ %i1 + 8 ], %g2
4000c7bc:	c2 06 40 00 	ld  [ %i1 ], %g1
4000c7c0:	b6 10 00 1c 	mov  %i4, %i3
4000c7c4:	a2 20 80 11 	sub  %g2, %l1, %l1
4000c7c8:	82 00 40 14 	add  %g1, %l4, %g1
4000c7cc:	b8 10 20 00 	clr  %i4
4000c7d0:	e2 26 60 08 	st  %l1, [ %i1 + 8 ]
4000c7d4:	c2 26 40 00 	st  %g1, [ %i1 ]
4000c7d8:	c2 06 a0 08 	ld  [ %i2 + 8 ], %g1
4000c7dc:	82 20 40 1b 	sub  %g1, %i3, %g1
4000c7e0:	c2 26 a0 08 	st  %g1, [ %i2 + 8 ]
4000c7e4:	80 a0 60 00 	cmp  %g1, 0
4000c7e8:	02 bf ff 96 	be  4000c640 <__sfvwrite_r+0x198>
4000c7ec:	a0 04 00 1b 	add  %l0, %i3, %l0
4000c7f0:	c2 16 60 0c 	lduh  [ %i1 + 0xc ], %g1
4000c7f4:	e2 06 60 08 	ld  [ %i1 + 8 ], %l1
4000c7f8:	80 a7 20 00 	cmp  %i4, 0
4000c7fc:	12 bf ff bc 	bne  4000c6ec <__sfvwrite_r+0x244>
4000c800:	d0 06 40 00 	ld  [ %i1 ], %o0
4000c804:	e0 07 40 00 	ld  [ %i5 ], %l0
4000c808:	f8 07 60 04 	ld  [ %i5 + 4 ], %i4
4000c80c:	10 bf ff b5 	b  4000c6e0 <__sfvwrite_r+0x238>
4000c810:	ba 07 60 08 	add  %i5, 8, %i5
4000c814:	80 a0 40 08 	cmp  %g1, %o0
4000c818:	0a 80 00 19 	bcs  4000c87c <__sfvwrite_r+0x3d4>
4000c81c:	80 a4 40 1c 	cmp  %l1, %i4
4000c820:	f6 06 60 14 	ld  [ %i1 + 0x14 ], %i3
4000c824:	80 a6 c0 1c 	cmp  %i3, %i4
4000c828:	18 80 00 15 	bgu  4000c87c <__sfvwrite_r+0x3d4>
4000c82c:	80 a4 40 1c 	cmp  %l1, %i4
4000c830:	80 a7 00 13 	cmp  %i4, %l3
4000c834:	08 80 00 03 	bleu  4000c840 <__sfvwrite_r+0x398>
4000c838:	90 10 00 1c 	mov  %i4, %o0
4000c83c:	90 10 00 12 	mov  %l2, %o0
4000c840:	40 00 05 df 	call  4000dfbc <.div>
4000c844:	92 10 00 1b 	mov  %i3, %o1
4000c848:	40 00 05 a1 	call  4000decc <.umul>
4000c84c:	92 10 00 1b 	mov  %i3, %o1
4000c850:	c2 06 60 28 	ld  [ %i1 + 0x28 ], %g1
4000c854:	96 10 00 08 	mov  %o0, %o3
4000c858:	94 10 00 10 	mov  %l0, %o2
4000c85c:	d2 06 60 20 	ld  [ %i1 + 0x20 ], %o1
4000c860:	9f c0 40 00 	call  %g1
4000c864:	90 10 00 18 	mov  %i0, %o0
4000c868:	b6 92 20 00 	orcc  %o0, 0, %i3
4000c86c:	24 bf ff 85 	ble,a   4000c680 <__sfvwrite_r+0x1d8>
4000c870:	c2 16 60 0c 	lduh  [ %i1 + 0xc ], %g1
4000c874:	10 bf ff d9 	b  4000c7d8 <__sfvwrite_r+0x330>
4000c878:	b8 27 00 1b 	sub  %i4, %i3, %i4
4000c87c:	08 80 00 03 	bleu  4000c888 <__sfvwrite_r+0x3e0>
4000c880:	b6 10 00 11 	mov  %l1, %i3
4000c884:	b6 10 00 1c 	mov  %i4, %i3
4000c888:	94 10 00 1b 	mov  %i3, %o2
4000c88c:	40 00 00 e6 	call  4000cc24 <memmove>
4000c890:	92 10 00 10 	mov  %l0, %o1
4000c894:	c2 06 60 08 	ld  [ %i1 + 8 ], %g1
4000c898:	c4 06 40 00 	ld  [ %i1 ], %g2
4000c89c:	82 20 40 1b 	sub  %g1, %i3, %g1
4000c8a0:	84 00 80 1b 	add  %g2, %i3, %g2
4000c8a4:	c2 26 60 08 	st  %g1, [ %i1 + 8 ]
4000c8a8:	80 a0 60 00 	cmp  %g1, 0
4000c8ac:	12 bf ff f2 	bne  4000c874 <__sfvwrite_r+0x3cc>
4000c8b0:	c4 26 40 00 	st  %g2, [ %i1 ]
4000c8b4:	92 10 00 19 	mov  %i1, %o1
4000c8b8:	7f ff e9 9b 	call  40006f24 <_fflush_r>
4000c8bc:	90 10 00 18 	mov  %i0, %o0
4000c8c0:	80 a2 20 00 	cmp  %o0, 0
4000c8c4:	32 bf ff 6f 	bne,a   4000c680 <__sfvwrite_r+0x1d8>
4000c8c8:	c2 16 60 0c 	lduh  [ %i1 + 0xc ], %g1
4000c8cc:	10 bf ff c3 	b  4000c7d8 <__sfvwrite_r+0x330>
4000c8d0:	b8 27 00 1b 	sub  %i4, %i3, %i4
4000c8d4:	a2 10 00 1c 	mov  %i4, %l1
4000c8d8:	10 bf ff b5 	b  4000c7ac <__sfvwrite_r+0x304>
4000c8dc:	a8 10 00 1c 	mov  %i4, %l4
4000c8e0:	94 10 00 1b 	mov  %i3, %o2
4000c8e4:	40 00 00 d0 	call  4000cc24 <memmove>
4000c8e8:	92 10 00 11 	mov  %l1, %o1
4000c8ec:	c4 06 60 08 	ld  [ %i1 + 8 ], %g2
4000c8f0:	c2 06 40 00 	ld  [ %i1 ], %g1
4000c8f4:	84 20 80 1b 	sub  %g2, %i3, %g2
4000c8f8:	82 00 40 1b 	add  %g1, %i3, %g1
4000c8fc:	b8 10 00 1b 	mov  %i3, %i4
4000c900:	c4 26 60 08 	st  %g2, [ %i1 + 8 ]
4000c904:	10 bf ff 45 	b  4000c618 <__sfvwrite_r+0x170>
4000c908:	c2 26 40 00 	st  %g1, [ %i1 ]
4000c90c:	40 00 00 c6 	call  4000cc24 <memmove>
4000c910:	92 10 00 11 	mov  %l1, %o1
4000c914:	c2 06 40 00 	ld  [ %i1 ], %g1
4000c918:	82 00 40 1c 	add  %g1, %i4, %g1
4000c91c:	92 10 00 19 	mov  %i1, %o1
4000c920:	90 10 00 18 	mov  %i0, %o0
4000c924:	7f ff e9 80 	call  40006f24 <_fflush_r>
4000c928:	c2 26 40 00 	st  %g1, [ %i1 ]
4000c92c:	80 a2 20 00 	cmp  %o0, 0
4000c930:	22 bf ff 3b 	be,a   4000c61c <__sfvwrite_r+0x174>
4000c934:	a4 a4 80 1c 	subcc  %l2, %i4, %l2
4000c938:	10 bf ff 52 	b  4000c680 <__sfvwrite_r+0x1d8>
4000c93c:	c2 16 60 0c 	lduh  [ %i1 + 0xc ], %g1
4000c940:	40 00 01 4a 	call  4000ce68 <_realloc_r>
4000c944:	90 10 00 18 	mov  %i0, %o0
4000c948:	a2 92 20 00 	orcc  %o0, 0, %l1
4000c94c:	32 bf ff 91 	bne,a   4000c790 <__sfvwrite_r+0x2e8>
4000c950:	90 04 40 14 	add  %l1, %l4, %o0
4000c954:	d2 06 60 10 	ld  [ %i1 + 0x10 ], %o1
4000c958:	7f ff ea df 	call  400074d4 <_free_r>
4000c95c:	90 10 00 18 	mov  %i0, %o0
4000c960:	c2 16 60 0c 	lduh  [ %i1 + 0xc ], %g1
4000c964:	84 10 20 0c 	mov  0xc, %g2
4000c968:	82 08 7f 7f 	and  %g1, -129, %g1
4000c96c:	10 bf ff 45 	b  4000c680 <__sfvwrite_r+0x1d8>
4000c970:	c4 26 00 00 	st  %g2, [ %i0 ]
4000c974:	82 04 20 01 	add  %l0, 1, %g1
4000c978:	10 bf ff 0c 	b  4000c5a8 <__sfvwrite_r+0x100>
4000c97c:	a4 10 00 01 	mov  %g1, %l2
4000c980:	c2 16 60 0c 	lduh  [ %i1 + 0xc ], %g1
4000c984:	84 10 20 0c 	mov  0xc, %g2
4000c988:	10 bf ff 3e 	b  4000c680 <__sfvwrite_r+0x1d8>
4000c98c:	c4 26 00 00 	st  %g2, [ %i0 ]
4000c990:	81 c7 e0 08 	ret 
4000c994:	91 e8 3f ff 	restore  %g0, -1, %o0

4000c998 <_isatty_r>:
4000c998:	9d e3 bf a0 	save  %sp, -96, %sp
4000c99c:	3b 10 00 3e 	sethi  %hi(0x4000f800), %i5
4000c9a0:	90 10 00 19 	mov  %i1, %o0
4000c9a4:	40 00 05 17 	call  4000de00 <getpid>
4000c9a8:	c0 27 63 08 	clr  [ %i5 + 0x308 ]
4000c9ac:	80 a2 3f ff 	cmp  %o0, -1
4000c9b0:	02 80 00 04 	be  4000c9c0 <_isatty_r+0x28>
4000c9b4:	c2 07 63 08 	ld  [ %i5 + 0x308 ], %g1
4000c9b8:	81 c7 e0 08 	ret 
4000c9bc:	91 e8 00 08 	restore  %g0, %o0, %o0
4000c9c0:	80 a0 60 00 	cmp  %g1, 0
4000c9c4:	02 bf ff fd 	be  4000c9b8 <_isatty_r+0x20>
4000c9c8:	01 00 00 00 	nop 
4000c9cc:	c2 26 00 00 	st  %g1, [ %i0 ]
4000c9d0:	81 c7 e0 08 	ret 
4000c9d4:	91 e8 00 08 	restore  %g0, %o0, %o0

4000c9d8 <_setlocale_r>:
4000c9d8:	9d e3 bf a0 	save  %sp, -96, %sp
4000c9dc:	80 a6 a0 00 	cmp  %i2, 0
4000c9e0:	02 80 00 0b 	be  4000ca0c <_setlocale_r+0x34>
4000c9e4:	90 10 00 1a 	mov  %i2, %o0
4000c9e8:	13 10 00 3b 	sethi  %hi(0x4000ec00), %o1
4000c9ec:	31 10 00 3b 	sethi  %hi(0x4000ec00), %i0
4000c9f0:	40 00 03 25 	call  4000d684 <strcmp>
4000c9f4:	92 12 63 b8 	or  %o1, 0x3b8, %o1
4000c9f8:	80 a2 20 00 	cmp  %o0, 0
4000c9fc:	12 80 00 07 	bne  4000ca18 <_setlocale_r+0x40>
4000ca00:	92 16 23 b0 	or  %i0, 0x3b0, %o1
4000ca04:	81 c7 e0 08 	ret 
4000ca08:	91 ee 23 b0 	restore  %i0, 0x3b0, %o0
4000ca0c:	31 10 00 3b 	sethi  %hi(0x4000ec00), %i0
4000ca10:	81 c7 e0 08 	ret 
4000ca14:	91 ee 23 b0 	restore  %i0, 0x3b0, %o0
4000ca18:	40 00 03 1b 	call  4000d684 <strcmp>
4000ca1c:	90 10 00 1a 	mov  %i2, %o0
4000ca20:	80 a2 20 00 	cmp  %o0, 0
4000ca24:	02 bf ff f8 	be  4000ca04 <_setlocale_r+0x2c>
4000ca28:	90 10 00 1a 	mov  %i2, %o0
4000ca2c:	13 10 00 3b 	sethi  %hi(0x4000ec00), %o1
4000ca30:	40 00 03 15 	call  4000d684 <strcmp>
4000ca34:	92 12 61 40 	or  %o1, 0x140, %o1	! 4000ed40 <_global_impure_ptr+0x4c>
4000ca38:	80 a2 20 00 	cmp  %o0, 0
4000ca3c:	02 bf ff f2 	be  4000ca04 <_setlocale_r+0x2c>
4000ca40:	01 00 00 00 	nop 
4000ca44:	81 c7 e0 08 	ret 
4000ca48:	91 e8 20 00 	restore  %g0, 0, %o0

4000ca4c <__locale_mb_cur_max>:
4000ca4c:	03 10 00 3c 	sethi  %hi(0x4000f000), %g1
4000ca50:	c2 00 63 7c 	ld  [ %g1 + 0x37c ], %g1	! 4000f37c <_impure_ptr>
4000ca54:	c2 00 60 20 	ld  [ %g1 + 0x20 ], %g1
4000ca58:	80 a0 60 00 	cmp  %g1, 0
4000ca5c:	22 80 00 04 	be,a   4000ca6c <__locale_mb_cur_max+0x20>
4000ca60:	03 10 00 3d 	sethi  %hi(0x4000f400), %g1
4000ca64:	81 c3 e0 08 	retl 
4000ca68:	d0 48 61 28 	ldsb  [ %g1 + 0x128 ], %o0	! 4000f528 <__malloc_av_+0x140>
4000ca6c:	82 10 63 f0 	or  %g1, 0x3f0, %g1
4000ca70:	81 c3 e0 08 	retl 
4000ca74:	d0 48 61 28 	ldsb  [ %g1 + 0x128 ], %o0

4000ca78 <__locale_ctype_ptr_l>:
4000ca78:	81 c3 e0 08 	retl 
4000ca7c:	d0 02 20 ec 	ld  [ %o0 + 0xec ], %o0

4000ca80 <__locale_ctype_ptr>:
4000ca80:	03 10 00 3c 	sethi  %hi(0x4000f000), %g1
4000ca84:	c2 00 63 7c 	ld  [ %g1 + 0x37c ], %g1	! 4000f37c <_impure_ptr>
4000ca88:	c2 00 60 20 	ld  [ %g1 + 0x20 ], %g1
4000ca8c:	80 a0 60 00 	cmp  %g1, 0
4000ca90:	22 80 00 04 	be,a   4000caa0 <__locale_ctype_ptr+0x20>
4000ca94:	03 10 00 3d 	sethi  %hi(0x4000f400), %g1
4000ca98:	81 c3 e0 08 	retl 
4000ca9c:	d0 00 60 ec 	ld  [ %g1 + 0xec ], %o0	! 4000f4ec <__malloc_av_+0x104>
4000caa0:	82 10 63 f0 	or  %g1, 0x3f0, %g1
4000caa4:	81 c3 e0 08 	retl 
4000caa8:	d0 00 60 ec 	ld  [ %g1 + 0xec ], %o0

4000caac <setlocale>:
4000caac:	9d e3 bf a0 	save  %sp, -96, %sp
4000cab0:	80 a6 60 00 	cmp  %i1, 0
4000cab4:	02 80 00 0b 	be  4000cae0 <setlocale+0x34>
4000cab8:	90 10 00 19 	mov  %i1, %o0
4000cabc:	13 10 00 3b 	sethi  %hi(0x4000ec00), %o1
4000cac0:	31 10 00 3b 	sethi  %hi(0x4000ec00), %i0
4000cac4:	40 00 02 f0 	call  4000d684 <strcmp>
4000cac8:	92 12 63 b8 	or  %o1, 0x3b8, %o1
4000cacc:	80 a2 20 00 	cmp  %o0, 0
4000cad0:	12 80 00 07 	bne  4000caec <setlocale+0x40>
4000cad4:	92 16 23 b0 	or  %i0, 0x3b0, %o1
4000cad8:	81 c7 e0 08 	ret 
4000cadc:	91 ee 23 b0 	restore  %i0, 0x3b0, %o0
4000cae0:	31 10 00 3b 	sethi  %hi(0x4000ec00), %i0
4000cae4:	81 c7 e0 08 	ret 
4000cae8:	91 ee 23 b0 	restore  %i0, 0x3b0, %o0
4000caec:	40 00 02 e6 	call  4000d684 <strcmp>
4000caf0:	90 10 00 19 	mov  %i1, %o0
4000caf4:	80 a2 20 00 	cmp  %o0, 0
4000caf8:	02 bf ff f8 	be  4000cad8 <setlocale+0x2c>
4000cafc:	90 10 00 19 	mov  %i1, %o0
4000cb00:	13 10 00 3b 	sethi  %hi(0x4000ec00), %o1
4000cb04:	40 00 02 e0 	call  4000d684 <strcmp>
4000cb08:	92 12 61 40 	or  %o1, 0x140, %o1	! 4000ed40 <_global_impure_ptr+0x4c>
4000cb0c:	80 a2 20 00 	cmp  %o0, 0
4000cb10:	02 bf ff f2 	be  4000cad8 <setlocale+0x2c>
4000cb14:	01 00 00 00 	nop 
4000cb18:	81 c7 e0 08 	ret 
4000cb1c:	91 e8 20 00 	restore  %g0, 0, %o0

4000cb20 <_lseek_r>:
4000cb20:	9d e3 bf a0 	save  %sp, -96, %sp
4000cb24:	3b 10 00 3e 	sethi  %hi(0x4000f800), %i5
4000cb28:	94 10 00 1b 	mov  %i3, %o2
4000cb2c:	c0 27 63 08 	clr  [ %i5 + 0x308 ]
4000cb30:	92 10 00 1a 	mov  %i2, %o1
4000cb34:	40 00 04 ad 	call  4000dde8 <close>
4000cb38:	90 10 00 19 	mov  %i1, %o0
4000cb3c:	80 a2 3f ff 	cmp  %o0, -1
4000cb40:	02 80 00 04 	be  4000cb50 <_lseek_r+0x30>
4000cb44:	c2 07 63 08 	ld  [ %i5 + 0x308 ], %g1
4000cb48:	81 c7 e0 08 	ret 
4000cb4c:	91 e8 00 08 	restore  %g0, %o0, %o0
4000cb50:	80 a0 60 00 	cmp  %g1, 0
4000cb54:	02 bf ff fd 	be  4000cb48 <_lseek_r+0x28>
4000cb58:	01 00 00 00 	nop 
4000cb5c:	c2 26 00 00 	st  %g1, [ %i0 ]
4000cb60:	81 c7 e0 08 	ret 
4000cb64:	91 e8 00 08 	restore  %g0, %o0, %o0

4000cb68 <_mbtowc_r>:
4000cb68:	9d e3 bf a0 	save  %sp, -96, %sp
4000cb6c:	03 10 00 3c 	sethi  %hi(0x4000f000), %g1
4000cb70:	c2 00 63 7c 	ld  [ %g1 + 0x37c ], %g1	! 4000f37c <_impure_ptr>
4000cb74:	c2 00 60 20 	ld  [ %g1 + 0x20 ], %g1
4000cb78:	80 a0 60 00 	cmp  %g1, 0
4000cb7c:	02 80 00 0a 	be  4000cba4 <_mbtowc_r+0x3c>
4000cb80:	98 10 00 1c 	mov  %i4, %o4
4000cb84:	c2 00 60 e4 	ld  [ %g1 + 0xe4 ], %g1
4000cb88:	96 10 00 1b 	mov  %i3, %o3
4000cb8c:	94 10 00 1a 	mov  %i2, %o2
4000cb90:	92 10 00 19 	mov  %i1, %o1
4000cb94:	9f c0 40 00 	call  %g1
4000cb98:	90 10 00 18 	mov  %i0, %o0
4000cb9c:	81 c7 e0 08 	ret 
4000cba0:	91 e8 00 08 	restore  %g0, %o0, %o0
4000cba4:	96 10 00 1b 	mov  %i3, %o3
4000cba8:	94 10 00 1a 	mov  %i2, %o2
4000cbac:	92 10 00 19 	mov  %i1, %o1
4000cbb0:	03 10 00 3d 	sethi  %hi(0x4000f400), %g1
4000cbb4:	82 10 63 f0 	or  %g1, 0x3f0, %g1	! 4000f7f0 <__global_locale>
4000cbb8:	c2 00 60 e4 	ld  [ %g1 + 0xe4 ], %g1
4000cbbc:	9f c0 40 00 	call  %g1
4000cbc0:	90 10 00 18 	mov  %i0, %o0
4000cbc4:	81 c7 e0 08 	ret 
4000cbc8:	91 e8 00 08 	restore  %g0, %o0, %o0

4000cbcc <__ascii_mbtowc>:
4000cbcc:	80 a2 60 00 	cmp  %o1, 0
4000cbd0:	02 80 00 0f 	be  4000cc0c <__ascii_mbtowc+0x40>
4000cbd4:	9c 03 bf b0 	add  %sp, -80, %sp
4000cbd8:	80 a2 a0 00 	cmp  %o2, 0
4000cbdc:	02 80 00 10 	be  4000cc1c <__ascii_mbtowc+0x50>
4000cbe0:	90 10 20 00 	clr  %o0
4000cbe4:	80 a2 e0 00 	cmp  %o3, 0
4000cbe8:	22 80 00 07 	be,a   4000cc04 <__ascii_mbtowc+0x38>
4000cbec:	90 10 3f fe 	mov  -2, %o0
4000cbf0:	c2 0a 80 00 	ldub  [ %o2 ], %g1
4000cbf4:	c2 22 40 00 	st  %g1, [ %o1 ]
4000cbf8:	c2 0a 80 00 	ldub  [ %o2 ], %g1
4000cbfc:	80 a0 00 01 	cmp  %g0, %g1
4000cc00:	90 40 20 00 	addx  %g0, 0, %o0
4000cc04:	81 c3 e0 08 	retl 
4000cc08:	9c 03 a0 50 	add  %sp, 0x50, %sp
4000cc0c:	80 a2 a0 00 	cmp  %o2, 0
4000cc10:	12 bf ff f5 	bne  4000cbe4 <__ascii_mbtowc+0x18>
4000cc14:	92 03 a0 4c 	add  %sp, 0x4c, %o1
4000cc18:	90 10 20 00 	clr  %o0
4000cc1c:	81 c3 e0 08 	retl 
4000cc20:	9c 03 a0 50 	add  %sp, 0x50, %sp

4000cc24 <memmove>:
4000cc24:	80 a2 00 09 	cmp  %o0, %o1
4000cc28:	08 80 00 11 	bleu  4000cc6c <memmove+0x48>
4000cc2c:	80 a2 a0 0f 	cmp  %o2, 0xf
4000cc30:	82 02 40 0a 	add  %o1, %o2, %g1
4000cc34:	80 a2 00 01 	cmp  %o0, %g1
4000cc38:	1a 80 00 0d 	bcc  4000cc6c <memmove+0x48>
4000cc3c:	80 a2 a0 0f 	cmp  %o2, 0xf
4000cc40:	80 a2 a0 00 	cmp  %o2, 0
4000cc44:	02 80 00 08 	be  4000cc64 <memmove+0x40>
4000cc48:	82 02 bf ff 	add  %o2, -1, %g1
4000cc4c:	c4 0a 40 01 	ldub  [ %o1 + %g1 ], %g2
4000cc50:	c4 2a 00 01 	stb  %g2, [ %o0 + %g1 ]
4000cc54:	82 00 7f ff 	add  %g1, -1, %g1
4000cc58:	80 a0 7f ff 	cmp  %g1, -1
4000cc5c:	32 bf ff fd 	bne,a   4000cc50 <memmove+0x2c>
4000cc60:	c4 0a 40 01 	ldub  [ %o1 + %g1 ], %g2
4000cc64:	81 c3 e0 08 	retl 
4000cc68:	01 00 00 00 	nop 
4000cc6c:	18 80 00 35 	bgu  4000cd40 <memmove+0x11c>
4000cc70:	82 12 40 08 	or  %o1, %o0, %g1
4000cc74:	82 10 00 08 	mov  %o0, %g1
4000cc78:	80 a2 a0 00 	cmp  %o2, 0
4000cc7c:	02 bf ff fa 	be  4000cc64 <memmove+0x40>
4000cc80:	98 02 bf ff 	add  %o2, -1, %o4
4000cc84:	84 10 40 09 	or  %g1, %o1, %g2
4000cc88:	84 08 a0 03 	and  %g2, 3, %g2
4000cc8c:	80 a0 00 02 	cmp  %g0, %g2
4000cc90:	84 02 60 01 	add  %o1, 1, %g2
4000cc94:	88 60 3f ff 	subx  %g0, -1, %g4
4000cc98:	84 20 40 02 	sub  %g1, %g2, %g2
4000cc9c:	80 a0 a0 02 	cmp  %g2, 2
4000cca0:	18 80 00 03 	bgu  4000ccac <memmove+0x88>
4000cca4:	86 10 20 01 	mov  1, %g3
4000cca8:	86 10 20 00 	clr  %g3
4000ccac:	80 89 00 03 	btst  %g4, %g3
4000ccb0:	02 80 00 52 	be  4000cdf8 <memmove+0x1d4>
4000ccb4:	80 a3 20 08 	cmp  %o4, 8
4000ccb8:	18 80 00 03 	bgu  4000ccc4 <memmove+0xa0>
4000ccbc:	84 10 20 01 	mov  1, %g2
4000ccc0:	84 10 20 00 	clr  %g2
4000ccc4:	80 88 a0 ff 	btst  0xff, %g2
4000ccc8:	02 80 00 4c 	be  4000cdf8 <memmove+0x1d4>
4000cccc:	86 03 3f fd 	add  %o4, -3, %g3
4000ccd0:	96 03 20 01 	add  %o4, 1, %o3
4000ccd4:	87 30 e0 02 	srl  %g3, 2, %g3
4000ccd8:	84 10 20 00 	clr  %g2
4000ccdc:	86 00 e0 01 	inc  %g3
4000cce0:	88 10 20 00 	clr  %g4
4000cce4:	da 02 40 02 	ld  [ %o1 + %g2 ], %o5
4000cce8:	da 20 40 02 	st  %o5, [ %g1 + %g2 ]
4000ccec:	88 01 20 01 	inc  %g4
4000ccf0:	80 a0 c0 04 	cmp  %g3, %g4
4000ccf4:	18 bf ff fc 	bgu  4000cce4 <memmove+0xc0>
4000ccf8:	84 00 a0 04 	add  %g2, 4, %g2
4000ccfc:	87 28 e0 02 	sll  %g3, 2, %g3
4000cd00:	84 00 40 03 	add  %g1, %g3, %g2
4000cd04:	88 02 40 03 	add  %o1, %g3, %g4
4000cd08:	80 a2 c0 03 	cmp  %o3, %g3
4000cd0c:	02 bf ff d6 	be  4000cc64 <memmove+0x40>
4000cd10:	98 23 00 03 	sub  %o4, %g3, %o4
4000cd14:	da 0a 40 03 	ldub  [ %o1 + %g3 ], %o5
4000cd18:	80 a3 20 00 	cmp  %o4, 0
4000cd1c:	02 bf ff d2 	be  4000cc64 <memmove+0x40>
4000cd20:	da 28 40 03 	stb  %o5, [ %g1 + %g3 ]
4000cd24:	c2 09 20 01 	ldub  [ %g4 + 1 ], %g1
4000cd28:	80 a3 20 01 	cmp  %o4, 1
4000cd2c:	02 bf ff ce 	be  4000cc64 <memmove+0x40>
4000cd30:	c2 28 a0 01 	stb  %g1, [ %g2 + 1 ]
4000cd34:	c2 09 20 02 	ldub  [ %g4 + 2 ], %g1
4000cd38:	81 c3 e0 08 	retl 
4000cd3c:	c2 28 a0 02 	stb  %g1, [ %g2 + 2 ]
4000cd40:	80 88 60 03 	btst  3, %g1
4000cd44:	12 80 00 2b 	bne  4000cdf0 <memmove+0x1cc>
4000cd48:	98 02 bf ff 	add  %o2, -1, %o4
4000cd4c:	9a 02 bf f0 	add  %o2, -16, %o5
4000cd50:	84 10 00 09 	mov  %o1, %g2
4000cd54:	9a 0b 7f f0 	and  %o5, -16, %o5
4000cd58:	82 10 00 08 	mov  %o0, %g1
4000cd5c:	9a 03 60 10 	add  %o5, 0x10, %o5
4000cd60:	88 02 00 0d 	add  %o0, %o5, %g4
4000cd64:	c6 00 80 00 	ld  [ %g2 ], %g3
4000cd68:	84 00 a0 10 	add  %g2, 0x10, %g2
4000cd6c:	c6 20 40 00 	st  %g3, [ %g1 ]
4000cd70:	c6 00 bf f4 	ld  [ %g2 + -12 ], %g3
4000cd74:	c6 20 60 04 	st  %g3, [ %g1 + 4 ]
4000cd78:	c6 00 bf f8 	ld  [ %g2 + -8 ], %g3
4000cd7c:	c6 20 60 08 	st  %g3, [ %g1 + 8 ]
4000cd80:	c6 00 bf fc 	ld  [ %g2 + -4 ], %g3
4000cd84:	c6 20 60 0c 	st  %g3, [ %g1 + 0xc ]
4000cd88:	82 00 60 10 	add  %g1, 0x10, %g1
4000cd8c:	80 a1 00 01 	cmp  %g4, %g1
4000cd90:	32 bf ff f6 	bne,a   4000cd68 <memmove+0x144>
4000cd94:	c6 00 80 00 	ld  [ %g2 ], %g3
4000cd98:	92 02 40 0d 	add  %o1, %o5, %o1
4000cd9c:	80 8a a0 0c 	btst  0xc, %o2
4000cda0:	02 80 00 1e 	be  4000ce18 <memmove+0x1f4>
4000cda4:	86 0a a0 0f 	and  %o2, 0xf, %g3
4000cda8:	c4 02 40 00 	ld  [ %o1 ], %g2
4000cdac:	c4 20 40 00 	st  %g2, [ %g1 ]
4000cdb0:	84 00 ff fc 	add  %g3, -4, %g2
4000cdb4:	80 a0 a0 03 	cmp  %g2, 3
4000cdb8:	08 80 00 08 	bleu  4000cdd8 <memmove+0x1b4>
4000cdbc:	86 00 ff f8 	add  %g3, -8, %g3
4000cdc0:	c8 02 60 04 	ld  [ %o1 + 4 ], %g4
4000cdc4:	80 a0 e0 03 	cmp  %g3, 3
4000cdc8:	08 80 00 04 	bleu  4000cdd8 <memmove+0x1b4>
4000cdcc:	c8 20 60 04 	st  %g4, [ %g1 + 4 ]
4000cdd0:	c6 02 60 08 	ld  [ %o1 + 8 ], %g3
4000cdd4:	c6 20 60 08 	st  %g3, [ %g1 + 8 ]
4000cdd8:	84 08 bf fc 	and  %g2, -4, %g2
4000cddc:	94 0a a0 03 	and  %o2, 3, %o2
4000cde0:	84 00 a0 04 	add  %g2, 4, %g2
4000cde4:	82 00 40 02 	add  %g1, %g2, %g1
4000cde8:	10 bf ff a4 	b  4000cc78 <memmove+0x54>
4000cdec:	92 02 40 02 	add  %o1, %g2, %o1
4000cdf0:	10 bf ff a5 	b  4000cc84 <memmove+0x60>
4000cdf4:	82 10 00 08 	mov  %o0, %g1
4000cdf8:	84 10 20 00 	clr  %g2
4000cdfc:	c6 0a 40 02 	ldub  [ %o1 + %g2 ], %g3
4000ce00:	c6 28 40 02 	stb  %g3, [ %g1 + %g2 ]
4000ce04:	80 a3 00 02 	cmp  %o4, %g2
4000ce08:	12 bf ff fd 	bne  4000cdfc <memmove+0x1d8>
4000ce0c:	84 00 a0 01 	inc  %g2
4000ce10:	81 c3 e0 08 	retl 
4000ce14:	01 00 00 00 	nop 
4000ce18:	10 bf ff 98 	b  4000cc78 <memmove+0x54>
4000ce1c:	94 10 00 03 	mov  %g3, %o2

4000ce20 <_read_r>:
4000ce20:	9d e3 bf a0 	save  %sp, -96, %sp
4000ce24:	3b 10 00 3e 	sethi  %hi(0x4000f800), %i5
4000ce28:	94 10 00 1b 	mov  %i3, %o2
4000ce2c:	c0 27 63 08 	clr  [ %i5 + 0x308 ]
4000ce30:	92 10 00 1a 	mov  %i2, %o1
4000ce34:	40 00 03 95 	call  4000dc88 <read>
4000ce38:	90 10 00 19 	mov  %i1, %o0
4000ce3c:	80 a2 3f ff 	cmp  %o0, -1
4000ce40:	02 80 00 04 	be  4000ce50 <_read_r+0x30>
4000ce44:	c2 07 63 08 	ld  [ %i5 + 0x308 ], %g1
4000ce48:	81 c7 e0 08 	ret 
4000ce4c:	91 e8 00 08 	restore  %g0, %o0, %o0
4000ce50:	80 a0 60 00 	cmp  %g1, 0
4000ce54:	02 bf ff fd 	be  4000ce48 <_read_r+0x28>
4000ce58:	01 00 00 00 	nop 
4000ce5c:	c2 26 00 00 	st  %g1, [ %i0 ]
4000ce60:	81 c7 e0 08 	ret 
4000ce64:	91 e8 00 08 	restore  %g0, %o0, %o0

4000ce68 <_realloc_r>:
4000ce68:	9d e3 bf a0 	save  %sp, -96, %sp
4000ce6c:	80 a6 60 00 	cmp  %i1, 0
4000ce70:	02 80 00 74 	be  4000d040 <_realloc_r+0x1d8>
4000ce74:	01 00 00 00 	nop 
4000ce78:	7f ff ed ac 	call  40008528 <__malloc_lock>
4000ce7c:	90 10 00 18 	mov  %i0, %o0
4000ce80:	c2 06 7f fc 	ld  [ %i1 + -4 ], %g1
4000ce84:	ba 06 a0 0b 	add  %i2, 0xb, %i5
4000ce88:	a0 06 7f f8 	add  %i1, -8, %l0
4000ce8c:	80 a7 60 16 	cmp  %i5, 0x16
4000ce90:	18 80 00 4c 	bgu  4000cfc0 <_realloc_r+0x158>
4000ce94:	b8 08 7f fc 	and  %g1, -4, %i4
4000ce98:	84 10 20 00 	clr  %g2
4000ce9c:	86 10 20 10 	mov  0x10, %g3
4000cea0:	ba 10 20 10 	mov  0x10, %i5
4000cea4:	80 a7 40 1a 	cmp  %i5, %i2
4000cea8:	0a 80 00 75 	bcs  4000d07c <_realloc_r+0x214>
4000ceac:	80 88 a0 ff 	btst  0xff, %g2
4000ceb0:	12 80 00 73 	bne  4000d07c <_realloc_r+0x214>
4000ceb4:	80 a7 00 03 	cmp  %i4, %g3
4000ceb8:	16 80 00 4c 	bge  4000cfe8 <_realloc_r+0x180>
4000cebc:	b6 04 00 1c 	add  %l0, %i4, %i3
4000cec0:	25 10 00 3c 	sethi  %hi(0x4000f000), %l2
4000cec4:	a4 14 a3 e8 	or  %l2, 0x3e8, %l2	! 4000f3e8 <__malloc_av_>
4000cec8:	c8 04 a0 08 	ld  [ %l2 + 8 ], %g4
4000cecc:	80 a1 00 1b 	cmp  %g4, %i3
4000ced0:	02 80 00 91 	be  4000d114 <_realloc_r+0x2ac>
4000ced4:	c4 06 e0 04 	ld  [ %i3 + 4 ], %g2
4000ced8:	88 08 bf fe 	and  %g2, -2, %g4
4000cedc:	88 06 c0 04 	add  %i3, %g4, %g4
4000cee0:	c8 01 20 04 	ld  [ %g4 + 4 ], %g4
4000cee4:	80 89 20 01 	btst  1, %g4
4000cee8:	12 80 00 4f 	bne  4000d024 <_realloc_r+0x1bc>
4000ceec:	80 88 60 01 	btst  1, %g1
4000cef0:	84 08 bf fc 	and  %g2, -4, %g2
4000cef4:	88 07 00 02 	add  %i4, %g2, %g4
4000cef8:	80 a1 00 03 	cmp  %g4, %g3
4000cefc:	16 80 00 35 	bge  4000cfd0 <_realloc_r+0x168>
4000cf00:	80 88 60 01 	btst  1, %g1
4000cf04:	12 80 00 10 	bne  4000cf44 <_realloc_r+0xdc>
4000cf08:	92 10 00 1a 	mov  %i2, %o1
4000cf0c:	e6 06 7f f8 	ld  [ %i1 + -8 ], %l3
4000cf10:	a6 24 00 13 	sub  %l0, %l3, %l3
4000cf14:	c2 04 e0 04 	ld  [ %l3 + 4 ], %g1
4000cf18:	82 08 7f fc 	and  %g1, -4, %g1
4000cf1c:	84 00 40 02 	add  %g1, %g2, %g2
4000cf20:	a2 00 80 1c 	add  %g2, %i4, %l1
4000cf24:	80 a4 40 03 	cmp  %l1, %g3
4000cf28:	36 80 00 5a 	bge,a   4000d090 <_realloc_r+0x228>
4000cf2c:	c2 06 e0 0c 	ld  [ %i3 + 0xc ], %g1
4000cf30:	a2 07 00 01 	add  %i4, %g1, %l1
4000cf34:	80 a4 40 03 	cmp  %l1, %g3
4000cf38:	36 80 00 5a 	bge,a   4000d0a0 <_realloc_r+0x238>
4000cf3c:	c2 04 e0 0c 	ld  [ %l3 + 0xc ], %g1
4000cf40:	92 10 00 1a 	mov  %i2, %o1
4000cf44:	7f ff ea fd 	call  40007b38 <_malloc_r>
4000cf48:	90 10 00 18 	mov  %i0, %o0
4000cf4c:	b6 92 20 00 	orcc  %o0, 0, %i3
4000cf50:	02 80 00 17 	be  4000cfac <_realloc_r+0x144>
4000cf54:	84 06 ff f8 	add  %i3, -8, %g2
4000cf58:	c2 06 7f fc 	ld  [ %i1 + -4 ], %g1
4000cf5c:	82 08 7f fe 	and  %g1, -2, %g1
4000cf60:	82 04 00 01 	add  %l0, %g1, %g1
4000cf64:	80 a0 40 02 	cmp  %g1, %g2
4000cf68:	02 80 00 a1 	be  4000d1ec <_realloc_r+0x384>
4000cf6c:	94 07 3f fc 	add  %i4, -4, %o2
4000cf70:	80 a2 a0 24 	cmp  %o2, 0x24
4000cf74:	18 80 00 ac 	bgu  4000d224 <_realloc_r+0x3bc>
4000cf78:	80 a2 a0 13 	cmp  %o2, 0x13
4000cf7c:	18 80 00 a1 	bgu  4000d200 <_realloc_r+0x398>
4000cf80:	c6 06 40 00 	ld  [ %i1 ], %g3
4000cf84:	82 10 00 1b 	mov  %i3, %g1
4000cf88:	84 10 00 19 	mov  %i1, %g2
4000cf8c:	c6 20 40 00 	st  %g3, [ %g1 ]
4000cf90:	c6 00 a0 04 	ld  [ %g2 + 4 ], %g3
4000cf94:	c6 20 60 04 	st  %g3, [ %g1 + 4 ]
4000cf98:	c4 00 a0 08 	ld  [ %g2 + 8 ], %g2
4000cf9c:	c4 20 60 08 	st  %g2, [ %g1 + 8 ]
4000cfa0:	92 10 00 19 	mov  %i1, %o1
4000cfa4:	7f ff e9 4c 	call  400074d4 <_free_r>
4000cfa8:	90 10 00 18 	mov  %i0, %o0
4000cfac:	90 10 00 18 	mov  %i0, %o0
4000cfb0:	7f ff ed 60 	call  40008530 <__malloc_unlock>
4000cfb4:	b0 10 00 1b 	mov  %i3, %i0
4000cfb8:	81 c7 e0 08 	ret 
4000cfbc:	81 e8 00 00 	restore 
4000cfc0:	ba 0f 7f f8 	and  %i5, -8, %i5
4000cfc4:	86 10 00 1d 	mov  %i5, %g3
4000cfc8:	10 bf ff b7 	b  4000cea4 <_realloc_r+0x3c>
4000cfcc:	85 37 60 1f 	srl  %i5, 0x1f, %g2
4000cfd0:	c2 06 e0 0c 	ld  [ %i3 + 0xc ], %g1
4000cfd4:	c4 06 e0 08 	ld  [ %i3 + 8 ], %g2
4000cfd8:	c2 20 a0 0c 	st  %g1, [ %g2 + 0xc ]
4000cfdc:	c4 20 60 08 	st  %g2, [ %g1 + 8 ]
4000cfe0:	b6 04 00 04 	add  %l0, %g4, %i3
4000cfe4:	b8 10 00 04 	mov  %g4, %i4
4000cfe8:	84 27 00 1d 	sub  %i4, %i5, %g2
4000cfec:	c2 04 20 04 	ld  [ %l0 + 4 ], %g1
4000cff0:	80 a0 a0 0f 	cmp  %g2, 0xf
4000cff4:	18 80 00 15 	bgu  4000d048 <_realloc_r+0x1e0>
4000cff8:	82 08 60 01 	and  %g1, 1, %g1
4000cffc:	82 17 00 01 	or  %i4, %g1, %g1
4000d000:	c2 24 20 04 	st  %g1, [ %l0 + 4 ]
4000d004:	c2 06 e0 04 	ld  [ %i3 + 4 ], %g1
4000d008:	82 10 60 01 	or  %g1, 1, %g1
4000d00c:	c2 26 e0 04 	st  %g1, [ %i3 + 4 ]
4000d010:	90 10 00 18 	mov  %i0, %o0
4000d014:	7f ff ed 47 	call  40008530 <__malloc_unlock>
4000d018:	b6 10 00 19 	mov  %i1, %i3
4000d01c:	81 c7 e0 08 	ret 
4000d020:	91 e8 00 1b 	restore  %g0, %i3, %o0
4000d024:	12 bf ff c8 	bne  4000cf44 <_realloc_r+0xdc>
4000d028:	92 10 00 1a 	mov  %i2, %o1
4000d02c:	e6 06 7f f8 	ld  [ %i1 + -8 ], %l3
4000d030:	a6 24 00 13 	sub  %l0, %l3, %l3
4000d034:	c2 04 e0 04 	ld  [ %l3 + 4 ], %g1
4000d038:	10 bf ff be 	b  4000cf30 <_realloc_r+0xc8>
4000d03c:	82 08 7f fc 	and  %g1, -4, %g1
4000d040:	7f ff ea be 	call  40007b38 <_malloc_r>
4000d044:	93 e8 00 1a 	restore  %g0, %i2, %o1
4000d048:	82 17 40 01 	or  %i5, %g1, %g1
4000d04c:	c2 24 20 04 	st  %g1, [ %l0 + 4 ]
4000d050:	92 04 00 1d 	add  %l0, %i5, %o1
4000d054:	84 10 a0 01 	or  %g2, 1, %g2
4000d058:	c4 22 60 04 	st  %g2, [ %o1 + 4 ]
4000d05c:	c2 06 e0 04 	ld  [ %i3 + 4 ], %g1
4000d060:	82 10 60 01 	or  %g1, 1, %g1
4000d064:	92 02 60 08 	add  %o1, 8, %o1
4000d068:	90 10 00 18 	mov  %i0, %o0
4000d06c:	7f ff e9 1a 	call  400074d4 <_free_r>
4000d070:	c2 26 e0 04 	st  %g1, [ %i3 + 4 ]
4000d074:	10 bf ff e8 	b  4000d014 <_realloc_r+0x1ac>
4000d078:	90 10 00 18 	mov  %i0, %o0
4000d07c:	b6 10 20 00 	clr  %i3
4000d080:	82 10 20 0c 	mov  0xc, %g1
4000d084:	c2 26 00 00 	st  %g1, [ %i0 ]
4000d088:	81 c7 e0 08 	ret 
4000d08c:	91 e8 00 1b 	restore  %g0, %i3, %o0
4000d090:	c4 06 e0 08 	ld  [ %i3 + 8 ], %g2
4000d094:	c2 20 a0 0c 	st  %g1, [ %g2 + 0xc ]
4000d098:	c4 20 60 08 	st  %g2, [ %g1 + 8 ]
4000d09c:	c2 04 e0 0c 	ld  [ %l3 + 0xc ], %g1
4000d0a0:	c4 04 e0 08 	ld  [ %l3 + 8 ], %g2
4000d0a4:	c2 20 a0 0c 	st  %g1, [ %g2 + 0xc ]
4000d0a8:	c4 20 60 08 	st  %g2, [ %g1 + 8 ]
4000d0ac:	94 07 3f fc 	add  %i4, -4, %o2
4000d0b0:	90 04 e0 08 	add  %l3, 8, %o0
4000d0b4:	80 a2 a0 24 	cmp  %o2, 0x24
4000d0b8:	18 80 00 5f 	bgu  4000d234 <_realloc_r+0x3cc>
4000d0bc:	b6 04 c0 11 	add  %l3, %l1, %i3
4000d0c0:	c4 06 40 00 	ld  [ %i1 ], %g2
4000d0c4:	80 a2 a0 13 	cmp  %o2, 0x13
4000d0c8:	08 80 00 0a 	bleu  4000d0f0 <_realloc_r+0x288>
4000d0cc:	82 10 00 08 	mov  %o0, %g1
4000d0d0:	c4 24 e0 08 	st  %g2, [ %l3 + 8 ]
4000d0d4:	c2 06 60 04 	ld  [ %i1 + 4 ], %g1
4000d0d8:	80 a2 a0 1b 	cmp  %o2, 0x1b
4000d0dc:	18 80 00 74 	bgu  4000d2ac <_realloc_r+0x444>
4000d0e0:	c2 24 e0 0c 	st  %g1, [ %l3 + 0xc ]
4000d0e4:	c4 06 60 08 	ld  [ %i1 + 8 ], %g2
4000d0e8:	82 04 e0 10 	add  %l3, 0x10, %g1
4000d0ec:	b2 06 60 08 	add  %i1, 8, %i1
4000d0f0:	c4 20 40 00 	st  %g2, [ %g1 ]
4000d0f4:	c4 06 60 04 	ld  [ %i1 + 4 ], %g2
4000d0f8:	b8 10 00 11 	mov  %l1, %i4
4000d0fc:	c4 20 60 04 	st  %g2, [ %g1 + 4 ]
4000d100:	a0 10 00 13 	mov  %l3, %l0
4000d104:	c4 06 60 08 	ld  [ %i1 + 8 ], %g2
4000d108:	b2 10 00 08 	mov  %o0, %i1
4000d10c:	10 bf ff b7 	b  4000cfe8 <_realloc_r+0x180>
4000d110:	c4 20 60 08 	st  %g2, [ %g1 + 8 ]
4000d114:	84 08 bf fc 	and  %g2, -4, %g2
4000d118:	b6 07 60 10 	add  %i5, 0x10, %i3
4000d11c:	88 07 00 02 	add  %i4, %g2, %g4
4000d120:	80 a1 00 1b 	cmp  %g4, %i3
4000d124:	16 80 00 55 	bge  4000d278 <_realloc_r+0x410>
4000d128:	80 88 60 01 	btst  1, %g1
4000d12c:	12 bf ff 86 	bne  4000cf44 <_realloc_r+0xdc>
4000d130:	92 10 00 1a 	mov  %i2, %o1
4000d134:	e6 06 7f f8 	ld  [ %i1 + -8 ], %l3
4000d138:	a6 24 00 13 	sub  %l0, %l3, %l3
4000d13c:	c2 04 e0 04 	ld  [ %l3 + 4 ], %g1
4000d140:	82 08 7f fc 	and  %g1, -4, %g1
4000d144:	84 00 40 02 	add  %g1, %g2, %g2
4000d148:	a2 00 80 1c 	add  %g2, %i4, %l1
4000d14c:	80 a6 c0 11 	cmp  %i3, %l1
4000d150:	34 bf ff 79 	bg,a   4000cf34 <_realloc_r+0xcc>
4000d154:	a2 07 00 01 	add  %i4, %g1, %l1
4000d158:	c2 04 e0 0c 	ld  [ %l3 + 0xc ], %g1
4000d15c:	c4 04 e0 08 	ld  [ %l3 + 8 ], %g2
4000d160:	c2 20 a0 0c 	st  %g1, [ %g2 + 0xc ]
4000d164:	c4 20 60 08 	st  %g2, [ %g1 + 8 ]
4000d168:	94 07 3f fc 	add  %i4, -4, %o2
4000d16c:	80 a2 a0 24 	cmp  %o2, 0x24
4000d170:	18 80 00 68 	bgu  4000d310 <_realloc_r+0x4a8>
4000d174:	b6 04 e0 08 	add  %l3, 8, %i3
4000d178:	c4 06 40 00 	ld  [ %i1 ], %g2
4000d17c:	80 a2 a0 13 	cmp  %o2, 0x13
4000d180:	08 80 00 0a 	bleu  4000d1a8 <_realloc_r+0x340>
4000d184:	82 10 00 1b 	mov  %i3, %g1
4000d188:	c4 24 e0 08 	st  %g2, [ %l3 + 8 ]
4000d18c:	c2 06 60 04 	ld  [ %i1 + 4 ], %g1
4000d190:	80 a2 a0 1b 	cmp  %o2, 0x1b
4000d194:	18 80 00 64 	bgu  4000d324 <_realloc_r+0x4bc>
4000d198:	c2 24 e0 0c 	st  %g1, [ %l3 + 0xc ]
4000d19c:	c4 06 60 08 	ld  [ %i1 + 8 ], %g2
4000d1a0:	82 04 e0 10 	add  %l3, 0x10, %g1
4000d1a4:	b2 06 60 08 	add  %i1, 8, %i1
4000d1a8:	c4 20 40 00 	st  %g2, [ %g1 ]
4000d1ac:	c4 06 60 04 	ld  [ %i1 + 4 ], %g2
4000d1b0:	c4 20 60 04 	st  %g2, [ %g1 + 4 ]
4000d1b4:	c4 06 60 08 	ld  [ %i1 + 8 ], %g2
4000d1b8:	c4 20 60 08 	st  %g2, [ %g1 + 8 ]
4000d1bc:	84 04 c0 1d 	add  %l3, %i5, %g2
4000d1c0:	82 24 40 1d 	sub  %l1, %i5, %g1
4000d1c4:	c4 24 a0 08 	st  %g2, [ %l2 + 8 ]
4000d1c8:	82 10 60 01 	or  %g1, 1, %g1
4000d1cc:	c2 20 a0 04 	st  %g1, [ %g2 + 4 ]
4000d1d0:	c2 04 e0 04 	ld  [ %l3 + 4 ], %g1
4000d1d4:	82 08 60 01 	and  %g1, 1, %g1
4000d1d8:	90 10 00 18 	mov  %i0, %o0
4000d1dc:	ba 10 40 1d 	or  %g1, %i5, %i5
4000d1e0:	7f ff ec d4 	call  40008530 <__malloc_unlock>
4000d1e4:	fa 24 e0 04 	st  %i5, [ %l3 + 4 ]
4000d1e8:	30 bf ff 8d 	b,a   4000d01c <_realloc_r+0x1b4>
4000d1ec:	c2 06 ff fc 	ld  [ %i3 + -4 ], %g1
4000d1f0:	82 08 7f fc 	and  %g1, -4, %g1
4000d1f4:	b8 07 00 01 	add  %i4, %g1, %i4
4000d1f8:	10 bf ff 7c 	b  4000cfe8 <_realloc_r+0x180>
4000d1fc:	b6 04 00 1c 	add  %l0, %i4, %i3
4000d200:	c6 26 c0 00 	st  %g3, [ %i3 ]
4000d204:	c2 06 60 04 	ld  [ %i1 + 4 ], %g1
4000d208:	80 a2 a0 1b 	cmp  %o2, 0x1b
4000d20c:	18 80 00 11 	bgu  4000d250 <_realloc_r+0x3e8>
4000d210:	c2 26 e0 04 	st  %g1, [ %i3 + 4 ]
4000d214:	84 06 60 08 	add  %i1, 8, %g2
4000d218:	82 06 e0 08 	add  %i3, 8, %g1
4000d21c:	10 bf ff 5c 	b  4000cf8c <_realloc_r+0x124>
4000d220:	c6 06 60 08 	ld  [ %i1 + 8 ], %g3
4000d224:	7f ff fe 80 	call  4000cc24 <memmove>
4000d228:	92 10 00 19 	mov  %i1, %o1
4000d22c:	10 bf ff 5e 	b  4000cfa4 <_realloc_r+0x13c>
4000d230:	92 10 00 19 	mov  %i1, %o1
4000d234:	92 10 00 19 	mov  %i1, %o1
4000d238:	b8 10 00 11 	mov  %l1, %i4
4000d23c:	b2 10 00 08 	mov  %o0, %i1
4000d240:	7f ff fe 79 	call  4000cc24 <memmove>
4000d244:	a0 10 00 13 	mov  %l3, %l0
4000d248:	10 bf ff 69 	b  4000cfec <_realloc_r+0x184>
4000d24c:	84 27 00 1d 	sub  %i4, %i5, %g2
4000d250:	c2 06 60 08 	ld  [ %i1 + 8 ], %g1
4000d254:	c2 26 e0 08 	st  %g1, [ %i3 + 8 ]
4000d258:	c2 06 60 0c 	ld  [ %i1 + 0xc ], %g1
4000d25c:	80 a2 a0 24 	cmp  %o2, 0x24
4000d260:	02 80 00 1d 	be  4000d2d4 <_realloc_r+0x46c>
4000d264:	c2 26 e0 0c 	st  %g1, [ %i3 + 0xc ]
4000d268:	84 06 60 10 	add  %i1, 0x10, %g2
4000d26c:	82 06 e0 10 	add  %i3, 0x10, %g1
4000d270:	10 bf ff 47 	b  4000cf8c <_realloc_r+0x124>
4000d274:	c6 06 60 10 	ld  [ %i1 + 0x10 ], %g3
4000d278:	a0 04 00 1d 	add  %l0, %i5, %l0
4000d27c:	82 21 00 1d 	sub  %g4, %i5, %g1
4000d280:	e0 24 a0 08 	st  %l0, [ %l2 + 8 ]
4000d284:	82 10 60 01 	or  %g1, 1, %g1
4000d288:	c2 24 20 04 	st  %g1, [ %l0 + 4 ]
4000d28c:	c2 06 7f fc 	ld  [ %i1 + -4 ], %g1
4000d290:	82 08 60 01 	and  %g1, 1, %g1
4000d294:	90 10 00 18 	mov  %i0, %o0
4000d298:	ba 10 40 1d 	or  %g1, %i5, %i5
4000d29c:	b6 10 00 19 	mov  %i1, %i3
4000d2a0:	7f ff ec a4 	call  40008530 <__malloc_unlock>
4000d2a4:	fa 26 7f fc 	st  %i5, [ %i1 + -4 ]
4000d2a8:	30 bf ff 5d 	b,a   4000d01c <_realloc_r+0x1b4>
4000d2ac:	c2 06 60 08 	ld  [ %i1 + 8 ], %g1
4000d2b0:	c2 24 e0 10 	st  %g1, [ %l3 + 0x10 ]
4000d2b4:	c2 06 60 0c 	ld  [ %i1 + 0xc ], %g1
4000d2b8:	c2 24 e0 14 	st  %g1, [ %l3 + 0x14 ]
4000d2bc:	80 a2 a0 24 	cmp  %o2, 0x24
4000d2c0:	02 80 00 0d 	be  4000d2f4 <_realloc_r+0x48c>
4000d2c4:	c4 06 60 10 	ld  [ %i1 + 0x10 ], %g2
4000d2c8:	82 04 e0 18 	add  %l3, 0x18, %g1
4000d2cc:	10 bf ff 89 	b  4000d0f0 <_realloc_r+0x288>
4000d2d0:	b2 06 60 10 	add  %i1, 0x10, %i1
4000d2d4:	c2 06 60 10 	ld  [ %i1 + 0x10 ], %g1
4000d2d8:	c2 26 e0 10 	st  %g1, [ %i3 + 0x10 ]
4000d2dc:	c6 06 60 14 	ld  [ %i1 + 0x14 ], %g3
4000d2e0:	84 06 60 18 	add  %i1, 0x18, %g2
4000d2e4:	c6 26 e0 14 	st  %g3, [ %i3 + 0x14 ]
4000d2e8:	82 06 e0 18 	add  %i3, 0x18, %g1
4000d2ec:	10 bf ff 28 	b  4000cf8c <_realloc_r+0x124>
4000d2f0:	c6 06 60 18 	ld  [ %i1 + 0x18 ], %g3
4000d2f4:	c4 24 e0 18 	st  %g2, [ %l3 + 0x18 ]
4000d2f8:	c4 06 60 14 	ld  [ %i1 + 0x14 ], %g2
4000d2fc:	82 04 e0 20 	add  %l3, 0x20, %g1
4000d300:	c4 24 e0 1c 	st  %g2, [ %l3 + 0x1c ]
4000d304:	b2 06 60 18 	add  %i1, 0x18, %i1
4000d308:	10 bf ff 7a 	b  4000d0f0 <_realloc_r+0x288>
4000d30c:	c4 06 40 00 	ld  [ %i1 ], %g2
4000d310:	92 10 00 19 	mov  %i1, %o1
4000d314:	7f ff fe 44 	call  4000cc24 <memmove>
4000d318:	90 10 00 1b 	mov  %i3, %o0
4000d31c:	10 bf ff a9 	b  4000d1c0 <_realloc_r+0x358>
4000d320:	84 04 c0 1d 	add  %l3, %i5, %g2
4000d324:	c2 06 60 08 	ld  [ %i1 + 8 ], %g1
4000d328:	c2 24 e0 10 	st  %g1, [ %l3 + 0x10 ]
4000d32c:	c2 06 60 0c 	ld  [ %i1 + 0xc ], %g1
4000d330:	c2 24 e0 14 	st  %g1, [ %l3 + 0x14 ]
4000d334:	80 a2 a0 24 	cmp  %o2, 0x24
4000d338:	02 80 00 05 	be  4000d34c <_realloc_r+0x4e4>
4000d33c:	c4 06 60 10 	ld  [ %i1 + 0x10 ], %g2
4000d340:	82 04 e0 18 	add  %l3, 0x18, %g1
4000d344:	10 bf ff 99 	b  4000d1a8 <_realloc_r+0x340>
4000d348:	b2 06 60 10 	add  %i1, 0x10, %i1
4000d34c:	c4 24 e0 18 	st  %g2, [ %l3 + 0x18 ]
4000d350:	c4 06 60 14 	ld  [ %i1 + 0x14 ], %g2
4000d354:	82 04 e0 20 	add  %l3, 0x20, %g1
4000d358:	c4 24 e0 1c 	st  %g2, [ %l3 + 0x1c ]
4000d35c:	b2 06 60 18 	add  %i1, 0x18, %i1
4000d360:	10 bf ff 92 	b  4000d1a8 <_realloc_r+0x340>
4000d364:	c4 06 40 00 	ld  [ %i1 ], %g2

4000d368 <cleanup_glue>:
4000d368:	9d e3 bf a0 	save  %sp, -96, %sp
4000d36c:	fa 06 40 00 	ld  [ %i1 ], %i5
4000d370:	80 a7 60 00 	cmp  %i5, 0
4000d374:	02 80 00 19 	be  4000d3d8 <cleanup_glue+0x70>
4000d378:	01 00 00 00 	nop 
4000d37c:	f8 07 40 00 	ld  [ %i5 ], %i4
4000d380:	80 a7 20 00 	cmp  %i4, 0
4000d384:	02 80 00 13 	be  4000d3d0 <cleanup_glue+0x68>
4000d388:	92 10 00 1d 	mov  %i5, %o1
4000d38c:	f6 07 00 00 	ld  [ %i4 ], %i3
4000d390:	80 a6 e0 00 	cmp  %i3, 0
4000d394:	02 80 00 0c 	be  4000d3c4 <cleanup_glue+0x5c>
4000d398:	92 10 00 1c 	mov  %i4, %o1
4000d39c:	d2 06 c0 00 	ld  [ %i3 ], %o1
4000d3a0:	80 a2 60 00 	cmp  %o1, 0
4000d3a4:	22 80 00 05 	be,a   4000d3b8 <cleanup_glue+0x50>
4000d3a8:	92 10 00 1b 	mov  %i3, %o1
4000d3ac:	7f ff ff ef 	call  4000d368 <cleanup_glue>
4000d3b0:	90 10 00 18 	mov  %i0, %o0
4000d3b4:	92 10 00 1b 	mov  %i3, %o1
4000d3b8:	7f ff e8 47 	call  400074d4 <_free_r>
4000d3bc:	90 10 00 18 	mov  %i0, %o0
4000d3c0:	92 10 00 1c 	mov  %i4, %o1
4000d3c4:	7f ff e8 44 	call  400074d4 <_free_r>
4000d3c8:	90 10 00 18 	mov  %i0, %o0
4000d3cc:	92 10 00 1d 	mov  %i5, %o1
4000d3d0:	7f ff e8 41 	call  400074d4 <_free_r>
4000d3d4:	90 10 00 18 	mov  %i0, %o0
4000d3d8:	7f ff e8 3f 	call  400074d4 <_free_r>
4000d3dc:	81 e8 00 00 	restore 

4000d3e0 <_reclaim_reent>:
4000d3e0:	9d e3 bf a0 	save  %sp, -96, %sp
4000d3e4:	03 10 00 3c 	sethi  %hi(0x4000f000), %g1
4000d3e8:	c2 00 63 7c 	ld  [ %g1 + 0x37c ], %g1	! 4000f37c <_impure_ptr>
4000d3ec:	80 a0 40 18 	cmp  %g1, %i0
4000d3f0:	02 80 00 99 	be  4000d654 <_reclaim_reent+0x274>
4000d3f4:	01 00 00 00 	nop 
4000d3f8:	c4 06 20 24 	ld  [ %i0 + 0x24 ], %g2
4000d3fc:	80 a0 a0 00 	cmp  %g2, 0
4000d400:	22 80 00 97 	be,a   4000d65c <_reclaim_reent+0x27c>
4000d404:	d2 06 20 14 	ld  [ %i0 + 0x14 ], %o1
4000d408:	d2 00 a0 0c 	ld  [ %g2 + 0xc ], %o1
4000d40c:	80 a2 60 00 	cmp  %o1, 0
4000d410:	22 80 00 18 	be,a   4000d470 <_reclaim_reent+0x90>
4000d414:	d2 00 80 00 	ld  [ %g2 ], %o1
4000d418:	b8 10 20 00 	clr  %i4
4000d41c:	fa 02 40 1c 	ld  [ %o1 + %i4 ], %i5
4000d420:	80 a7 60 00 	cmp  %i5, 0
4000d424:	22 80 00 0c 	be,a   4000d454 <_reclaim_reent+0x74>
4000d428:	b8 07 20 04 	add  %i4, 4, %i4
4000d42c:	92 10 00 1d 	mov  %i5, %o1
4000d430:	90 10 00 18 	mov  %i0, %o0
4000d434:	7f ff e8 28 	call  400074d4 <_free_r>
4000d438:	fa 07 40 00 	ld  [ %i5 ], %i5
4000d43c:	80 a7 60 00 	cmp  %i5, 0
4000d440:	12 bf ff fc 	bne  4000d430 <_reclaim_reent+0x50>
4000d444:	92 10 00 1d 	mov  %i5, %o1
4000d448:	c2 06 20 24 	ld  [ %i0 + 0x24 ], %g1
4000d44c:	d2 00 60 0c 	ld  [ %g1 + 0xc ], %o1
4000d450:	b8 07 20 04 	add  %i4, 4, %i4
4000d454:	80 a7 20 80 	cmp  %i4, 0x80
4000d458:	32 bf ff f2 	bne,a   4000d420 <_reclaim_reent+0x40>
4000d45c:	fa 02 40 1c 	ld  [ %o1 + %i4 ], %i5
4000d460:	7f ff e8 1d 	call  400074d4 <_free_r>
4000d464:	90 10 00 18 	mov  %i0, %o0
4000d468:	c4 06 20 24 	ld  [ %i0 + 0x24 ], %g2
4000d46c:	d2 00 80 00 	ld  [ %g2 ], %o1
4000d470:	80 a2 60 00 	cmp  %o1, 0
4000d474:	22 80 00 7f 	be,a   4000d670 <_reclaim_reent+0x290>
4000d478:	d2 06 20 14 	ld  [ %i0 + 0x14 ], %o1
4000d47c:	7f ff e8 16 	call  400074d4 <_free_r>
4000d480:	90 10 00 18 	mov  %i0, %o0
4000d484:	d2 06 20 14 	ld  [ %i0 + 0x14 ], %o1
4000d488:	80 a2 60 00 	cmp  %o1, 0
4000d48c:	22 80 00 05 	be,a   4000d4a0 <_reclaim_reent+0xc0>
4000d490:	c4 06 20 24 	ld  [ %i0 + 0x24 ], %g2
4000d494:	7f ff e8 10 	call  400074d4 <_free_r>
4000d498:	90 10 00 18 	mov  %i0, %o0
4000d49c:	c4 06 20 24 	ld  [ %i0 + 0x24 ], %g2
4000d4a0:	80 a0 a0 00 	cmp  %g2, 0
4000d4a4:	02 80 00 04 	be  4000d4b4 <_reclaim_reent+0xd4>
4000d4a8:	92 10 00 02 	mov  %g2, %o1
4000d4ac:	7f ff e8 0a 	call  400074d4 <_free_r>
4000d4b0:	90 10 00 18 	mov  %i0, %o0
4000d4b4:	d2 06 20 38 	ld  [ %i0 + 0x38 ], %o1
4000d4b8:	80 a2 60 00 	cmp  %o1, 0
4000d4bc:	22 80 00 05 	be,a   4000d4d0 <_reclaim_reent+0xf0>
4000d4c0:	d2 06 20 3c 	ld  [ %i0 + 0x3c ], %o1
4000d4c4:	7f ff e8 04 	call  400074d4 <_free_r>
4000d4c8:	90 10 00 18 	mov  %i0, %o0
4000d4cc:	d2 06 20 3c 	ld  [ %i0 + 0x3c ], %o1
4000d4d0:	80 a2 60 00 	cmp  %o1, 0
4000d4d4:	22 80 00 05 	be,a   4000d4e8 <_reclaim_reent+0x108>
4000d4d8:	d2 06 20 40 	ld  [ %i0 + 0x40 ], %o1
4000d4dc:	7f ff e7 fe 	call  400074d4 <_free_r>
4000d4e0:	90 10 00 18 	mov  %i0, %o0
4000d4e4:	d2 06 20 40 	ld  [ %i0 + 0x40 ], %o1
4000d4e8:	80 a2 60 00 	cmp  %o1, 0
4000d4ec:	22 80 00 05 	be,a   4000d500 <_reclaim_reent+0x120>
4000d4f0:	d2 06 20 5c 	ld  [ %i0 + 0x5c ], %o1
4000d4f4:	7f ff e7 f8 	call  400074d4 <_free_r>
4000d4f8:	90 10 00 18 	mov  %i0, %o0
4000d4fc:	d2 06 20 5c 	ld  [ %i0 + 0x5c ], %o1
4000d500:	80 a2 60 00 	cmp  %o1, 0
4000d504:	22 80 00 05 	be,a   4000d518 <_reclaim_reent+0x138>
4000d508:	d2 06 20 58 	ld  [ %i0 + 0x58 ], %o1
4000d50c:	7f ff e7 f2 	call  400074d4 <_free_r>
4000d510:	90 10 00 18 	mov  %i0, %o0
4000d514:	d2 06 20 58 	ld  [ %i0 + 0x58 ], %o1
4000d518:	80 a2 60 00 	cmp  %o1, 0
4000d51c:	22 80 00 05 	be,a   4000d530 <_reclaim_reent+0x150>
4000d520:	d2 06 20 34 	ld  [ %i0 + 0x34 ], %o1
4000d524:	7f ff e7 ec 	call  400074d4 <_free_r>
4000d528:	90 10 00 18 	mov  %i0, %o0
4000d52c:	d2 06 20 34 	ld  [ %i0 + 0x34 ], %o1
4000d530:	80 a2 60 00 	cmp  %o1, 0
4000d534:	22 80 00 05 	be,a   4000d548 <_reclaim_reent+0x168>
4000d538:	c2 06 20 18 	ld  [ %i0 + 0x18 ], %g1
4000d53c:	7f ff e7 e6 	call  400074d4 <_free_r>
4000d540:	90 10 00 18 	mov  %i0, %o0
4000d544:	c2 06 20 18 	ld  [ %i0 + 0x18 ], %g1
4000d548:	80 a0 60 00 	cmp  %g1, 0
4000d54c:	02 80 00 42 	be  4000d654 <_reclaim_reent+0x274>
4000d550:	01 00 00 00 	nop 
4000d554:	c2 06 20 28 	ld  [ %i0 + 0x28 ], %g1
4000d558:	9f c0 40 00 	call  %g1
4000d55c:	90 10 00 18 	mov  %i0, %o0
4000d560:	f2 06 20 48 	ld  [ %i0 + 0x48 ], %i1
4000d564:	80 a6 60 00 	cmp  %i1, 0
4000d568:	02 80 00 3b 	be  4000d654 <_reclaim_reent+0x274>
4000d56c:	01 00 00 00 	nop 
4000d570:	fa 06 40 00 	ld  [ %i1 ], %i5
4000d574:	80 a7 60 00 	cmp  %i5, 0
4000d578:	02 80 00 35 	be  4000d64c <_reclaim_reent+0x26c>
4000d57c:	01 00 00 00 	nop 
4000d580:	f8 07 40 00 	ld  [ %i5 ], %i4
4000d584:	80 a7 20 00 	cmp  %i4, 0
4000d588:	02 80 00 2f 	be  4000d644 <_reclaim_reent+0x264>
4000d58c:	92 10 00 1d 	mov  %i5, %o1
4000d590:	f6 07 00 00 	ld  [ %i4 ], %i3
4000d594:	80 a6 e0 00 	cmp  %i3, 0
4000d598:	02 80 00 28 	be  4000d638 <_reclaim_reent+0x258>
4000d59c:	92 10 00 1c 	mov  %i4, %o1
4000d5a0:	f4 06 c0 00 	ld  [ %i3 ], %i2
4000d5a4:	80 a6 a0 00 	cmp  %i2, 0
4000d5a8:	02 80 00 21 	be  4000d62c <_reclaim_reent+0x24c>
4000d5ac:	92 10 00 1b 	mov  %i3, %o1
4000d5b0:	e0 06 80 00 	ld  [ %i2 ], %l0
4000d5b4:	80 a4 20 00 	cmp  %l0, 0
4000d5b8:	02 80 00 1a 	be  4000d620 <_reclaim_reent+0x240>
4000d5bc:	92 10 00 1a 	mov  %i2, %o1
4000d5c0:	e2 04 00 00 	ld  [ %l0 ], %l1
4000d5c4:	80 a4 60 00 	cmp  %l1, 0
4000d5c8:	02 80 00 13 	be  4000d614 <_reclaim_reent+0x234>
4000d5cc:	92 10 00 10 	mov  %l0, %o1
4000d5d0:	e4 04 40 00 	ld  [ %l1 ], %l2
4000d5d4:	80 a4 a0 00 	cmp  %l2, 0
4000d5d8:	02 80 00 0c 	be  4000d608 <_reclaim_reent+0x228>
4000d5dc:	92 10 00 11 	mov  %l1, %o1
4000d5e0:	d2 04 80 00 	ld  [ %l2 ], %o1
4000d5e4:	80 a2 60 00 	cmp  %o1, 0
4000d5e8:	22 80 00 05 	be,a   4000d5fc <_reclaim_reent+0x21c>
4000d5ec:	92 10 00 12 	mov  %l2, %o1
4000d5f0:	7f ff ff 5e 	call  4000d368 <cleanup_glue>
4000d5f4:	90 10 00 18 	mov  %i0, %o0
4000d5f8:	92 10 00 12 	mov  %l2, %o1
4000d5fc:	7f ff e7 b6 	call  400074d4 <_free_r>
4000d600:	90 10 00 18 	mov  %i0, %o0
4000d604:	92 10 00 11 	mov  %l1, %o1
4000d608:	7f ff e7 b3 	call  400074d4 <_free_r>
4000d60c:	90 10 00 18 	mov  %i0, %o0
4000d610:	92 10 00 10 	mov  %l0, %o1
4000d614:	7f ff e7 b0 	call  400074d4 <_free_r>
4000d618:	90 10 00 18 	mov  %i0, %o0
4000d61c:	92 10 00 1a 	mov  %i2, %o1
4000d620:	7f ff e7 ad 	call  400074d4 <_free_r>
4000d624:	90 10 00 18 	mov  %i0, %o0
4000d628:	92 10 00 1b 	mov  %i3, %o1
4000d62c:	7f ff e7 aa 	call  400074d4 <_free_r>
4000d630:	90 10 00 18 	mov  %i0, %o0
4000d634:	92 10 00 1c 	mov  %i4, %o1
4000d638:	7f ff e7 a7 	call  400074d4 <_free_r>
4000d63c:	90 10 00 18 	mov  %i0, %o0
4000d640:	92 10 00 1d 	mov  %i5, %o1
4000d644:	7f ff e7 a4 	call  400074d4 <_free_r>
4000d648:	90 10 00 18 	mov  %i0, %o0
4000d64c:	7f ff e7 a2 	call  400074d4 <_free_r>
4000d650:	81 e8 00 00 	restore 
4000d654:	81 c7 e0 08 	ret 
4000d658:	81 e8 00 00 	restore 
4000d65c:	80 a2 60 00 	cmp  %o1, 0
4000d660:	12 bf ff 8d 	bne  4000d494 <_reclaim_reent+0xb4>
4000d664:	01 00 00 00 	nop 
4000d668:	10 bf ff 94 	b  4000d4b8 <_reclaim_reent+0xd8>
4000d66c:	d2 06 20 38 	ld  [ %i0 + 0x38 ], %o1
4000d670:	80 a2 60 00 	cmp  %o1, 0
4000d674:	12 bf ff 88 	bne  4000d494 <_reclaim_reent+0xb4>
4000d678:	01 00 00 00 	nop 
4000d67c:	10 bf ff 8c 	b  4000d4ac <_reclaim_reent+0xcc>
4000d680:	92 10 00 02 	mov  %g2, %o1

4000d684 <strcmp>:
4000d684:	82 12 00 09 	or  %o0, %o1, %g1
4000d688:	80 88 60 03 	btst  3, %g1
4000d68c:	32 80 00 23 	bne,a   4000d718 <strcmp+0x94>
4000d690:	c4 0a 00 00 	ldub  [ %o0 ], %g2
4000d694:	c2 02 00 00 	ld  [ %o0 ], %g1
4000d698:	c4 02 40 00 	ld  [ %o1 ], %g2
4000d69c:	09 3f bf bf 	sethi  %hi(0xfefefc00), %g4
4000d6a0:	07 20 20 20 	sethi  %hi(0x80808000), %g3
4000d6a4:	88 11 22 ff 	or  %g4, 0x2ff, %g4
4000d6a8:	80 a0 40 02 	cmp  %g1, %g2
4000d6ac:	12 80 00 1a 	bne  4000d714 <strcmp+0x90>
4000d6b0:	86 10 e0 80 	or  %g3, 0x80, %g3
4000d6b4:	84 00 40 04 	add  %g1, %g4, %g2
4000d6b8:	82 28 80 01 	andn  %g2, %g1, %g1
4000d6bc:	80 88 40 03 	btst  %g1, %g3
4000d6c0:	12 80 00 0d 	bne  4000d6f4 <strcmp+0x70>
4000d6c4:	01 00 00 00 	nop 
4000d6c8:	90 02 20 04 	add  %o0, 4, %o0
4000d6cc:	92 02 60 04 	add  %o1, 4, %o1
4000d6d0:	c2 02 00 00 	ld  [ %o0 ], %g1
4000d6d4:	c4 02 40 00 	ld  [ %o1 ], %g2
4000d6d8:	80 a0 40 02 	cmp  %g1, %g2
4000d6dc:	12 80 00 0e 	bne  4000d714 <strcmp+0x90>
4000d6e0:	84 00 40 04 	add  %g1, %g4, %g2
4000d6e4:	82 28 80 01 	andn  %g2, %g1, %g1
4000d6e8:	80 88 40 03 	btst  %g1, %g3
4000d6ec:	22 bf ff f8 	be,a   4000d6cc <strcmp+0x48>
4000d6f0:	90 02 20 04 	add  %o0, 4, %o0
4000d6f4:	81 c3 e0 08 	retl 
4000d6f8:	90 10 20 00 	clr  %o0
4000d6fc:	83 38 60 18 	sra  %g1, 0x18, %g1
4000d700:	80 a0 c0 01 	cmp  %g3, %g1
4000d704:	32 80 00 0d 	bne,a   4000d738 <strcmp+0xb4>
4000d708:	90 08 a0 ff 	and  %g2, 0xff, %o0
4000d70c:	90 02 20 01 	inc  %o0
4000d710:	92 02 60 01 	inc  %o1
4000d714:	c4 0a 00 00 	ldub  [ %o0 ], %g2
4000d718:	83 28 a0 18 	sll  %g2, 0x18, %g1
4000d71c:	80 a0 60 00 	cmp  %g1, 0
4000d720:	32 bf ff f7 	bne,a   4000d6fc <strcmp+0x78>
4000d724:	c6 4a 40 00 	ldsb  [ %o1 ], %g3
4000d728:	c4 0a 40 00 	ldub  [ %o1 ], %g2
4000d72c:	90 10 20 00 	clr  %o0
4000d730:	81 c3 e0 08 	retl 
4000d734:	90 22 00 02 	sub  %o0, %g2, %o0
4000d738:	c4 0a 40 00 	ldub  [ %o1 ], %g2
4000d73c:	81 c3 e0 08 	retl 
4000d740:	90 22 00 02 	sub  %o0, %g2, %o0

4000d744 <__swbuf_r>:
4000d744:	9d e3 bf a0 	save  %sp, -96, %sp
4000d748:	ba 96 20 00 	orcc  %i0, 0, %i5
4000d74c:	02 80 00 06 	be  4000d764 <__swbuf_r+0x20>
4000d750:	03 10 00 3b 	sethi  %hi(0x4000ec00), %g1
4000d754:	c2 07 60 18 	ld  [ %i5 + 0x18 ], %g1
4000d758:	80 a0 60 00 	cmp  %g1, 0
4000d75c:	02 80 00 3a 	be  4000d844 <__swbuf_r+0x100>
4000d760:	03 10 00 3b 	sethi  %hi(0x4000ec00), %g1
4000d764:	82 10 62 40 	or  %g1, 0x240, %g1	! 4000ee40 <__sf_fake_stdin>
4000d768:	80 a6 80 01 	cmp  %i2, %g1
4000d76c:	22 80 00 3e 	be,a   4000d864 <__swbuf_r+0x120>
4000d770:	f4 07 60 04 	ld  [ %i5 + 4 ], %i2
4000d774:	03 10 00 3b 	sethi  %hi(0x4000ec00), %g1
4000d778:	82 10 62 20 	or  %g1, 0x220, %g1	! 4000ee20 <__sf_fake_stdout>
4000d77c:	80 a6 80 01 	cmp  %i2, %g1
4000d780:	02 80 00 48 	be  4000d8a0 <__swbuf_r+0x15c>
4000d784:	03 10 00 3b 	sethi  %hi(0x4000ec00), %g1
4000d788:	82 10 62 00 	or  %g1, 0x200, %g1	! 4000ee00 <__sf_fake_stderr>
4000d78c:	80 a6 80 01 	cmp  %i2, %g1
4000d790:	22 80 00 02 	be,a   4000d798 <__swbuf_r+0x54>
4000d794:	f4 07 60 0c 	ld  [ %i5 + 0xc ], %i2
4000d798:	c2 06 a0 18 	ld  [ %i2 + 0x18 ], %g1
4000d79c:	c2 26 a0 08 	st  %g1, [ %i2 + 8 ]
4000d7a0:	c4 16 a0 0c 	lduh  [ %i2 + 0xc ], %g2
4000d7a4:	80 88 a0 08 	btst  8, %g2
4000d7a8:	02 80 00 36 	be  4000d880 <__swbuf_r+0x13c>
4000d7ac:	92 10 00 1a 	mov  %i2, %o1
4000d7b0:	c2 06 a0 10 	ld  [ %i2 + 0x10 ], %g1
4000d7b4:	80 a0 60 00 	cmp  %g1, 0
4000d7b8:	02 80 00 32 	be  4000d880 <__swbuf_r+0x13c>
4000d7bc:	92 10 00 1a 	mov  %i2, %o1
4000d7c0:	07 00 00 08 	sethi  %hi(0x2000), %g3
4000d7c4:	80 88 c0 02 	btst  %g3, %g2
4000d7c8:	12 80 00 07 	bne  4000d7e4 <__swbuf_r+0xa0>
4000d7cc:	b0 0e 60 ff 	and  %i1, 0xff, %i0
4000d7d0:	84 10 80 03 	or  %g2, %g3, %g2
4000d7d4:	c8 06 a0 60 	ld  [ %i2 + 0x60 ], %g4
4000d7d8:	c4 36 a0 0c 	sth  %g2, [ %i2 + 0xc ]
4000d7dc:	84 29 00 03 	andn  %g4, %g3, %g2
4000d7e0:	c4 26 a0 60 	st  %g2, [ %i2 + 0x60 ]
4000d7e4:	c4 06 80 00 	ld  [ %i2 ], %g2
4000d7e8:	c6 06 a0 14 	ld  [ %i2 + 0x14 ], %g3
4000d7ec:	82 20 80 01 	sub  %g2, %g1, %g1
4000d7f0:	80 a0 c0 01 	cmp  %g3, %g1
4000d7f4:	04 80 00 35 	ble  4000d8c8 <__swbuf_r+0x184>
4000d7f8:	82 00 60 01 	inc  %g1
4000d7fc:	c6 06 a0 08 	ld  [ %i2 + 8 ], %g3
4000d800:	88 00 a0 01 	add  %g2, 1, %g4
4000d804:	86 00 ff ff 	add  %g3, -1, %g3
4000d808:	c8 26 80 00 	st  %g4, [ %i2 ]
4000d80c:	c6 26 a0 08 	st  %g3, [ %i2 + 8 ]
4000d810:	f2 28 80 00 	stb  %i1, [ %g2 ]
4000d814:	c4 06 a0 14 	ld  [ %i2 + 0x14 ], %g2
4000d818:	80 a0 80 01 	cmp  %g2, %g1
4000d81c:	02 80 00 23 	be  4000d8a8 <__swbuf_r+0x164>
4000d820:	80 a6 20 0a 	cmp  %i0, 0xa
4000d824:	12 80 00 06 	bne  4000d83c <__swbuf_r+0xf8>
4000d828:	01 00 00 00 	nop 
4000d82c:	c2 16 a0 0c 	lduh  [ %i2 + 0xc ], %g1
4000d830:	80 88 60 01 	btst  1, %g1
4000d834:	12 80 00 1e 	bne  4000d8ac <__swbuf_r+0x168>
4000d838:	92 10 00 1a 	mov  %i2, %o1
4000d83c:	81 c7 e0 08 	ret 
4000d840:	81 e8 00 00 	restore 
4000d844:	7f ff e6 df 	call  400073c0 <__sinit>
4000d848:	90 10 00 1d 	mov  %i5, %o0
4000d84c:	03 10 00 3b 	sethi  %hi(0x4000ec00), %g1
4000d850:	82 10 62 40 	or  %g1, 0x240, %g1	! 4000ee40 <__sf_fake_stdin>
4000d854:	80 a6 80 01 	cmp  %i2, %g1
4000d858:	12 bf ff c8 	bne  4000d778 <__swbuf_r+0x34>
4000d85c:	03 10 00 3b 	sethi  %hi(0x4000ec00), %g1
4000d860:	f4 07 60 04 	ld  [ %i5 + 4 ], %i2
4000d864:	c2 06 a0 18 	ld  [ %i2 + 0x18 ], %g1
4000d868:	c2 26 a0 08 	st  %g1, [ %i2 + 8 ]
4000d86c:	c4 16 a0 0c 	lduh  [ %i2 + 0xc ], %g2
4000d870:	80 88 a0 08 	btst  8, %g2
4000d874:	32 bf ff d0 	bne,a   4000d7b4 <__swbuf_r+0x70>
4000d878:	c2 06 a0 10 	ld  [ %i2 + 0x10 ], %g1
4000d87c:	92 10 00 1a 	mov  %i2, %o1
4000d880:	7f ff de 58 	call  400051e0 <__swsetup_r>
4000d884:	90 10 00 1d 	mov  %i5, %o0
4000d888:	80 a2 20 00 	cmp  %o0, 0
4000d88c:	12 80 00 0d 	bne  4000d8c0 <__swbuf_r+0x17c>
4000d890:	01 00 00 00 	nop 
4000d894:	c4 16 a0 0c 	lduh  [ %i2 + 0xc ], %g2
4000d898:	10 bf ff ca 	b  4000d7c0 <__swbuf_r+0x7c>
4000d89c:	c2 06 a0 10 	ld  [ %i2 + 0x10 ], %g1
4000d8a0:	10 bf ff be 	b  4000d798 <__swbuf_r+0x54>
4000d8a4:	f4 07 60 08 	ld  [ %i5 + 8 ], %i2
4000d8a8:	92 10 00 1a 	mov  %i2, %o1
4000d8ac:	7f ff e5 9e 	call  40006f24 <_fflush_r>
4000d8b0:	90 10 00 1d 	mov  %i5, %o0
4000d8b4:	80 a2 20 00 	cmp  %o0, 0
4000d8b8:	02 bf ff e1 	be  4000d83c <__swbuf_r+0xf8>
4000d8bc:	01 00 00 00 	nop 
4000d8c0:	81 c7 e0 08 	ret 
4000d8c4:	91 e8 3f ff 	restore  %g0, -1, %o0
4000d8c8:	92 10 00 1a 	mov  %i2, %o1
4000d8cc:	7f ff e5 96 	call  40006f24 <_fflush_r>
4000d8d0:	90 10 00 1d 	mov  %i5, %o0
4000d8d4:	80 a2 20 00 	cmp  %o0, 0
4000d8d8:	12 bf ff fa 	bne  4000d8c0 <__swbuf_r+0x17c>
4000d8dc:	82 10 20 01 	mov  1, %g1
4000d8e0:	10 bf ff c7 	b  4000d7fc <__swbuf_r+0xb8>
4000d8e4:	c4 06 80 00 	ld  [ %i2 ], %g2

4000d8e8 <__swbuf>:
4000d8e8:	9d e3 bf a0 	save  %sp, -96, %sp
4000d8ec:	03 10 00 3c 	sethi  %hi(0x4000f000), %g1
4000d8f0:	fa 00 63 7c 	ld  [ %g1 + 0x37c ], %i5	! 4000f37c <_impure_ptr>
4000d8f4:	80 a7 60 00 	cmp  %i5, 0
4000d8f8:	02 80 00 06 	be  4000d910 <__swbuf+0x28>
4000d8fc:	b8 10 00 18 	mov  %i0, %i4
4000d900:	c2 07 60 18 	ld  [ %i5 + 0x18 ], %g1
4000d904:	80 a0 60 00 	cmp  %g1, 0
4000d908:	02 80 00 3b 	be  4000d9f4 <__swbuf+0x10c>
4000d90c:	01 00 00 00 	nop 
4000d910:	03 10 00 3b 	sethi  %hi(0x4000ec00), %g1
4000d914:	82 10 62 40 	or  %g1, 0x240, %g1	! 4000ee40 <__sf_fake_stdin>
4000d918:	80 a6 40 01 	cmp  %i1, %g1
4000d91c:	22 80 00 3e 	be,a   4000da14 <__swbuf+0x12c>
4000d920:	f2 07 60 04 	ld  [ %i5 + 4 ], %i1
4000d924:	03 10 00 3b 	sethi  %hi(0x4000ec00), %g1
4000d928:	82 10 62 20 	or  %g1, 0x220, %g1	! 4000ee20 <__sf_fake_stdout>
4000d92c:	80 a6 40 01 	cmp  %i1, %g1
4000d930:	02 80 00 48 	be  4000da50 <__swbuf+0x168>
4000d934:	03 10 00 3b 	sethi  %hi(0x4000ec00), %g1
4000d938:	82 10 62 00 	or  %g1, 0x200, %g1	! 4000ee00 <__sf_fake_stderr>
4000d93c:	80 a6 40 01 	cmp  %i1, %g1
4000d940:	22 80 00 02 	be,a   4000d948 <__swbuf+0x60>
4000d944:	f2 07 60 0c 	ld  [ %i5 + 0xc ], %i1
4000d948:	c2 06 60 18 	ld  [ %i1 + 0x18 ], %g1
4000d94c:	c2 26 60 08 	st  %g1, [ %i1 + 8 ]
4000d950:	c4 16 60 0c 	lduh  [ %i1 + 0xc ], %g2
4000d954:	80 88 a0 08 	btst  8, %g2
4000d958:	02 80 00 36 	be  4000da30 <__swbuf+0x148>
4000d95c:	92 10 00 19 	mov  %i1, %o1
4000d960:	c2 06 60 10 	ld  [ %i1 + 0x10 ], %g1
4000d964:	80 a0 60 00 	cmp  %g1, 0
4000d968:	02 80 00 32 	be  4000da30 <__swbuf+0x148>
4000d96c:	92 10 00 19 	mov  %i1, %o1
4000d970:	07 00 00 08 	sethi  %hi(0x2000), %g3
4000d974:	80 88 c0 02 	btst  %g3, %g2
4000d978:	12 80 00 07 	bne  4000d994 <__swbuf+0xac>
4000d97c:	b0 0f 20 ff 	and  %i4, 0xff, %i0
4000d980:	84 10 80 03 	or  %g2, %g3, %g2
4000d984:	c8 06 60 60 	ld  [ %i1 + 0x60 ], %g4
4000d988:	c4 36 60 0c 	sth  %g2, [ %i1 + 0xc ]
4000d98c:	84 29 00 03 	andn  %g4, %g3, %g2
4000d990:	c4 26 60 60 	st  %g2, [ %i1 + 0x60 ]
4000d994:	c4 06 40 00 	ld  [ %i1 ], %g2
4000d998:	c6 06 60 14 	ld  [ %i1 + 0x14 ], %g3
4000d99c:	82 20 80 01 	sub  %g2, %g1, %g1
4000d9a0:	80 a0 40 03 	cmp  %g1, %g3
4000d9a4:	16 80 00 35 	bge  4000da78 <__swbuf+0x190>
4000d9a8:	82 00 60 01 	inc  %g1
4000d9ac:	c6 06 60 08 	ld  [ %i1 + 8 ], %g3
4000d9b0:	88 00 a0 01 	add  %g2, 1, %g4
4000d9b4:	86 00 ff ff 	add  %g3, -1, %g3
4000d9b8:	c8 26 40 00 	st  %g4, [ %i1 ]
4000d9bc:	c6 26 60 08 	st  %g3, [ %i1 + 8 ]
4000d9c0:	f8 28 80 00 	stb  %i4, [ %g2 ]
4000d9c4:	c4 06 60 14 	ld  [ %i1 + 0x14 ], %g2
4000d9c8:	80 a0 80 01 	cmp  %g2, %g1
4000d9cc:	02 80 00 23 	be  4000da58 <__swbuf+0x170>
4000d9d0:	80 a6 20 0a 	cmp  %i0, 0xa
4000d9d4:	12 80 00 06 	bne  4000d9ec <__swbuf+0x104>
4000d9d8:	01 00 00 00 	nop 
4000d9dc:	c2 16 60 0c 	lduh  [ %i1 + 0xc ], %g1
4000d9e0:	80 88 60 01 	btst  1, %g1
4000d9e4:	12 80 00 1e 	bne  4000da5c <__swbuf+0x174>
4000d9e8:	92 10 00 19 	mov  %i1, %o1
4000d9ec:	81 c7 e0 08 	ret 
4000d9f0:	81 e8 00 00 	restore 
4000d9f4:	7f ff e6 73 	call  400073c0 <__sinit>
4000d9f8:	90 10 00 1d 	mov  %i5, %o0
4000d9fc:	03 10 00 3b 	sethi  %hi(0x4000ec00), %g1
4000da00:	82 10 62 40 	or  %g1, 0x240, %g1	! 4000ee40 <__sf_fake_stdin>
4000da04:	80 a6 40 01 	cmp  %i1, %g1
4000da08:	12 bf ff c8 	bne  4000d928 <__swbuf+0x40>
4000da0c:	03 10 00 3b 	sethi  %hi(0x4000ec00), %g1
4000da10:	f2 07 60 04 	ld  [ %i5 + 4 ], %i1
4000da14:	c2 06 60 18 	ld  [ %i1 + 0x18 ], %g1
4000da18:	c2 26 60 08 	st  %g1, [ %i1 + 8 ]
4000da1c:	c4 16 60 0c 	lduh  [ %i1 + 0xc ], %g2
4000da20:	80 88 a0 08 	btst  8, %g2
4000da24:	32 bf ff d0 	bne,a   4000d964 <__swbuf+0x7c>
4000da28:	c2 06 60 10 	ld  [ %i1 + 0x10 ], %g1
4000da2c:	92 10 00 19 	mov  %i1, %o1
4000da30:	7f ff dd ec 	call  400051e0 <__swsetup_r>
4000da34:	90 10 00 1d 	mov  %i5, %o0
4000da38:	80 a2 20 00 	cmp  %o0, 0
4000da3c:	12 80 00 0d 	bne  4000da70 <__swbuf+0x188>
4000da40:	01 00 00 00 	nop 
4000da44:	c4 16 60 0c 	lduh  [ %i1 + 0xc ], %g2
4000da48:	10 bf ff ca 	b  4000d970 <__swbuf+0x88>
4000da4c:	c2 06 60 10 	ld  [ %i1 + 0x10 ], %g1
4000da50:	10 bf ff be 	b  4000d948 <__swbuf+0x60>
4000da54:	f2 07 60 08 	ld  [ %i5 + 8 ], %i1
4000da58:	92 10 00 19 	mov  %i1, %o1
4000da5c:	7f ff e5 32 	call  40006f24 <_fflush_r>
4000da60:	90 10 00 1d 	mov  %i5, %o0
4000da64:	80 a2 20 00 	cmp  %o0, 0
4000da68:	02 bf ff e1 	be  4000d9ec <__swbuf+0x104>
4000da6c:	01 00 00 00 	nop 
4000da70:	81 c7 e0 08 	ret 
4000da74:	91 e8 3f ff 	restore  %g0, -1, %o0
4000da78:	92 10 00 19 	mov  %i1, %o1
4000da7c:	7f ff e5 2a 	call  40006f24 <_fflush_r>
4000da80:	90 10 00 1d 	mov  %i5, %o0
4000da84:	80 a2 20 00 	cmp  %o0, 0
4000da88:	12 bf ff fa 	bne  4000da70 <__swbuf+0x188>
4000da8c:	82 10 20 01 	mov  1, %g1
4000da90:	10 bf ff c7 	b  4000d9ac <__swbuf+0xc4>
4000da94:	c4 06 40 00 	ld  [ %i1 ], %g2

4000da98 <_wcrtomb_r>:
4000da98:	9d e3 bf 90 	save  %sp, -112, %sp
4000da9c:	03 10 00 3c 	sethi  %hi(0x4000f000), %g1
4000daa0:	80 a6 60 00 	cmp  %i1, 0
4000daa4:	c2 00 63 7c 	ld  [ %g1 + 0x37c ], %g1
4000daa8:	02 80 00 12 	be  4000daf0 <_wcrtomb_r+0x58>
4000daac:	c2 00 60 20 	ld  [ %g1 + 0x20 ], %g1
4000dab0:	80 a0 60 00 	cmp  %g1, 0
4000dab4:	22 80 00 0d 	be,a   4000dae8 <_wcrtomb_r+0x50>
4000dab8:	03 10 00 3d 	sethi  %hi(0x4000f400), %g1
4000dabc:	c2 00 60 e0 	ld  [ %g1 + 0xe0 ], %g1	! 4000f4e0 <__malloc_av_+0xf8>
4000dac0:	96 10 00 1b 	mov  %i3, %o3
4000dac4:	94 10 00 1a 	mov  %i2, %o2
4000dac8:	92 10 00 19 	mov  %i1, %o1
4000dacc:	9f c0 40 00 	call  %g1
4000dad0:	90 10 00 18 	mov  %i0, %o0
4000dad4:	80 a2 3f ff 	cmp  %o0, -1
4000dad8:	22 80 00 13 	be,a   4000db24 <_wcrtomb_r+0x8c>
4000dadc:	c0 26 c0 00 	clr  [ %i3 ]
4000dae0:	81 c7 e0 08 	ret 
4000dae4:	91 e8 00 08 	restore  %g0, %o0, %o0
4000dae8:	10 bf ff f5 	b  4000dabc <_wcrtomb_r+0x24>
4000daec:	82 10 63 f0 	or  %g1, 0x3f0, %g1
4000daf0:	80 a0 60 00 	cmp  %g1, 0
4000daf4:	22 80 00 10 	be,a   4000db34 <_wcrtomb_r+0x9c>
4000daf8:	03 10 00 3d 	sethi  %hi(0x4000f400), %g1
4000dafc:	c2 00 60 e0 	ld  [ %g1 + 0xe0 ], %g1	! 4000f4e0 <__malloc_av_+0xf8>
4000db00:	96 10 00 1b 	mov  %i3, %o3
4000db04:	94 10 20 00 	clr  %o2
4000db08:	92 07 bf f0 	add  %fp, -16, %o1
4000db0c:	9f c0 40 00 	call  %g1
4000db10:	90 10 00 18 	mov  %i0, %o0
4000db14:	80 a2 3f ff 	cmp  %o0, -1
4000db18:	12 bf ff f2 	bne  4000dae0 <_wcrtomb_r+0x48>
4000db1c:	01 00 00 00 	nop 
4000db20:	c0 26 c0 00 	clr  [ %i3 ]
4000db24:	82 10 20 8a 	mov  0x8a, %g1
4000db28:	c2 26 00 00 	st  %g1, [ %i0 ]
4000db2c:	81 c7 e0 08 	ret 
4000db30:	91 e8 00 08 	restore  %g0, %o0, %o0
4000db34:	10 bf ff f2 	b  4000dafc <_wcrtomb_r+0x64>
4000db38:	82 10 63 f0 	or  %g1, 0x3f0, %g1

4000db3c <wcrtomb>:
4000db3c:	9d e3 bf 90 	save  %sp, -112, %sp
4000db40:	03 10 00 3c 	sethi  %hi(0x4000f000), %g1
4000db44:	80 a6 20 00 	cmp  %i0, 0
4000db48:	fa 00 63 7c 	ld  [ %g1 + 0x37c ], %i5
4000db4c:	02 80 00 17 	be  4000dba8 <wcrtomb+0x6c>
4000db50:	c2 07 60 20 	ld  [ %i5 + 0x20 ], %g1
4000db54:	80 a0 60 00 	cmp  %g1, 0
4000db58:	22 80 00 12 	be,a   4000dba0 <wcrtomb+0x64>
4000db5c:	03 10 00 3d 	sethi  %hi(0x4000f400), %g1
4000db60:	92 10 00 18 	mov  %i0, %o1
4000db64:	c2 00 60 e0 	ld  [ %g1 + 0xe0 ], %g1
4000db68:	96 10 00 1a 	mov  %i2, %o3
4000db6c:	94 10 00 19 	mov  %i1, %o2
4000db70:	9f c0 40 00 	call  %g1
4000db74:	90 10 00 1d 	mov  %i5, %o0
4000db78:	b0 10 00 08 	mov  %o0, %i0
4000db7c:	80 a6 3f ff 	cmp  %i0, -1
4000db80:	22 80 00 04 	be,a   4000db90 <wcrtomb+0x54>
4000db84:	c0 26 80 00 	clr  [ %i2 ]
4000db88:	81 c7 e0 08 	ret 
4000db8c:	81 e8 00 00 	restore 
4000db90:	82 10 20 8a 	mov  0x8a, %g1
4000db94:	c2 27 40 00 	st  %g1, [ %i5 ]
4000db98:	81 c7 e0 08 	ret 
4000db9c:	81 e8 00 00 	restore 
4000dba0:	10 bf ff f0 	b  4000db60 <wcrtomb+0x24>
4000dba4:	82 10 63 f0 	or  %g1, 0x3f0, %g1
4000dba8:	80 a0 60 00 	cmp  %g1, 0
4000dbac:	22 80 00 0a 	be,a   4000dbd4 <wcrtomb+0x98>
4000dbb0:	03 10 00 3d 	sethi  %hi(0x4000f400), %g1
4000dbb4:	c2 00 60 e0 	ld  [ %g1 + 0xe0 ], %g1	! 4000f4e0 <__malloc_av_+0xf8>
4000dbb8:	96 10 00 1a 	mov  %i2, %o3
4000dbbc:	94 10 20 00 	clr  %o2
4000dbc0:	92 07 bf f0 	add  %fp, -16, %o1
4000dbc4:	9f c0 40 00 	call  %g1
4000dbc8:	90 10 00 1d 	mov  %i5, %o0
4000dbcc:	10 bf ff ec 	b  4000db7c <wcrtomb+0x40>
4000dbd0:	b0 10 00 08 	mov  %o0, %i0
4000dbd4:	10 bf ff f8 	b  4000dbb4 <wcrtomb+0x78>
4000dbd8:	82 10 63 f0 	or  %g1, 0x3f0, %g1

4000dbdc <_wctomb_r>:
4000dbdc:	9d e3 bf a0 	save  %sp, -96, %sp
4000dbe0:	03 10 00 3c 	sethi  %hi(0x4000f000), %g1
4000dbe4:	c2 00 63 7c 	ld  [ %g1 + 0x37c ], %g1	! 4000f37c <_impure_ptr>
4000dbe8:	c2 00 60 20 	ld  [ %g1 + 0x20 ], %g1
4000dbec:	80 a0 60 00 	cmp  %g1, 0
4000dbf0:	02 80 00 09 	be  4000dc14 <_wctomb_r+0x38>
4000dbf4:	96 10 00 1b 	mov  %i3, %o3
4000dbf8:	c2 00 60 e0 	ld  [ %g1 + 0xe0 ], %g1
4000dbfc:	94 10 00 1a 	mov  %i2, %o2
4000dc00:	92 10 00 19 	mov  %i1, %o1
4000dc04:	9f c0 40 00 	call  %g1
4000dc08:	90 10 00 18 	mov  %i0, %o0
4000dc0c:	81 c7 e0 08 	ret 
4000dc10:	91 e8 00 08 	restore  %g0, %o0, %o0
4000dc14:	94 10 00 1a 	mov  %i2, %o2
4000dc18:	92 10 00 19 	mov  %i1, %o1
4000dc1c:	03 10 00 3d 	sethi  %hi(0x4000f400), %g1
4000dc20:	82 10 63 f0 	or  %g1, 0x3f0, %g1	! 4000f7f0 <__global_locale>
4000dc24:	c2 00 60 e0 	ld  [ %g1 + 0xe0 ], %g1
4000dc28:	9f c0 40 00 	call  %g1
4000dc2c:	90 10 00 18 	mov  %i0, %o0
4000dc30:	81 c7 e0 08 	ret 
4000dc34:	91 e8 00 08 	restore  %g0, %o0, %o0

4000dc38 <__ascii_wctomb>:
4000dc38:	80 a2 60 00 	cmp  %o1, 0
4000dc3c:	02 80 00 0c 	be  4000dc6c <__ascii_wctomb+0x34>
4000dc40:	80 a2 a0 ff 	cmp  %o2, 0xff
4000dc44:	18 80 00 05 	bgu  4000dc58 <__ascii_wctomb+0x20>
4000dc48:	82 10 20 01 	mov  1, %g1
4000dc4c:	d4 2a 40 00 	stb  %o2, [ %o1 ]
4000dc50:	81 c3 e0 08 	retl 
4000dc54:	90 10 00 01 	mov  %g1, %o0
4000dc58:	82 10 3f ff 	mov  -1, %g1
4000dc5c:	84 10 20 8a 	mov  0x8a, %g2
4000dc60:	c4 22 00 00 	st  %g2, [ %o0 ]
4000dc64:	81 c3 e0 08 	retl 
4000dc68:	90 10 00 01 	mov  %g1, %o0
4000dc6c:	82 10 20 00 	clr  %g1
4000dc70:	81 c3 e0 08 	retl 
4000dc74:	90 10 00 01 	mov  %g1, %o0

4000dc78 <_exit>:
4000dc78:	80 10 00 08 	mov  %o0, %g0
4000dc7c:	80 10 00 01 	mov  %g1, %g0
4000dc80:	82 10 20 01 	mov  1, %g1
4000dc84:	91 d0 20 00 	ta  0

4000dc88 <read>:
4000dc88:	9d e3 bf a0 	save  %sp, -96, %sp
4000dc8c:	80 a6 a0 00 	cmp  %i2, 0
4000dc90:	02 80 00 0f 	be  4000dccc <read+0x44>
4000dc94:	b0 10 20 00 	clr  %i0
4000dc98:	40 00 00 80 	call  4000de98 <__bcc_con_inbyte>
4000dc9c:	01 00 00 00 	nop 
4000dca0:	d0 2e 40 18 	stb  %o0, [ %i1 + %i0 ]
4000dca4:	91 2a 20 18 	sll  %o0, 0x18, %o0
4000dca8:	91 3a 20 18 	sra  %o0, 0x18, %o0
4000dcac:	80 a2 20 0a 	cmp  %o0, 0xa
4000dcb0:	02 80 00 07 	be  4000dccc <read+0x44>
4000dcb4:	b0 06 20 01 	inc  %i0
4000dcb8:	80 a2 20 0d 	cmp  %o0, 0xd
4000dcbc:	02 80 00 04 	be  4000dccc <read+0x44>
4000dcc0:	80 a6 00 1a 	cmp  %i0, %i2
4000dcc4:	12 bf ff f5 	bne  4000dc98 <read+0x10>
4000dcc8:	01 00 00 00 	nop 
4000dccc:	81 c7 e0 08 	ret 
4000dcd0:	81 e8 00 00 	restore 

4000dcd4 <sbrk>:
4000dcd4:	03 10 00 3e 	sethi  %hi(0x4000f800), %g1
4000dcd8:	c4 00 63 14 	ld  [ %g1 + 0x314 ], %g2	! 4000fb14 <__bcc_heap_min>
4000dcdc:	80 a0 a0 00 	cmp  %g2, 0
4000dce0:	22 80 00 15 	be,a   4000dd34 <sbrk+0x60>
4000dce4:	05 10 00 3e 	sethi  %hi(0x4000f800), %g2
4000dce8:	03 10 00 3e 	sethi  %hi(0x4000f800), %g1
4000dcec:	c6 00 63 10 	ld  [ %g1 + 0x310 ], %g3	! 4000fb10 <__bcc_heap_max>
4000dcf0:	80 a0 e0 00 	cmp  %g3, 0
4000dcf4:	02 80 00 18 	be  4000dd54 <sbrk+0x80>
4000dcf8:	09 3f ff f8 	sethi  %hi(0xffffe000), %g4
4000dcfc:	09 10 00 3e 	sethi  %hi(0x4000f800), %g4
4000dd00:	c2 01 23 0c 	ld  [ %g4 + 0x30c ], %g1	! 4000fb0c <__sbrk_heap_end>
4000dd04:	80 a0 60 00 	cmp  %g1, 0
4000dd08:	22 80 00 1d 	be,a   4000dd7c <sbrk+0xa8>
4000dd0c:	c4 21 23 0c 	st  %g2, [ %g4 + 0x30c ]
4000dd10:	90 00 40 08 	add  %g1, %o0, %o0
4000dd14:	80 a2 00 03 	cmp  %o0, %g3
4000dd18:	3a 80 00 05 	bcc,a   4000dd2c <sbrk+0x58>
4000dd1c:	82 10 3f ff 	mov  -1, %g1
4000dd20:	d0 21 23 0c 	st  %o0, [ %g4 + 0x30c ]
4000dd24:	81 c3 e0 08 	retl 
4000dd28:	90 10 00 01 	mov  %g1, %o0
4000dd2c:	81 c3 e0 08 	retl 
4000dd30:	90 10 00 01 	mov  %g1, %o0
4000dd34:	84 10 a3 20 	or  %g2, 0x320, %g2
4000dd38:	c4 20 63 14 	st  %g2, [ %g1 + 0x314 ]
4000dd3c:	03 10 00 3e 	sethi  %hi(0x4000f800), %g1
4000dd40:	c6 00 63 10 	ld  [ %g1 + 0x310 ], %g3	! 4000fb10 <__bcc_heap_max>
4000dd44:	80 a0 e0 00 	cmp  %g3, 0
4000dd48:	12 bf ff ee 	bne  4000dd00 <sbrk+0x2c>
4000dd4c:	09 10 00 3e 	sethi  %hi(0x4000f800), %g4
4000dd50:	09 3f ff f8 	sethi  %hi(0xffffe000), %g4
4000dd54:	07 10 00 3e 	sethi  %hi(0x4000f800), %g3
4000dd58:	c6 00 e1 60 	ld  [ %g3 + 0x160 ], %g3	! 4000f960 <__TMC_END__>
4000dd5c:	86 00 c0 04 	add  %g3, %g4, %g3
4000dd60:	c6 20 63 10 	st  %g3, [ %g1 + 0x310 ]
4000dd64:	09 10 00 3e 	sethi  %hi(0x4000f800), %g4
4000dd68:	c2 01 23 0c 	ld  [ %g4 + 0x30c ], %g1	! 4000fb0c <__sbrk_heap_end>
4000dd6c:	80 a0 60 00 	cmp  %g1, 0
4000dd70:	32 bf ff e9 	bne,a   4000dd14 <sbrk+0x40>
4000dd74:	90 00 40 08 	add  %g1, %o0, %o0
4000dd78:	c4 21 23 0c 	st  %g2, [ %g4 + 0x30c ]
4000dd7c:	10 bf ff e5 	b  4000dd10 <sbrk+0x3c>
4000dd80:	82 10 00 02 	mov  %g2, %g1

4000dd84 <write>:
4000dd84:	9d e3 bf a0 	save  %sp, -96, %sp
4000dd88:	80 a6 a0 00 	cmp  %i2, 0
4000dd8c:	02 80 00 0b 	be  4000ddb8 <write+0x34>
4000dd90:	ba 06 40 1a 	add  %i1, %i2, %i5
4000dd94:	d0 4e 40 00 	ldsb  [ %i1 ], %o0
4000dd98:	80 a2 20 0a 	cmp  %o0, 0xa
4000dd9c:	02 80 00 09 	be  4000ddc0 <write+0x3c>
4000dda0:	01 00 00 00 	nop 
4000dda4:	40 00 00 19 	call  4000de08 <__bcc_con_outbyte>
4000dda8:	b2 06 60 01 	inc  %i1
4000ddac:	80 a6 40 1d 	cmp  %i1, %i5
4000ddb0:	32 bf ff fa 	bne,a   4000dd98 <write+0x14>
4000ddb4:	d0 4e 40 00 	ldsb  [ %i1 ], %o0
4000ddb8:	81 c7 e0 08 	ret 
4000ddbc:	91 e8 00 1a 	restore  %g0, %i2, %o0
4000ddc0:	40 00 00 12 	call  4000de08 <__bcc_con_outbyte>
4000ddc4:	90 10 20 0d 	mov  0xd, %o0
4000ddc8:	40 00 00 10 	call  4000de08 <__bcc_con_outbyte>
4000ddcc:	90 10 20 0a 	mov  0xa, %o0
4000ddd0:	b2 06 60 01 	inc  %i1
4000ddd4:	80 a6 40 1d 	cmp  %i1, %i5
4000ddd8:	32 bf ff f0 	bne,a   4000dd98 <write+0x14>
4000dddc:	d0 4e 40 00 	ldsb  [ %i1 ], %o0
4000dde0:	81 c7 e0 08 	ret 
4000dde4:	91 e8 00 1a 	restore  %g0, %i2, %o0

4000dde8 <close>:
4000dde8:	92 10 20 58 	mov  0x58, %o1
4000ddec:	15 10 00 3e 	sethi  %hi(0x4000f800), %o2
4000ddf0:	94 12 a3 08 	or  %o2, 0x308, %o2	! 4000fb08 <errno>
4000ddf4:	d2 22 80 00 	st  %o1, [ %o2 ]
4000ddf8:	81 c3 e0 08 	retl 
4000ddfc:	90 00 3f ff 	add  %g0, -1, %o0

4000de00 <getpid>:
4000de00:	81 c3 e0 08 	retl 
4000de04:	90 00 20 01 	add  %g0, 1, %o0

4000de08 <__bcc_con_outbyte>:
4000de08:	03 10 00 3e 	sethi  %hi(0x4000f800), %g1
4000de0c:	c2 00 62 34 	ld  [ %g1 + 0x234 ], %g1	! 4000fa34 <__bcc_con_handle>
4000de10:	80 a0 60 00 	cmp  %g1, 0
4000de14:	02 80 00 13 	be  4000de60 <__bcc_con_outbyte+0x58>
4000de18:	07 10 00 3e 	sethi  %hi(0x4000f800), %g3
4000de1c:	c4 00 e3 18 	ld  [ %g3 + 0x318 ], %g2	! 4000fb18 <fifoinfo>
4000de20:	80 a0 a0 01 	cmp  %g2, 1
4000de24:	02 80 00 13 	be  4000de70 <__bcc_con_outbyte+0x68>
4000de28:	80 a0 a0 02 	cmp  %g2, 2
4000de2c:	02 80 00 07 	be  4000de48 <__bcc_con_outbyte+0x40>
4000de30:	01 00 00 00 	nop 
4000de34:	c4 00 60 08 	ld  [ %g1 + 8 ], %g2
4000de38:	80 a0 a0 00 	cmp  %g2, 0
4000de3c:	06 80 00 0b 	bl  4000de68 <__bcc_con_outbyte+0x60>
4000de40:	84 10 20 02 	mov  2, %g2
4000de44:	c4 20 e3 18 	st  %g2, [ %g3 + 0x318 ]
4000de48:	c4 00 60 04 	ld  [ %g1 + 4 ], %g2
4000de4c:	80 88 a0 04 	btst  4, %g2
4000de50:	02 bf ff fe 	be  4000de48 <__bcc_con_outbyte+0x40>
4000de54:	01 00 00 00 	nop 
4000de58:	90 0a 20 ff 	and  %o0, 0xff, %o0
4000de5c:	d0 20 40 00 	st  %o0, [ %g1 ]
4000de60:	81 c3 e0 08 	retl 
4000de64:	90 10 20 00 	clr  %o0
4000de68:	84 10 20 01 	mov  1, %g2
4000de6c:	c4 20 e3 18 	st  %g2, [ %g3 + 0x318 ]
4000de70:	c4 00 60 04 	ld  [ %g1 + 4 ], %g2
4000de74:	80 88 a2 00 	btst  0x200, %g2
4000de78:	22 bf ff f9 	be,a   4000de5c <__bcc_con_outbyte+0x54>
4000de7c:	90 0a 20 ff 	and  %o0, 0xff, %o0
4000de80:	c4 00 60 04 	ld  [ %g1 + 4 ], %g2
4000de84:	80 88 a2 00 	btst  0x200, %g2
4000de88:	12 bf ff fa 	bne  4000de70 <__bcc_con_outbyte+0x68>
4000de8c:	01 00 00 00 	nop 
4000de90:	10 bf ff f3 	b  4000de5c <__bcc_con_outbyte+0x54>
4000de94:	90 0a 20 ff 	and  %o0, 0xff, %o0

4000de98 <__bcc_con_inbyte>:
4000de98:	03 10 00 3e 	sethi  %hi(0x4000f800), %g1
4000de9c:	c4 00 62 34 	ld  [ %g1 + 0x234 ], %g2	! 4000fa34 <__bcc_con_handle>
4000dea0:	80 a0 a0 00 	cmp  %g2, 0
4000dea4:	02 80 00 07 	be  4000dec0 <__bcc_con_inbyte+0x28>
4000dea8:	90 10 20 00 	clr  %o0
4000deac:	c2 00 a0 04 	ld  [ %g2 + 4 ], %g1
4000deb0:	80 88 60 01 	btst  1, %g1
4000deb4:	02 bf ff fe 	be  4000deac <__bcc_con_inbyte+0x14>
4000deb8:	01 00 00 00 	nop 
4000debc:	d0 00 80 00 	ld  [ %g2 ], %o0
4000dec0:	91 2a 20 18 	sll  %o0, 0x18, %o0
4000dec4:	81 c3 e0 08 	retl 
4000dec8:	91 3a 20 18 	sra  %o0, 0x18, %o0

4000decc <.umul>:
4000decc:	98 12 00 09 	or  %o0, %o1, %o4
4000ded0:	81 80 00 08 	wr  %o0, %y
4000ded4:	9a ab 2f ff 	andncc  %o4, 0xfff, %o5
4000ded8:	02 80 00 25 	be  4000df6c <mul_shortway>
4000dedc:	98 88 00 00 	andcc  %g0, %g0, %o4
4000dee0:	99 23 00 09 	mulscc  %o4, %o1, %o4
4000dee4:	99 23 00 09 	mulscc  %o4, %o1, %o4
4000dee8:	99 23 00 09 	mulscc  %o4, %o1, %o4
4000deec:	99 23 00 09 	mulscc  %o4, %o1, %o4
4000def0:	99 23 00 09 	mulscc  %o4, %o1, %o4
4000def4:	99 23 00 09 	mulscc  %o4, %o1, %o4
4000def8:	99 23 00 09 	mulscc  %o4, %o1, %o4
4000defc:	99 23 00 09 	mulscc  %o4, %o1, %o4
4000df00:	99 23 00 09 	mulscc  %o4, %o1, %o4
4000df04:	99 23 00 09 	mulscc  %o4, %o1, %o4
4000df08:	99 23 00 09 	mulscc  %o4, %o1, %o4
4000df0c:	99 23 00 09 	mulscc  %o4, %o1, %o4
4000df10:	99 23 00 09 	mulscc  %o4, %o1, %o4
4000df14:	99 23 00 09 	mulscc  %o4, %o1, %o4
4000df18:	99 23 00 09 	mulscc  %o4, %o1, %o4
4000df1c:	99 23 00 09 	mulscc  %o4, %o1, %o4
4000df20:	99 23 00 09 	mulscc  %o4, %o1, %o4
4000df24:	99 23 00 09 	mulscc  %o4, %o1, %o4
4000df28:	99 23 00 09 	mulscc  %o4, %o1, %o4
4000df2c:	99 23 00 09 	mulscc  %o4, %o1, %o4
4000df30:	99 23 00 09 	mulscc  %o4, %o1, %o4
4000df34:	99 23 00 09 	mulscc  %o4, %o1, %o4
4000df38:	99 23 00 09 	mulscc  %o4, %o1, %o4
4000df3c:	99 23 00 09 	mulscc  %o4, %o1, %o4
4000df40:	99 23 00 09 	mulscc  %o4, %o1, %o4
4000df44:	99 23 00 09 	mulscc  %o4, %o1, %o4
4000df48:	99 23 00 09 	mulscc  %o4, %o1, %o4
4000df4c:	99 23 00 09 	mulscc  %o4, %o1, %o4
4000df50:	99 23 00 09 	mulscc  %o4, %o1, %o4
4000df54:	99 23 00 09 	mulscc  %o4, %o1, %o4
4000df58:	99 23 00 09 	mulscc  %o4, %o1, %o4
4000df5c:	99 23 00 09 	mulscc  %o4, %o1, %o4
4000df60:	99 23 00 00 	mulscc  %o4, %g0, %o4
4000df64:	81 c3 e0 08 	retl 
4000df68:	91 40 00 00 	rd  %y, %o0

4000df6c <mul_shortway>:
4000df6c:	99 23 00 09 	mulscc  %o4, %o1, %o4
4000df70:	99 23 00 09 	mulscc  %o4, %o1, %o4
4000df74:	99 23 00 09 	mulscc  %o4, %o1, %o4
4000df78:	99 23 00 09 	mulscc  %o4, %o1, %o4
4000df7c:	99 23 00 09 	mulscc  %o4, %o1, %o4
4000df80:	99 23 00 09 	mulscc  %o4, %o1, %o4
4000df84:	99 23 00 09 	mulscc  %o4, %o1, %o4
4000df88:	99 23 00 09 	mulscc  %o4, %o1, %o4
4000df8c:	99 23 00 09 	mulscc  %o4, %o1, %o4
4000df90:	99 23 00 09 	mulscc  %o4, %o1, %o4
4000df94:	99 23 00 09 	mulscc  %o4, %o1, %o4
4000df98:	99 23 00 09 	mulscc  %o4, %o1, %o4
4000df9c:	99 23 00 00 	mulscc  %o4, %g0, %o4
4000dfa0:	9b 40 00 00 	rd  %y, %o5
4000dfa4:	99 2b 20 0c 	sll  %o4, 0xc, %o4
4000dfa8:	9b 33 60 14 	srl  %o5, 0x14, %o5
4000dfac:	81 c3 e0 08 	retl 
4000dfb0:	90 13 40 0c 	or  %o5, %o4, %o0

4000dfb4 <.udiv>:
4000dfb4:	10 80 00 0b 	b  4000dfe0 <ready_to_divide>
4000dfb8:	86 10 20 00 	clr  %g3

4000dfbc <.div>:
4000dfbc:	80 92 40 08 	orcc  %o1, %o0, %g0
4000dfc0:	16 80 00 08 	bge  4000dfe0 <ready_to_divide>
4000dfc4:	86 1a 40 08 	xor  %o1, %o0, %g3
4000dfc8:	80 92 40 00 	tst  %o1
4000dfcc:	16 80 00 04 	bge  4000dfdc <.div+0x20>
4000dfd0:	80 92 00 00 	tst  %o0
4000dfd4:	16 80 00 03 	bge  4000dfe0 <ready_to_divide>
4000dfd8:	92 20 00 09 	neg  %o1
4000dfdc:	90 20 00 08 	neg  %o0

4000dfe0 <ready_to_divide>:
4000dfe0:	9a 92 40 00 	orcc  %o1, %g0, %o5
4000dfe4:	12 80 00 05 	bne  4000dff8 <ready_to_divide+0x18>
4000dfe8:	96 10 00 08 	mov  %o0, %o3
4000dfec:	91 d0 20 02 	ta  2
4000dff0:	81 c3 e0 08 	retl 
4000dff4:	90 10 00 00 	mov  %g0, %o0
4000dff8:	80 a2 c0 0d 	cmp  %o3, %o5
4000dffc:	0a 80 00 95 	bcs  4000e250 <got_result>
4000e000:	94 10 00 00 	mov  %g0, %o2
4000e004:	03 02 00 00 	sethi  %hi(0x8000000), %g1
4000e008:	80 a2 c0 01 	cmp  %o3, %g1
4000e00c:	0a 80 00 28 	bcs  4000e0ac <not_really_big>
4000e010:	98 10 00 00 	mov  %g0, %o4
4000e014:	80 a3 40 01 	cmp  %o5, %g1
4000e018:	1a 80 00 0d 	bcc  4000e04c <not_too_big>
4000e01c:	84 10 20 01 	mov  1, %g2
4000e020:	9b 2b 60 04 	sll  %o5, 4, %o5
4000e024:	10 bf ff fc 	b  4000e014 <ready_to_divide+0x34>
4000e028:	98 03 20 01 	inc  %o4
4000e02c:	9a 83 40 0d 	addcc  %o5, %o5, %o5
4000e030:	1a 80 00 07 	bcc  4000e04c <not_too_big>
4000e034:	84 00 a0 01 	inc  %g2
4000e038:	83 28 60 04 	sll  %g1, 4, %g1
4000e03c:	9b 33 60 01 	srl  %o5, 1, %o5
4000e040:	9a 03 40 01 	add  %o5, %g1, %o5
4000e044:	10 80 00 07 	b  4000e060 <do_single_div>
4000e048:	84 20 a0 01 	dec  %g2

4000e04c <not_too_big>:
4000e04c:	80 a3 40 0b 	cmp  %o5, %o3
4000e050:	0a bf ff f7 	bcs  4000e02c <ready_to_divide+0x4c>
4000e054:	01 00 00 00 	nop 
4000e058:	02 80 00 02 	be  4000e060 <do_single_div>
4000e05c:	01 00 00 00 	nop 

4000e060 <do_single_div>:
4000e060:	84 a0 a0 01 	deccc  %g2
4000e064:	06 80 00 76 	bl  4000e23c <end_regular_divide>
4000e068:	01 00 00 00 	nop 
4000e06c:	96 22 c0 0d 	sub  %o3, %o5, %o3
4000e070:	94 10 20 01 	mov  1, %o2
4000e074:	10 80 00 0a 	b  4000e09c <end_single_divloop>
4000e078:	01 00 00 00 	nop 

4000e07c <single_divloop>:
4000e07c:	95 2a a0 01 	sll  %o2, 1, %o2
4000e080:	06 80 00 05 	bl  4000e094 <single_divloop+0x18>
4000e084:	9b 33 60 01 	srl  %o5, 1, %o5
4000e088:	96 22 c0 0d 	sub  %o3, %o5, %o3
4000e08c:	10 80 00 04 	b  4000e09c <end_single_divloop>
4000e090:	94 02 a0 01 	inc  %o2
4000e094:	96 02 c0 0d 	add  %o3, %o5, %o3
4000e098:	94 22 a0 01 	dec  %o2

4000e09c <end_single_divloop>:
4000e09c:	84 a0 a0 01 	deccc  %g2
4000e0a0:	16 bf ff f7 	bge  4000e07c <single_divloop>
4000e0a4:	80 92 c0 00 	tst  %o3
4000e0a8:	30 80 00 65 	b,a   4000e23c <end_regular_divide>

4000e0ac <not_really_big>:
4000e0ac:	9b 2b 60 04 	sll  %o5, 4, %o5
4000e0b0:	80 a3 40 0b 	cmp  %o5, %o3
4000e0b4:	08 bf ff fe 	bleu  4000e0ac <not_really_big>
4000e0b8:	98 83 20 01 	inccc  %o4
4000e0bc:	02 80 00 65 	be  4000e250 <got_result>
4000e0c0:	98 23 20 01 	dec  %o4
4000e0c4:	80 92 c0 00 	tst  %o3

4000e0c8 <divloop>:
4000e0c8:	95 2a a0 04 	sll  %o2, 4, %o2
4000e0cc:	06 80 00 2f 	bl  4000e188 <L1.16>
4000e0d0:	9b 33 60 01 	srl  %o5, 1, %o5
4000e0d4:	96 a2 c0 0d 	subcc  %o3, %o5, %o3
4000e0d8:	06 80 00 17 	bl  4000e134 <L2.17>
4000e0dc:	9b 33 60 01 	srl  %o5, 1, %o5
4000e0e0:	96 a2 c0 0d 	subcc  %o3, %o5, %o3
4000e0e4:	06 80 00 0b 	bl  4000e110 <L3.19>
4000e0e8:	9b 33 60 01 	srl  %o5, 1, %o5
4000e0ec:	96 a2 c0 0d 	subcc  %o3, %o5, %o3
4000e0f0:	06 80 00 05 	bl  4000e104 <L4.23>
4000e0f4:	9b 33 60 01 	srl  %o5, 1, %o5
4000e0f8:	96 a2 c0 0d 	subcc  %o3, %o5, %o3
4000e0fc:	10 80 00 50 	b  4000e23c <end_regular_divide>
4000e100:	94 02 a0 0f 	add  %o2, 0xf, %o2

4000e104 <L4.23>:
4000e104:	96 82 c0 0d 	addcc  %o3, %o5, %o3
4000e108:	10 80 00 4d 	b  4000e23c <end_regular_divide>
4000e10c:	94 02 a0 0d 	add  %o2, 0xd, %o2

4000e110 <L3.19>:
4000e110:	96 82 c0 0d 	addcc  %o3, %o5, %o3
4000e114:	06 80 00 05 	bl  4000e128 <L4.21>
4000e118:	9b 33 60 01 	srl  %o5, 1, %o5
4000e11c:	96 a2 c0 0d 	subcc  %o3, %o5, %o3
4000e120:	10 80 00 47 	b  4000e23c <end_regular_divide>
4000e124:	94 02 a0 0b 	add  %o2, 0xb, %o2

4000e128 <L4.21>:
4000e128:	96 82 c0 0d 	addcc  %o3, %o5, %o3
4000e12c:	10 80 00 44 	b  4000e23c <end_regular_divide>
4000e130:	94 02 a0 09 	add  %o2, 9, %o2

4000e134 <L2.17>:
4000e134:	96 82 c0 0d 	addcc  %o3, %o5, %o3
4000e138:	06 80 00 0b 	bl  4000e164 <L3.17>
4000e13c:	9b 33 60 01 	srl  %o5, 1, %o5
4000e140:	96 a2 c0 0d 	subcc  %o3, %o5, %o3
4000e144:	06 80 00 05 	bl  4000e158 <L4.19>
4000e148:	9b 33 60 01 	srl  %o5, 1, %o5
4000e14c:	96 a2 c0 0d 	subcc  %o3, %o5, %o3
4000e150:	10 80 00 3b 	b  4000e23c <end_regular_divide>
4000e154:	94 02 a0 07 	add  %o2, 7, %o2

4000e158 <L4.19>:
4000e158:	96 82 c0 0d 	addcc  %o3, %o5, %o3
4000e15c:	10 80 00 38 	b  4000e23c <end_regular_divide>
4000e160:	94 02 a0 05 	add  %o2, 5, %o2

4000e164 <L3.17>:
4000e164:	96 82 c0 0d 	addcc  %o3, %o5, %o3
4000e168:	06 80 00 05 	bl  4000e17c <L4.17>
4000e16c:	9b 33 60 01 	srl  %o5, 1, %o5
4000e170:	96 a2 c0 0d 	subcc  %o3, %o5, %o3
4000e174:	10 80 00 32 	b  4000e23c <end_regular_divide>
4000e178:	94 02 a0 03 	add  %o2, 3, %o2

4000e17c <L4.17>:
4000e17c:	96 82 c0 0d 	addcc  %o3, %o5, %o3
4000e180:	10 80 00 2f 	b  4000e23c <end_regular_divide>
4000e184:	94 02 a0 01 	inc  %o2

4000e188 <L1.16>:
4000e188:	96 82 c0 0d 	addcc  %o3, %o5, %o3
4000e18c:	06 80 00 17 	bl  4000e1e8 <L2.15>
4000e190:	9b 33 60 01 	srl  %o5, 1, %o5
4000e194:	96 a2 c0 0d 	subcc  %o3, %o5, %o3
4000e198:	06 80 00 0b 	bl  4000e1c4 <L3.15>
4000e19c:	9b 33 60 01 	srl  %o5, 1, %o5
4000e1a0:	96 a2 c0 0d 	subcc  %o3, %o5, %o3
4000e1a4:	06 80 00 05 	bl  4000e1b8 <L4.15>
4000e1a8:	9b 33 60 01 	srl  %o5, 1, %o5
4000e1ac:	96 a2 c0 0d 	subcc  %o3, %o5, %o3
4000e1b0:	10 80 00 23 	b  4000e23c <end_regular_divide>
4000e1b4:	94 02 bf ff 	add  %o2, -1, %o2

4000e1b8 <L4.15>:
4000e1b8:	96 82 c0 0d 	addcc  %o3, %o5, %o3
4000e1bc:	10 80 00 20 	b  4000e23c <end_regular_divide>
4000e1c0:	94 02 bf fd 	add  %o2, -3, %o2

4000e1c4 <L3.15>:
4000e1c4:	96 82 c0 0d 	addcc  %o3, %o5, %o3
4000e1c8:	06 80 00 05 	bl  4000e1dc <L4.13>
4000e1cc:	9b 33 60 01 	srl  %o5, 1, %o5
4000e1d0:	96 a2 c0 0d 	subcc  %o3, %o5, %o3
4000e1d4:	10 80 00 1a 	b  4000e23c <end_regular_divide>
4000e1d8:	94 02 bf fb 	add  %o2, -5, %o2

4000e1dc <L4.13>:
4000e1dc:	96 82 c0 0d 	addcc  %o3, %o5, %o3
4000e1e0:	10 80 00 17 	b  4000e23c <end_regular_divide>
4000e1e4:	94 02 bf f9 	add  %o2, -7, %o2

4000e1e8 <L2.15>:
4000e1e8:	96 82 c0 0d 	addcc  %o3, %o5, %o3
4000e1ec:	06 80 00 0b 	bl  4000e218 <L3.13>
4000e1f0:	9b 33 60 01 	srl  %o5, 1, %o5
4000e1f4:	96 a2 c0 0d 	subcc  %o3, %o5, %o3
4000e1f8:	06 80 00 05 	bl  4000e20c <L4.11>
4000e1fc:	9b 33 60 01 	srl  %o5, 1, %o5
4000e200:	96 a2 c0 0d 	subcc  %o3, %o5, %o3
4000e204:	10 80 00 0e 	b  4000e23c <end_regular_divide>
4000e208:	94 02 bf f7 	add  %o2, -9, %o2

4000e20c <L4.11>:
4000e20c:	96 82 c0 0d 	addcc  %o3, %o5, %o3
4000e210:	10 80 00 0b 	b  4000e23c <end_regular_divide>
4000e214:	94 02 bf f5 	add  %o2, -11, %o2

4000e218 <L3.13>:
4000e218:	96 82 c0 0d 	addcc  %o3, %o5, %o3
4000e21c:	06 80 00 05 	bl  4000e230 <L4.9>
4000e220:	9b 33 60 01 	srl  %o5, 1, %o5
4000e224:	96 a2 c0 0d 	subcc  %o3, %o5, %o3
4000e228:	10 80 00 05 	b  4000e23c <end_regular_divide>
4000e22c:	94 02 bf f3 	add  %o2, -13, %o2

4000e230 <L4.9>:
4000e230:	96 82 c0 0d 	addcc  %o3, %o5, %o3
4000e234:	10 80 00 02 	b  4000e23c <end_regular_divide>
4000e238:	94 02 bf f1 	add  %o2, -15, %o2

4000e23c <end_regular_divide>:
4000e23c:	98 a3 20 01 	deccc  %o4
4000e240:	16 bf ff a2 	bge  4000e0c8 <divloop>
4000e244:	80 92 c0 00 	tst  %o3
4000e248:	26 80 00 02 	bl,a   4000e250 <got_result>
4000e24c:	94 22 a0 01 	dec  %o2

4000e250 <got_result>:
4000e250:	80 90 c0 00 	tst  %g3
4000e254:	26 80 00 02 	bl,a   4000e25c <got_result+0xc>
4000e258:	94 20 00 0a 	neg  %o2
4000e25c:	81 c3 e0 08 	retl 
4000e260:	90 10 00 0a 	mov  %o2, %o0

4000e264 <.urem>:
4000e264:	10 80 00 0b 	b  4000e290 <divide>
4000e268:	86 10 20 00 	clr  %g3

4000e26c <.rem>:
4000e26c:	80 92 40 08 	orcc  %o1, %o0, %g0
4000e270:	16 80 00 08 	bge  4000e290 <divide>
4000e274:	86 10 00 08 	mov  %o0, %g3
4000e278:	80 92 40 00 	tst  %o1
4000e27c:	16 80 00 04 	bge  4000e28c <.rem+0x20>
4000e280:	80 92 00 00 	tst  %o0
4000e284:	16 80 00 03 	bge  4000e290 <divide>
4000e288:	92 20 00 09 	neg  %o1
4000e28c:	90 20 00 08 	neg  %o0

4000e290 <divide>:
4000e290:	9a 92 40 00 	orcc  %o1, %g0, %o5
4000e294:	12 80 00 05 	bne  4000e2a8 <divide+0x18>
4000e298:	96 10 00 08 	mov  %o0, %o3
4000e29c:	91 d0 20 02 	ta  2
4000e2a0:	81 c3 e0 08 	retl 
4000e2a4:	90 10 00 00 	mov  %g0, %o0
4000e2a8:	80 a2 c0 0d 	cmp  %o3, %o5
4000e2ac:	0a 80 00 95 	bcs  4000e500 <got_result>
4000e2b0:	94 10 00 00 	mov  %g0, %o2
4000e2b4:	03 02 00 00 	sethi  %hi(0x8000000), %g1
4000e2b8:	80 a2 c0 01 	cmp  %o3, %g1
4000e2bc:	0a 80 00 28 	bcs  4000e35c <not_really_big>
4000e2c0:	98 10 00 00 	mov  %g0, %o4
4000e2c4:	80 a3 40 01 	cmp  %o5, %g1
4000e2c8:	1a 80 00 0d 	bcc  4000e2fc <not_too_big>
4000e2cc:	84 10 20 01 	mov  1, %g2
4000e2d0:	9b 2b 60 04 	sll  %o5, 4, %o5
4000e2d4:	10 bf ff fc 	b  4000e2c4 <divide+0x34>
4000e2d8:	98 03 20 01 	inc  %o4
4000e2dc:	9a 83 40 0d 	addcc  %o5, %o5, %o5
4000e2e0:	1a 80 00 07 	bcc  4000e2fc <not_too_big>
4000e2e4:	84 00 a0 01 	inc  %g2
4000e2e8:	83 28 60 04 	sll  %g1, 4, %g1
4000e2ec:	9b 33 60 01 	srl  %o5, 1, %o5
4000e2f0:	9a 03 40 01 	add  %o5, %g1, %o5
4000e2f4:	10 80 00 07 	b  4000e310 <do_single_div>
4000e2f8:	84 20 a0 01 	dec  %g2

4000e2fc <not_too_big>:
4000e2fc:	80 a3 40 0b 	cmp  %o5, %o3
4000e300:	0a bf ff f7 	bcs  4000e2dc <divide+0x4c>
4000e304:	01 00 00 00 	nop 
4000e308:	02 80 00 02 	be  4000e310 <do_single_div>
4000e30c:	01 00 00 00 	nop 

4000e310 <do_single_div>:
4000e310:	84 a0 a0 01 	deccc  %g2
4000e314:	06 80 00 76 	bl  4000e4ec <end_regular_divide>
4000e318:	01 00 00 00 	nop 
4000e31c:	96 22 c0 0d 	sub  %o3, %o5, %o3
4000e320:	94 10 20 01 	mov  1, %o2
4000e324:	10 80 00 0a 	b  4000e34c <end_single_divloop>
4000e328:	01 00 00 00 	nop 

4000e32c <single_divloop>:
4000e32c:	95 2a a0 01 	sll  %o2, 1, %o2
4000e330:	06 80 00 05 	bl  4000e344 <single_divloop+0x18>
4000e334:	9b 33 60 01 	srl  %o5, 1, %o5
4000e338:	96 22 c0 0d 	sub  %o3, %o5, %o3
4000e33c:	10 80 00 04 	b  4000e34c <end_single_divloop>
4000e340:	94 02 a0 01 	inc  %o2
4000e344:	96 02 c0 0d 	add  %o3, %o5, %o3
4000e348:	94 22 a0 01 	dec  %o2

4000e34c <end_single_divloop>:
4000e34c:	84 a0 a0 01 	deccc  %g2
4000e350:	16 bf ff f7 	bge  4000e32c <single_divloop>
4000e354:	80 92 c0 00 	tst  %o3
4000e358:	30 80 00 65 	b,a   4000e4ec <end_regular_divide>

4000e35c <not_really_big>:
4000e35c:	9b 2b 60 04 	sll  %o5, 4, %o5
4000e360:	80 a3 40 0b 	cmp  %o5, %o3
4000e364:	08 bf ff fe 	bleu  4000e35c <not_really_big>
4000e368:	98 83 20 01 	inccc  %o4
4000e36c:	02 80 00 65 	be  4000e500 <got_result>
4000e370:	98 23 20 01 	dec  %o4
4000e374:	80 92 c0 00 	tst  %o3

4000e378 <divloop>:
4000e378:	95 2a a0 04 	sll  %o2, 4, %o2
4000e37c:	06 80 00 2f 	bl  4000e438 <L1.16>
4000e380:	9b 33 60 01 	srl  %o5, 1, %o5
4000e384:	96 a2 c0 0d 	subcc  %o3, %o5, %o3
4000e388:	06 80 00 17 	bl  4000e3e4 <L2.17>
4000e38c:	9b 33 60 01 	srl  %o5, 1, %o5
4000e390:	96 a2 c0 0d 	subcc  %o3, %o5, %o3
4000e394:	06 80 00 0b 	bl  4000e3c0 <L3.19>
4000e398:	9b 33 60 01 	srl  %o5, 1, %o5
4000e39c:	96 a2 c0 0d 	subcc  %o3, %o5, %o3
4000e3a0:	06 80 00 05 	bl  4000e3b4 <L4.23>
4000e3a4:	9b 33 60 01 	srl  %o5, 1, %o5
4000e3a8:	96 a2 c0 0d 	subcc  %o3, %o5, %o3
4000e3ac:	10 80 00 50 	b  4000e4ec <end_regular_divide>
4000e3b0:	94 02 a0 0f 	add  %o2, 0xf, %o2

4000e3b4 <L4.23>:
4000e3b4:	96 82 c0 0d 	addcc  %o3, %o5, %o3
4000e3b8:	10 80 00 4d 	b  4000e4ec <end_regular_divide>
4000e3bc:	94 02 a0 0d 	add  %o2, 0xd, %o2

4000e3c0 <L3.19>:
4000e3c0:	96 82 c0 0d 	addcc  %o3, %o5, %o3
4000e3c4:	06 80 00 05 	bl  4000e3d8 <L4.21>
4000e3c8:	9b 33 60 01 	srl  %o5, 1, %o5
4000e3cc:	96 a2 c0 0d 	subcc  %o3, %o5, %o3
4000e3d0:	10 80 00 47 	b  4000e4ec <end_regular_divide>
4000e3d4:	94 02 a0 0b 	add  %o2, 0xb, %o2

4000e3d8 <L4.21>:
4000e3d8:	96 82 c0 0d 	addcc  %o3, %o5, %o3
4000e3dc:	10 80 00 44 	b  4000e4ec <end_regular_divide>
4000e3e0:	94 02 a0 09 	add  %o2, 9, %o2

4000e3e4 <L2.17>:
4000e3e4:	96 82 c0 0d 	addcc  %o3, %o5, %o3
4000e3e8:	06 80 00 0b 	bl  4000e414 <L3.17>
4000e3ec:	9b 33 60 01 	srl  %o5, 1, %o5
4000e3f0:	96 a2 c0 0d 	subcc  %o3, %o5, %o3
4000e3f4:	06 80 00 05 	bl  4000e408 <L4.19>
4000e3f8:	9b 33 60 01 	srl  %o5, 1, %o5
4000e3fc:	96 a2 c0 0d 	subcc  %o3, %o5, %o3
4000e400:	10 80 00 3b 	b  4000e4ec <end_regular_divide>
4000e404:	94 02 a0 07 	add  %o2, 7, %o2

4000e408 <L4.19>:
4000e408:	96 82 c0 0d 	addcc  %o3, %o5, %o3
4000e40c:	10 80 00 38 	b  4000e4ec <end_regular_divide>
4000e410:	94 02 a0 05 	add  %o2, 5, %o2

4000e414 <L3.17>:
4000e414:	96 82 c0 0d 	addcc  %o3, %o5, %o3
4000e418:	06 80 00 05 	bl  4000e42c <L4.17>
4000e41c:	9b 33 60 01 	srl  %o5, 1, %o5
4000e420:	96 a2 c0 0d 	subcc  %o3, %o5, %o3
4000e424:	10 80 00 32 	b  4000e4ec <end_regular_divide>
4000e428:	94 02 a0 03 	add  %o2, 3, %o2

4000e42c <L4.17>:
4000e42c:	96 82 c0 0d 	addcc  %o3, %o5, %o3
4000e430:	10 80 00 2f 	b  4000e4ec <end_regular_divide>
4000e434:	94 02 a0 01 	inc  %o2

4000e438 <L1.16>:
4000e438:	96 82 c0 0d 	addcc  %o3, %o5, %o3
4000e43c:	06 80 00 17 	bl  4000e498 <L2.15>
4000e440:	9b 33 60 01 	srl  %o5, 1, %o5
4000e444:	96 a2 c0 0d 	subcc  %o3, %o5, %o3
4000e448:	06 80 00 0b 	bl  4000e474 <L3.15>
4000e44c:	9b 33 60 01 	srl  %o5, 1, %o5
4000e450:	96 a2 c0 0d 	subcc  %o3, %o5, %o3
4000e454:	06 80 00 05 	bl  4000e468 <L4.15>
4000e458:	9b 33 60 01 	srl  %o5, 1, %o5
4000e45c:	96 a2 c0 0d 	subcc  %o3, %o5, %o3
4000e460:	10 80 00 23 	b  4000e4ec <end_regular_divide>
4000e464:	94 02 bf ff 	add  %o2, -1, %o2

4000e468 <L4.15>:
4000e468:	96 82 c0 0d 	addcc  %o3, %o5, %o3
4000e46c:	10 80 00 20 	b  4000e4ec <end_regular_divide>
4000e470:	94 02 bf fd 	add  %o2, -3, %o2

4000e474 <L3.15>:
4000e474:	96 82 c0 0d 	addcc  %o3, %o5, %o3
4000e478:	06 80 00 05 	bl  4000e48c <L4.13>
4000e47c:	9b 33 60 01 	srl  %o5, 1, %o5
4000e480:	96 a2 c0 0d 	subcc  %o3, %o5, %o3
4000e484:	10 80 00 1a 	b  4000e4ec <end_regular_divide>
4000e488:	94 02 bf fb 	add  %o2, -5, %o2

4000e48c <L4.13>:
4000e48c:	96 82 c0 0d 	addcc  %o3, %o5, %o3
4000e490:	10 80 00 17 	b  4000e4ec <end_regular_divide>
4000e494:	94 02 bf f9 	add  %o2, -7, %o2

4000e498 <L2.15>:
4000e498:	96 82 c0 0d 	addcc  %o3, %o5, %o3
4000e49c:	06 80 00 0b 	bl  4000e4c8 <L3.13>
4000e4a0:	9b 33 60 01 	srl  %o5, 1, %o5
4000e4a4:	96 a2 c0 0d 	subcc  %o3, %o5, %o3
4000e4a8:	06 80 00 05 	bl  4000e4bc <L4.11>
4000e4ac:	9b 33 60 01 	srl  %o5, 1, %o5
4000e4b0:	96 a2 c0 0d 	subcc  %o3, %o5, %o3
4000e4b4:	10 80 00 0e 	b  4000e4ec <end_regular_divide>
4000e4b8:	94 02 bf f7 	add  %o2, -9, %o2

4000e4bc <L4.11>:
4000e4bc:	96 82 c0 0d 	addcc  %o3, %o5, %o3
4000e4c0:	10 80 00 0b 	b  4000e4ec <end_regular_divide>
4000e4c4:	94 02 bf f5 	add  %o2, -11, %o2

4000e4c8 <L3.13>:
4000e4c8:	96 82 c0 0d 	addcc  %o3, %o5, %o3
4000e4cc:	06 80 00 05 	bl  4000e4e0 <L4.9>
4000e4d0:	9b 33 60 01 	srl  %o5, 1, %o5
4000e4d4:	96 a2 c0 0d 	subcc  %o3, %o5, %o3
4000e4d8:	10 80 00 05 	b  4000e4ec <end_regular_divide>
4000e4dc:	94 02 bf f3 	add  %o2, -13, %o2

4000e4e0 <L4.9>:
4000e4e0:	96 82 c0 0d 	addcc  %o3, %o5, %o3
4000e4e4:	10 80 00 02 	b  4000e4ec <end_regular_divide>
4000e4e8:	94 02 bf f1 	add  %o2, -15, %o2

4000e4ec <end_regular_divide>:
4000e4ec:	98 a3 20 01 	deccc  %o4
4000e4f0:	16 bf ff a2 	bge  4000e378 <divloop>
4000e4f4:	80 92 c0 00 	tst  %o3
4000e4f8:	26 80 00 02 	bl,a   4000e500 <got_result>
4000e4fc:	96 02 c0 09 	add  %o3, %o1, %o3

4000e500 <got_result>:
4000e500:	80 90 c0 00 	tst  %g3
4000e504:	26 80 00 02 	bl,a   4000e50c <got_result+0xc>
4000e508:	96 20 00 0b 	neg  %o3
4000e50c:	81 c3 e0 08 	retl 
4000e510:	90 10 00 0b 	mov  %o3, %o0

4000e514 <__udivdi3>:
4000e514:	9d e3 bf a0 	save  %sp, -96, %sp
4000e518:	80 a6 a0 00 	cmp  %i2, 0
4000e51c:	12 80 00 20 	bne  4000e59c <__udivdi3+0x88>
4000e520:	80 a6 80 18 	cmp  %i2, %i0
4000e524:	80 a6 c0 18 	cmp  %i3, %i0
4000e528:	08 80 00 40 	bleu  4000e628 <__udivdi3+0x114>
4000e52c:	80 a6 e0 00 	cmp  %i3, 0
4000e530:	84 10 00 18 	mov  %i0, %g2
4000e534:	b0 10 20 00 	clr  %i0
4000e538:	82 10 20 20 	mov  0x20, %g1
4000e53c:	80 a0 80 1b 	cmp  %g2, %i3
4000e540:	0a 80 00 0c 	bcs  4000e570 <__udivdi3+0x5c>
4000e544:	b2 c6 40 19 	addxcc  %i1, %i1, %i1
4000e548:	84 20 80 1b 	sub  %g2, %i3, %g2
4000e54c:	84 40 80 02 	addx  %g2, %g2, %g2
4000e550:	82 a0 60 01 	deccc  %g1
4000e554:	12 bf ff fb 	bne  4000e540 <__udivdi3+0x2c>
4000e558:	80 a0 80 1b 	cmp  %g2, %i3
4000e55c:	0a 80 00 0b 	bcs  4000e588 <__udivdi3+0x74>
4000e560:	b2 c6 40 19 	addxcc  %i1, %i1, %i1
4000e564:	10 80 00 09 	b  4000e588 <__udivdi3+0x74>
4000e568:	84 20 80 1b 	sub  %g2, %i3, %g2
4000e56c:	84 20 80 1b 	sub  %g2, %i3, %g2
4000e570:	84 c0 80 02 	addxcc  %g2, %g2, %g2
4000e574:	1a bf ff f8 	bcc  4000e554 <__udivdi3+0x40>
4000e578:	82 a0 60 01 	deccc  %g1
4000e57c:	12 bf ff fc 	bne  4000e56c <__udivdi3+0x58>
4000e580:	b2 86 40 19 	addcc  %i1, %i1, %i1
4000e584:	84 20 80 1b 	sub  %g2, %i3, %g2
4000e588:	b2 3e 60 00 	xnor  %i1, 0, %i1
4000e58c:	82 10 00 19 	mov  %i1, %g1
4000e590:	b2 10 00 01 	mov  %g1, %i1
4000e594:	81 c7 e0 08 	ret 
4000e598:	81 e8 00 00 	restore 
4000e59c:	08 80 00 07 	bleu  4000e5b8 <__udivdi3+0xa4>
4000e5a0:	03 00 00 3f 	sethi  %hi(0xfc00), %g1
4000e5a4:	82 10 20 00 	clr  %g1
4000e5a8:	b0 10 20 00 	clr  %i0
4000e5ac:	b2 10 00 01 	mov  %g1, %i1
4000e5b0:	81 c7 e0 08 	ret 
4000e5b4:	81 e8 00 00 	restore 
4000e5b8:	82 10 63 ff 	or  %g1, 0x3ff, %g1
4000e5bc:	80 a6 80 01 	cmp  %i2, %g1
4000e5c0:	08 80 00 4f 	bleu  4000e6fc <__udivdi3+0x1e8>
4000e5c4:	80 a6 a0 ff 	cmp  %i2, 0xff
4000e5c8:	03 00 3f ff 	sethi  %hi(0xfffc00), %g1
4000e5cc:	82 10 63 ff 	or  %g1, 0x3ff, %g1	! ffffff <__data_size+0xfff9ef>
4000e5d0:	80 a6 80 01 	cmp  %i2, %g1
4000e5d4:	08 80 00 a0 	bleu  4000e854 <__udivdi3+0x340>
4000e5d8:	83 36 a0 10 	srl  %i2, 0x10, %g1
4000e5dc:	83 36 a0 18 	srl  %i2, 0x18, %g1
4000e5e0:	88 10 20 18 	mov  0x18, %g4
4000e5e4:	84 10 20 20 	mov  0x20, %g2
4000e5e8:	07 10 00 3c 	sethi  %hi(0x4000f000), %g3
4000e5ec:	86 10 e2 50 	or  %g3, 0x250, %g3	! 4000f250 <__clz_tab>
4000e5f0:	c2 08 c0 01 	ldub  [ %g3 + %g1 ], %g1
4000e5f4:	82 00 40 04 	add  %g1, %g4, %g1
4000e5f8:	84 a0 80 01 	subcc  %g2, %g1, %g2
4000e5fc:	32 80 00 45 	bne,a   4000e710 <__udivdi3+0x1fc>
4000e600:	87 36 c0 01 	srl  %i3, %g1, %g3
4000e604:	80 a6 80 18 	cmp  %i2, %i0
4000e608:	0a 80 00 05 	bcs  4000e61c <__udivdi3+0x108>
4000e60c:	80 a6 40 1b 	cmp  %i1, %i3
4000e610:	82 10 20 00 	clr  %g1
4000e614:	0a bf ff e6 	bcs  4000e5ac <__udivdi3+0x98>
4000e618:	b0 10 20 00 	clr  %i0
4000e61c:	82 10 20 01 	mov  1, %g1
4000e620:	10 bf ff e3 	b  4000e5ac <__udivdi3+0x98>
4000e624:	b0 10 20 00 	clr  %i0
4000e628:	12 80 00 07 	bne  4000e644 <__udivdi3+0x130>
4000e62c:	84 10 20 00 	clr  %g2
4000e630:	92 10 20 00 	clr  %o1
4000e634:	7f ff fe 60 	call  4000dfb4 <.udiv>
4000e638:	90 10 20 01 	mov  1, %o0
4000e63c:	b6 10 00 08 	mov  %o0, %i3
4000e640:	84 10 20 00 	clr  %g2
4000e644:	82 10 20 20 	mov  0x20, %g1
4000e648:	80 a0 80 1b 	cmp  %g2, %i3
4000e64c:	0a 80 00 0c 	bcs  4000e67c <__udivdi3+0x168>
4000e650:	b0 c6 00 18 	addxcc  %i0, %i0, %i0
4000e654:	84 20 80 1b 	sub  %g2, %i3, %g2
4000e658:	84 40 80 02 	addx  %g2, %g2, %g2
4000e65c:	82 a0 60 01 	deccc  %g1
4000e660:	12 bf ff fb 	bne  4000e64c <__udivdi3+0x138>
4000e664:	80 a0 80 1b 	cmp  %g2, %i3
4000e668:	0a 80 00 0b 	bcs  4000e694 <__udivdi3+0x180>
4000e66c:	b0 c6 00 18 	addxcc  %i0, %i0, %i0
4000e670:	10 80 00 09 	b  4000e694 <__udivdi3+0x180>
4000e674:	84 20 80 1b 	sub  %g2, %i3, %g2
4000e678:	84 20 80 1b 	sub  %g2, %i3, %g2
4000e67c:	84 c0 80 02 	addxcc  %g2, %g2, %g2
4000e680:	1a bf ff f8 	bcc  4000e660 <__udivdi3+0x14c>
4000e684:	82 a0 60 01 	deccc  %g1
4000e688:	12 bf ff fc 	bne  4000e678 <__udivdi3+0x164>
4000e68c:	b0 86 00 18 	addcc  %i0, %i0, %i0
4000e690:	84 20 80 1b 	sub  %g2, %i3, %g2
4000e694:	b0 3e 20 00 	xnor  %i0, 0, %i0
4000e698:	82 10 20 20 	mov  0x20, %g1
4000e69c:	80 a0 80 1b 	cmp  %g2, %i3
4000e6a0:	0a 80 00 0c 	bcs  4000e6d0 <__udivdi3+0x1bc>
4000e6a4:	b2 c6 40 19 	addxcc  %i1, %i1, %i1
4000e6a8:	84 20 80 1b 	sub  %g2, %i3, %g2
4000e6ac:	84 40 80 02 	addx  %g2, %g2, %g2
4000e6b0:	82 a0 60 01 	deccc  %g1
4000e6b4:	12 bf ff fb 	bne  4000e6a0 <__udivdi3+0x18c>
4000e6b8:	80 a0 80 1b 	cmp  %g2, %i3
4000e6bc:	0a 80 00 0b 	bcs  4000e6e8 <__udivdi3+0x1d4>
4000e6c0:	b2 c6 40 19 	addxcc  %i1, %i1, %i1
4000e6c4:	10 80 00 09 	b  4000e6e8 <__udivdi3+0x1d4>
4000e6c8:	84 20 80 1b 	sub  %g2, %i3, %g2
4000e6cc:	84 20 80 1b 	sub  %g2, %i3, %g2
4000e6d0:	84 c0 80 02 	addxcc  %g2, %g2, %g2
4000e6d4:	1a bf ff f8 	bcc  4000e6b4 <__udivdi3+0x1a0>
4000e6d8:	82 a0 60 01 	deccc  %g1
4000e6dc:	12 bf ff fc 	bne  4000e6cc <__udivdi3+0x1b8>
4000e6e0:	b2 86 40 19 	addcc  %i1, %i1, %i1
4000e6e4:	84 20 80 1b 	sub  %g2, %i3, %g2
4000e6e8:	b2 3e 60 00 	xnor  %i1, 0, %i1
4000e6ec:	82 10 00 19 	mov  %i1, %g1
4000e6f0:	b2 10 00 01 	mov  %g1, %i1
4000e6f4:	81 c7 e0 08 	ret 
4000e6f8:	81 e8 00 00 	restore 
4000e6fc:	28 80 00 54 	bleu,a   4000e84c <__udivdi3+0x338>
4000e700:	82 10 00 1a 	mov  %i2, %g1
4000e704:	83 36 a0 08 	srl  %i2, 8, %g1
4000e708:	10 bf ff b7 	b  4000e5e4 <__udivdi3+0xd0>
4000e70c:	88 10 20 08 	mov  8, %g4
4000e710:	b5 2e 80 02 	sll  %i2, %g2, %i2
4000e714:	b4 10 c0 1a 	or  %g3, %i2, %i2
4000e718:	87 36 00 01 	srl  %i0, %g1, %g3
4000e71c:	b1 2e 00 02 	sll  %i0, %g2, %i0
4000e720:	91 2e c0 02 	sll  %i3, %g2, %o0
4000e724:	83 36 40 01 	srl  %i1, %g1, %g1
4000e728:	82 10 40 18 	or  %g1, %i0, %g1
4000e72c:	b0 10 00 01 	mov  %g1, %i0
4000e730:	82 10 20 20 	mov  0x20, %g1
4000e734:	80 a0 c0 1a 	cmp  %g3, %i2
4000e738:	0a 80 00 0c 	bcs  4000e768 <__udivdi3+0x254>
4000e73c:	b0 c6 00 18 	addxcc  %i0, %i0, %i0
4000e740:	86 20 c0 1a 	sub  %g3, %i2, %g3
4000e744:	86 40 c0 03 	addx  %g3, %g3, %g3
4000e748:	82 a0 60 01 	deccc  %g1
4000e74c:	12 bf ff fb 	bne  4000e738 <__udivdi3+0x224>
4000e750:	80 a0 c0 1a 	cmp  %g3, %i2
4000e754:	0a 80 00 0b 	bcs  4000e780 <__udivdi3+0x26c>
4000e758:	b0 c6 00 18 	addxcc  %i0, %i0, %i0
4000e75c:	10 80 00 09 	b  4000e780 <__udivdi3+0x26c>
4000e760:	86 20 c0 1a 	sub  %g3, %i2, %g3
4000e764:	86 20 c0 1a 	sub  %g3, %i2, %g3
4000e768:	86 c0 c0 03 	addxcc  %g3, %g3, %g3
4000e76c:	1a bf ff f8 	bcc  4000e74c <__udivdi3+0x238>
4000e770:	82 a0 60 01 	deccc  %g1
4000e774:	12 bf ff fc 	bne  4000e764 <__udivdi3+0x250>
4000e778:	b0 86 00 18 	addcc  %i0, %i0, %i0
4000e77c:	86 20 c0 1a 	sub  %g3, %i2, %g3
4000e780:	b0 3e 20 00 	xnor  %i0, 0, %i0
4000e784:	81 80 00 18 	wr  %i0, %y
4000e788:	9b 3a 20 1f 	sra  %o0, 0x1f, %o5
4000e78c:	9a 0e 00 0d 	and  %i0, %o5, %o5
4000e790:	82 88 20 00 	andcc  %g0, 0, %g1
4000e794:	83 20 40 08 	mulscc  %g1, %o0, %g1
4000e798:	83 20 40 08 	mulscc  %g1, %o0, %g1
4000e79c:	83 20 40 08 	mulscc  %g1, %o0, %g1
4000e7a0:	83 20 40 08 	mulscc  %g1, %o0, %g1
4000e7a4:	83 20 40 08 	mulscc  %g1, %o0, %g1
4000e7a8:	83 20 40 08 	mulscc  %g1, %o0, %g1
4000e7ac:	83 20 40 08 	mulscc  %g1, %o0, %g1
4000e7b0:	83 20 40 08 	mulscc  %g1, %o0, %g1
4000e7b4:	83 20 40 08 	mulscc  %g1, %o0, %g1
4000e7b8:	83 20 40 08 	mulscc  %g1, %o0, %g1
4000e7bc:	83 20 40 08 	mulscc  %g1, %o0, %g1
4000e7c0:	83 20 40 08 	mulscc  %g1, %o0, %g1
4000e7c4:	83 20 40 08 	mulscc  %g1, %o0, %g1
4000e7c8:	83 20 40 08 	mulscc  %g1, %o0, %g1
4000e7cc:	83 20 40 08 	mulscc  %g1, %o0, %g1
4000e7d0:	83 20 40 08 	mulscc  %g1, %o0, %g1
4000e7d4:	83 20 40 08 	mulscc  %g1, %o0, %g1
4000e7d8:	83 20 40 08 	mulscc  %g1, %o0, %g1
4000e7dc:	83 20 40 08 	mulscc  %g1, %o0, %g1
4000e7e0:	83 20 40 08 	mulscc  %g1, %o0, %g1
4000e7e4:	83 20 40 08 	mulscc  %g1, %o0, %g1
4000e7e8:	83 20 40 08 	mulscc  %g1, %o0, %g1
4000e7ec:	83 20 40 08 	mulscc  %g1, %o0, %g1
4000e7f0:	83 20 40 08 	mulscc  %g1, %o0, %g1
4000e7f4:	83 20 40 08 	mulscc  %g1, %o0, %g1
4000e7f8:	83 20 40 08 	mulscc  %g1, %o0, %g1
4000e7fc:	83 20 40 08 	mulscc  %g1, %o0, %g1
4000e800:	83 20 40 08 	mulscc  %g1, %o0, %g1
4000e804:	83 20 40 08 	mulscc  %g1, %o0, %g1
4000e808:	83 20 40 08 	mulscc  %g1, %o0, %g1
4000e80c:	83 20 40 08 	mulscc  %g1, %o0, %g1
4000e810:	83 20 40 08 	mulscc  %g1, %o0, %g1
4000e814:	83 20 60 00 	mulscc  %g1, 0, %g1
4000e818:	90 00 40 0d 	add  %g1, %o5, %o0
4000e81c:	b7 40 00 00 	rd  %y, %i3
4000e820:	80 a0 c0 08 	cmp  %g3, %o0
4000e824:	0a 80 00 08 	bcs  4000e844 <__udivdi3+0x330>
4000e828:	82 06 3f ff 	add  %i0, -1, %g1
4000e82c:	b3 2e 40 02 	sll  %i1, %g2, %i1
4000e830:	80 a6 40 1b 	cmp  %i1, %i3
4000e834:	1a 80 00 0a 	bcc  4000e85c <__udivdi3+0x348>
4000e838:	80 a0 c0 08 	cmp  %g3, %o0
4000e83c:	32 80 00 09 	bne,a   4000e860 <__udivdi3+0x34c>
4000e840:	82 10 00 18 	mov  %i0, %g1
4000e844:	10 bf ff 5a 	b  4000e5ac <__udivdi3+0x98>
4000e848:	b0 10 20 00 	clr  %i0
4000e84c:	10 bf ff 66 	b  4000e5e4 <__udivdi3+0xd0>
4000e850:	88 10 20 00 	clr  %g4
4000e854:	10 bf ff 64 	b  4000e5e4 <__udivdi3+0xd0>
4000e858:	88 10 20 10 	mov  0x10, %g4
4000e85c:	82 10 00 18 	mov  %i0, %g1
4000e860:	10 bf ff 53 	b  4000e5ac <__udivdi3+0x98>
4000e864:	b0 10 20 00 	clr  %i0

4000e868 <__umoddi3>:
4000e868:	9d e3 bf a0 	save  %sp, -96, %sp
4000e86c:	80 a6 a0 00 	cmp  %i2, 0
4000e870:	12 80 00 1e 	bne  4000e8e8 <__umoddi3+0x80>
4000e874:	84 10 00 18 	mov  %i0, %g2
4000e878:	80 a6 c0 18 	cmp  %i3, %i0
4000e87c:	08 80 00 3b 	bleu  4000e968 <__umoddi3+0x100>
4000e880:	80 a6 e0 00 	cmp  %i3, 0
4000e884:	82 10 20 20 	mov  0x20, %g1
4000e888:	80 a6 00 1b 	cmp  %i0, %i3
4000e88c:	0a 80 00 0c 	bcs  4000e8bc <__umoddi3+0x54>
4000e890:	b2 c6 40 19 	addxcc  %i1, %i1, %i1
4000e894:	b0 26 00 1b 	sub  %i0, %i3, %i0
4000e898:	b0 46 00 18 	addx  %i0, %i0, %i0
4000e89c:	82 a0 60 01 	deccc  %g1
4000e8a0:	12 bf ff fb 	bne  4000e88c <__umoddi3+0x24>
4000e8a4:	80 a6 00 1b 	cmp  %i0, %i3
4000e8a8:	0a 80 00 0b 	bcs  4000e8d4 <__umoddi3+0x6c>
4000e8ac:	b2 c6 40 19 	addxcc  %i1, %i1, %i1
4000e8b0:	10 80 00 09 	b  4000e8d4 <__umoddi3+0x6c>
4000e8b4:	b0 26 00 1b 	sub  %i0, %i3, %i0
4000e8b8:	b0 26 00 1b 	sub  %i0, %i3, %i0
4000e8bc:	b0 c6 00 18 	addxcc  %i0, %i0, %i0
4000e8c0:	1a bf ff f8 	bcc  4000e8a0 <__umoddi3+0x38>
4000e8c4:	82 a0 60 01 	deccc  %g1
4000e8c8:	12 bf ff fc 	bne  4000e8b8 <__umoddi3+0x50>
4000e8cc:	b2 86 40 19 	addcc  %i1, %i1, %i1
4000e8d0:	b0 26 00 1b 	sub  %i0, %i3, %i0
4000e8d4:	b2 3e 60 00 	xnor  %i1, 0, %i1
4000e8d8:	b2 10 00 18 	mov  %i0, %i1
4000e8dc:	b0 10 20 00 	clr  %i0
4000e8e0:	81 c7 e0 08 	ret 
4000e8e4:	81 e8 00 00 	restore 
4000e8e8:	80 a6 80 18 	cmp  %i2, %i0
4000e8ec:	18 bf ff fd 	bgu  4000e8e0 <__umoddi3+0x78>
4000e8f0:	86 10 00 19 	mov  %i1, %g3
4000e8f4:	03 00 00 3f 	sethi  %hi(0xfc00), %g1
4000e8f8:	82 10 63 ff 	or  %g1, 0x3ff, %g1	! ffff <__data_size+0xf9ef>
4000e8fc:	80 a6 80 01 	cmp  %i2, %g1
4000e900:	08 80 00 4f 	bleu  4000ea3c <__umoddi3+0x1d4>
4000e904:	80 a6 a0 ff 	cmp  %i2, 0xff
4000e908:	03 00 3f ff 	sethi  %hi(0xfffc00), %g1
4000e90c:	82 10 63 ff 	or  %g1, 0x3ff, %g1	! ffffff <__data_size+0xfff9ef>
4000e910:	80 a6 80 01 	cmp  %i2, %g1
4000e914:	08 80 00 af 	bleu  4000ebd0 <__umoddi3+0x368>
4000e918:	83 36 a0 10 	srl  %i2, 0x10, %g1
4000e91c:	83 36 a0 18 	srl  %i2, 0x18, %g1
4000e920:	b8 10 20 18 	mov  0x18, %i4
4000e924:	09 10 00 3c 	sethi  %hi(0x4000f000), %g4
4000e928:	88 11 22 50 	or  %g4, 0x250, %g4	! 4000f250 <__clz_tab>
4000e92c:	ba 10 20 20 	mov  0x20, %i5
4000e930:	c2 09 00 01 	ldub  [ %g4 + %g1 ], %g1
4000e934:	88 00 40 1c 	add  %g1, %i4, %g4
4000e938:	ba a7 40 04 	subcc  %i5, %g4, %i5
4000e93c:	32 80 00 4b 	bne,a   4000ea68 <__umoddi3+0x200>
4000e940:	83 36 c0 04 	srl  %i3, %g4, %g1
4000e944:	80 a6 80 18 	cmp  %i2, %i0
4000e948:	0a 80 00 42 	bcs  4000ea50 <__umoddi3+0x1e8>
4000e94c:	80 a6 40 1b 	cmp  %i1, %i3
4000e950:	1a 80 00 40 	bcc  4000ea50 <__umoddi3+0x1e8>
4000e954:	01 00 00 00 	nop 
4000e958:	b0 10 00 02 	mov  %g2, %i0
4000e95c:	b2 10 00 03 	mov  %g3, %i1
4000e960:	81 c7 e0 08 	ret 
4000e964:	81 e8 00 00 	restore 
4000e968:	12 80 00 07 	bne  4000e984 <__umoddi3+0x11c>
4000e96c:	86 10 00 19 	mov  %i1, %g3
4000e970:	92 10 20 00 	clr  %o1
4000e974:	7f ff fd 90 	call  4000dfb4 <.udiv>
4000e978:	90 10 20 01 	mov  1, %o0
4000e97c:	b6 10 00 08 	mov  %o0, %i3
4000e980:	86 10 00 19 	mov  %i1, %g3
4000e984:	84 10 20 00 	clr  %g2
4000e988:	82 10 20 20 	mov  0x20, %g1
4000e98c:	80 a0 80 1b 	cmp  %g2, %i3
4000e990:	0a 80 00 0c 	bcs  4000e9c0 <__umoddi3+0x158>
4000e994:	b0 c6 00 18 	addxcc  %i0, %i0, %i0
4000e998:	84 20 80 1b 	sub  %g2, %i3, %g2
4000e99c:	84 40 80 02 	addx  %g2, %g2, %g2
4000e9a0:	82 a0 60 01 	deccc  %g1
4000e9a4:	12 bf ff fb 	bne  4000e990 <__umoddi3+0x128>
4000e9a8:	80 a0 80 1b 	cmp  %g2, %i3
4000e9ac:	0a 80 00 0b 	bcs  4000e9d8 <__umoddi3+0x170>
4000e9b0:	b0 c6 00 18 	addxcc  %i0, %i0, %i0
4000e9b4:	10 80 00 09 	b  4000e9d8 <__umoddi3+0x170>
4000e9b8:	84 20 80 1b 	sub  %g2, %i3, %g2
4000e9bc:	84 20 80 1b 	sub  %g2, %i3, %g2
4000e9c0:	84 c0 80 02 	addxcc  %g2, %g2, %g2
4000e9c4:	1a bf ff f8 	bcc  4000e9a4 <__umoddi3+0x13c>
4000e9c8:	82 a0 60 01 	deccc  %g1
4000e9cc:	12 bf ff fc 	bne  4000e9bc <__umoddi3+0x154>
4000e9d0:	b0 86 00 18 	addcc  %i0, %i0, %i0
4000e9d4:	84 20 80 1b 	sub  %g2, %i3, %g2
4000e9d8:	b0 3e 20 00 	xnor  %i0, 0, %i0
4000e9dc:	b0 10 20 00 	clr  %i0
4000e9e0:	b2 10 00 02 	mov  %g2, %i1
4000e9e4:	82 10 20 20 	mov  0x20, %g1
4000e9e8:	80 a6 40 1b 	cmp  %i1, %i3
4000e9ec:	0a 80 00 0c 	bcs  4000ea1c <__umoddi3+0x1b4>
4000e9f0:	86 c0 c0 03 	addxcc  %g3, %g3, %g3
4000e9f4:	b2 26 40 1b 	sub  %i1, %i3, %i1
4000e9f8:	b2 46 40 19 	addx  %i1, %i1, %i1
4000e9fc:	82 a0 60 01 	deccc  %g1
4000ea00:	12 bf ff fb 	bne  4000e9ec <__umoddi3+0x184>
4000ea04:	80 a6 40 1b 	cmp  %i1, %i3
4000ea08:	0a 80 00 0b 	bcs  4000ea34 <__umoddi3+0x1cc>
4000ea0c:	86 c0 c0 03 	addxcc  %g3, %g3, %g3
4000ea10:	10 80 00 09 	b  4000ea34 <__umoddi3+0x1cc>
4000ea14:	b2 26 40 1b 	sub  %i1, %i3, %i1
4000ea18:	b2 26 40 1b 	sub  %i1, %i3, %i1
4000ea1c:	b2 c6 40 19 	addxcc  %i1, %i1, %i1
4000ea20:	1a bf ff f8 	bcc  4000ea00 <__umoddi3+0x198>
4000ea24:	82 a0 60 01 	deccc  %g1
4000ea28:	12 bf ff fc 	bne  4000ea18 <__umoddi3+0x1b0>
4000ea2c:	86 80 c0 03 	addcc  %g3, %g3, %g3
4000ea30:	b2 26 40 1b 	sub  %i1, %i3, %i1
4000ea34:	86 38 e0 00 	xnor  %g3, 0, %g3
4000ea38:	30 bf ff aa 	b,a   4000e8e0 <__umoddi3+0x78>
4000ea3c:	28 80 00 63 	bleu,a   4000ebc8 <__umoddi3+0x360>
4000ea40:	82 10 00 1a 	mov  %i2, %g1
4000ea44:	83 36 a0 08 	srl  %i2, 8, %g1
4000ea48:	10 bf ff b7 	b  4000e924 <__umoddi3+0xbc>
4000ea4c:	b8 10 20 08 	mov  8, %i4
4000ea50:	86 a6 40 1b 	subcc  %i1, %i3, %g3
4000ea54:	b0 66 00 1a 	subx  %i0, %i2, %i0
4000ea58:	84 10 00 18 	mov  %i0, %g2
4000ea5c:	b2 10 00 03 	mov  %g3, %i1
4000ea60:	10 bf ff c0 	b  4000e960 <__umoddi3+0xf8>
4000ea64:	b0 10 00 02 	mov  %g2, %i0
4000ea68:	b5 2e 80 1d 	sll  %i2, %i5, %i2
4000ea6c:	b4 10 40 1a 	or  %g1, %i2, %i2
4000ea70:	83 2e 00 1d 	sll  %i0, %i5, %g1
4000ea74:	87 36 00 04 	srl  %i0, %g4, %g3
4000ea78:	85 36 40 04 	srl  %i1, %g4, %g2
4000ea7c:	b7 2e c0 1d 	sll  %i3, %i5, %i3
4000ea80:	b0 10 80 01 	or  %g2, %g1, %i0
4000ea84:	99 2e 40 1d 	sll  %i1, %i5, %o4
4000ea88:	82 10 20 20 	mov  0x20, %g1
4000ea8c:	80 a0 c0 1a 	cmp  %g3, %i2
4000ea90:	0a 80 00 0c 	bcs  4000eac0 <__umoddi3+0x258>
4000ea94:	b0 c6 00 18 	addxcc  %i0, %i0, %i0
4000ea98:	86 20 c0 1a 	sub  %g3, %i2, %g3
4000ea9c:	86 40 c0 03 	addx  %g3, %g3, %g3
4000eaa0:	82 a0 60 01 	deccc  %g1
4000eaa4:	12 bf ff fb 	bne  4000ea90 <__umoddi3+0x228>
4000eaa8:	80 a0 c0 1a 	cmp  %g3, %i2
4000eaac:	0a 80 00 0b 	bcs  4000ead8 <__umoddi3+0x270>
4000eab0:	b0 c6 00 18 	addxcc  %i0, %i0, %i0
4000eab4:	10 80 00 09 	b  4000ead8 <__umoddi3+0x270>
4000eab8:	86 20 c0 1a 	sub  %g3, %i2, %g3
4000eabc:	86 20 c0 1a 	sub  %g3, %i2, %g3
4000eac0:	86 c0 c0 03 	addxcc  %g3, %g3, %g3
4000eac4:	1a bf ff f8 	bcc  4000eaa4 <__umoddi3+0x23c>
4000eac8:	82 a0 60 01 	deccc  %g1
4000eacc:	12 bf ff fc 	bne  4000eabc <__umoddi3+0x254>
4000ead0:	b0 86 00 18 	addcc  %i0, %i0, %i0
4000ead4:	86 20 c0 1a 	sub  %g3, %i2, %g3
4000ead8:	b0 3e 20 00 	xnor  %i0, 0, %i0
4000eadc:	81 80 00 18 	wr  %i0, %y
4000eae0:	9b 3e e0 1f 	sra  %i3, 0x1f, %o5
4000eae4:	9a 0e 00 0d 	and  %i0, %o5, %o5
4000eae8:	82 88 20 00 	andcc  %g0, 0, %g1
4000eaec:	83 20 40 1b 	mulscc  %g1, %i3, %g1
4000eaf0:	83 20 40 1b 	mulscc  %g1, %i3, %g1
4000eaf4:	83 20 40 1b 	mulscc  %g1, %i3, %g1
4000eaf8:	83 20 40 1b 	mulscc  %g1, %i3, %g1
4000eafc:	83 20 40 1b 	mulscc  %g1, %i3, %g1
4000eb00:	83 20 40 1b 	mulscc  %g1, %i3, %g1
4000eb04:	83 20 40 1b 	mulscc  %g1, %i3, %g1
4000eb08:	83 20 40 1b 	mulscc  %g1, %i3, %g1
4000eb0c:	83 20 40 1b 	mulscc  %g1, %i3, %g1
4000eb10:	83 20 40 1b 	mulscc  %g1, %i3, %g1
4000eb14:	83 20 40 1b 	mulscc  %g1, %i3, %g1
4000eb18:	83 20 40 1b 	mulscc  %g1, %i3, %g1
4000eb1c:	83 20 40 1b 	mulscc  %g1, %i3, %g1
4000eb20:	83 20 40 1b 	mulscc  %g1, %i3, %g1
4000eb24:	83 20 40 1b 	mulscc  %g1, %i3, %g1
4000eb28:	83 20 40 1b 	mulscc  %g1, %i3, %g1
4000eb2c:	83 20 40 1b 	mulscc  %g1, %i3, %g1
4000eb30:	83 20 40 1b 	mulscc  %g1, %i3, %g1
4000eb34:	83 20 40 1b 	mulscc  %g1, %i3, %g1
4000eb38:	83 20 40 1b 	mulscc  %g1, %i3, %g1
4000eb3c:	83 20 40 1b 	mulscc  %g1, %i3, %g1
4000eb40:	83 20 40 1b 	mulscc  %g1, %i3, %g1
4000eb44:	83 20 40 1b 	mulscc  %g1, %i3, %g1
4000eb48:	83 20 40 1b 	mulscc  %g1, %i3, %g1
4000eb4c:	83 20 40 1b 	mulscc  %g1, %i3, %g1
4000eb50:	83 20 40 1b 	mulscc  %g1, %i3, %g1
4000eb54:	83 20 40 1b 	mulscc  %g1, %i3, %g1
4000eb58:	83 20 40 1b 	mulscc  %g1, %i3, %g1
4000eb5c:	83 20 40 1b 	mulscc  %g1, %i3, %g1
4000eb60:	83 20 40 1b 	mulscc  %g1, %i3, %g1
4000eb64:	83 20 40 1b 	mulscc  %g1, %i3, %g1
4000eb68:	83 20 40 1b 	mulscc  %g1, %i3, %g1
4000eb6c:	83 20 60 00 	mulscc  %g1, 0, %g1
4000eb70:	84 00 40 0d 	add  %g1, %o5, %g2
4000eb74:	9f 40 00 00 	rd  %y, %o7
4000eb78:	82 10 00 02 	mov  %g2, %g1
4000eb7c:	80 a0 c0 02 	cmp  %g3, %g2
4000eb80:	0a 80 00 06 	bcs  4000eb98 <__umoddi3+0x330>
4000eb84:	b0 10 00 0f 	mov  %o7, %i0
4000eb88:	12 80 00 08 	bne  4000eba8 <__umoddi3+0x340>
4000eb8c:	80 a3 00 0f 	cmp  %o4, %o7
4000eb90:	1a 80 00 06 	bcc  4000eba8 <__umoddi3+0x340>
4000eb94:	01 00 00 00 	nop 
4000eb98:	b8 a3 c0 1b 	subcc  %o7, %i3, %i4
4000eb9c:	b0 60 80 1a 	subx  %g2, %i2, %i0
4000eba0:	82 10 00 18 	mov  %i0, %g1
4000eba4:	b0 10 00 1c 	mov  %i4, %i0
4000eba8:	b2 a3 00 18 	subcc  %o4, %i0, %i1
4000ebac:	b0 60 c0 01 	subx  %g3, %g1, %i0
4000ebb0:	83 2e 00 04 	sll  %i0, %g4, %g1
4000ebb4:	b3 36 40 1d 	srl  %i1, %i5, %i1
4000ebb8:	b1 36 00 1d 	srl  %i0, %i5, %i0
4000ebbc:	b2 10 40 19 	or  %g1, %i1, %i1
4000ebc0:	81 c7 e0 08 	ret 
4000ebc4:	81 e8 00 00 	restore 
4000ebc8:	10 bf ff 57 	b  4000e924 <__umoddi3+0xbc>
4000ebcc:	b8 10 20 00 	clr  %i4
4000ebd0:	10 bf ff 55 	b  4000e924 <__umoddi3+0xbc>
4000ebd4:	b8 10 20 10 	mov  0x10, %i4

4000ebd8 <__do_global_ctors_aux>:
4000ebd8:	9d e3 bf a0 	save  %sp, -96, %sp
4000ebdc:	3b 10 00 3b 	sethi  %hi(0x4000ec00), %i5
4000ebe0:	ba 17 60 88 	or  %i5, 0x88, %i5	! 4000ec88 <__CTOR_END__>
4000ebe4:	c2 07 7f fc 	ld  [ %i5 + -4 ], %g1
4000ebe8:	80 a0 7f ff 	cmp  %g1, -1
4000ebec:	02 80 00 08 	be  4000ec0c <__do_global_ctors_aux+0x34>
4000ebf0:	ba 07 7f fc 	add  %i5, -4, %i5
4000ebf4:	9f c0 40 00 	call  %g1
4000ebf8:	ba 07 7f fc 	add  %i5, -4, %i5
4000ebfc:	c2 07 40 00 	ld  [ %i5 ], %g1
4000ec00:	80 a0 7f ff 	cmp  %g1, -1
4000ec04:	12 bf ff fc 	bne  4000ebf4 <__do_global_ctors_aux+0x1c>
4000ec08:	01 00 00 00 	nop 
4000ec0c:	81 c7 e0 08 	ret 
4000ec10:	81 e8 00 00 	restore 

4000ec14 <call___do_global_ctors_aux>:
4000ec14:	9d e3 bf a0 	save  %sp, -96, %sp
4000ec18:	81 c7 e0 08 	ret 
4000ec1c:	81 e8 00 00 	restore 

4000ec20 <__EH_FRAME_BEGIN__>:
4000ec20:	00 00 00 10 00 00 00 00 01 7a 52 00 04 7c 0f 01     .........zR..|..
4000ec30:	1b 0c 0e 00 00 00 00 14 00 00 00 18 ff ff f8 d8     ................
4000ec40:	00 00 03 54 00 41 2d 09 0f 1f 0d 1e 00 00 00 10     ...T.A-.........
4000ec50:	00 00 00 00 01 7a 52 00 04 7c 0f 01 1b 0c 0e 00     .....zR..|......
4000ec60:	00 00 00 14 00 00 00 18 ff ff fc 00 00 00 03 70     ...............p
4000ec70:	00 41 2d 09 0f 1f 0d 1e                             .A-.....

4000ec78 <__FRAME_END__>:
	...

4000ec80 <___CTOR_LIST__>:
4000ec80:	00 00 00 02 	unimp  0x2

4000ec84 <__CTOR_LIST__>:
4000ec84:	ff ff ff ff                                         ....

4000ec88 <__CTOR_END__>:
	...

4000ec90 <___CTOR_END__>:
4000ec90:	00 00 00 02 	unimp  0x2

4000ec94 <__DTOR_LIST__>:
4000ec94:	ff ff ff ff                                         ....

4000ec98 <__DTOR_END__>:
	...

4000eca0 <_init>:
4000eca0:	9d e3 bf a0 	save  %sp, -96, %sp
4000eca4:	7f ff c9 5c 	call  40001214 <frame_dummy>
4000eca8:	01 00 00 00 	nop 
4000ecac:	7f ff ff cb 	call  4000ebd8 <__do_global_ctors_aux>
4000ecb0:	01 00 00 00 	nop 
4000ecb4:	81 e8 00 00 	restore 
4000ecb8:	81 c3 e0 08 	retl 
4000ecbc:	01 00 00 00 	nop 

4000ecc0 <_fini>:
4000ecc0:	9d e3 bf a0 	save  %sp, -96, %sp
4000ecc4:	7f ff c9 26 	call  4000115c <__do_global_dtors_aux>
4000ecc8:	01 00 00 00 	nop 
4000eccc:	81 e8 00 00 	restore 
4000ecd0:	81 c3 e0 08 	retl 
4000ecd4:	01 00 00 00 	nop 
	...
