
elf/test2_loopcheck.elf:     file format elf32-sparc


Disassembly of section .text:

40000000 <__bcc_entry_point>:
40000000:	88 10 00 00 	mov  %g0, %g4
40000004:	09 10 00 04 	sethi  %hi(0x40001000), %g4
40000008:	81 c1 22 d0 	jmp  %g4 + 0x2d0	! 400012d0 <__bcc_trap_reset_mvt>
4000000c:	01 00 00 00 	nop 
40000010:	91 d0 20 00 	ta  0
40000014:	01 00 00 00 	nop 
40000018:	01 00 00 00 	nop 
4000001c:	01 00 00 00 	nop 
40000020:	91 d0 20 00 	ta  0
40000024:	01 00 00 00 	nop 
40000028:	01 00 00 00 	nop 
4000002c:	01 00 00 00 	nop 
40000030:	91 d0 20 00 	ta  0
40000034:	01 00 00 00 	nop 
40000038:	01 00 00 00 	nop 
4000003c:	01 00 00 00 	nop 
40000040:	91 d0 20 00 	ta  0
40000044:	01 00 00 00 	nop 
40000048:	01 00 00 00 	nop 
4000004c:	01 00 00 00 	nop 
40000050:	a1 48 00 00 	rd  %psr, %l0
40000054:	29 10 00 04 	sethi  %hi(0x40001000), %l4
40000058:	81 c5 23 60 	jmp  %l4 + 0x360	! 40001360 <__bcc_trap_window_overflow>
4000005c:	01 00 00 00 	nop 
40000060:	a1 48 00 00 	rd  %psr, %l0
40000064:	29 10 00 04 	sethi  %hi(0x40001000), %l4
40000068:	81 c5 23 b0 	jmp  %l4 + 0x3b0	! 400013b0 <__bcc_trap_window_underflow>
4000006c:	01 00 00 00 	nop 
40000070:	91 d0 20 00 	ta  0
40000074:	01 00 00 00 	nop 
40000078:	01 00 00 00 	nop 
4000007c:	01 00 00 00 	nop 
40000080:	91 d0 20 00 	ta  0
40000084:	01 00 00 00 	nop 
40000088:	01 00 00 00 	nop 
4000008c:	01 00 00 00 	nop 
40000090:	91 d0 20 00 	ta  0
40000094:	01 00 00 00 	nop 
40000098:	01 00 00 00 	nop 
4000009c:	01 00 00 00 	nop 
400000a0:	91 d0 20 00 	ta  0
400000a4:	01 00 00 00 	nop 
400000a8:	01 00 00 00 	nop 
400000ac:	01 00 00 00 	nop 
400000b0:	91 d0 20 00 	ta  0
400000b4:	01 00 00 00 	nop 
400000b8:	01 00 00 00 	nop 
400000bc:	01 00 00 00 	nop 
400000c0:	91 d0 20 00 	ta  0
400000c4:	01 00 00 00 	nop 
400000c8:	01 00 00 00 	nop 
400000cc:	01 00 00 00 	nop 
400000d0:	91 d0 20 00 	ta  0
400000d4:	01 00 00 00 	nop 
400000d8:	01 00 00 00 	nop 
400000dc:	01 00 00 00 	nop 
400000e0:	91 d0 20 00 	ta  0
400000e4:	01 00 00 00 	nop 
400000e8:	01 00 00 00 	nop 
400000ec:	01 00 00 00 	nop 
400000f0:	91 d0 20 00 	ta  0
400000f4:	01 00 00 00 	nop 
400000f8:	01 00 00 00 	nop 
400000fc:	01 00 00 00 	nop 
40000100:	91 d0 20 00 	ta  0
40000104:	01 00 00 00 	nop 
40000108:	01 00 00 00 	nop 
4000010c:	01 00 00 00 	nop 
40000110:	a1 48 00 00 	rd  %psr, %l0
40000114:	29 10 00 05 	sethi  %hi(0x40001400), %l4
40000118:	81 c5 20 14 	jmp  %l4 + 0x14	! 40001414 <__bcc_trap_interrupt>
4000011c:	a6 10 20 01 	mov  1, %l3
40000120:	a1 48 00 00 	rd  %psr, %l0
40000124:	29 10 00 05 	sethi  %hi(0x40001400), %l4
40000128:	81 c5 20 14 	jmp  %l4 + 0x14	! 40001414 <__bcc_trap_interrupt>
4000012c:	a6 10 20 02 	mov  2, %l3
40000130:	a1 48 00 00 	rd  %psr, %l0
40000134:	29 10 00 05 	sethi  %hi(0x40001400), %l4
40000138:	81 c5 20 14 	jmp  %l4 + 0x14	! 40001414 <__bcc_trap_interrupt>
4000013c:	a6 10 20 03 	mov  3, %l3
40000140:	a1 48 00 00 	rd  %psr, %l0
40000144:	29 10 00 05 	sethi  %hi(0x40001400), %l4
40000148:	81 c5 20 14 	jmp  %l4 + 0x14	! 40001414 <__bcc_trap_interrupt>
4000014c:	a6 10 20 04 	mov  4, %l3
40000150:	a1 48 00 00 	rd  %psr, %l0
40000154:	29 10 00 05 	sethi  %hi(0x40001400), %l4
40000158:	81 c5 20 14 	jmp  %l4 + 0x14	! 40001414 <__bcc_trap_interrupt>
4000015c:	a6 10 20 05 	mov  5, %l3
40000160:	a1 48 00 00 	rd  %psr, %l0
40000164:	29 10 00 05 	sethi  %hi(0x40001400), %l4
40000168:	81 c5 20 14 	jmp  %l4 + 0x14	! 40001414 <__bcc_trap_interrupt>
4000016c:	a6 10 20 06 	mov  6, %l3
40000170:	a1 48 00 00 	rd  %psr, %l0
40000174:	29 10 00 05 	sethi  %hi(0x40001400), %l4
40000178:	81 c5 20 14 	jmp  %l4 + 0x14	! 40001414 <__bcc_trap_interrupt>
4000017c:	a6 10 20 07 	mov  7, %l3
40000180:	a1 48 00 00 	rd  %psr, %l0
40000184:	29 10 00 05 	sethi  %hi(0x40001400), %l4
40000188:	81 c5 20 14 	jmp  %l4 + 0x14	! 40001414 <__bcc_trap_interrupt>
4000018c:	a6 10 20 08 	mov  8, %l3
40000190:	a1 48 00 00 	rd  %psr, %l0
40000194:	29 10 00 05 	sethi  %hi(0x40001400), %l4
40000198:	81 c5 20 14 	jmp  %l4 + 0x14	! 40001414 <__bcc_trap_interrupt>
4000019c:	a6 10 20 09 	mov  9, %l3
400001a0:	a1 48 00 00 	rd  %psr, %l0
400001a4:	29 10 00 05 	sethi  %hi(0x40001400), %l4
400001a8:	81 c5 20 14 	jmp  %l4 + 0x14	! 40001414 <__bcc_trap_interrupt>
400001ac:	a6 10 20 0a 	mov  0xa, %l3
400001b0:	a1 48 00 00 	rd  %psr, %l0
400001b4:	29 10 00 05 	sethi  %hi(0x40001400), %l4
400001b8:	81 c5 20 14 	jmp  %l4 + 0x14	! 40001414 <__bcc_trap_interrupt>
400001bc:	a6 10 20 0b 	mov  0xb, %l3
400001c0:	a1 48 00 00 	rd  %psr, %l0
400001c4:	29 10 00 05 	sethi  %hi(0x40001400), %l4
400001c8:	81 c5 20 14 	jmp  %l4 + 0x14	! 40001414 <__bcc_trap_interrupt>
400001cc:	a6 10 20 0c 	mov  0xc, %l3
400001d0:	a1 48 00 00 	rd  %psr, %l0
400001d4:	29 10 00 05 	sethi  %hi(0x40001400), %l4
400001d8:	81 c5 20 14 	jmp  %l4 + 0x14	! 40001414 <__bcc_trap_interrupt>
400001dc:	a6 10 20 0d 	mov  0xd, %l3
400001e0:	a1 48 00 00 	rd  %psr, %l0
400001e4:	29 10 00 05 	sethi  %hi(0x40001400), %l4
400001e8:	81 c5 20 14 	jmp  %l4 + 0x14	! 40001414 <__bcc_trap_interrupt>
400001ec:	a6 10 20 0e 	mov  0xe, %l3
400001f0:	a1 48 00 00 	rd  %psr, %l0
400001f4:	29 10 00 05 	sethi  %hi(0x40001400), %l4
400001f8:	81 c5 20 14 	jmp  %l4 + 0x14	! 40001414 <__bcc_trap_interrupt>
400001fc:	a6 10 20 0f 	mov  0xf, %l3
40000200:	91 d0 20 00 	ta  0
40000204:	01 00 00 00 	nop 
40000208:	01 00 00 00 	nop 
4000020c:	01 00 00 00 	nop 
40000210:	91 d0 20 00 	ta  0
40000214:	01 00 00 00 	nop 
40000218:	01 00 00 00 	nop 
4000021c:	01 00 00 00 	nop 
40000220:	91 d0 20 00 	ta  0
40000224:	01 00 00 00 	nop 
40000228:	01 00 00 00 	nop 
4000022c:	01 00 00 00 	nop 
40000230:	91 d0 20 00 	ta  0
40000234:	01 00 00 00 	nop 
40000238:	01 00 00 00 	nop 
4000023c:	01 00 00 00 	nop 
40000240:	91 d0 20 00 	ta  0
40000244:	01 00 00 00 	nop 
40000248:	01 00 00 00 	nop 
4000024c:	01 00 00 00 	nop 
40000250:	91 d0 20 00 	ta  0
40000254:	01 00 00 00 	nop 
40000258:	01 00 00 00 	nop 
4000025c:	01 00 00 00 	nop 
40000260:	91 d0 20 00 	ta  0
40000264:	01 00 00 00 	nop 
40000268:	01 00 00 00 	nop 
4000026c:	01 00 00 00 	nop 
40000270:	91 d0 20 00 	ta  0
40000274:	01 00 00 00 	nop 
40000278:	01 00 00 00 	nop 
4000027c:	01 00 00 00 	nop 
40000280:	91 d0 20 00 	ta  0
40000284:	01 00 00 00 	nop 
40000288:	01 00 00 00 	nop 
4000028c:	01 00 00 00 	nop 
40000290:	91 d0 20 00 	ta  0
40000294:	01 00 00 00 	nop 
40000298:	01 00 00 00 	nop 
4000029c:	01 00 00 00 	nop 
400002a0:	91 d0 20 00 	ta  0
400002a4:	01 00 00 00 	nop 
400002a8:	01 00 00 00 	nop 
400002ac:	01 00 00 00 	nop 
400002b0:	91 d0 20 00 	ta  0
400002b4:	01 00 00 00 	nop 
400002b8:	01 00 00 00 	nop 
400002bc:	01 00 00 00 	nop 
400002c0:	91 d0 20 00 	ta  0
400002c4:	01 00 00 00 	nop 
400002c8:	01 00 00 00 	nop 
400002cc:	01 00 00 00 	nop 
400002d0:	91 d0 20 00 	ta  0
400002d4:	01 00 00 00 	nop 
400002d8:	01 00 00 00 	nop 
400002dc:	01 00 00 00 	nop 
400002e0:	91 d0 20 00 	ta  0
400002e4:	01 00 00 00 	nop 
400002e8:	01 00 00 00 	nop 
400002ec:	01 00 00 00 	nop 
400002f0:	91 d0 20 00 	ta  0
400002f4:	01 00 00 00 	nop 
400002f8:	01 00 00 00 	nop 
400002fc:	01 00 00 00 	nop 
40000300:	91 d0 20 00 	ta  0
40000304:	01 00 00 00 	nop 
40000308:	01 00 00 00 	nop 
4000030c:	01 00 00 00 	nop 
40000310:	91 d0 20 00 	ta  0
40000314:	01 00 00 00 	nop 
40000318:	01 00 00 00 	nop 
4000031c:	01 00 00 00 	nop 
40000320:	91 d0 20 00 	ta  0
40000324:	01 00 00 00 	nop 
40000328:	01 00 00 00 	nop 
4000032c:	01 00 00 00 	nop 
40000330:	91 d0 20 00 	ta  0
40000334:	01 00 00 00 	nop 
40000338:	01 00 00 00 	nop 
4000033c:	01 00 00 00 	nop 
40000340:	91 d0 20 00 	ta  0
40000344:	01 00 00 00 	nop 
40000348:	01 00 00 00 	nop 
4000034c:	01 00 00 00 	nop 
40000350:	91 d0 20 00 	ta  0
40000354:	01 00 00 00 	nop 
40000358:	01 00 00 00 	nop 
4000035c:	01 00 00 00 	nop 
40000360:	91 d0 20 00 	ta  0
40000364:	01 00 00 00 	nop 
40000368:	01 00 00 00 	nop 
4000036c:	01 00 00 00 	nop 
40000370:	91 d0 20 00 	ta  0
40000374:	01 00 00 00 	nop 
40000378:	01 00 00 00 	nop 
4000037c:	01 00 00 00 	nop 
40000380:	91 d0 20 00 	ta  0
40000384:	01 00 00 00 	nop 
40000388:	01 00 00 00 	nop 
4000038c:	01 00 00 00 	nop 
40000390:	91 d0 20 00 	ta  0
40000394:	01 00 00 00 	nop 
40000398:	01 00 00 00 	nop 
4000039c:	01 00 00 00 	nop 
400003a0:	91 d0 20 00 	ta  0
400003a4:	01 00 00 00 	nop 
400003a8:	01 00 00 00 	nop 
400003ac:	01 00 00 00 	nop 
400003b0:	91 d0 20 00 	ta  0
400003b4:	01 00 00 00 	nop 
400003b8:	01 00 00 00 	nop 
400003bc:	01 00 00 00 	nop 
400003c0:	91 d0 20 00 	ta  0
400003c4:	01 00 00 00 	nop 
400003c8:	01 00 00 00 	nop 
400003cc:	01 00 00 00 	nop 
400003d0:	91 d0 20 00 	ta  0
400003d4:	01 00 00 00 	nop 
400003d8:	01 00 00 00 	nop 
400003dc:	01 00 00 00 	nop 
400003e0:	91 d0 20 00 	ta  0
400003e4:	01 00 00 00 	nop 
400003e8:	01 00 00 00 	nop 
400003ec:	01 00 00 00 	nop 
400003f0:	91 d0 20 00 	ta  0
400003f4:	01 00 00 00 	nop 
400003f8:	01 00 00 00 	nop 
400003fc:	01 00 00 00 	nop 
40000400:	91 d0 20 00 	ta  0
40000404:	01 00 00 00 	nop 
40000408:	01 00 00 00 	nop 
4000040c:	01 00 00 00 	nop 
40000410:	91 d0 20 00 	ta  0
40000414:	01 00 00 00 	nop 
40000418:	01 00 00 00 	nop 
4000041c:	01 00 00 00 	nop 
40000420:	91 d0 20 00 	ta  0
40000424:	01 00 00 00 	nop 
40000428:	01 00 00 00 	nop 
4000042c:	01 00 00 00 	nop 
40000430:	91 d0 20 00 	ta  0
40000434:	01 00 00 00 	nop 
40000438:	01 00 00 00 	nop 
4000043c:	01 00 00 00 	nop 
40000440:	91 d0 20 00 	ta  0
40000444:	01 00 00 00 	nop 
40000448:	01 00 00 00 	nop 
4000044c:	01 00 00 00 	nop 
40000450:	91 d0 20 00 	ta  0
40000454:	01 00 00 00 	nop 
40000458:	01 00 00 00 	nop 
4000045c:	01 00 00 00 	nop 
40000460:	91 d0 20 00 	ta  0
40000464:	01 00 00 00 	nop 
40000468:	01 00 00 00 	nop 
4000046c:	01 00 00 00 	nop 
40000470:	91 d0 20 00 	ta  0
40000474:	01 00 00 00 	nop 
40000478:	01 00 00 00 	nop 
4000047c:	01 00 00 00 	nop 
40000480:	91 d0 20 00 	ta  0
40000484:	01 00 00 00 	nop 
40000488:	01 00 00 00 	nop 
4000048c:	01 00 00 00 	nop 
40000490:	91 d0 20 00 	ta  0
40000494:	01 00 00 00 	nop 
40000498:	01 00 00 00 	nop 
4000049c:	01 00 00 00 	nop 
400004a0:	91 d0 20 00 	ta  0
400004a4:	01 00 00 00 	nop 
400004a8:	01 00 00 00 	nop 
400004ac:	01 00 00 00 	nop 
400004b0:	91 d0 20 00 	ta  0
400004b4:	01 00 00 00 	nop 
400004b8:	01 00 00 00 	nop 
400004bc:	01 00 00 00 	nop 
400004c0:	91 d0 20 00 	ta  0
400004c4:	01 00 00 00 	nop 
400004c8:	01 00 00 00 	nop 
400004cc:	01 00 00 00 	nop 
400004d0:	91 d0 20 00 	ta  0
400004d4:	01 00 00 00 	nop 
400004d8:	01 00 00 00 	nop 
400004dc:	01 00 00 00 	nop 
400004e0:	91 d0 20 00 	ta  0
400004e4:	01 00 00 00 	nop 
400004e8:	01 00 00 00 	nop 
400004ec:	01 00 00 00 	nop 
400004f0:	91 d0 20 00 	ta  0
400004f4:	01 00 00 00 	nop 
400004f8:	01 00 00 00 	nop 
400004fc:	01 00 00 00 	nop 
40000500:	91 d0 20 00 	ta  0
40000504:	01 00 00 00 	nop 
40000508:	01 00 00 00 	nop 
4000050c:	01 00 00 00 	nop 
40000510:	91 d0 20 00 	ta  0
40000514:	01 00 00 00 	nop 
40000518:	01 00 00 00 	nop 
4000051c:	01 00 00 00 	nop 
40000520:	91 d0 20 00 	ta  0
40000524:	01 00 00 00 	nop 
40000528:	01 00 00 00 	nop 
4000052c:	01 00 00 00 	nop 
40000530:	91 d0 20 00 	ta  0
40000534:	01 00 00 00 	nop 
40000538:	01 00 00 00 	nop 
4000053c:	01 00 00 00 	nop 
40000540:	91 d0 20 00 	ta  0
40000544:	01 00 00 00 	nop 
40000548:	01 00 00 00 	nop 
4000054c:	01 00 00 00 	nop 
40000550:	91 d0 20 00 	ta  0
40000554:	01 00 00 00 	nop 
40000558:	01 00 00 00 	nop 
4000055c:	01 00 00 00 	nop 
40000560:	91 d0 20 00 	ta  0
40000564:	01 00 00 00 	nop 
40000568:	01 00 00 00 	nop 
4000056c:	01 00 00 00 	nop 
40000570:	91 d0 20 00 	ta  0
40000574:	01 00 00 00 	nop 
40000578:	01 00 00 00 	nop 
4000057c:	01 00 00 00 	nop 
40000580:	91 d0 20 00 	ta  0
40000584:	01 00 00 00 	nop 
40000588:	01 00 00 00 	nop 
4000058c:	01 00 00 00 	nop 
40000590:	91 d0 20 00 	ta  0
40000594:	01 00 00 00 	nop 
40000598:	01 00 00 00 	nop 
4000059c:	01 00 00 00 	nop 
400005a0:	91 d0 20 00 	ta  0
400005a4:	01 00 00 00 	nop 
400005a8:	01 00 00 00 	nop 
400005ac:	01 00 00 00 	nop 
400005b0:	91 d0 20 00 	ta  0
400005b4:	01 00 00 00 	nop 
400005b8:	01 00 00 00 	nop 
400005bc:	01 00 00 00 	nop 
400005c0:	91 d0 20 00 	ta  0
400005c4:	01 00 00 00 	nop 
400005c8:	01 00 00 00 	nop 
400005cc:	01 00 00 00 	nop 
400005d0:	91 d0 20 00 	ta  0
400005d4:	01 00 00 00 	nop 
400005d8:	01 00 00 00 	nop 
400005dc:	01 00 00 00 	nop 
400005e0:	91 d0 20 00 	ta  0
400005e4:	01 00 00 00 	nop 
400005e8:	01 00 00 00 	nop 
400005ec:	01 00 00 00 	nop 
400005f0:	91 d0 20 00 	ta  0
400005f4:	01 00 00 00 	nop 
400005f8:	01 00 00 00 	nop 
400005fc:	01 00 00 00 	nop 
40000600:	91 d0 20 00 	ta  0
40000604:	01 00 00 00 	nop 
40000608:	01 00 00 00 	nop 
4000060c:	01 00 00 00 	nop 
40000610:	91 d0 20 00 	ta  0
40000614:	01 00 00 00 	nop 
40000618:	01 00 00 00 	nop 
4000061c:	01 00 00 00 	nop 
40000620:	91 d0 20 00 	ta  0
40000624:	01 00 00 00 	nop 
40000628:	01 00 00 00 	nop 
4000062c:	01 00 00 00 	nop 
40000630:	91 d0 20 00 	ta  0
40000634:	01 00 00 00 	nop 
40000638:	01 00 00 00 	nop 
4000063c:	01 00 00 00 	nop 
40000640:	91 d0 20 00 	ta  0
40000644:	01 00 00 00 	nop 
40000648:	01 00 00 00 	nop 
4000064c:	01 00 00 00 	nop 
40000650:	91 d0 20 00 	ta  0
40000654:	01 00 00 00 	nop 
40000658:	01 00 00 00 	nop 
4000065c:	01 00 00 00 	nop 
40000660:	91 d0 20 00 	ta  0
40000664:	01 00 00 00 	nop 
40000668:	01 00 00 00 	nop 
4000066c:	01 00 00 00 	nop 
40000670:	91 d0 20 00 	ta  0
40000674:	01 00 00 00 	nop 
40000678:	01 00 00 00 	nop 
4000067c:	01 00 00 00 	nop 
40000680:	91 d0 20 00 	ta  0
40000684:	01 00 00 00 	nop 
40000688:	01 00 00 00 	nop 
4000068c:	01 00 00 00 	nop 
40000690:	91 d0 20 00 	ta  0
40000694:	01 00 00 00 	nop 
40000698:	01 00 00 00 	nop 
4000069c:	01 00 00 00 	nop 
400006a0:	91 d0 20 00 	ta  0
400006a4:	01 00 00 00 	nop 
400006a8:	01 00 00 00 	nop 
400006ac:	01 00 00 00 	nop 
400006b0:	91 d0 20 00 	ta  0
400006b4:	01 00 00 00 	nop 
400006b8:	01 00 00 00 	nop 
400006bc:	01 00 00 00 	nop 
400006c0:	91 d0 20 00 	ta  0
400006c4:	01 00 00 00 	nop 
400006c8:	01 00 00 00 	nop 
400006cc:	01 00 00 00 	nop 
400006d0:	91 d0 20 00 	ta  0
400006d4:	01 00 00 00 	nop 
400006d8:	01 00 00 00 	nop 
400006dc:	01 00 00 00 	nop 
400006e0:	91 d0 20 00 	ta  0
400006e4:	01 00 00 00 	nop 
400006e8:	01 00 00 00 	nop 
400006ec:	01 00 00 00 	nop 
400006f0:	91 d0 20 00 	ta  0
400006f4:	01 00 00 00 	nop 
400006f8:	01 00 00 00 	nop 
400006fc:	01 00 00 00 	nop 
40000700:	91 d0 20 00 	ta  0
40000704:	01 00 00 00 	nop 
40000708:	01 00 00 00 	nop 
4000070c:	01 00 00 00 	nop 
40000710:	91 d0 20 00 	ta  0
40000714:	01 00 00 00 	nop 
40000718:	01 00 00 00 	nop 
4000071c:	01 00 00 00 	nop 
40000720:	91 d0 20 00 	ta  0
40000724:	01 00 00 00 	nop 
40000728:	01 00 00 00 	nop 
4000072c:	01 00 00 00 	nop 
40000730:	91 d0 20 00 	ta  0
40000734:	01 00 00 00 	nop 
40000738:	01 00 00 00 	nop 
4000073c:	01 00 00 00 	nop 
40000740:	91 d0 20 00 	ta  0
40000744:	01 00 00 00 	nop 
40000748:	01 00 00 00 	nop 
4000074c:	01 00 00 00 	nop 
40000750:	91 d0 20 00 	ta  0
40000754:	01 00 00 00 	nop 
40000758:	01 00 00 00 	nop 
4000075c:	01 00 00 00 	nop 
40000760:	91 d0 20 00 	ta  0
40000764:	01 00 00 00 	nop 
40000768:	01 00 00 00 	nop 
4000076c:	01 00 00 00 	nop 
40000770:	91 d0 20 00 	ta  0
40000774:	01 00 00 00 	nop 
40000778:	01 00 00 00 	nop 
4000077c:	01 00 00 00 	nop 
40000780:	91 d0 20 00 	ta  0
40000784:	01 00 00 00 	nop 
40000788:	01 00 00 00 	nop 
4000078c:	01 00 00 00 	nop 
40000790:	91 d0 20 00 	ta  0
40000794:	01 00 00 00 	nop 
40000798:	01 00 00 00 	nop 
4000079c:	01 00 00 00 	nop 
400007a0:	91 d0 20 00 	ta  0
400007a4:	01 00 00 00 	nop 
400007a8:	01 00 00 00 	nop 
400007ac:	01 00 00 00 	nop 
400007b0:	91 d0 20 00 	ta  0
400007b4:	01 00 00 00 	nop 
400007b8:	01 00 00 00 	nop 
400007bc:	01 00 00 00 	nop 
400007c0:	91 d0 20 00 	ta  0
400007c4:	01 00 00 00 	nop 
400007c8:	01 00 00 00 	nop 
400007cc:	01 00 00 00 	nop 
400007d0:	91 d0 20 00 	ta  0
400007d4:	01 00 00 00 	nop 
400007d8:	01 00 00 00 	nop 
400007dc:	01 00 00 00 	nop 
400007e0:	91 d0 20 00 	ta  0
400007e4:	01 00 00 00 	nop 
400007e8:	01 00 00 00 	nop 
400007ec:	01 00 00 00 	nop 
400007f0:	91 d0 20 00 	ta  0
400007f4:	01 00 00 00 	nop 
400007f8:	01 00 00 00 	nop 
400007fc:	01 00 00 00 	nop 
40000800:	91 d0 20 00 	ta  0
40000804:	01 00 00 00 	nop 
40000808:	01 00 00 00 	nop 
4000080c:	01 00 00 00 	nop 
40000810:	91 d0 20 00 	ta  0
40000814:	01 00 00 00 	nop 
40000818:	01 00 00 00 	nop 
4000081c:	01 00 00 00 	nop 
40000820:	91 d0 20 00 	ta  0
40000824:	01 00 00 00 	nop 
40000828:	01 00 00 00 	nop 
4000082c:	01 00 00 00 	nop 
40000830:	a1 48 00 00 	rd  %psr, %l0
40000834:	29 10 00 05 	sethi  %hi(0x40001400), %l4
40000838:	81 c5 21 c0 	jmp  %l4 + 0x1c0	! 400015c0 <__bcc_trap_flush_windows>
4000083c:	01 00 00 00 	nop 
40000840:	91 d0 20 00 	ta  0
40000844:	01 00 00 00 	nop 
40000848:	01 00 00 00 	nop 
4000084c:	01 00 00 00 	nop 
40000850:	91 d0 20 00 	ta  0
40000854:	01 00 00 00 	nop 
40000858:	01 00 00 00 	nop 
4000085c:	01 00 00 00 	nop 
40000860:	91 d0 20 00 	ta  0
40000864:	01 00 00 00 	nop 
40000868:	01 00 00 00 	nop 
4000086c:	01 00 00 00 	nop 
40000870:	91 d0 20 00 	ta  0
40000874:	01 00 00 00 	nop 
40000878:	01 00 00 00 	nop 
4000087c:	01 00 00 00 	nop 
40000880:	91 d0 20 00 	ta  0
40000884:	01 00 00 00 	nop 
40000888:	01 00 00 00 	nop 
4000088c:	01 00 00 00 	nop 
40000890:	a1 48 00 00 	rd  %psr, %l0
40000894:	29 10 00 05 	sethi  %hi(0x40001400), %l4
40000898:	81 c5 22 48 	jmp  %l4 + 0x248	! 40001648 <__bcc_trap_sw_set_pil>
4000089c:	01 00 00 00 	nop 
400008a0:	91 d0 20 00 	ta  0
400008a4:	01 00 00 00 	nop 
400008a8:	01 00 00 00 	nop 
400008ac:	01 00 00 00 	nop 
400008b0:	91 d0 20 00 	ta  0
400008b4:	01 00 00 00 	nop 
400008b8:	01 00 00 00 	nop 
400008bc:	01 00 00 00 	nop 
400008c0:	91 d0 20 00 	ta  0
400008c4:	01 00 00 00 	nop 
400008c8:	01 00 00 00 	nop 
400008cc:	01 00 00 00 	nop 
400008d0:	91 d0 20 00 	ta  0
400008d4:	01 00 00 00 	nop 
400008d8:	01 00 00 00 	nop 
400008dc:	01 00 00 00 	nop 
400008e0:	91 d0 20 00 	ta  0
400008e4:	01 00 00 00 	nop 
400008e8:	01 00 00 00 	nop 
400008ec:	01 00 00 00 	nop 
400008f0:	91 d0 20 00 	ta  0
400008f4:	01 00 00 00 	nop 
400008f8:	01 00 00 00 	nop 
400008fc:	01 00 00 00 	nop 
40000900:	91 d0 20 00 	ta  0
40000904:	01 00 00 00 	nop 
40000908:	01 00 00 00 	nop 
4000090c:	01 00 00 00 	nop 
40000910:	91 d0 20 00 	ta  0
40000914:	01 00 00 00 	nop 
40000918:	01 00 00 00 	nop 
4000091c:	01 00 00 00 	nop 
40000920:	91 d0 20 00 	ta  0
40000924:	01 00 00 00 	nop 
40000928:	01 00 00 00 	nop 
4000092c:	01 00 00 00 	nop 
40000930:	91 d0 20 00 	ta  0
40000934:	01 00 00 00 	nop 
40000938:	01 00 00 00 	nop 
4000093c:	01 00 00 00 	nop 
40000940:	91 d0 20 00 	ta  0
40000944:	01 00 00 00 	nop 
40000948:	01 00 00 00 	nop 
4000094c:	01 00 00 00 	nop 
40000950:	91 d0 20 00 	ta  0
40000954:	01 00 00 00 	nop 
40000958:	01 00 00 00 	nop 
4000095c:	01 00 00 00 	nop 
40000960:	91 d0 20 00 	ta  0
40000964:	01 00 00 00 	nop 
40000968:	01 00 00 00 	nop 
4000096c:	01 00 00 00 	nop 
40000970:	91 d0 20 00 	ta  0
40000974:	01 00 00 00 	nop 
40000978:	01 00 00 00 	nop 
4000097c:	01 00 00 00 	nop 
40000980:	91 d0 20 00 	ta  0
40000984:	01 00 00 00 	nop 
40000988:	01 00 00 00 	nop 
4000098c:	01 00 00 00 	nop 
40000990:	91 d0 20 00 	ta  0
40000994:	01 00 00 00 	nop 
40000998:	01 00 00 00 	nop 
4000099c:	01 00 00 00 	nop 
400009a0:	91 d0 20 00 	ta  0
400009a4:	01 00 00 00 	nop 
400009a8:	01 00 00 00 	nop 
400009ac:	01 00 00 00 	nop 
400009b0:	91 d0 20 00 	ta  0
400009b4:	01 00 00 00 	nop 
400009b8:	01 00 00 00 	nop 
400009bc:	01 00 00 00 	nop 
400009c0:	91 d0 20 00 	ta  0
400009c4:	01 00 00 00 	nop 
400009c8:	01 00 00 00 	nop 
400009cc:	01 00 00 00 	nop 
400009d0:	91 d0 20 00 	ta  0
400009d4:	01 00 00 00 	nop 
400009d8:	01 00 00 00 	nop 
400009dc:	01 00 00 00 	nop 
400009e0:	91 d0 20 00 	ta  0
400009e4:	01 00 00 00 	nop 
400009e8:	01 00 00 00 	nop 
400009ec:	01 00 00 00 	nop 
400009f0:	91 d0 20 00 	ta  0
400009f4:	01 00 00 00 	nop 
400009f8:	01 00 00 00 	nop 
400009fc:	01 00 00 00 	nop 
40000a00:	91 d0 20 00 	ta  0
40000a04:	01 00 00 00 	nop 
40000a08:	01 00 00 00 	nop 
40000a0c:	01 00 00 00 	nop 
40000a10:	91 d0 20 00 	ta  0
40000a14:	01 00 00 00 	nop 
40000a18:	01 00 00 00 	nop 
40000a1c:	01 00 00 00 	nop 
40000a20:	91 d0 20 00 	ta  0
40000a24:	01 00 00 00 	nop 
40000a28:	01 00 00 00 	nop 
40000a2c:	01 00 00 00 	nop 
40000a30:	91 d0 20 00 	ta  0
40000a34:	01 00 00 00 	nop 
40000a38:	01 00 00 00 	nop 
40000a3c:	01 00 00 00 	nop 
40000a40:	91 d0 20 00 	ta  0
40000a44:	01 00 00 00 	nop 
40000a48:	01 00 00 00 	nop 
40000a4c:	01 00 00 00 	nop 
40000a50:	91 d0 20 00 	ta  0
40000a54:	01 00 00 00 	nop 
40000a58:	01 00 00 00 	nop 
40000a5c:	01 00 00 00 	nop 
40000a60:	91 d0 20 00 	ta  0
40000a64:	01 00 00 00 	nop 
40000a68:	01 00 00 00 	nop 
40000a6c:	01 00 00 00 	nop 
40000a70:	91 d0 20 00 	ta  0
40000a74:	01 00 00 00 	nop 
40000a78:	01 00 00 00 	nop 
40000a7c:	01 00 00 00 	nop 
40000a80:	91 d0 20 00 	ta  0
40000a84:	01 00 00 00 	nop 
40000a88:	01 00 00 00 	nop 
40000a8c:	01 00 00 00 	nop 
40000a90:	91 d0 20 00 	ta  0
40000a94:	01 00 00 00 	nop 
40000a98:	01 00 00 00 	nop 
40000a9c:	01 00 00 00 	nop 
40000aa0:	91 d0 20 00 	ta  0
40000aa4:	01 00 00 00 	nop 
40000aa8:	01 00 00 00 	nop 
40000aac:	01 00 00 00 	nop 
40000ab0:	91 d0 20 00 	ta  0
40000ab4:	01 00 00 00 	nop 
40000ab8:	01 00 00 00 	nop 
40000abc:	01 00 00 00 	nop 
40000ac0:	91 d0 20 00 	ta  0
40000ac4:	01 00 00 00 	nop 
40000ac8:	01 00 00 00 	nop 
40000acc:	01 00 00 00 	nop 
40000ad0:	91 d0 20 00 	ta  0
40000ad4:	01 00 00 00 	nop 
40000ad8:	01 00 00 00 	nop 
40000adc:	01 00 00 00 	nop 
40000ae0:	91 d0 20 00 	ta  0
40000ae4:	01 00 00 00 	nop 
40000ae8:	01 00 00 00 	nop 
40000aec:	01 00 00 00 	nop 
40000af0:	91 d0 20 00 	ta  0
40000af4:	01 00 00 00 	nop 
40000af8:	01 00 00 00 	nop 
40000afc:	01 00 00 00 	nop 
40000b00:	91 d0 20 00 	ta  0
40000b04:	01 00 00 00 	nop 
40000b08:	01 00 00 00 	nop 
40000b0c:	01 00 00 00 	nop 
40000b10:	91 d0 20 00 	ta  0
40000b14:	01 00 00 00 	nop 
40000b18:	01 00 00 00 	nop 
40000b1c:	01 00 00 00 	nop 
40000b20:	91 d0 20 00 	ta  0
40000b24:	01 00 00 00 	nop 
40000b28:	01 00 00 00 	nop 
40000b2c:	01 00 00 00 	nop 
40000b30:	91 d0 20 00 	ta  0
40000b34:	01 00 00 00 	nop 
40000b38:	01 00 00 00 	nop 
40000b3c:	01 00 00 00 	nop 
40000b40:	91 d0 20 00 	ta  0
40000b44:	01 00 00 00 	nop 
40000b48:	01 00 00 00 	nop 
40000b4c:	01 00 00 00 	nop 
40000b50:	91 d0 20 00 	ta  0
40000b54:	01 00 00 00 	nop 
40000b58:	01 00 00 00 	nop 
40000b5c:	01 00 00 00 	nop 
40000b60:	91 d0 20 00 	ta  0
40000b64:	01 00 00 00 	nop 
40000b68:	01 00 00 00 	nop 
40000b6c:	01 00 00 00 	nop 
40000b70:	91 d0 20 00 	ta  0
40000b74:	01 00 00 00 	nop 
40000b78:	01 00 00 00 	nop 
40000b7c:	01 00 00 00 	nop 
40000b80:	91 d0 20 00 	ta  0
40000b84:	01 00 00 00 	nop 
40000b88:	01 00 00 00 	nop 
40000b8c:	01 00 00 00 	nop 
40000b90:	91 d0 20 00 	ta  0
40000b94:	01 00 00 00 	nop 
40000b98:	01 00 00 00 	nop 
40000b9c:	01 00 00 00 	nop 
40000ba0:	91 d0 20 00 	ta  0
40000ba4:	01 00 00 00 	nop 
40000ba8:	01 00 00 00 	nop 
40000bac:	01 00 00 00 	nop 
40000bb0:	91 d0 20 00 	ta  0
40000bb4:	01 00 00 00 	nop 
40000bb8:	01 00 00 00 	nop 
40000bbc:	01 00 00 00 	nop 
40000bc0:	91 d0 20 00 	ta  0
40000bc4:	01 00 00 00 	nop 
40000bc8:	01 00 00 00 	nop 
40000bcc:	01 00 00 00 	nop 
40000bd0:	91 d0 20 00 	ta  0
40000bd4:	01 00 00 00 	nop 
40000bd8:	01 00 00 00 	nop 
40000bdc:	01 00 00 00 	nop 
40000be0:	91 d0 20 00 	ta  0
40000be4:	01 00 00 00 	nop 
40000be8:	01 00 00 00 	nop 
40000bec:	01 00 00 00 	nop 
40000bf0:	91 d0 20 00 	ta  0
40000bf4:	01 00 00 00 	nop 
40000bf8:	01 00 00 00 	nop 
40000bfc:	01 00 00 00 	nop 
40000c00:	91 d0 20 00 	ta  0
40000c04:	01 00 00 00 	nop 
40000c08:	01 00 00 00 	nop 
40000c0c:	01 00 00 00 	nop 
40000c10:	91 d0 20 00 	ta  0
40000c14:	01 00 00 00 	nop 
40000c18:	01 00 00 00 	nop 
40000c1c:	01 00 00 00 	nop 
40000c20:	91 d0 20 00 	ta  0
40000c24:	01 00 00 00 	nop 
40000c28:	01 00 00 00 	nop 
40000c2c:	01 00 00 00 	nop 
40000c30:	91 d0 20 00 	ta  0
40000c34:	01 00 00 00 	nop 
40000c38:	01 00 00 00 	nop 
40000c3c:	01 00 00 00 	nop 
40000c40:	91 d0 20 00 	ta  0
40000c44:	01 00 00 00 	nop 
40000c48:	01 00 00 00 	nop 
40000c4c:	01 00 00 00 	nop 
40000c50:	91 d0 20 00 	ta  0
40000c54:	01 00 00 00 	nop 
40000c58:	01 00 00 00 	nop 
40000c5c:	01 00 00 00 	nop 
40000c60:	91 d0 20 00 	ta  0
40000c64:	01 00 00 00 	nop 
40000c68:	01 00 00 00 	nop 
40000c6c:	01 00 00 00 	nop 
40000c70:	91 d0 20 00 	ta  0
40000c74:	01 00 00 00 	nop 
40000c78:	01 00 00 00 	nop 
40000c7c:	01 00 00 00 	nop 
40000c80:	91 d0 20 00 	ta  0
40000c84:	01 00 00 00 	nop 
40000c88:	01 00 00 00 	nop 
40000c8c:	01 00 00 00 	nop 
40000c90:	91 d0 20 00 	ta  0
40000c94:	01 00 00 00 	nop 
40000c98:	01 00 00 00 	nop 
40000c9c:	01 00 00 00 	nop 
40000ca0:	91 d0 20 00 	ta  0
40000ca4:	01 00 00 00 	nop 
40000ca8:	01 00 00 00 	nop 
40000cac:	01 00 00 00 	nop 
40000cb0:	91 d0 20 00 	ta  0
40000cb4:	01 00 00 00 	nop 
40000cb8:	01 00 00 00 	nop 
40000cbc:	01 00 00 00 	nop 
40000cc0:	91 d0 20 00 	ta  0
40000cc4:	01 00 00 00 	nop 
40000cc8:	01 00 00 00 	nop 
40000ccc:	01 00 00 00 	nop 
40000cd0:	91 d0 20 00 	ta  0
40000cd4:	01 00 00 00 	nop 
40000cd8:	01 00 00 00 	nop 
40000cdc:	01 00 00 00 	nop 
40000ce0:	91 d0 20 00 	ta  0
40000ce4:	01 00 00 00 	nop 
40000ce8:	01 00 00 00 	nop 
40000cec:	01 00 00 00 	nop 
40000cf0:	91 d0 20 00 	ta  0
40000cf4:	01 00 00 00 	nop 
40000cf8:	01 00 00 00 	nop 
40000cfc:	01 00 00 00 	nop 
40000d00:	91 d0 20 00 	ta  0
40000d04:	01 00 00 00 	nop 
40000d08:	01 00 00 00 	nop 
40000d0c:	01 00 00 00 	nop 
40000d10:	91 d0 20 00 	ta  0
40000d14:	01 00 00 00 	nop 
40000d18:	01 00 00 00 	nop 
40000d1c:	01 00 00 00 	nop 
40000d20:	91 d0 20 00 	ta  0
40000d24:	01 00 00 00 	nop 
40000d28:	01 00 00 00 	nop 
40000d2c:	01 00 00 00 	nop 
40000d30:	91 d0 20 00 	ta  0
40000d34:	01 00 00 00 	nop 
40000d38:	01 00 00 00 	nop 
40000d3c:	01 00 00 00 	nop 
40000d40:	91 d0 20 00 	ta  0
40000d44:	01 00 00 00 	nop 
40000d48:	01 00 00 00 	nop 
40000d4c:	01 00 00 00 	nop 
40000d50:	91 d0 20 00 	ta  0
40000d54:	01 00 00 00 	nop 
40000d58:	01 00 00 00 	nop 
40000d5c:	01 00 00 00 	nop 
40000d60:	91 d0 20 00 	ta  0
40000d64:	01 00 00 00 	nop 
40000d68:	01 00 00 00 	nop 
40000d6c:	01 00 00 00 	nop 
40000d70:	91 d0 20 00 	ta  0
40000d74:	01 00 00 00 	nop 
40000d78:	01 00 00 00 	nop 
40000d7c:	01 00 00 00 	nop 
40000d80:	91 d0 20 00 	ta  0
40000d84:	01 00 00 00 	nop 
40000d88:	01 00 00 00 	nop 
40000d8c:	01 00 00 00 	nop 
40000d90:	91 d0 20 00 	ta  0
40000d94:	01 00 00 00 	nop 
40000d98:	01 00 00 00 	nop 
40000d9c:	01 00 00 00 	nop 
40000da0:	91 d0 20 00 	ta  0
40000da4:	01 00 00 00 	nop 
40000da8:	01 00 00 00 	nop 
40000dac:	01 00 00 00 	nop 
40000db0:	91 d0 20 00 	ta  0
40000db4:	01 00 00 00 	nop 
40000db8:	01 00 00 00 	nop 
40000dbc:	01 00 00 00 	nop 
40000dc0:	91 d0 20 00 	ta  0
40000dc4:	01 00 00 00 	nop 
40000dc8:	01 00 00 00 	nop 
40000dcc:	01 00 00 00 	nop 
40000dd0:	91 d0 20 00 	ta  0
40000dd4:	01 00 00 00 	nop 
40000dd8:	01 00 00 00 	nop 
40000ddc:	01 00 00 00 	nop 
40000de0:	91 d0 20 00 	ta  0
40000de4:	01 00 00 00 	nop 
40000de8:	01 00 00 00 	nop 
40000dec:	01 00 00 00 	nop 
40000df0:	91 d0 20 00 	ta  0
40000df4:	01 00 00 00 	nop 
40000df8:	01 00 00 00 	nop 
40000dfc:	01 00 00 00 	nop 
40000e00:	91 d0 20 00 	ta  0
40000e04:	01 00 00 00 	nop 
40000e08:	01 00 00 00 	nop 
40000e0c:	01 00 00 00 	nop 
40000e10:	91 d0 20 00 	ta  0
40000e14:	01 00 00 00 	nop 
40000e18:	01 00 00 00 	nop 
40000e1c:	01 00 00 00 	nop 
40000e20:	91 d0 20 00 	ta  0
40000e24:	01 00 00 00 	nop 
40000e28:	01 00 00 00 	nop 
40000e2c:	01 00 00 00 	nop 
40000e30:	91 d0 20 00 	ta  0
40000e34:	01 00 00 00 	nop 
40000e38:	01 00 00 00 	nop 
40000e3c:	01 00 00 00 	nop 
40000e40:	91 d0 20 00 	ta  0
40000e44:	01 00 00 00 	nop 
40000e48:	01 00 00 00 	nop 
40000e4c:	01 00 00 00 	nop 
40000e50:	91 d0 20 00 	ta  0
40000e54:	01 00 00 00 	nop 
40000e58:	01 00 00 00 	nop 
40000e5c:	01 00 00 00 	nop 
40000e60:	91 d0 20 00 	ta  0
40000e64:	01 00 00 00 	nop 
40000e68:	01 00 00 00 	nop 
40000e6c:	01 00 00 00 	nop 
40000e70:	91 d0 20 00 	ta  0
40000e74:	01 00 00 00 	nop 
40000e78:	01 00 00 00 	nop 
40000e7c:	01 00 00 00 	nop 
40000e80:	91 d0 20 00 	ta  0
40000e84:	01 00 00 00 	nop 
40000e88:	01 00 00 00 	nop 
40000e8c:	01 00 00 00 	nop 
40000e90:	91 d0 20 00 	ta  0
40000e94:	01 00 00 00 	nop 
40000e98:	01 00 00 00 	nop 
40000e9c:	01 00 00 00 	nop 
40000ea0:	91 d0 20 00 	ta  0
40000ea4:	01 00 00 00 	nop 
40000ea8:	01 00 00 00 	nop 
40000eac:	01 00 00 00 	nop 
40000eb0:	91 d0 20 00 	ta  0
40000eb4:	01 00 00 00 	nop 
40000eb8:	01 00 00 00 	nop 
40000ebc:	01 00 00 00 	nop 
40000ec0:	91 d0 20 00 	ta  0
40000ec4:	01 00 00 00 	nop 
40000ec8:	01 00 00 00 	nop 
40000ecc:	01 00 00 00 	nop 
40000ed0:	91 d0 20 00 	ta  0
40000ed4:	01 00 00 00 	nop 
40000ed8:	01 00 00 00 	nop 
40000edc:	01 00 00 00 	nop 
40000ee0:	91 d0 20 00 	ta  0
40000ee4:	01 00 00 00 	nop 
40000ee8:	01 00 00 00 	nop 
40000eec:	01 00 00 00 	nop 
40000ef0:	91 d0 20 00 	ta  0
40000ef4:	01 00 00 00 	nop 
40000ef8:	01 00 00 00 	nop 
40000efc:	01 00 00 00 	nop 
40000f00:	91 d0 20 00 	ta  0
40000f04:	01 00 00 00 	nop 
40000f08:	01 00 00 00 	nop 
40000f0c:	01 00 00 00 	nop 
40000f10:	91 d0 20 00 	ta  0
40000f14:	01 00 00 00 	nop 
40000f18:	01 00 00 00 	nop 
40000f1c:	01 00 00 00 	nop 
40000f20:	91 d0 20 00 	ta  0
40000f24:	01 00 00 00 	nop 
40000f28:	01 00 00 00 	nop 
40000f2c:	01 00 00 00 	nop 
40000f30:	91 d0 20 00 	ta  0
40000f34:	01 00 00 00 	nop 
40000f38:	01 00 00 00 	nop 
40000f3c:	01 00 00 00 	nop 
40000f40:	91 d0 20 00 	ta  0
40000f44:	01 00 00 00 	nop 
40000f48:	01 00 00 00 	nop 
40000f4c:	01 00 00 00 	nop 
40000f50:	91 d0 20 00 	ta  0
40000f54:	01 00 00 00 	nop 
40000f58:	01 00 00 00 	nop 
40000f5c:	01 00 00 00 	nop 
40000f60:	91 d0 20 00 	ta  0
40000f64:	01 00 00 00 	nop 
40000f68:	01 00 00 00 	nop 
40000f6c:	01 00 00 00 	nop 
40000f70:	91 d0 20 00 	ta  0
40000f74:	01 00 00 00 	nop 
40000f78:	01 00 00 00 	nop 
40000f7c:	01 00 00 00 	nop 
40000f80:	91 d0 20 00 	ta  0
40000f84:	01 00 00 00 	nop 
40000f88:	01 00 00 00 	nop 
40000f8c:	01 00 00 00 	nop 
40000f90:	91 d0 20 00 	ta  0
40000f94:	01 00 00 00 	nop 
40000f98:	01 00 00 00 	nop 
40000f9c:	01 00 00 00 	nop 
40000fa0:	91 d0 20 00 	ta  0
40000fa4:	01 00 00 00 	nop 
40000fa8:	01 00 00 00 	nop 
40000fac:	01 00 00 00 	nop 
40000fb0:	91 d0 20 00 	ta  0
40000fb4:	01 00 00 00 	nop 
40000fb8:	01 00 00 00 	nop 
40000fbc:	01 00 00 00 	nop 
40000fc0:	91 d0 20 00 	ta  0
40000fc4:	01 00 00 00 	nop 
40000fc8:	01 00 00 00 	nop 
40000fcc:	01 00 00 00 	nop 
40000fd0:	91 d0 20 00 	ta  0
40000fd4:	01 00 00 00 	nop 
40000fd8:	01 00 00 00 	nop 
40000fdc:	01 00 00 00 	nop 
40000fe0:	91 d0 20 00 	ta  0
40000fe4:	01 00 00 00 	nop 
40000fe8:	01 00 00 00 	nop 
40000fec:	01 00 00 00 	nop 
40000ff0:	91 d0 20 00 	ta  0
40000ff4:	01 00 00 00 	nop 
40000ff8:	01 00 00 00 	nop 
40000ffc:	01 00 00 00 	nop 

40001000 <__bcc_crt0>:
40001000:	40 00 01 9d 	call  40001674 <__bcc_init40>
40001004:	01 00 00 00 	nop 
40001008:	a0 0b bf f0 	and  %sp, -16, %l0
4000100c:	9c 24 20 60 	sub  %l0, 0x60, %sp
40001010:	bc 10 00 00 	mov  %g0, %fp
40001014:	be 10 00 00 	mov  %g0, %i7
40001018:	19 00 00 00 	sethi  %hi(0), %o4
4000101c:	98 13 20 00 	mov  %o4, %o4	! 0 <__bcc_cfg_skip_clear_bss>
40001020:	80 a3 00 00 	cmp  %o4, %g0
40001024:	12 80 00 09 	bne  40001048 <__bcc_crt0+0x48>
40001028:	11 10 00 3e 	sethi  %hi(0x4000f800), %o0
4000102c:	90 12 21 70 	or  %o0, 0x170, %o0	! 4000f970 <__TMC_END__>
40001030:	15 10 00 3e 	sethi  %hi(0x4000f800), %o2
40001034:	94 12 a3 30 	or  %o2, 0x330, %o2	! 4000fb30 <__bss_end>
40001038:	96 22 80 08 	sub  %o2, %o0, %o3
4000103c:	93 32 e0 03 	srl  %o3, 3, %o1
40001040:	40 00 01 b5 	call  40001714 <bcc_dwzero>
40001044:	01 00 00 00 	nop 
40001048:	23 10 00 3e 	sethi  %hi(0x4000f800), %l1
4000104c:	e0 24 61 70 	st  %l0, [ %l1 + 0x170 ]	! 4000f970 <__TMC_END__>
40001050:	40 00 01 bc 	call  40001740 <__bcc_copy_data>
40001054:	01 00 00 00 	nop 
40001058:	40 00 01 87 	call  40001674 <__bcc_init40>
4000105c:	01 00 00 00 	nop 
40001060:	40 00 01 87 	call  4000167c <__bcc_get_leon_info>
40001064:	01 00 00 00 	nop 
40001068:	40 00 02 4b 	call  40001994 <__bcc_con_init>
4000106c:	01 00 00 00 	nop 
40001070:	40 00 02 5d 	call  400019e4 <__bcc_timer_init>
40001074:	01 00 00 00 	nop 
40001078:	40 00 01 db 	call  400017e4 <__bcc_int_init>
4000107c:	01 00 00 00 	nop 
40001080:	11 10 00 3b 	sethi  %hi(0x4000ec00), %o0
40001084:	90 12 20 d0 	or  %o0, 0xd0, %o0	! 4000ecd0 <_fini>
40001088:	40 00 04 5a 	call  400021f0 <atexit>
4000108c:	01 00 00 00 	nop 
40001090:	40 00 37 08 	call  4000ecb0 <_init>
40001094:	01 00 00 00 	nop 
40001098:	40 00 01 77 	call  40001674 <__bcc_init40>
4000109c:	01 00 00 00 	nop 
400010a0:	21 10 00 3e 	sethi  %hi(0x4000f800), %l0
400010a4:	d0 04 22 30 	ld  [ %l0 + 0x230 ], %o0	! 4000fa30 <__bcc_argc>
400010a8:	23 10 00 3c 	sethi  %hi(0x4000f000), %l1
400010ac:	d2 04 63 88 	ld  [ %l1 + 0x388 ], %o1	! 4000f388 <__bcc_argvp>
400010b0:	40 00 00 68 	call  40001250 <main>
400010b4:	94 10 00 00 	mov  %g0, %o2
400010b8:	40 00 04 55 	call  4000220c <exit>
400010bc:	01 00 00 00 	nop 
400010c0:	82 10 20 02 	mov  2, %g1	! 2 <_CONTEXT_I_+0x1>
400010c4:	91 d0 20 01 	ta  1

400010c8 <deregister_tm_clones>:
400010c8:	9d e3 bf a0 	save  %sp, -96, %sp
400010cc:	11 10 00 3e 	sethi  %hi(0x4000f800), %o0
400010d0:	03 10 00 3e 	sethi  %hi(0x4000f800), %g1
400010d4:	90 12 21 70 	or  %o0, 0x170, %o0
400010d8:	82 10 61 70 	or  %g1, 0x170, %g1
400010dc:	80 a0 40 08 	cmp  %g1, %o0
400010e0:	02 80 00 08 	be  40001100 <deregister_tm_clones+0x38>
400010e4:	03 00 00 00 	sethi  %hi(0), %g1
400010e8:	82 10 60 00 	mov  %g1, %g1	! 0 <__bcc_cfg_skip_clear_bss>
400010ec:	80 a0 60 00 	cmp  %g1, 0
400010f0:	02 80 00 04 	be  40001100 <deregister_tm_clones+0x38>
400010f4:	01 00 00 00 	nop 
400010f8:	9f c0 40 00 	call  %g1
400010fc:	01 00 00 00 	nop 
40001100:	81 c7 e0 08 	ret 
40001104:	81 e8 00 00 	restore 

40001108 <register_tm_clones>:
40001108:	9d e3 bf a0 	save  %sp, -96, %sp
4000110c:	03 10 00 3e 	sethi  %hi(0x4000f800), %g1
40001110:	11 10 00 3e 	sethi  %hi(0x4000f800), %o0
40001114:	92 10 61 70 	or  %g1, 0x170, %o1
40001118:	90 12 21 70 	or  %o0, 0x170, %o0
4000111c:	92 22 40 08 	sub  %o1, %o0, %o1
40001120:	83 3a 60 02 	sra  %o1, 2, %g1
40001124:	93 32 60 1f 	srl  %o1, 0x1f, %o1
40001128:	92 02 40 01 	add  %o1, %g1, %o1
4000112c:	93 3a 60 01 	sra  %o1, 1, %o1
40001130:	80 a2 60 00 	cmp  %o1, 0
40001134:	02 80 00 08 	be  40001154 <register_tm_clones+0x4c>
40001138:	03 00 00 00 	sethi  %hi(0), %g1
4000113c:	82 10 60 00 	mov  %g1, %g1	! 0 <__bcc_cfg_skip_clear_bss>
40001140:	80 a0 60 00 	cmp  %g1, 0
40001144:	02 80 00 04 	be  40001154 <register_tm_clones+0x4c>
40001148:	01 00 00 00 	nop 
4000114c:	9f c0 40 00 	call  %g1
40001150:	01 00 00 00 	nop 
40001154:	81 c7 e0 08 	ret 
40001158:	81 e8 00 00 	restore 

4000115c <__do_global_dtors_aux>:
4000115c:	9d e3 bf a0 	save  %sp, -96, %sp
40001160:	35 10 00 3e 	sethi  %hi(0x4000f800), %i2
40001164:	c2 0e a1 74 	ldub  [ %i2 + 0x174 ], %g1	! 4000f974 <completed.2>
40001168:	80 a0 60 00 	cmp  %g1, 0
4000116c:	12 80 00 25 	bne  40001200 <__do_global_dtors_aux+0xa4>
40001170:	03 10 00 3b 	sethi  %hi(0x4000ec00), %g1
40001174:	82 10 60 a4 	or  %g1, 0xa4, %g1	! 4000eca4 <__DTOR_LIST__>
40001178:	3b 10 00 3e 	sethi  %hi(0x4000f800), %i5
4000117c:	39 10 00 3b 	sethi  %hi(0x4000ec00), %i4
40001180:	05 10 00 3b 	sethi  %hi(0x4000ec00), %g2
40001184:	b8 17 20 a8 	or  %i4, 0xa8, %i4
40001188:	b6 10 a0 a4 	or  %g2, 0xa4, %i3
4000118c:	b8 27 00 01 	sub  %i4, %g1, %i4
40001190:	c2 07 61 78 	ld  [ %i5 + 0x178 ], %g1
40001194:	b9 3f 20 02 	sra  %i4, 2, %i4
40001198:	b8 07 3f ff 	add  %i4, -1, %i4
4000119c:	80 a0 40 1c 	cmp  %g1, %i4
400011a0:	1a 80 00 0c 	bcc  400011d0 <__do_global_dtors_aux+0x74>
400011a4:	82 00 60 01 	inc  %g1
400011a8:	ba 17 61 78 	or  %i5, 0x178, %i5
400011ac:	85 28 60 02 	sll  %g1, 2, %g2
400011b0:	c2 27 40 00 	st  %g1, [ %i5 ]
400011b4:	c2 06 c0 02 	ld  [ %i3 + %g2 ], %g1
400011b8:	9f c0 40 00 	call  %g1
400011bc:	01 00 00 00 	nop 
400011c0:	c2 07 40 00 	ld  [ %i5 ], %g1
400011c4:	80 a0 40 1c 	cmp  %g1, %i4
400011c8:	0a bf ff f9 	bcs  400011ac <__do_global_dtors_aux+0x50>
400011cc:	82 00 60 01 	inc  %g1
400011d0:	7f ff ff be 	call  400010c8 <deregister_tm_clones>
400011d4:	01 00 00 00 	nop 
400011d8:	03 00 00 00 	sethi  %hi(0), %g1
400011dc:	82 10 60 00 	mov  %g1, %g1	! 0 <__bcc_cfg_skip_clear_bss>
400011e0:	80 a0 60 00 	cmp  %g1, 0
400011e4:	02 80 00 06 	be  400011fc <__do_global_dtors_aux+0xa0>
400011e8:	82 10 20 01 	mov  1, %g1
400011ec:	11 10 00 3b 	sethi  %hi(0x4000ec00), %o0
400011f0:	6f ff fb 84 	call  0 <__bcc_cfg_skip_clear_bss>
400011f4:	90 12 20 30 	or  %o0, 0x30, %o0	! 4000ec30 <__EH_FRAME_BEGIN__>
400011f8:	82 10 20 01 	mov  1, %g1
400011fc:	c2 2e a1 74 	stb  %g1, [ %i2 + 0x174 ]
40001200:	81 c7 e0 08 	ret 
40001204:	81 e8 00 00 	restore 

40001208 <call___do_global_dtors_aux>:
40001208:	9d e3 bf a0 	save  %sp, -96, %sp
4000120c:	81 c7 e0 08 	ret 
40001210:	81 e8 00 00 	restore 

40001214 <frame_dummy>:
40001214:	9d e3 bf a0 	save  %sp, -96, %sp
40001218:	03 00 00 00 	sethi  %hi(0), %g1
4000121c:	82 10 60 00 	mov  %g1, %g1	! 0 <__bcc_cfg_skip_clear_bss>
40001220:	80 a0 60 00 	cmp  %g1, 0
40001224:	02 80 00 06 	be  4000123c <frame_dummy+0x28>
40001228:	13 10 00 3e 	sethi  %hi(0x4000f800), %o1
4000122c:	11 10 00 3b 	sethi  %hi(0x4000ec00), %o0
40001230:	92 12 61 7c 	or  %o1, 0x17c, %o1
40001234:	6f ff fb 73 	call  0 <__bcc_cfg_skip_clear_bss>
40001238:	90 12 20 30 	or  %o0, 0x30, %o0
4000123c:	7f ff ff b3 	call  40001108 <register_tm_clones>
40001240:	81 e8 00 00 	restore 

40001244 <call_frame_dummy>:
40001244:	9d e3 bf a0 	save  %sp, -96, %sp
40001248:	81 c7 e0 08 	ret 
4000124c:	81 e8 00 00 	restore 

40001250 <main>:
40001250:	9d e3 bf 90 	save  %sp, -112, %sp
40001254:	c0 27 bf f8 	clr  [ %fp + -8 ]
40001258:	82 10 20 14 	mov  0x14, %g1
4000125c:	c2 27 bf f4 	st  %g1, [ %fp + -12 ]
40001260:	c0 27 bf fc 	clr  [ %fp + -4 ]
40001264:	10 80 00 08 	b  40001284 <main+0x34>
40001268:	01 00 00 00 	nop 
4000126c:	c2 07 bf f8 	ld  [ %fp + -8 ], %g1
40001270:	82 00 60 01 	inc  %g1
40001274:	c2 27 bf f8 	st  %g1, [ %fp + -8 ]
40001278:	c2 07 bf fc 	ld  [ %fp + -4 ], %g1
4000127c:	82 00 60 01 	inc  %g1
40001280:	c2 27 bf fc 	st  %g1, [ %fp + -4 ]
40001284:	c4 07 bf fc 	ld  [ %fp + -4 ], %g2
40001288:	c2 07 bf f4 	ld  [ %fp + -12 ], %g1
4000128c:	80 a0 80 01 	cmp  %g2, %g1
40001290:	06 bf ff f7 	bl  4000126c <main+0x1c>
40001294:	01 00 00 00 	nop 
40001298:	c4 07 bf fc 	ld  [ %fp + -4 ], %g2
4000129c:	c2 07 bf f4 	ld  [ %fp + -12 ], %g1
400012a0:	80 a0 80 01 	cmp  %g2, %g1
400012a4:	02 80 00 06 	be  400012bc <main+0x6c>
400012a8:	01 00 00 00 	nop 
400012ac:	03 10 00 3b 	sethi  %hi(0x4000ec00), %g1
400012b0:	90 10 60 f0 	or  %g1, 0xf0, %o0	! 4000ecf0 <__text_end>
400012b4:	40 00 04 6d 	call  40002468 <printf>
400012b8:	01 00 00 00 	nop 
400012bc:	82 10 20 00 	clr  %g1	! 0 <__bcc_cfg_skip_clear_bss>
400012c0:	b0 10 00 01 	mov  %g1, %i0
400012c4:	81 e8 00 00 	restore 
400012c8:	81 c3 e0 08 	retl 
400012cc:	01 00 00 00 	nop 

400012d0 <__bcc_trap_reset_mvt>:
400012d0:	40 00 00 e9 	call  40001674 <__bcc_init40>
400012d4:	01 00 00 00 	nop 
400012d8:	83 48 00 00 	rd  %psr, %g1
400012dc:	83 30 60 18 	srl  %g1, 0x18, %g1
400012e0:	82 08 60 0f 	and  %g1, 0xf, %g1
400012e4:	80 a0 60 03 	cmp  %g1, 3
400012e8:	02 80 00 07 	be  40001304 <__bcc_trap_reset_mvt+0x34>
400012ec:	01 00 00 00 	nop 
400012f0:	80 a0 60 05 	cmp  %g1, 5
400012f4:	02 80 00 04 	be  40001304 <__bcc_trap_reset_mvt+0x34>
400012f8:	01 00 00 00 	nop 
400012fc:	10 80 00 09 	b  40001320 <__bcc_trap_reset_mvt+0x50>
40001300:	01 00 00 00 	nop 
40001304:	83 44 40 00 	rd  %asr17, %g1
40001308:	05 00 00 08 	sethi  %hi(0x2000), %g2
4000130c:	82 28 40 02 	andn  %g1, %g2, %g1
40001310:	a3 80 00 01 	wr  %g1, %asr17
40001314:	01 00 00 00 	nop 
40001318:	01 00 00 00 	nop 
4000131c:	01 00 00 00 	nop 
40001320:	03 10 00 00 	sethi  %hi(0x40000000), %g1
40001324:	82 10 60 00 	mov  %g1, %g1	! 40000000 <__bcc_entry_point>
40001328:	81 98 00 01 	wr  %g1, %tbr
4000132c:	81 90 20 02 	wr  2, %wim
40001330:	88 10 00 0e 	mov  %sp, %g4
40001334:	83 48 00 00 	rd  %psr, %g1
40001338:	86 10 2f 3f 	mov  0xf3f, %g3
4000133c:	84 28 40 03 	andn  %g1, %g3, %g2
40001340:	81 88 a0 20 	wr  %g2, 0x20, %psr
40001344:	01 00 00 00 	nop 
40001348:	01 00 00 00 	nop 
4000134c:	01 00 00 00 	nop 
40001350:	9c 10 00 04 	mov  %g4, %sp
40001354:	03 10 00 04 	sethi  %hi(0x40001000), %g1
40001358:	81 c0 60 00 	jmp  %g1
4000135c:	01 00 00 00 	nop 

40001360 <__bcc_trap_window_overflow>:
40001360:	81 e0 00 00 	save 
40001364:	e0 3b a0 00 	std  %l0, [ %sp ]
40001368:	21 10 00 3c 	sethi  %hi(0x4000f000), %l0
4000136c:	a0 14 23 7c 	or  %l0, 0x37c, %l0	! 4000f37c <__bcc_nwindows_min1>
40001370:	e4 3b a0 08 	std  %l2, [ %sp + 8 ]
40001374:	e2 04 00 00 	ld  [ %l0 ], %l1
40001378:	e8 3b a0 10 	std  %l4, [ %sp + 0x10 ]
4000137c:	a7 50 00 00 	rd  %wim, %l3
40001380:	ec 3b a0 18 	std  %l6, [ %sp + 0x18 ]
40001384:	a5 2c c0 11 	sll  %l3, %l1, %l2
40001388:	f0 3b a0 20 	std  %i0, [ %sp + 0x20 ]
4000138c:	a7 34 e0 01 	srl  %l3, 1, %l3
40001390:	f4 3b a0 28 	std  %i2, [ %sp + 0x28 ]
40001394:	81 94 c0 12 	wr  %l3, %l2, %wim
40001398:	f8 3b a0 30 	std  %i4, [ %sp + 0x30 ]
4000139c:	01 00 00 00 	nop 
400013a0:	fc 3b a0 38 	std  %fp, [ %sp + 0x38 ]
400013a4:	81 e8 00 00 	restore 
400013a8:	81 c4 40 00 	jmp  %l1
400013ac:	81 cc 80 00 	rett  %l2

400013b0 <__bcc_trap_window_underflow>:
400013b0:	2d 10 00 3c 	sethi  %hi(0x4000f000), %l6
400013b4:	ac 15 a3 7c 	or  %l6, 0x37c, %l6	! 4000f37c <__bcc_nwindows_min1>
400013b8:	ee 05 80 00 	ld  [ %l6 ], %l7
400013bc:	a7 50 00 00 	rd  %wim, %l3
400013c0:	a9 2c e0 01 	sll  %l3, 1, %l4
400013c4:	ab 34 c0 17 	srl  %l3, %l7, %l5
400013c8:	81 95 00 15 	wr  %l4, %l5, %wim
400013cc:	01 00 00 00 	nop 
400013d0:	01 00 00 00 	nop 
400013d4:	01 00 00 00 	nop 
400013d8:	81 e8 00 00 	restore 
400013dc:	81 e8 00 00 	restore 
400013e0:	e0 1b a0 00 	ldd  [ %sp ], %l0
400013e4:	e4 1b a0 08 	ldd  [ %sp + 8 ], %l2
400013e8:	e8 1b a0 10 	ldd  [ %sp + 0x10 ], %l4
400013ec:	ec 1b a0 18 	ldd  [ %sp + 0x18 ], %l6
400013f0:	f0 1b a0 20 	ldd  [ %sp + 0x20 ], %i0
400013f4:	f4 1b a0 28 	ldd  [ %sp + 0x28 ], %i2
400013f8:	f8 1b a0 30 	ldd  [ %sp + 0x30 ], %i4
400013fc:	fc 1b a0 38 	ldd  [ %sp + 0x38 ], %fp
40001400:	81 e0 00 00 	save 
40001404:	81 e0 00 00 	save 
40001408:	81 c4 40 00 	jmp  %l1
4000140c:	81 cc 80 00 	rett  %l2

40001410 <__bcc_trap_interrupt_svt>:
40001410:	a6 25 a0 10 	sub  %l6, 0x10, %l3

40001414 <__bcc_trap_interrupt>:
40001414:	a8 10 00 02 	mov  %g2, %l4
40001418:	aa 10 00 03 	mov  %g3, %l5
4000141c:	85 50 00 00 	rd  %wim, %g2
40001420:	87 30 80 10 	srl  %g2, %l0, %g3
40001424:	80 a0 e0 01 	cmp  %g3, 1
40001428:	12 80 00 11 	bne  4000146c <__bcc_trap_interrupt+0x58>
4000142c:	07 10 00 3c 	sethi  %hi(0x4000f000), %g3
40001430:	c6 00 e3 7c 	ld  [ %g3 + 0x37c ], %g3	! 4000f37c <__bcc_nwindows_min1>
40001434:	87 28 80 03 	sll  %g2, %g3, %g3
40001438:	85 30 a0 01 	srl  %g2, 1, %g2
4000143c:	84 10 80 03 	or  %g2, %g3, %g2
40001440:	81 e0 00 00 	save 
40001444:	e0 3b a0 00 	std  %l0, [ %sp ]
40001448:	81 90 00 02 	wr  %g2, %wim
4000144c:	e4 3b a0 08 	std  %l2, [ %sp + 8 ]
40001450:	e8 3b a0 10 	std  %l4, [ %sp + 0x10 ]
40001454:	ec 3b a0 18 	std  %l6, [ %sp + 0x18 ]
40001458:	f0 3b a0 20 	std  %i0, [ %sp + 0x20 ]
4000145c:	f4 3b a0 28 	std  %i2, [ %sp + 0x28 ]
40001460:	f8 3b a0 30 	std  %i4, [ %sp + 0x30 ]
40001464:	fc 3b a0 38 	std  %fp, [ %sp + 0x38 ]
40001468:	81 e8 00 00 	restore 
4000146c:	9c 27 a0 18 	sub  %fp, 0x18, %sp
40001470:	c2 23 a0 04 	st  %g1, [ %sp + 4 ]
40001474:	e8 3b a0 08 	std  %l4, [ %sp + 8 ]
40001478:	83 40 00 00 	rd  %y, %g1
4000147c:	c8 23 a0 10 	st  %g4, [ %sp + 0x10 ]
40001480:	c2 23 a0 00 	st  %g1, [ %sp ]
40001484:	29 10 00 3c 	sethi  %hi(0x4000f000), %l4
40001488:	a8 15 23 68 	or  %l4, 0x368, %l4	! 4000f368 <__bcc_int_nest>
4000148c:	96 2c 2f 00 	andn  %l0, 0xf00, %o3
40001490:	d2 0d 00 13 	ldub  [ %l4 + %l3 ], %o1
40001494:	95 2a 60 08 	sll  %o1, 8, %o2
40001498:	90 12 c0 0a 	or  %o3, %o2, %o0
4000149c:	ea 0d 00 00 	ldub  [ %l4 ], %l5
400014a0:	ac 05 60 01 	add  %l5, 1, %l6
400014a4:	ec 2d 00 00 	stb  %l6, [ %l4 ]
400014a8:	9c 23 a0 60 	sub  %sp, 0x60, %sp
400014ac:	81 8a 20 20 	wr  %o0, 0x20, %psr
400014b0:	01 00 00 00 	nop 
400014b4:	01 00 00 00 	nop 
400014b8:	01 00 00 00 	nop 
400014bc:	40 00 00 b8 	call  4000179c <__bcc_int_get_source>
400014c0:	90 10 00 13 	mov  %l3, %o0
400014c4:	80 a2 00 00 	cmp  %o0, %g0
400014c8:	02 80 00 10 	be  40001508 <__bcc_trap_interrupt+0xf4>
400014cc:	ac 10 00 08 	mov  %o0, %l6
400014d0:	03 10 00 3e 	sethi  %hi(0x4000f800), %g1
400014d4:	82 10 61 ac 	or  %g1, 0x1ac, %g1	! 4000f9ac <__bcc_isr_list>
400014d8:	85 2a 20 02 	sll  %o0, 2, %g2
400014dc:	e6 00 40 02 	ld  [ %g1 + %g2 ], %l3
400014e0:	80 a4 c0 00 	cmp  %l3, %g0
400014e4:	02 80 00 09 	be  40001508 <__bcc_trap_interrupt+0xf4>
400014e8:	92 10 00 16 	mov  %l6, %o1
400014ec:	c8 04 e0 08 	ld  [ %l3 + 8 ], %g4
400014f0:	01 00 00 00 	nop 
400014f4:	d0 04 e0 0c 	ld  [ %l3 + 0xc ], %o0
400014f8:	9f c1 00 00 	call  %g4
400014fc:	01 00 00 00 	nop 
40001500:	10 bf ff f8 	b  400014e0 <__bcc_trap_interrupt+0xcc>
40001504:	e6 04 e0 00 	ld  [ %l3 ], %l3
40001508:	81 88 00 10 	wr  %l0, %psr
4000150c:	01 00 00 00 	nop 
40001510:	01 00 00 00 	nop 
40001514:	01 00 00 00 	nop 
40001518:	9c 03 a0 60 	add  %sp, 0x60, %sp
4000151c:	ea 2d 00 00 	stb  %l5, [ %l4 ]
40001520:	c2 03 a0 00 	ld  [ %sp ], %g1
40001524:	81 80 00 01 	wr  %g1, %y
40001528:	c8 03 a0 10 	ld  [ %sp + 0x10 ], %g4
4000152c:	c4 1b a0 08 	ldd  [ %sp + 8 ], %g2
40001530:	c2 03 a0 04 	ld  [ %sp + 4 ], %g1
40001534:	a9 50 00 00 	rd  %wim, %l4
40001538:	ac 04 20 01 	add  %l0, 1, %l6
4000153c:	ac 0d a0 1f 	and  %l6, 0x1f, %l6
40001540:	2b 10 00 3c 	sethi  %hi(0x4000f000), %l5
40001544:	ee 05 63 80 	ld  [ %l5 + 0x380 ], %l7	! 4000f380 <__bcc_nwindows>
40001548:	80 a5 80 17 	cmp  %l6, %l7
4000154c:	36 80 00 02 	bge,a   40001554 <__bcc_trap_interrupt+0x140>
40001550:	ac 10 20 00 	clr  %l6
40001554:	ab 35 00 16 	srl  %l4, %l6, %l5
40001558:	80 a5 60 01 	cmp  %l5, 1
4000155c:	12 80 00 13 	bne  400015a8 <__bcc_trap_interrupt+0x194>
40001560:	01 00 00 00 	nop 
40001564:	ae 25 e0 01 	dec  %l7
40001568:	ab 35 00 17 	srl  %l4, %l7, %l5
4000156c:	a9 2d 20 01 	sll  %l4, 1, %l4
40001570:	81 95 00 15 	wr  %l4, %l5, %wim
40001574:	01 00 00 00 	nop 
40001578:	01 00 00 00 	nop 
4000157c:	01 00 00 00 	nop 
40001580:	81 e8 00 00 	restore 
40001584:	e0 1b a0 00 	ldd  [ %sp ], %l0
40001588:	e4 1b a0 08 	ldd  [ %sp + 8 ], %l2
4000158c:	e8 1b a0 10 	ldd  [ %sp + 0x10 ], %l4
40001590:	ec 1b a0 18 	ldd  [ %sp + 0x18 ], %l6
40001594:	f0 1b a0 20 	ldd  [ %sp + 0x20 ], %i0
40001598:	f4 1b a0 28 	ldd  [ %sp + 0x28 ], %i2
4000159c:	f8 1b a0 30 	ldd  [ %sp + 0x30 ], %i4
400015a0:	fc 1b a0 38 	ldd  [ %sp + 0x38 ], %fp
400015a4:	81 e0 00 00 	save 
400015a8:	81 88 00 10 	wr  %l0, %psr
400015ac:	01 00 00 00 	nop 
400015b0:	01 00 00 00 	nop 
400015b4:	01 00 00 00 	nop 
400015b8:	81 c4 40 00 	jmp  %l1
400015bc:	81 cc 80 00 	rett  %l2

400015c0 <__bcc_trap_flush_windows>:
400015c0:	29 10 00 3e 	sethi  %hi(0x4000f800), %l4
400015c4:	a8 15 21 98 	or  %l4, 0x198, %l4	! 4000f998 <__bcc_winflush_spill_globals>
400015c8:	c4 3d 00 00 	std  %g2, [ %l4 ]
400015cc:	e4 25 20 10 	st  %l2, [ %l4 + 0x10 ]
400015d0:	e0 3d 20 08 	std  %l0, [ %l4 + 8 ]
400015d4:	81 e8 00 00 	restore 
400015d8:	07 10 00 3c 	sethi  %hi(0x4000f000), %g3
400015dc:	c6 00 e3 7c 	ld  [ %g3 + 0x37c ], %g3	! 4000f37c <__bcc_nwindows_min1>
400015e0:	85 48 00 00 	rd  %psr, %g2
400015e4:	84 10 af 00 	or  %g2, 0xf00, %g2
400015e8:	81 88 a0 20 	wr  %g2, 0x20, %psr
400015ec:	01 00 00 00 	nop 
400015f0:	86 20 e0 01 	dec  %g3
400015f4:	84 10 00 03 	mov  %g3, %g2
400015f8:	81 e0 00 00 	save 
400015fc:	80 a0 c0 00 	cmp  %g3, %g0
40001600:	12 bf ff fe 	bne  400015f8 <__bcc_trap_flush_windows+0x38>
40001604:	86 20 e0 01 	dec  %g3
40001608:	81 e8 00 00 	restore 
4000160c:	80 a0 80 00 	cmp  %g2, %g0
40001610:	12 bf ff fe 	bne  40001608 <__bcc_trap_flush_windows+0x48>
40001614:	84 20 a0 01 	dec  %g2
40001618:	81 e0 00 00 	save 
4000161c:	29 10 00 3e 	sethi  %hi(0x4000f800), %l4
40001620:	a8 15 21 98 	or  %l4, 0x198, %l4	! 4000f998 <__bcc_winflush_spill_globals>
40001624:	c4 1d 00 00 	ldd  [ %l4 ], %g2
40001628:	e0 1d 20 08 	ldd  [ %l4 + 8 ], %l0
4000162c:	e4 05 20 10 	ld  [ %l4 + 0x10 ], %l2
40001630:	81 88 00 10 	wr  %l0, %psr
40001634:	01 00 00 00 	nop 
40001638:	01 00 00 00 	nop 
4000163c:	01 00 00 00 	nop 
40001640:	81 c4 80 00 	jmp  %l2
40001644:	81 cc a0 04 	rett  %l2 + 4

40001648 <__bcc_trap_sw_set_pil>:
40001648:	b1 2e 20 08 	sll  %i0, 8, %i0
4000164c:	aa 2c 2f 00 	andn  %l0, 0xf00, %l5
40001650:	aa 15 40 18 	or  %l5, %i0, %l5
40001654:	81 88 00 15 	wr  %l5, %psr
40001658:	01 00 00 00 	nop 
4000165c:	01 00 00 00 	nop 
40001660:	01 00 00 00 	nop 
40001664:	a6 0c 2f 00 	and  %l0, 0xf00, %l3
40001668:	b1 34 e0 08 	srl  %l3, 8, %i0
4000166c:	81 c4 80 00 	jmp  %l2
40001670:	81 cc a0 04 	rett  %l2 + 4

40001674 <__bcc_init40>:
40001674:	81 c3 e0 08 	retl 
40001678:	01 00 00 00 	nop 

4000167c <__bcc_get_leon_info>:
4000167c:	91 48 00 00 	rd  %psr, %o0
40001680:	93 32 20 18 	srl  %o0, 0x18, %o1
40001684:	90 0a 60 0f 	and  %o1, 0xf, %o0
40001688:	80 a2 20 03 	cmp  %o0, 3
4000168c:	02 80 00 07 	be  400016a8 <__bcc_get_leon_info+0x2c>
40001690:	01 00 00 00 	nop 
40001694:	80 a2 20 05 	cmp  %o0, 5
40001698:	02 80 00 04 	be  400016a8 <__bcc_get_leon_info+0x2c>
4000169c:	01 00 00 00 	nop 
400016a0:	12 80 00 0a 	bne  400016c8 <__bcc_get_leon_info+0x4c>
400016a4:	01 00 00 00 	nop 
400016a8:	93 44 40 00 	rd  %asr17, %o1
400016ac:	93 32 60 00 	srl  %o1, 0, %o1
400016b0:	95 44 40 00 	rd  %asr17, %o2
400016b4:	17 3c 00 00 	sethi  %hi(0xf0000000), %o3
400016b8:	94 0a 80 0b 	and  %o2, %o3, %o2
400016bc:	95 32 a0 1c 	srl  %o2, 0x1c, %o2
400016c0:	10 80 00 07 	b  400016dc <__bcc_get_leon_info+0x60>
400016c4:	01 00 00 00 	nop 
400016c8:	90 10 20 02 	mov  2, %o0	! 2 <_CONTEXT_I_+0x1>
400016cc:	15 20 00 00 	sethi  %hi(0x80000000), %o2
400016d0:	d6 02 a0 24 	ld  [ %o2 + 0x24 ], %o3	! 80000024 <__bss_end+0x3fff04f4>
400016d4:	93 32 e0 14 	srl  %o3, 0x14, %o1
400016d8:	94 10 20 00 	clr  %o2
400016dc:	92 0a 60 1f 	and  %o1, 0x1f, %o1
400016e0:	98 02 60 01 	add  %o1, 1, %o4
400016e4:	17 10 00 3c 	sethi  %hi(0x4000f000), %o3
400016e8:	96 12 e3 78 	or  %o3, 0x378, %o3	! 4000f378 <__bcc_leon_version>
400016ec:	d0 22 e0 00 	st  %o0, [ %o3 ]
400016f0:	d2 22 e0 04 	st  %o1, [ %o3 + 4 ]
400016f4:	d8 22 e0 08 	st  %o4, [ %o3 + 8 ]
400016f8:	d4 22 e0 0c 	st  %o2, [ %o3 + 0xc ]
400016fc:	81 c3 e0 08 	retl 
40001700:	01 00 00 00 	nop 

40001704 <bcc_get_cpuid>:
40001704:	03 10 00 3c 	sethi  %hi(0x4000f000), %g1
40001708:	d0 00 63 84 	ld  [ %g1 + 0x384 ], %o0	! 4000f384 <__bcc_cpuid>
4000170c:	81 c3 e0 08 	retl 
40001710:	01 00 00 00 	nop 

40001714 <bcc_dwzero>:
40001714:	82 10 00 00 	mov  %g0, %g1
40001718:	88 10 00 00 	mov  %g0, %g4
4000171c:	80 a1 00 09 	cmp  %g4, %o1
40001720:	02 80 00 06 	be  40001738 <bcc_dwzero+0x24>
40001724:	85 29 20 03 	sll  %g4, 3, %g2
40001728:	86 02 00 02 	add  %o0, %g2, %g3
4000172c:	c0 38 c0 00 	std  %g0, [ %g3 ]
40001730:	10 bf ff fb 	b  4000171c <bcc_dwzero+0x8>
40001734:	88 01 20 01 	inc  %g4
40001738:	81 c3 e0 08 	retl 
4000173c:	01 00 00 00 	nop 

40001740 <__bcc_copy_data>:
40001740:	1b 10 00 3c 	sethi  %hi(0x4000f000), %o5
40001744:	09 10 00 3c 	sethi  %hi(0x4000f000), %g4
40001748:	9a 13 63 60 	or  %o5, 0x360, %o5
4000174c:	88 11 23 60 	or  %g4, 0x360, %g4
40001750:	80 a3 40 04 	cmp  %o5, %g4
40001754:	02 80 00 10 	be  40001794 <__bcc_copy_data+0x54>
40001758:	03 10 00 3e 	sethi  %hi(0x4000f800), %g1
4000175c:	82 10 61 70 	or  %g1, 0x170, %g1	! 4000f970 <__TMC_END__>
40001760:	80 a1 00 01 	cmp  %g4, %g1
40001764:	1a 80 00 0c 	bcc  40001794 <__bcc_copy_data+0x54>
40001768:	84 00 7f ff 	add  %g1, -1, %g2
4000176c:	82 10 20 00 	clr  %g1
40001770:	84 20 80 04 	sub  %g2, %g4, %g2
40001774:	84 08 bf fc 	and  %g2, -4, %g2
40001778:	84 00 a0 04 	add  %g2, 4, %g2
4000177c:	c6 03 40 01 	ld  [ %o5 + %g1 ], %g3
40001780:	c6 21 00 01 	st  %g3, [ %g4 + %g1 ]
40001784:	82 00 60 04 	add  %g1, 4, %g1
40001788:	80 a0 40 02 	cmp  %g1, %g2
4000178c:	32 bf ff fd 	bne,a   40001780 <__bcc_copy_data+0x40>
40001790:	c6 03 40 01 	ld  [ %o5 + %g1 ], %g3
40001794:	81 c3 e0 08 	retl 
40001798:	01 00 00 00 	nop 

4000179c <__bcc_int_get_source>:
4000179c:	03 10 00 3e 	sethi  %hi(0x4000f800), %g1
400017a0:	c2 00 62 3c 	ld  [ %g1 + 0x23c ], %g1	! 4000fa3c <__bcc_int_irqmp_eirq>
400017a4:	80 a0 40 08 	cmp  %g1, %o0
400017a8:	02 80 00 04 	be  400017b8 <__bcc_int_get_source+0x1c>
400017ac:	03 10 00 3c 	sethi  %hi(0x4000f000), %g1
400017b0:	81 c3 e0 08 	retl 
400017b4:	01 00 00 00 	nop 
400017b8:	05 10 00 3e 	sethi  %hi(0x4000f800), %g2
400017bc:	c2 00 63 84 	ld  [ %g1 + 0x384 ], %g1
400017c0:	c4 00 a2 40 	ld  [ %g2 + 0x240 ], %g2
400017c4:	82 00 60 30 	add  %g1, 0x30, %g1
400017c8:	83 28 60 02 	sll  %g1, 2, %g1
400017cc:	c2 00 80 01 	ld  [ %g2 + %g1 ], %g1
400017d0:	82 88 60 1f 	andcc  %g1, 0x1f, %g1
400017d4:	02 bf ff f7 	be  400017b0 <__bcc_int_get_source+0x14>
400017d8:	01 00 00 00 	nop 
400017dc:	81 c3 e0 08 	retl 
400017e0:	90 10 00 01 	mov  %g1, %o0

400017e4 <__bcc_int_init>:
400017e4:	9d e3 bf 88 	save  %sp, -120, %sp
400017e8:	3b 10 00 3e 	sethi  %hi(0x4000f800), %i5
400017ec:	c2 07 62 40 	ld  [ %i5 + 0x240 ], %g1	! 4000fa40 <__bcc_int_handle>
400017f0:	80 a0 60 00 	cmp  %g1, 0
400017f4:	02 80 00 0e 	be  4000182c <__bcc_int_init+0x48>
400017f8:	05 10 00 3e 	sethi  %hi(0x4000f800), %g2
400017fc:	f0 00 a2 3c 	ld  [ %g2 + 0x23c ], %i0	! 4000fa3c <__bcc_int_irqmp_eirq>
40001800:	80 a6 20 00 	cmp  %i0, 0
40001804:	12 80 00 08 	bne  40001824 <__bcc_int_init+0x40>
40001808:	01 00 00 00 	nop 
4000180c:	c2 00 60 10 	ld  [ %g1 + 0x10 ], %g1
40001810:	83 30 60 10 	srl  %g1, 0x10, %g1
40001814:	82 08 60 0f 	and  %g1, 0xf, %g1
40001818:	c2 20 a2 3c 	st  %g1, [ %g2 + 0x23c ]
4000181c:	81 c7 e0 08 	ret 
40001820:	81 e8 00 00 	restore 
40001824:	81 c7 e0 08 	ret 
40001828:	91 e8 20 00 	restore  %g0, 0, %o0
4000182c:	82 07 bf f0 	add  %fp, -16, %g1
40001830:	1b 10 00 08 	sethi  %hi(0x40002000), %o5
40001834:	c2 23 a0 5c 	st  %g1, [ %sp + 0x5c ]
40001838:	9a 13 61 7c 	or  %o5, 0x17c, %o5
4000183c:	98 10 20 04 	mov  4, %o4
40001840:	96 10 20 04 	mov  4, %o3
40001844:	94 10 20 0d 	mov  0xd, %o2
40001848:	92 10 20 01 	mov  1, %o1
4000184c:	11 3f fc 00 	sethi  %hi(0xfff00000), %o0
40001850:	40 00 02 3e 	call  40002148 <ambapp_visit>
40001854:	b0 10 20 01 	mov  1, %i0
40001858:	80 a2 20 00 	cmp  %o0, 0
4000185c:	02 80 00 29 	be  40001900 <__bcc_int_init+0x11c>
40001860:	01 00 00 00 	nop 
40001864:	c4 02 20 20 	ld  [ %o0 + 0x20 ], %g2
40001868:	03 3c 00 00 	sethi  %hi(0xf0000000), %g1
4000186c:	80 88 80 01 	btst  %g2, %g1
40001870:	12 80 00 26 	bne  40001908 <__bcc_int_init+0x124>
40001874:	03 10 00 3c 	sethi  %hi(0x4000f000), %g1
40001878:	05 10 00 3e 	sethi  %hi(0x4000f800), %g2
4000187c:	c2 02 20 10 	ld  [ %o0 + 0x10 ], %g1
40001880:	d0 27 62 40 	st  %o0, [ %i5 + 0x240 ]
40001884:	83 30 60 10 	srl  %g1, 0x10, %g1
40001888:	82 08 60 0f 	and  %g1, 0xf, %g1
4000188c:	c2 20 a2 3c 	st  %g1, [ %g2 + 0x23c ]
40001890:	c4 07 bf f8 	ld  [ %fp + -8 ], %g2
40001894:	80 a0 a3 00 	cmp  %g2, 0x300
40001898:	08 80 00 32 	bleu  40001960 <__bcc_int_init+0x17c>
4000189c:	03 10 00 3e 	sethi  %hi(0x4000f800), %g1
400018a0:	c4 02 23 00 	ld  [ %o0 + 0x300 ], %g2
400018a4:	c2 02 22 00 	ld  [ %o0 + 0x200 ], %g1
400018a8:	86 38 00 01 	xnor  %g0, %g1, %g3
400018ac:	c6 22 23 00 	st  %g3, [ %o0 + 0x300 ]
400018b0:	c6 02 22 00 	ld  [ %o0 + 0x200 ], %g3
400018b4:	80 a0 40 03 	cmp  %g1, %g3
400018b8:	12 80 00 32 	bne  40001980 <__bcc_int_init+0x19c>
400018bc:	01 00 00 00 	nop 
400018c0:	82 38 00 02 	xnor  %g0, %g2, %g1
400018c4:	c2 22 23 00 	st  %g1, [ %o0 + 0x300 ]
400018c8:	c6 02 23 00 	ld  [ %o0 + 0x300 ], %g3
400018cc:	80 a0 80 03 	cmp  %g2, %g3
400018d0:	02 80 00 04 	be  400018e0 <__bcc_int_init+0xfc>
400018d4:	82 10 20 00 	clr  %g1
400018d8:	c4 22 23 00 	st  %g2, [ %o0 + 0x300 ]
400018dc:	82 10 20 01 	mov  1, %g1
400018e0:	05 10 00 3e 	sethi  %hi(0x4000f800), %g2
400018e4:	c2 20 a2 38 	st  %g1, [ %g2 + 0x238 ]	! 4000fa38 <__bcc_int_irqmp_map>
400018e8:	c2 02 21 04 	ld  [ %o0 + 0x104 ], %g1
400018ec:	05 10 00 3e 	sethi  %hi(0x4000f800), %g2
400018f0:	83 30 60 1b 	srl  %g1, 0x1b, %g1
400018f4:	c2 20 a2 34 	st  %g1, [ %g2 + 0x234 ]
400018f8:	81 c7 e0 08 	ret 
400018fc:	91 e8 20 00 	restore  %g0, 0, %o0
40001900:	81 c7 e0 08 	ret 
40001904:	81 e8 00 00 	restore 
40001908:	c2 00 63 84 	ld  [ %g1 + 0x384 ], %g1
4000190c:	85 30 60 03 	srl  %g1, 3, %g2
40001910:	82 38 00 01 	xnor  %g0, %g1, %g1
40001914:	84 00 a0 08 	add  %g2, 8, %g2
40001918:	87 28 60 02 	sll  %g1, 2, %g3
4000191c:	85 28 a0 02 	sll  %g2, 2, %g2
40001920:	84 02 00 02 	add  %o0, %g2, %g2
40001924:	c2 00 a0 04 	ld  [ %g2 + 4 ], %g1
40001928:	83 30 40 03 	srl  %g1, %g3, %g1
4000192c:	82 08 60 0f 	and  %g1, 0xf, %g1
40001930:	83 28 60 0c 	sll  %g1, 0xc, %g1
40001934:	05 10 00 3e 	sethi  %hi(0x4000f800), %g2
40001938:	90 02 00 01 	add  %o0, %g1, %o0
4000193c:	c2 02 20 10 	ld  [ %o0 + 0x10 ], %g1
40001940:	d0 27 62 40 	st  %o0, [ %i5 + 0x240 ]
40001944:	83 30 60 10 	srl  %g1, 0x10, %g1
40001948:	82 08 60 0f 	and  %g1, 0xf, %g1
4000194c:	c2 20 a2 3c 	st  %g1, [ %g2 + 0x23c ]
40001950:	c4 07 bf f8 	ld  [ %fp + -8 ], %g2
40001954:	80 a0 a3 00 	cmp  %g2, 0x300
40001958:	18 bf ff d2 	bgu  400018a0 <__bcc_int_init+0xbc>
4000195c:	03 10 00 3e 	sethi  %hi(0x4000f800), %g1
40001960:	c0 20 62 38 	clr  [ %g1 + 0x238 ]	! 4000fa38 <__bcc_int_irqmp_map>
40001964:	80 a0 a1 00 	cmp  %g2, 0x100
40001968:	18 bf ff e0 	bgu  400018e8 <__bcc_int_init+0x104>
4000196c:	82 10 20 00 	clr  %g1
40001970:	05 10 00 3e 	sethi  %hi(0x4000f800), %g2
40001974:	c2 20 a2 34 	st  %g1, [ %g2 + 0x234 ]	! 4000fa34 <__bcc_int_irqmp_nts>
40001978:	81 c7 e0 08 	ret 
4000197c:	91 e8 20 00 	restore  %g0, 0, %o0
40001980:	c2 22 22 00 	st  %g1, [ %o0 + 0x200 ]
40001984:	05 10 00 3e 	sethi  %hi(0x4000f800), %g2
40001988:	82 10 20 00 	clr  %g1
4000198c:	10 bf ff d7 	b  400018e8 <__bcc_int_init+0x104>
40001990:	c2 20 a2 38 	st  %g1, [ %g2 + 0x238 ]

40001994 <__bcc_con_init>:
40001994:	9d e3 bf 98 	save  %sp, -104, %sp
40001998:	3b 10 00 3e 	sethi  %hi(0x4000f800), %i5
4000199c:	c2 07 62 44 	ld  [ %i5 + 0x244 ], %g1	! 4000fa44 <__bcc_con_handle>
400019a0:	80 a0 60 00 	cmp  %g1, 0
400019a4:	12 80 00 0e 	bne  400019dc <__bcc_con_init+0x48>
400019a8:	b0 10 20 00 	clr  %i0
400019ac:	c0 23 a0 5c 	clr  [ %sp + 0x5c ]
400019b0:	98 10 20 04 	mov  4, %o4
400019b4:	96 10 20 04 	mov  4, %o3
400019b8:	94 10 20 0c 	mov  0xc, %o2
400019bc:	92 10 20 01 	mov  1, %o1
400019c0:	1b 10 00 08 	sethi  %hi(0x40002000), %o5
400019c4:	11 3f fc 00 	sethi  %hi(0xfff00000), %o0
400019c8:	40 00 01 e0 	call  40002148 <ambapp_visit>
400019cc:	9a 13 61 7c 	or  %o5, 0x17c, %o5
400019d0:	80 a0 00 08 	cmp  %g0, %o0
400019d4:	d0 27 62 44 	st  %o0, [ %i5 + 0x244 ]
400019d8:	b0 60 3f ff 	subx  %g0, -1, %i0
400019dc:	81 c7 e0 08 	ret 
400019e0:	81 e8 00 00 	restore 

400019e4 <__bcc_timer_init>:
400019e4:	9d e3 bf 88 	save  %sp, -120, %sp
400019e8:	3b 10 00 3e 	sethi  %hi(0x4000f800), %i5
400019ec:	c2 07 62 4c 	ld  [ %i5 + 0x24c ], %g1	! 4000fa4c <__bcc_timer_handle>
400019f0:	80 a0 60 00 	cmp  %g1, 0
400019f4:	02 80 00 04 	be  40001a04 <__bcc_timer_init+0x20>
400019f8:	b0 10 20 00 	clr  %i0
400019fc:	81 c7 e0 08 	ret 
40001a00:	81 e8 00 00 	restore 
40001a04:	82 07 bf f0 	add  %fp, -16, %g1
40001a08:	1b 10 00 08 	sethi  %hi(0x40002000), %o5
40001a0c:	c2 23 a0 5c 	st  %g1, [ %sp + 0x5c ]
40001a10:	9a 13 61 7c 	or  %o5, 0x17c, %o5
40001a14:	98 10 20 04 	mov  4, %o4
40001a18:	96 10 20 04 	mov  4, %o3
40001a1c:	94 10 20 11 	mov  0x11, %o2
40001a20:	92 10 20 01 	mov  1, %o1
40001a24:	40 00 01 c9 	call  40002148 <ambapp_visit>
40001a28:	11 3f fc 00 	sethi  %hi(0xfff00000), %o0
40001a2c:	d0 27 62 4c 	st  %o0, [ %i5 + 0x24c ]
40001a30:	80 a2 20 00 	cmp  %o0, 0
40001a34:	02 bf ff f2 	be  400019fc <__bcc_timer_init+0x18>
40001a38:	b0 10 20 01 	mov  1, %i0
40001a3c:	c4 0f bf f1 	ldub  [ %fp + -15 ], %g2
40001a40:	03 10 00 3e 	sethi  %hi(0x4000f800), %g1
40001a44:	c4 20 62 48 	st  %g2, [ %g1 + 0x248 ]	! 4000fa48 <__bcc_timer_interrupt>
40001a48:	81 c7 e0 08 	ret 
40001a4c:	91 e8 20 00 	restore  %g0, 0, %o0

40001a50 <ambapp_get_ahbinfo>:
40001a50:	80 a2 60 00 	cmp  %o1, 0
40001a54:	02 80 00 80 	be  40001c54 <ambapp_get_ahbinfo+0x204>
40001a58:	80 a2 a0 00 	cmp  %o2, 0
40001a5c:	02 80 00 a8 	be  40001cfc <ambapp_get_ahbinfo+0x2ac>
40001a60:	01 00 00 00 	nop 
40001a64:	c4 02 40 00 	ld  [ %o1 ], %g2
40001a68:	d2 22 a0 34 	st  %o1, [ %o2 + 0x34 ]
40001a6c:	83 30 a0 05 	srl  %g2, 5, %g1
40001a70:	84 08 a0 1f 	and  %g2, 0x1f, %g2
40001a74:	86 08 60 1f 	and  %g1, 0x1f, %g3
40001a78:	82 08 60 60 	and  %g1, 0x60, %g1
40001a7c:	c6 2a 80 00 	stb  %g3, [ %o2 ]
40001a80:	82 10 40 02 	or  %g1, %g2, %g1
40001a84:	c2 2a a0 01 	stb  %g1, [ %o2 + 1 ]
40001a88:	c2 02 60 10 	ld  [ %o1 + 0x10 ], %g1
40001a8c:	80 a0 60 00 	cmp  %g1, 0
40001a90:	22 80 00 4c 	be,a   40001bc0 <ambapp_get_ahbinfo+0x170>
40001a94:	82 10 20 00 	clr  %g1
40001a98:	85 28 60 10 	sll  %g1, 0x10, %g2
40001a9c:	86 08 60 0f 	and  %g1, 0xf, %g3
40001aa0:	84 08 80 01 	and  %g2, %g1, %g2
40001aa4:	09 3f fc 00 	sethi  %hi(0xfff00000), %g4
40001aa8:	80 a0 e0 03 	cmp  %g3, 3
40001aac:	02 80 00 8b 	be  40001cd8 <ambapp_get_ahbinfo+0x288>
40001ab0:	84 08 80 04 	and  %g2, %g4, %g2
40001ab4:	83 30 60 04 	srl  %g1, 4, %g1
40001ab8:	83 28 60 14 	sll  %g1, 0x14, %g1
40001abc:	80 a0 00 01 	cmp  %g0, %g1
40001ac0:	88 60 20 00 	subx  %g0, 0, %g4
40001ac4:	82 29 00 01 	andn  %g4, %g1, %g1
40001ac8:	c6 2a a0 0c 	stb  %g3, [ %o2 + 0xc ]
40001acc:	c2 22 a0 08 	st  %g1, [ %o2 + 8 ]
40001ad0:	c4 22 a0 04 	st  %g2, [ %o2 + 4 ]
40001ad4:	c2 02 60 14 	ld  [ %o1 + 0x14 ], %g1
40001ad8:	80 a0 60 00 	cmp  %g1, 0
40001adc:	22 80 00 43 	be,a   40001be8 <ambapp_get_ahbinfo+0x198>
40001ae0:	82 10 20 00 	clr  %g1
40001ae4:	85 28 60 10 	sll  %g1, 0x10, %g2
40001ae8:	86 08 60 0f 	and  %g1, 0xf, %g3
40001aec:	84 08 80 01 	and  %g2, %g1, %g2
40001af0:	09 3f fc 00 	sethi  %hi(0xfff00000), %g4
40001af4:	80 a0 e0 03 	cmp  %g3, 3
40001af8:	02 80 00 6f 	be  40001cb4 <ambapp_get_ahbinfo+0x264>
40001afc:	84 08 80 04 	and  %g2, %g4, %g2
40001b00:	83 30 60 04 	srl  %g1, 4, %g1
40001b04:	83 28 60 14 	sll  %g1, 0x14, %g1
40001b08:	80 a0 00 01 	cmp  %g0, %g1
40001b0c:	88 60 20 00 	subx  %g0, 0, %g4
40001b10:	82 29 00 01 	andn  %g4, %g1, %g1
40001b14:	c6 2a a0 18 	stb  %g3, [ %o2 + 0x18 ]
40001b18:	c2 22 a0 14 	st  %g1, [ %o2 + 0x14 ]
40001b1c:	c4 22 a0 10 	st  %g2, [ %o2 + 0x10 ]
40001b20:	c2 02 60 18 	ld  [ %o1 + 0x18 ], %g1
40001b24:	80 a0 60 00 	cmp  %g1, 0
40001b28:	22 80 00 3a 	be,a   40001c10 <ambapp_get_ahbinfo+0x1c0>
40001b2c:	82 10 20 00 	clr  %g1
40001b30:	85 28 60 10 	sll  %g1, 0x10, %g2
40001b34:	86 08 60 0f 	and  %g1, 0xf, %g3
40001b38:	84 08 80 01 	and  %g2, %g1, %g2
40001b3c:	09 3f fc 00 	sethi  %hi(0xfff00000), %g4
40001b40:	80 a0 e0 03 	cmp  %g3, 3
40001b44:	02 80 00 53 	be  40001c90 <ambapp_get_ahbinfo+0x240>
40001b48:	84 08 80 04 	and  %g2, %g4, %g2
40001b4c:	83 30 60 04 	srl  %g1, 4, %g1
40001b50:	83 28 60 14 	sll  %g1, 0x14, %g1
40001b54:	80 a0 00 01 	cmp  %g0, %g1
40001b58:	88 60 20 00 	subx  %g0, 0, %g4
40001b5c:	82 29 00 01 	andn  %g4, %g1, %g1
40001b60:	c6 2a a0 24 	stb  %g3, [ %o2 + 0x24 ]
40001b64:	c2 22 a0 20 	st  %g1, [ %o2 + 0x20 ]
40001b68:	c4 22 a0 1c 	st  %g2, [ %o2 + 0x1c ]
40001b6c:	c2 02 60 1c 	ld  [ %o1 + 0x1c ], %g1
40001b70:	80 a0 60 00 	cmp  %g1, 0
40001b74:	22 80 00 31 	be,a   40001c38 <ambapp_get_ahbinfo+0x1e8>
40001b78:	82 10 20 00 	clr  %g1
40001b7c:	85 28 60 10 	sll  %g1, 0x10, %g2
40001b80:	86 08 60 0f 	and  %g1, 0xf, %g3
40001b84:	84 08 80 01 	and  %g2, %g1, %g2
40001b88:	09 3f fc 00 	sethi  %hi(0xfff00000), %g4
40001b8c:	80 a0 e0 03 	cmp  %g3, 3
40001b90:	02 80 00 33 	be  40001c5c <ambapp_get_ahbinfo+0x20c>
40001b94:	84 08 80 04 	and  %g2, %g4, %g2
40001b98:	83 30 60 04 	srl  %g1, 4, %g1
40001b9c:	c4 22 a0 28 	st  %g2, [ %o2 + 0x28 ]
40001ba0:	83 28 60 14 	sll  %g1, 0x14, %g1
40001ba4:	c6 2a a0 30 	stb  %g3, [ %o2 + 0x30 ]
40001ba8:	80 a0 00 01 	cmp  %g0, %g1
40001bac:	90 10 20 00 	clr  %o0
40001bb0:	88 60 20 00 	subx  %g0, 0, %g4
40001bb4:	82 29 00 01 	andn  %g4, %g1, %g1
40001bb8:	81 c3 e0 08 	retl 
40001bbc:	c2 22 a0 2c 	st  %g1, [ %o2 + 0x2c ]
40001bc0:	84 10 20 00 	clr  %g2
40001bc4:	86 10 20 00 	clr  %g3
40001bc8:	c2 22 a0 08 	st  %g1, [ %o2 + 8 ]
40001bcc:	c6 2a a0 0c 	stb  %g3, [ %o2 + 0xc ]
40001bd0:	c4 22 a0 04 	st  %g2, [ %o2 + 4 ]
40001bd4:	c2 02 60 14 	ld  [ %o1 + 0x14 ], %g1
40001bd8:	80 a0 60 00 	cmp  %g1, 0
40001bdc:	12 bf ff c3 	bne  40001ae8 <ambapp_get_ahbinfo+0x98>
40001be0:	85 28 60 10 	sll  %g1, 0x10, %g2
40001be4:	82 10 20 00 	clr  %g1
40001be8:	84 10 20 00 	clr  %g2
40001bec:	86 10 20 00 	clr  %g3
40001bf0:	c2 22 a0 14 	st  %g1, [ %o2 + 0x14 ]
40001bf4:	c6 2a a0 18 	stb  %g3, [ %o2 + 0x18 ]
40001bf8:	c4 22 a0 10 	st  %g2, [ %o2 + 0x10 ]
40001bfc:	c2 02 60 18 	ld  [ %o1 + 0x18 ], %g1
40001c00:	80 a0 60 00 	cmp  %g1, 0
40001c04:	12 bf ff cc 	bne  40001b34 <ambapp_get_ahbinfo+0xe4>
40001c08:	85 28 60 10 	sll  %g1, 0x10, %g2
40001c0c:	82 10 20 00 	clr  %g1
40001c10:	84 10 20 00 	clr  %g2
40001c14:	86 10 20 00 	clr  %g3
40001c18:	c2 22 a0 20 	st  %g1, [ %o2 + 0x20 ]
40001c1c:	c6 2a a0 24 	stb  %g3, [ %o2 + 0x24 ]
40001c20:	c4 22 a0 1c 	st  %g2, [ %o2 + 0x1c ]
40001c24:	c2 02 60 1c 	ld  [ %o1 + 0x1c ], %g1
40001c28:	80 a0 60 00 	cmp  %g1, 0
40001c2c:	12 bf ff d5 	bne  40001b80 <ambapp_get_ahbinfo+0x130>
40001c30:	85 28 60 10 	sll  %g1, 0x10, %g2
40001c34:	82 10 20 00 	clr  %g1
40001c38:	84 10 20 00 	clr  %g2
40001c3c:	86 10 20 00 	clr  %g3
40001c40:	c4 22 a0 28 	st  %g2, [ %o2 + 0x28 ]
40001c44:	c2 22 a0 2c 	st  %g1, [ %o2 + 0x2c ]
40001c48:	c6 2a a0 30 	stb  %g3, [ %o2 + 0x30 ]
40001c4c:	81 c3 e0 08 	retl 
40001c50:	90 10 20 00 	clr  %o0
40001c54:	81 c3 e0 08 	retl 
40001c58:	90 10 20 01 	mov  1, %o0
40001c5c:	85 30 a0 0c 	srl  %g2, 0xc, %g2
40001c60:	82 38 00 01 	xnor  %g0, %g1, %g1
40001c64:	84 12 00 02 	or  %o0, %g2, %g2
40001c68:	83 28 60 04 	sll  %g1, 4, %g1
40001c6c:	09 00 03 ff 	sethi  %hi(0xffc00), %g4
40001c70:	c4 22 a0 28 	st  %g2, [ %o2 + 0x28 ]
40001c74:	88 11 23 00 	or  %g4, 0x300, %g4
40001c78:	c6 2a a0 30 	stb  %g3, [ %o2 + 0x30 ]
40001c7c:	82 08 40 04 	and  %g1, %g4, %g1
40001c80:	90 10 20 00 	clr  %o0
40001c84:	82 10 60 ff 	or  %g1, 0xff, %g1
40001c88:	81 c3 e0 08 	retl 
40001c8c:	c2 22 a0 2c 	st  %g1, [ %o2 + 0x2c ]
40001c90:	85 30 a0 0c 	srl  %g2, 0xc, %g2
40001c94:	82 38 00 01 	xnor  %g0, %g1, %g1
40001c98:	09 00 03 ff 	sethi  %hi(0xffc00), %g4
40001c9c:	83 28 60 04 	sll  %g1, 4, %g1
40001ca0:	88 11 23 00 	or  %g4, 0x300, %g4
40001ca4:	84 12 00 02 	or  %o0, %g2, %g2
40001ca8:	82 08 40 04 	and  %g1, %g4, %g1
40001cac:	10 bf ff ad 	b  40001b60 <ambapp_get_ahbinfo+0x110>
40001cb0:	82 10 60 ff 	or  %g1, 0xff, %g1
40001cb4:	85 30 a0 0c 	srl  %g2, 0xc, %g2
40001cb8:	82 38 00 01 	xnor  %g0, %g1, %g1
40001cbc:	09 00 03 ff 	sethi  %hi(0xffc00), %g4
40001cc0:	83 28 60 04 	sll  %g1, 4, %g1
40001cc4:	88 11 23 00 	or  %g4, 0x300, %g4
40001cc8:	84 12 00 02 	or  %o0, %g2, %g2
40001ccc:	82 08 40 04 	and  %g1, %g4, %g1
40001cd0:	10 bf ff 91 	b  40001b14 <ambapp_get_ahbinfo+0xc4>
40001cd4:	82 10 60 ff 	or  %g1, 0xff, %g1
40001cd8:	85 30 a0 0c 	srl  %g2, 0xc, %g2
40001cdc:	82 38 00 01 	xnor  %g0, %g1, %g1
40001ce0:	09 00 03 ff 	sethi  %hi(0xffc00), %g4
40001ce4:	83 28 60 04 	sll  %g1, 4, %g1
40001ce8:	88 11 23 00 	or  %g4, 0x300, %g4
40001cec:	84 12 00 02 	or  %o0, %g2, %g2
40001cf0:	82 08 40 04 	and  %g1, %g4, %g1
40001cf4:	10 bf ff 75 	b  40001ac8 <ambapp_get_ahbinfo+0x78>
40001cf8:	82 10 60 ff 	or  %g1, 0xff, %g1
40001cfc:	81 c3 e0 08 	retl 
40001d00:	90 10 20 02 	mov  2, %o0

40001d04 <ambapp_visit_ahbctrl>:
40001d04:	9d e3 bf 50 	save  %sp, -176, %sp
40001d08:	f6 27 bf bc 	st  %i3, [ %fp + -68 ]
40001d0c:	f0 27 bf b8 	st  %i0, [ %fp + -72 ]
40001d10:	ec 07 a0 5c 	ld  [ %fp + 0x5c ], %l6
40001d14:	80 8e e0 01 	btst  1, %i3
40001d18:	02 80 00 35 	be  40001dec <ambapp_visit_ahbctrl+0xe8>
40001d1c:	ea 07 a0 60 	ld  [ %fp + 0x60 ], %l5
40001d20:	80 a0 00 19 	cmp  %g0, %i1
40001d24:	a4 60 3f ff 	subx  %g0, -1, %l2
40001d28:	80 a0 00 1a 	cmp  %g0, %i2
40001d2c:	21 00 03 fc 	sethi  %hi(0xff000), %l0
40001d30:	a6 60 3f ff 	subx  %g0, -1, %l3
40001d34:	a0 16 00 10 	or  %i0, %l0, %l0
40001d38:	80 a0 00 16 	cmp  %g0, %l6
40001d3c:	ae 10 00 18 	mov  %i0, %l7
40001d40:	a2 04 28 00 	add  %l0, 0x800, %l1
40001d44:	10 80 00 06 	b  40001d5c <ambapp_visit_ahbctrl+0x58>
40001d48:	a8 40 20 00 	addx  %g0, 0, %l4
40001d4c:	a0 04 20 20 	add  %l0, 0x20, %l0
40001d50:	80 a4 00 11 	cmp  %l0, %l1
40001d54:	02 80 00 27 	be  40001df0 <ambapp_visit_ahbctrl+0xec>
40001d58:	c2 07 bf b8 	ld  [ %fp + -72 ], %g1
40001d5c:	c2 04 00 00 	ld  [ %l0 ], %g1
40001d60:	b1 30 60 18 	srl  %g1, 0x18, %i0
40001d64:	83 30 60 0c 	srl  %g1, 0xc, %g1
40001d68:	b6 08 6f ff 	and  %g1, 0xfff, %i3
40001d6c:	80 96 00 1b 	orcc  %i0, %i3, %g0
40001d70:	22 bf ff f8 	be,a   40001d50 <ambapp_visit_ahbctrl+0x4c>
40001d74:	a0 04 20 20 	add  %l0, 0x20, %l0
40001d78:	80 a4 a0 00 	cmp  %l2, 0
40001d7c:	12 80 00 05 	bne  40001d90 <ambapp_visit_ahbctrl+0x8c>
40001d80:	82 1e c0 1a 	xor  %i3, %i2, %g1
40001d84:	80 a6 00 19 	cmp  %i0, %i1
40001d88:	32 bf ff f2 	bne,a   40001d50 <ambapp_visit_ahbctrl+0x4c>
40001d8c:	a0 04 20 20 	add  %l0, 0x20, %l0
40001d90:	80 a0 00 01 	cmp  %g0, %g1
40001d94:	82 60 3f ff 	subx  %g0, -1, %g1
40001d98:	80 94 c0 01 	orcc  %l3, %g1, %g0
40001d9c:	02 bf ff ec 	be  40001d4c <ambapp_visit_ahbctrl+0x48>
40001da0:	92 10 00 10 	mov  %l0, %o1
40001da4:	94 07 bf c8 	add  %fp, -56, %o2
40001da8:	80 a5 20 00 	cmp  %l4, 0
40001dac:	02 bf ff e8 	be  40001d4c <ambapp_visit_ahbctrl+0x48>
40001db0:	90 10 00 17 	mov  %l7, %o0
40001db4:	7f ff ff 27 	call  40001a50 <ambapp_get_ahbinfo>
40001db8:	01 00 00 00 	nop 
40001dbc:	9a 10 00 15 	mov  %l5, %o5
40001dc0:	98 10 00 1c 	mov  %i4, %o4
40001dc4:	96 10 20 01 	mov  1, %o3
40001dc8:	94 10 00 1b 	mov  %i3, %o2
40001dcc:	92 10 00 18 	mov  %i0, %o1
40001dd0:	9f c5 80 00 	call  %l6
40001dd4:	90 07 bf c8 	add  %fp, -56, %o0
40001dd8:	80 a2 20 00 	cmp  %o0, 0
40001ddc:	02 bf ff dd 	be  40001d50 <ambapp_visit_ahbctrl+0x4c>
40001de0:	a0 04 20 20 	add  %l0, 0x20, %l0
40001de4:	81 c7 e0 08 	ret 
40001de8:	91 e8 00 08 	restore  %g0, %o0, %o0
40001dec:	c2 07 bf b8 	ld  [ %fp + -72 ], %g1
40001df0:	80 a0 00 19 	cmp  %g0, %i1
40001df4:	21 00 03 fe 	sethi  %hi(0xff800), %l0
40001df8:	a0 10 40 10 	or  %g1, %l0, %l0
40001dfc:	c2 07 bf bc 	ld  [ %fp + -68 ], %g1
40001e00:	a6 08 60 02 	and  %g1, 2, %l3
40001e04:	82 08 60 04 	and  %g1, 4, %g1
40001e08:	a4 60 3f ff 	subx  %g0, -1, %l2
40001e0c:	c2 27 bf c4 	st  %g1, [ %fp + -60 ]
40001e10:	80 a0 00 16 	cmp  %g0, %l6
40001e14:	86 07 20 01 	add  %i4, 1, %g3
40001e18:	82 40 20 00 	addx  %g0, 0, %g1
40001e1c:	ec 27 a0 5c 	st  %l6, [ %fp + 0x5c ]
40001e20:	a8 04 28 00 	add  %l0, 0x800, %l4
40001e24:	c2 27 bf c0 	st  %g1, [ %fp + -64 ]
40001e28:	a2 10 00 15 	mov  %l5, %l1
40001e2c:	ac 10 00 03 	mov  %g3, %l6
40001e30:	f6 04 00 00 	ld  [ %l0 ], %i3
40001e34:	80 a4 e0 00 	cmp  %l3, 0
40001e38:	b1 36 e0 0c 	srl  %i3, 0xc, %i0
40001e3c:	b7 36 e0 18 	srl  %i3, 0x18, %i3
40001e40:	02 80 00 0a 	be  40001e68 <ambapp_visit_ahbctrl+0x164>
40001e44:	aa 0e 2f ff 	and  %i0, 0xfff, %l5
40001e48:	80 96 c0 15 	orcc  %i3, %l5, %g0
40001e4c:	22 80 00 6d 	be,a   40002000 <ambapp_visit_ahbctrl+0x2fc>
40001e50:	a0 04 20 20 	add  %l0, 0x20, %l0
40001e54:	80 a4 a0 00 	cmp  %l2, 0
40001e58:	12 80 00 70 	bne  40002018 <ambapp_visit_ahbctrl+0x314>
40001e5c:	80 a6 40 1b 	cmp  %i1, %i3
40001e60:	02 80 00 6f 	be  4000201c <ambapp_visit_ahbctrl+0x318>
40001e64:	80 a0 00 1a 	cmp  %g0, %i2
40001e68:	80 a7 00 1d 	cmp  %i4, %i5
40001e6c:	1a 80 00 64 	bcc  40001ffc <ambapp_visit_ahbctrl+0x2f8>
40001e70:	82 1e e0 01 	xor  %i3, 1, %g1
40001e74:	80 a0 00 01 	cmp  %g0, %g1
40001e78:	b0 0e 2f fb 	and  %i0, 0xffb, %i0
40001e7c:	9e 60 3f ff 	subx  %g0, -1, %o7
40001e80:	b0 1e 20 4b 	xor  %i0, 0x4b, %i0
40001e84:	80 a0 00 18 	cmp  %g0, %i0
40001e88:	84 1d 60 20 	xor  %l5, 0x20, %g2
40001e8c:	82 60 3f ff 	subx  %g0, -1, %g1
40001e90:	80 a0 00 02 	cmp  %g0, %g2
40001e94:	84 60 3f ff 	subx  %g0, -1, %g2
40001e98:	82 10 40 02 	or  %g1, %g2, %g1
40001e9c:	80 a0 60 00 	cmp  %g1, 0
40001ea0:	02 80 00 86 	be  400020b8 <ambapp_visit_ahbctrl+0x3b4>
40001ea4:	b0 10 00 01 	mov  %g1, %i0
40001ea8:	80 a6 e0 01 	cmp  %i3, 1
40001eac:	32 80 00 55 	bne,a   40002000 <ambapp_visit_ahbctrl+0x2fc>
40001eb0:	a0 04 20 20 	add  %l0, 0x20, %l0
40001eb4:	d0 04 20 08 	ld  [ %l0 + 8 ], %o0
40001eb8:	80 a2 20 00 	cmp  %o0, 0
40001ebc:	12 80 00 72 	bne  40002084 <ambapp_visit_ahbctrl+0x380>
40001ec0:	c2 07 a0 5c 	ld  [ %fp + 0x5c ], %g1
40001ec4:	c2 07 bf c4 	ld  [ %fp + -60 ], %g1
40001ec8:	80 a0 60 00 	cmp  %g1, 0
40001ecc:	22 80 00 4d 	be,a   40002000 <ambapp_visit_ahbctrl+0x2fc>
40001ed0:	a0 04 20 20 	add  %l0, 0x20, %l0
40001ed4:	80 a5 60 06 	cmp  %l5, 6
40001ed8:	12 80 00 49 	bne  40001ffc <ambapp_visit_ahbctrl+0x2f8>
40001edc:	80 8e 20 ff 	btst  0xff, %i0
40001ee0:	02 80 00 47 	be  40001ffc <ambapp_visit_ahbctrl+0x2f8>
40001ee4:	80 a0 00 1a 	cmp  %g0, %i2
40001ee8:	c2 04 20 10 	ld  [ %l0 + 0x10 ], %g1
40001eec:	af 28 60 10 	sll  %g1, 0x10, %l7
40001ef0:	37 00 03 fc 	sethi  %hi(0xff000), %i3
40001ef4:	ae 0d c0 01 	and  %l7, %g1, %l7
40001ef8:	aa 60 3f ff 	subx  %g0, -1, %l5
40001efc:	03 3f fc 00 	sethi  %hi(0xfff00000), %g1
40001f00:	ae 0d c0 01 	and  %l7, %g1, %l7
40001f04:	b6 15 c0 1b 	or  %l7, %i3, %i3
40001f08:	10 80 00 06 	b  40001f20 <ambapp_visit_ahbctrl+0x21c>
40001f0c:	b0 06 e0 80 	add  %i3, 0x80, %i0
40001f10:	b6 06 e0 08 	add  %i3, 8, %i3
40001f14:	80 a6 00 1b 	cmp  %i0, %i3
40001f18:	22 80 00 3a 	be,a   40002000 <ambapp_visit_ahbctrl+0x2fc>
40001f1c:	a0 04 20 20 	add  %l0, 0x20, %l0
40001f20:	c2 06 c0 00 	ld  [ %i3 ], %g1
40001f24:	93 30 60 18 	srl  %g1, 0x18, %o1
40001f28:	95 30 60 0c 	srl  %g1, 0xc, %o2
40001f2c:	94 0a af ff 	and  %o2, 0xfff, %o2
40001f30:	80 92 40 0a 	orcc  %o1, %o2, %g0
40001f34:	22 bf ff f8 	be,a   40001f14 <ambapp_visit_ahbctrl+0x210>
40001f38:	b6 06 e0 08 	add  %i3, 8, %i3
40001f3c:	80 a4 a0 00 	cmp  %l2, 0
40001f40:	12 80 00 05 	bne  40001f54 <ambapp_visit_ahbctrl+0x250>
40001f44:	84 1e 80 0a 	xor  %i2, %o2, %g2
40001f48:	80 a6 40 09 	cmp  %i1, %o1
40001f4c:	32 bf ff f2 	bne,a   40001f14 <ambapp_visit_ahbctrl+0x210>
40001f50:	b6 06 e0 08 	add  %i3, 8, %i3
40001f54:	80 a0 00 02 	cmp  %g0, %g2
40001f58:	84 60 3f ff 	subx  %g0, -1, %g2
40001f5c:	80 95 40 02 	orcc  %l5, %g2, %g0
40001f60:	02 bf ff ec 	be  40001f10 <ambapp_visit_ahbctrl+0x20c>
40001f64:	87 30 60 05 	srl  %g1, 5, %g3
40001f68:	84 08 e0 1f 	and  %g3, 0x1f, %g2
40001f6c:	86 08 e0 60 	and  %g3, 0x60, %g3
40001f70:	82 08 60 1f 	and  %g1, 0x1f, %g1
40001f74:	9a 10 00 11 	mov  %l1, %o5
40001f78:	82 10 c0 01 	or  %g3, %g1, %g1
40001f7c:	98 10 00 16 	mov  %l6, %o4
40001f80:	c6 07 bf c0 	ld  [ %fp + -64 ], %g3
40001f84:	96 10 20 04 	mov  4, %o3
40001f88:	80 a0 e0 00 	cmp  %g3, 0
40001f8c:	02 bf ff e1 	be  40001f10 <ambapp_visit_ahbctrl+0x20c>
40001f90:	90 07 bf c8 	add  %fp, -56, %o0
40001f94:	c2 2f bf c9 	stb  %g1, [ %fp + -55 ]
40001f98:	c4 2f bf c8 	stb  %g2, [ %fp + -56 ]
40001f9c:	c4 06 e0 04 	ld  [ %i3 + 4 ], %g2
40001fa0:	87 28 a0 04 	sll  %g2, 4, %g3
40001fa4:	83 30 a0 0c 	srl  %g2, 0xc, %g1
40001fa8:	84 10 00 03 	mov  %g3, %g2
40001fac:	82 08 40 03 	and  %g1, %g3, %g1
40001fb0:	07 00 03 ff 	sethi  %hi(0xffc00), %g3
40001fb4:	88 10 e3 00 	or  %g3, 0x300, %g4	! fff00 <__data_size+0xff8f0>
40001fb8:	86 10 e3 ff 	or  %g3, 0x3ff, %g3
40001fbc:	84 08 80 04 	and  %g2, %g4, %g2
40001fc0:	82 08 40 04 	and  %g1, %g4, %g1
40001fc4:	84 18 80 03 	xor  %g2, %g3, %g2
40001fc8:	82 10 40 17 	or  %g1, %l7, %g1
40001fcc:	f6 27 bf d4 	st  %i3, [ %fp + -44 ]
40001fd0:	c2 27 bf cc 	st  %g1, [ %fp + -52 ]
40001fd4:	c4 27 bf d0 	st  %g2, [ %fp + -48 ]
40001fd8:	c2 07 a0 5c 	ld  [ %fp + 0x5c ], %g1
40001fdc:	9f c0 40 00 	call  %g1
40001fe0:	01 00 00 00 	nop 
40001fe4:	80 a2 20 00 	cmp  %o0, 0
40001fe8:	12 bf ff 7f 	bne  40001de4 <ambapp_visit_ahbctrl+0xe0>
40001fec:	b6 06 e0 08 	add  %i3, 8, %i3
40001ff0:	80 a6 00 1b 	cmp  %i0, %i3
40001ff4:	32 bf ff cc 	bne,a   40001f24 <ambapp_visit_ahbctrl+0x220>
40001ff8:	c2 06 c0 00 	ld  [ %i3 ], %g1
40001ffc:	a0 04 20 20 	add  %l0, 0x20, %l0
40002000:	80 a4 00 14 	cmp  %l0, %l4
40002004:	32 bf ff 8c 	bne,a   40001e34 <ambapp_visit_ahbctrl+0x130>
40002008:	f6 04 00 00 	ld  [ %l0 ], %i3
4000200c:	90 10 20 00 	clr  %o0
40002010:	81 c7 e0 08 	ret 
40002014:	91 e8 00 08 	restore  %g0, %o0, %o0
40002018:	80 a0 00 1a 	cmp  %g0, %i2
4000201c:	82 1e 80 15 	xor  %i2, %l5, %g1
40002020:	84 60 3f ff 	subx  %g0, -1, %g2
40002024:	80 a0 00 01 	cmp  %g0, %g1
40002028:	82 60 3f ff 	subx  %g0, -1, %g1
4000202c:	80 90 80 01 	orcc  %g2, %g1, %g0
40002030:	02 bf ff 8e 	be  40001e68 <ambapp_visit_ahbctrl+0x164>
40002034:	c2 07 bf c0 	ld  [ %fp + -64 ], %g1
40002038:	80 a0 60 00 	cmp  %g1, 0
4000203c:	02 bf ff 8c 	be  40001e6c <ambapp_visit_ahbctrl+0x168>
40002040:	80 a7 00 1d 	cmp  %i4, %i5
40002044:	92 10 00 10 	mov  %l0, %o1
40002048:	94 07 bf c8 	add  %fp, -56, %o2
4000204c:	7f ff fe 81 	call  40001a50 <ambapp_get_ahbinfo>
40002050:	d0 07 bf b8 	ld  [ %fp + -72 ], %o0
40002054:	9a 10 00 11 	mov  %l1, %o5
40002058:	98 10 00 1c 	mov  %i4, %o4
4000205c:	96 10 20 02 	mov  2, %o3
40002060:	94 10 00 15 	mov  %l5, %o2
40002064:	92 10 00 1b 	mov  %i3, %o1
40002068:	c2 07 a0 5c 	ld  [ %fp + 0x5c ], %g1
4000206c:	9f c0 40 00 	call  %g1
40002070:	90 07 bf c8 	add  %fp, -56, %o0
40002074:	80 a2 20 00 	cmp  %o0, 0
40002078:	02 bf ff 7d 	be  40001e6c <ambapp_visit_ahbctrl+0x168>
4000207c:	80 a7 00 1d 	cmp  %i4, %i5
40002080:	30 bf ff 59 	b,a   40001de4 <ambapp_visit_ahbctrl+0xe0>
40002084:	e2 23 a0 60 	st  %l1, [ %sp + 0x60 ]
40002088:	c2 23 a0 5c 	st  %g1, [ %sp + 0x5c ]
4000208c:	9a 10 00 1d 	mov  %i5, %o5
40002090:	98 10 00 16 	mov  %l6, %o4
40002094:	d6 07 bf bc 	ld  [ %fp + -68 ], %o3
40002098:	94 10 00 1a 	mov  %i2, %o2
4000209c:	7f ff ff 1a 	call  40001d04 <ambapp_visit_ahbctrl>
400020a0:	92 10 00 19 	mov  %i1, %o1
400020a4:	80 a2 20 00 	cmp  %o0, 0
400020a8:	02 bf ff 88 	be  40001ec8 <ambapp_visit_ahbctrl+0x1c4>
400020ac:	c2 07 bf c4 	ld  [ %fp + -60 ], %g1
400020b0:	81 c7 e0 08 	ret 
400020b4:	91 e8 00 08 	restore  %g0, %o0, %o0
400020b8:	10 bf ff 83 	b  40001ec4 <ambapp_visit_ahbctrl+0x1c0>
400020bc:	b0 10 00 0f 	mov  %o7, %i0

400020c0 <ambapp_get_apbinfo>:
400020c0:	80 a2 60 00 	cmp  %o1, 0
400020c4:	02 80 00 1c 	be  40002134 <ambapp_get_apbinfo+0x74>
400020c8:	80 a2 a0 00 	cmp  %o2, 0
400020cc:	02 80 00 1d 	be  40002140 <ambapp_get_apbinfo+0x80>
400020d0:	03 00 03 ff 	sethi  %hi(0xffc00), %g1
400020d4:	c8 02 40 00 	ld  [ %o1 ], %g4
400020d8:	87 31 20 05 	srl  %g4, 5, %g3
400020dc:	98 10 63 00 	or  %g1, 0x300, %o4
400020e0:	84 08 e0 1f 	and  %g3, 0x1f, %g2
400020e4:	9a 09 20 1f 	and  %g4, 0x1f, %o5
400020e8:	c4 2a 80 00 	stb  %g2, [ %o2 ]
400020ec:	88 10 63 ff 	or  %g1, 0x3ff, %g4
400020f0:	86 08 e0 60 	and  %g3, 0x60, %g3
400020f4:	86 10 c0 0d 	or  %g3, %o5, %g3
400020f8:	c6 2a a0 01 	stb  %g3, [ %o2 + 1 ]
400020fc:	c2 02 60 04 	ld  [ %o1 + 4 ], %g1
40002100:	d2 22 a0 0c 	st  %o1, [ %o2 + 0xc ]
40002104:	85 30 60 0c 	srl  %g1, 0xc, %g2
40002108:	9b 28 60 04 	sll  %g1, 4, %o5
4000210c:	86 10 20 00 	clr  %g3
40002110:	84 08 80 0d 	and  %g2, %o5, %g2
40002114:	82 0b 40 0c 	and  %o5, %o4, %g1
40002118:	84 08 80 0c 	and  %g2, %o4, %g2
4000211c:	82 18 40 04 	xor  %g1, %g4, %g1
40002120:	84 10 80 08 	or  %g2, %o0, %g2
40002124:	c2 22 a0 08 	st  %g1, [ %o2 + 8 ]
40002128:	c4 22 a0 04 	st  %g2, [ %o2 + 4 ]
4000212c:	81 c3 e0 08 	retl 
40002130:	90 10 00 03 	mov  %g3, %o0
40002134:	86 10 20 01 	mov  1, %g3
40002138:	81 c3 e0 08 	retl 
4000213c:	90 10 00 03 	mov  %g3, %o0
40002140:	10 bf ff fb 	b  4000212c <ambapp_get_apbinfo+0x6c>
40002144:	86 10 20 02 	mov  2, %g3

40002148 <ambapp_visit>:
40002148:	9d e3 bf 98 	save  %sp, -104, %sp
4000214c:	c2 07 a0 5c 	ld  [ %fp + 0x5c ], %g1
40002150:	fa 23 a0 5c 	st  %i5, [ %sp + 0x5c ]
40002154:	c2 23 a0 60 	st  %g1, [ %sp + 0x60 ]
40002158:	9a 10 00 1c 	mov  %i4, %o5
4000215c:	98 10 20 00 	clr  %o4
40002160:	96 10 00 1b 	mov  %i3, %o3
40002164:	94 10 00 1a 	mov  %i2, %o2
40002168:	92 10 00 19 	mov  %i1, %o1
4000216c:	7f ff fe e6 	call  40001d04 <ambapp_visit_ahbctrl>
40002170:	90 10 00 18 	mov  %i0, %o0
40002174:	81 c7 e0 08 	ret 
40002178:	91 e8 00 08 	restore  %g0, %o0, %o0

4000217c <ambapp_findfirst_fn>:
4000217c:	9d e3 bf a0 	save  %sp, -96, %sp
40002180:	80 a7 60 00 	cmp  %i5, 0
40002184:	02 80 00 07 	be  400021a0 <ambapp_findfirst_fn+0x24>
40002188:	80 a6 e0 04 	cmp  %i3, 4
4000218c:	02 80 00 08 	be  400021ac <ambapp_findfirst_fn+0x30>
40002190:	b6 06 ff ff 	add  %i3, -1, %i3
40002194:	80 a6 e0 01 	cmp  %i3, 1
40002198:	08 80 00 10 	bleu  400021d8 <ambapp_findfirst_fn+0x5c>
4000219c:	92 10 00 18 	mov  %i0, %o1
400021a0:	f0 06 20 04 	ld  [ %i0 + 4 ], %i0
400021a4:	81 c7 e0 08 	ret 
400021a8:	81 e8 00 00 	restore 
400021ac:	c2 06 00 00 	ld  [ %i0 ], %g1
400021b0:	c2 27 40 00 	st  %g1, [ %i5 ]
400021b4:	c2 06 20 04 	ld  [ %i0 + 4 ], %g1
400021b8:	c2 27 60 04 	st  %g1, [ %i5 + 4 ]
400021bc:	c2 06 20 08 	ld  [ %i0 + 8 ], %g1
400021c0:	c2 27 60 08 	st  %g1, [ %i5 + 8 ]
400021c4:	c2 06 20 0c 	ld  [ %i0 + 0xc ], %g1
400021c8:	f0 06 20 04 	ld  [ %i0 + 4 ], %i0
400021cc:	c2 27 60 0c 	st  %g1, [ %i5 + 0xc ]
400021d0:	81 c7 e0 08 	ret 
400021d4:	81 e8 00 00 	restore 
400021d8:	94 10 20 38 	mov  0x38, %o2
400021dc:	40 00 00 1b 	call  40002248 <memcpy>
400021e0:	90 10 00 1d 	mov  %i5, %o0
400021e4:	f0 06 20 04 	ld  [ %i0 + 4 ], %i0
400021e8:	81 c7 e0 08 	ret 
400021ec:	81 e8 00 00 	restore 

400021f0 <atexit>:
400021f0:	92 10 00 08 	mov  %o0, %o1
400021f4:	96 10 20 00 	clr  %o3
400021f8:	94 10 20 00 	clr  %o2
400021fc:	90 10 20 00 	clr  %o0
40002200:	82 13 c0 00 	mov  %o7, %g1
40002204:	40 00 0c 6c 	call  400053b4 <__register_exitproc>
40002208:	9e 10 40 00 	mov  %g1, %o7

4000220c <exit>:
4000220c:	9d e3 bf a0 	save  %sp, -96, %sp
40002210:	92 10 20 00 	clr  %o1
40002214:	40 00 0c be 	call  4000550c <__call_exitprocs>
40002218:	90 10 00 18 	mov  %i0, %o0
4000221c:	03 10 00 3b 	sethi  %hi(0x4000ec00), %g1
40002220:	d0 00 61 04 	ld  [ %g1 + 0x104 ], %o0	! 4000ed04 <_global_impure_ptr>
40002224:	c2 02 20 28 	ld  [ %o0 + 0x28 ], %g1
40002228:	80 a0 60 00 	cmp  %g1, 0
4000222c:	02 80 00 04 	be  4000223c <exit+0x30>
40002230:	01 00 00 00 	nop 
40002234:	9f c0 40 00 	call  %g1
40002238:	01 00 00 00 	nop 
4000223c:	40 00 2e 93 	call  4000dc88 <_exit>
40002240:	90 10 00 18 	mov  %i0, %o0
40002244:	01 00 00 00 	nop 

40002248 <memcpy>:
40002248:	9d e3 bf a0 	save  %sp, -96, %sp
4000224c:	80 a6 a0 0f 	cmp  %i2, 0xf
40002250:	08 80 00 32 	bleu  40002318 <memcpy+0xd0>
40002254:	82 10 00 18 	mov  %i0, %g1
40002258:	82 16 40 18 	or  %i1, %i0, %g1
4000225c:	80 88 60 03 	btst  3, %g1
40002260:	12 80 00 59 	bne  400023c4 <memcpy+0x17c>
40002264:	b8 06 bf ff 	add  %i2, -1, %i4
40002268:	9e 06 bf f0 	add  %i2, -16, %o7
4000226c:	84 10 00 19 	mov  %i1, %g2
40002270:	9e 0b ff f0 	and  %o7, -16, %o7
40002274:	82 10 00 18 	mov  %i0, %g1
40002278:	9e 03 e0 10 	add  %o7, 0x10, %o7
4000227c:	b6 06 00 0f 	add  %i0, %o7, %i3
40002280:	82 00 60 10 	add  %g1, 0x10, %g1
40002284:	f8 00 a0 04 	ld  [ %g2 + 4 ], %i4
40002288:	c8 00 a0 08 	ld  [ %g2 + 8 ], %g4
4000228c:	c6 00 a0 0c 	ld  [ %g2 + 0xc ], %g3
40002290:	fa 00 80 00 	ld  [ %g2 ], %i5
40002294:	f8 20 7f f4 	st  %i4, [ %g1 + -12 ]
40002298:	fa 20 7f f0 	st  %i5, [ %g1 + -16 ]
4000229c:	c8 20 7f f8 	st  %g4, [ %g1 + -8 ]
400022a0:	c6 20 7f fc 	st  %g3, [ %g1 + -4 ]
400022a4:	80 a6 c0 01 	cmp  %i3, %g1
400022a8:	12 bf ff f6 	bne  40002280 <memcpy+0x38>
400022ac:	84 00 a0 10 	add  %g2, 0x10, %g2
400022b0:	b2 06 40 0f 	add  %i1, %o7, %i1
400022b4:	80 8e a0 0c 	btst  0xc, %i2
400022b8:	02 80 00 45 	be  400023cc <memcpy+0x184>
400022bc:	86 0e a0 0f 	and  %i2, 0xf, %g3
400022c0:	c4 06 40 00 	ld  [ %i1 ], %g2
400022c4:	c4 20 40 00 	st  %g2, [ %g1 ]
400022c8:	84 00 ff fc 	add  %g3, -4, %g2
400022cc:	80 a0 a0 03 	cmp  %g2, 3
400022d0:	08 80 00 08 	bleu  400022f0 <memcpy+0xa8>
400022d4:	86 00 ff f8 	add  %g3, -8, %g3
400022d8:	c8 06 60 04 	ld  [ %i1 + 4 ], %g4
400022dc:	80 a0 e0 03 	cmp  %g3, 3
400022e0:	08 80 00 04 	bleu  400022f0 <memcpy+0xa8>
400022e4:	c8 20 60 04 	st  %g4, [ %g1 + 4 ]
400022e8:	c6 06 60 08 	ld  [ %i1 + 8 ], %g3
400022ec:	c6 20 60 08 	st  %g3, [ %g1 + 8 ]
400022f0:	b4 0e a0 03 	and  %i2, 3, %i2
400022f4:	84 08 bf fc 	and  %g2, -4, %g2
400022f8:	b8 06 bf ff 	add  %i2, -1, %i4
400022fc:	84 00 a0 04 	add  %g2, 4, %g2
40002300:	80 a6 a0 00 	cmp  %i2, 0
40002304:	82 00 40 02 	add  %g1, %g2, %g1
40002308:	12 80 00 07 	bne  40002324 <memcpy+0xdc>
4000230c:	b2 06 40 02 	add  %i1, %g2, %i1
40002310:	81 c7 e0 08 	ret 
40002314:	81 e8 00 00 	restore 
40002318:	80 a6 a0 00 	cmp  %i2, 0
4000231c:	02 bf ff fd 	be  40002310 <memcpy+0xc8>
40002320:	b8 06 bf ff 	add  %i2, -1, %i4
40002324:	84 16 40 01 	or  %i1, %g1, %g2
40002328:	80 88 a0 03 	btst  3, %g2
4000232c:	12 80 00 2a 	bne  400023d4 <memcpy+0x18c>
40002330:	80 a7 20 07 	cmp  %i4, 7
40002334:	08 80 00 22 	bleu  400023bc <memcpy+0x174>
40002338:	84 10 20 01 	mov  1, %g2
4000233c:	80 88 a0 ff 	btst  0xff, %g2
40002340:	02 80 00 25 	be  400023d4 <memcpy+0x18c>
40002344:	86 07 3f fd 	add  %i4, -3, %g3
40002348:	b6 07 20 01 	add  %i4, 1, %i3
4000234c:	87 30 e0 02 	srl  %g3, 2, %g3
40002350:	84 10 20 00 	clr  %g2
40002354:	86 00 e0 01 	inc  %g3
40002358:	88 10 20 00 	clr  %g4
4000235c:	fa 06 40 02 	ld  [ %i1 + %g2 ], %i5
40002360:	fa 20 40 02 	st  %i5, [ %g1 + %g2 ]
40002364:	88 01 20 01 	inc  %g4
40002368:	80 a0 c0 04 	cmp  %g3, %g4
4000236c:	18 bf ff fc 	bgu  4000235c <memcpy+0x114>
40002370:	84 00 a0 04 	add  %g2, 4, %g2
40002374:	87 28 e0 02 	sll  %g3, 2, %g3
40002378:	84 00 40 03 	add  %g1, %g3, %g2
4000237c:	88 06 40 03 	add  %i1, %g3, %g4
40002380:	80 a6 c0 03 	cmp  %i3, %g3
40002384:	02 bf ff e3 	be  40002310 <memcpy+0xc8>
40002388:	b8 27 00 03 	sub  %i4, %g3, %i4
4000238c:	fa 0e 40 03 	ldub  [ %i1 + %g3 ], %i5
40002390:	80 a7 20 00 	cmp  %i4, 0
40002394:	02 bf ff df 	be  40002310 <memcpy+0xc8>
40002398:	fa 28 40 03 	stb  %i5, [ %g1 + %g3 ]
4000239c:	c2 09 20 01 	ldub  [ %g4 + 1 ], %g1
400023a0:	80 a7 20 01 	cmp  %i4, 1
400023a4:	02 bf ff db 	be  40002310 <memcpy+0xc8>
400023a8:	c2 28 a0 01 	stb  %g1, [ %g2 + 1 ]
400023ac:	c2 09 20 02 	ldub  [ %g4 + 2 ], %g1
400023b0:	c2 28 a0 02 	stb  %g1, [ %g2 + 2 ]
400023b4:	81 c7 e0 08 	ret 
400023b8:	81 e8 00 00 	restore 
400023bc:	10 bf ff e0 	b  4000233c <memcpy+0xf4>
400023c0:	84 10 20 00 	clr  %g2
400023c4:	10 bf ff d8 	b  40002324 <memcpy+0xdc>
400023c8:	82 10 00 18 	mov  %i0, %g1
400023cc:	10 bf ff d3 	b  40002318 <memcpy+0xd0>
400023d0:	b4 10 00 03 	mov  %g3, %i2
400023d4:	84 10 20 00 	clr  %g2
400023d8:	c6 0e 40 02 	ldub  [ %i1 + %g2 ], %g3
400023dc:	c6 28 40 02 	stb  %g3, [ %g1 + %g2 ]
400023e0:	80 a7 00 02 	cmp  %i4, %g2
400023e4:	12 bf ff fd 	bne  400023d8 <memcpy+0x190>
400023e8:	84 00 a0 01 	inc  %g2
400023ec:	81 c7 e0 08 	ret 
400023f0:	81 e8 00 00 	restore 

400023f4 <_printf_r>:
400023f4:	9d e3 bf 98 	save  %sp, -104, %sp
400023f8:	f4 27 a0 4c 	st  %i2, [ %fp + 0x4c ]
400023fc:	f6 27 a0 50 	st  %i3, [ %fp + 0x50 ]
40002400:	f8 27 a0 54 	st  %i4, [ %fp + 0x54 ]
40002404:	80 a6 20 00 	cmp  %i0, 0
40002408:	02 80 00 06 	be  40002420 <_printf_r+0x2c>
4000240c:	fa 27 a0 58 	st  %i5, [ %fp + 0x58 ]
40002410:	c2 06 20 18 	ld  [ %i0 + 0x18 ], %g1
40002414:	80 a0 60 00 	cmp  %g1, 0
40002418:	02 80 00 0a 	be  40002440 <_printf_r+0x4c>
4000241c:	01 00 00 00 	nop 
40002420:	96 07 a0 4c 	add  %fp, 0x4c, %o3
40002424:	d2 06 20 08 	ld  [ %i0 + 8 ], %o1
40002428:	94 10 00 19 	mov  %i1, %o2
4000242c:	d6 27 bf fc 	st  %o3, [ %fp + -4 ]
40002430:	40 00 00 88 	call  40002650 <_vfprintf_r>
40002434:	90 10 00 18 	mov  %i0, %o0
40002438:	81 c7 e0 08 	ret 
4000243c:	91 e8 00 08 	restore  %g0, %o0, %o0
40002440:	40 00 13 e4 	call  400073d0 <__sinit>
40002444:	90 10 00 18 	mov  %i0, %o0
40002448:	96 07 a0 4c 	add  %fp, 0x4c, %o3
4000244c:	d2 06 20 08 	ld  [ %i0 + 8 ], %o1
40002450:	94 10 00 19 	mov  %i1, %o2
40002454:	d6 27 bf fc 	st  %o3, [ %fp + -4 ]
40002458:	40 00 00 7e 	call  40002650 <_vfprintf_r>
4000245c:	90 10 00 18 	mov  %i0, %o0
40002460:	81 c7 e0 08 	ret 
40002464:	91 e8 00 08 	restore  %g0, %o0, %o0

40002468 <printf>:
40002468:	9d e3 bf 90 	save  %sp, -112, %sp
4000246c:	f2 27 a0 48 	st  %i1, [ %fp + 0x48 ]
40002470:	f4 27 a0 4c 	st  %i2, [ %fp + 0x4c ]
40002474:	f6 27 a0 50 	st  %i3, [ %fp + 0x50 ]
40002478:	f8 27 a0 54 	st  %i4, [ %fp + 0x54 ]
4000247c:	fa 27 a0 58 	st  %i5, [ %fp + 0x58 ]
40002480:	03 10 00 3c 	sethi  %hi(0x4000f000), %g1
40002484:	d0 00 63 8c 	ld  [ %g1 + 0x38c ], %o0	! 4000f38c <_impure_ptr>
40002488:	80 a2 20 00 	cmp  %o0, 0
4000248c:	02 80 00 06 	be  400024a4 <printf+0x3c>
40002490:	96 07 a0 48 	add  %fp, 0x48, %o3
40002494:	c2 02 20 18 	ld  [ %o0 + 0x18 ], %g1
40002498:	80 a0 60 00 	cmp  %g1, 0
4000249c:	02 80 00 08 	be  400024bc <printf+0x54>
400024a0:	01 00 00 00 	nop 
400024a4:	94 10 00 18 	mov  %i0, %o2
400024a8:	d6 27 bf fc 	st  %o3, [ %fp + -4 ]
400024ac:	40 00 00 69 	call  40002650 <_vfprintf_r>
400024b0:	d2 02 20 08 	ld  [ %o0 + 8 ], %o1
400024b4:	81 c7 e0 08 	ret 
400024b8:	91 e8 00 08 	restore  %g0, %o0, %o0
400024bc:	40 00 13 c5 	call  400073d0 <__sinit>
400024c0:	d0 27 bf f4 	st  %o0, [ %fp + -12 ]
400024c4:	d0 07 bf f4 	ld  [ %fp + -12 ], %o0
400024c8:	96 07 a0 48 	add  %fp, 0x48, %o3
400024cc:	94 10 00 18 	mov  %i0, %o2
400024d0:	d6 27 bf fc 	st  %o3, [ %fp + -4 ]
400024d4:	40 00 00 5f 	call  40002650 <_vfprintf_r>
400024d8:	d2 02 20 08 	ld  [ %o0 + 8 ], %o1
400024dc:	81 c7 e0 08 	ret 
400024e0:	91 e8 00 08 	restore  %g0, %o0, %o0
400024e4:	40 00 2f b0 	call  4000e3a4 <divloop+0x1c>
400024e8:	40 00 28 48 	call  4000c608 <__sfvwrite_r+0x150>
400024ec:	40 00 28 48 	call  4000c60c <__sfvwrite_r+0x154>
400024f0:	40 00 2f a0 	call  4000e370 <not_really_big+0x4>
400024f4:	40 00 28 48 	call  4000c614 <__sfvwrite_r+0x15c>
400024f8:	40 00 28 48 	call  4000c618 <__sfvwrite_r+0x160>
400024fc:	40 00 28 48 	call  4000c61c <__sfvwrite_r+0x164>
40002500:	40 00 2c 00 	call  4000d500 <_reclaim_reent+0x110>
40002504:	40 00 28 48 	call  4000c624 <__sfvwrite_r+0x16c>
40002508:	40 00 28 48 	call  4000c628 <__sfvwrite_r+0x170>
4000250c:	40 00 2f 74 	call  4000e2dc <divide+0x3c>
40002510:	40 00 2f 64 	call  4000e2a0 <divide>
40002514:	40 00 28 48 	call  4000c634 <__sfvwrite_r+0x17c>
40002518:	40 00 2f 54 	call  4000e268 <got_result+0x8>
4000251c:	40 00 2f 00 	call  4000e11c <L4.23+0x8>
40002520:	40 00 28 48 	call  4000c640 <__sfvwrite_r+0x188>
40002524:	40 00 2e f0 	call  4000e0e4 <divloop+0xc>
40002528:	40 00 29 f4 	call  4000ccf8 <memmove+0xc4>
4000252c:	40 00 29 f4 	call  4000ccfc <memmove+0xc8>
40002530:	40 00 29 f4 	call  4000cd00 <memmove+0xcc>
40002534:	40 00 29 f4 	call  4000cd04 <memmove+0xd0>
40002538:	40 00 29 f4 	call  4000cd08 <memmove+0xd4>
4000253c:	40 00 29 f4 	call  4000cd0c <memmove+0xd8>
40002540:	40 00 29 f4 	call  4000cd10 <memmove+0xdc>
40002544:	40 00 29 f4 	call  4000cd14 <memmove+0xe0>
40002548:	40 00 29 f4 	call  4000cd18 <memmove+0xe4>
4000254c:	40 00 28 48 	call  4000c66c <__sfvwrite_r+0x1b4>
40002550:	40 00 28 48 	call  4000c670 <__sfvwrite_r+0x1b8>
40002554:	40 00 28 48 	call  4000c674 <__sfvwrite_r+0x1bc>
40002558:	40 00 28 48 	call  4000c678 <__sfvwrite_r+0x1c0>
4000255c:	40 00 28 48 	call  4000c67c <__sfvwrite_r+0x1c4>
40002560:	40 00 28 48 	call  4000c680 <__sfvwrite_r+0x1c8>
40002564:	40 00 28 48 	call  4000c684 <__sfvwrite_r+0x1cc>
40002568:	40 00 2a 2c 	call  4000ce18 <memmove+0x1e4>
4000256c:	40 00 28 48 	call  4000c68c <__sfvwrite_r+0x1d4>
40002570:	40 00 2c c4 	call  4000d880 <__swbuf_r+0x12c>
40002574:	40 00 2c 58 	call  4000d6d4 <strcmp+0x40>
40002578:	40 00 2a 2c 	call  4000ce28 <memmove+0x1f4>
4000257c:	40 00 2a 2c 	call  4000ce2c <memmove+0x1f8>
40002580:	40 00 2a 2c 	call  4000ce30 <_read_r>
40002584:	40 00 28 48 	call  4000c6a4 <__sfvwrite_r+0x1ec>
40002588:	40 00 28 48 	call  4000c6a8 <__sfvwrite_r+0x1f0>
4000258c:	40 00 28 48 	call  4000c6ac <__sfvwrite_r+0x1f4>
40002590:	40 00 28 48 	call  4000c6b0 <__sfvwrite_r+0x1f8>
40002594:	40 00 2f cc 	call  4000e4c4 <L2.15+0x1c>
40002598:	40 00 28 48 	call  4000c6b8 <__sfvwrite_r+0x200>
4000259c:	40 00 28 48 	call  4000c6bc <__sfvwrite_r+0x204>
400025a0:	40 00 2d 50 	call  4000dae0 <_wcrtomb_r+0x38>
400025a4:	40 00 28 48 	call  4000c6c4 <__sfvwrite_r+0x20c>
400025a8:	40 00 28 48 	call  4000c6c8 <__sfvwrite_r+0x210>
400025ac:	40 00 28 48 	call  4000c6cc <__sfvwrite_r+0x214>
400025b0:	40 00 2c e0 	call  4000d930 <__swbuf+0x38>
400025b4:	40 00 28 48 	call  4000c6d4 <__sfvwrite_r+0x21c>
400025b8:	40 00 2e bc 	call  4000e0a8 <single_divloop+0x1c>
400025bc:	40 00 28 48 	call  4000c6dc <__sfvwrite_r+0x224>
400025c0:	40 00 28 48 	call  4000c6e0 <__sfvwrite_r+0x228>
400025c4:	40 00 3d cc 	call  40011cf4 <__bss_end+0x21c4>
400025c8:	40 00 28 48 	call  4000c6e8 <__sfvwrite_r+0x230>
400025cc:	40 00 28 48 	call  4000c6ec <__sfvwrite_r+0x234>
400025d0:	40 00 28 48 	call  4000c6f0 <__sfvwrite_r+0x238>
400025d4:	40 00 28 48 	call  4000c6f4 <__sfvwrite_r+0x23c>
400025d8:	40 00 28 48 	call  4000c6f8 <__sfvwrite_r+0x240>
400025dc:	40 00 28 48 	call  4000c6fc <__sfvwrite_r+0x244>
400025e0:	40 00 28 48 	call  4000c700 <__sfvwrite_r+0x248>
400025e4:	40 00 28 48 	call  4000c704 <__sfvwrite_r+0x24c>
400025e8:	40 00 2a 2c 	call  4000ce98 <_realloc_r+0x20>
400025ec:	40 00 28 48 	call  4000c70c <__sfvwrite_r+0x254>
400025f0:	40 00 2c c4 	call  4000d900 <__swbuf+0x8>
400025f4:	40 00 2c 5c 	call  4000d764 <__swbuf_r+0x10>
400025f8:	40 00 2a 2c 	call  4000cea8 <_realloc_r+0x30>
400025fc:	40 00 2a 2c 	call  4000ceac <_realloc_r+0x34>
40002600:	40 00 2a 2c 	call  4000ceb0 <_realloc_r+0x38>
40002604:	40 00 2e 9c 	call  4000e074 <do_single_div+0x4>
40002608:	40 00 2c 5c 	call  4000d778 <__swbuf_r+0x24>
4000260c:	40 00 2c 48 	call  4000d72c <strcmp+0x98>
40002610:	40 00 28 48 	call  4000c730 <__sfvwrite_r+0x278>
40002614:	40 00 2e 7c 	call  4000e004 <ready_to_divide+0x14>
40002618:	40 00 28 48 	call  4000c738 <__sfvwrite_r+0x280>
4000261c:	40 00 2d f4 	call  4000ddec <write+0x58>
40002620:	40 00 2d 54 	call  4000db70 <wcrtomb+0x24>
40002624:	40 00 2e 3c 	call  4000df14 <.umul+0x38>
40002628:	40 00 2c 48 	call  4000d748 <strcmp+0xb4>
4000262c:	40 00 28 48 	call  4000c74c <__sfvwrite_r+0x294>
40002630:	40 00 2c e0 	call  4000d9b0 <__swbuf+0xb8>
40002634:	40 00 2c 3c 	call  4000d724 <strcmp+0x90>
40002638:	40 00 3d c4 	call  40011d48 <__bss_end+0x2218>
4000263c:	40 00 28 48 	call  4000c75c <__sfvwrite_r+0x2a4>
40002640:	40 00 28 48 	call  4000c760 <__sfvwrite_r+0x2a8>
40002644:	40 00 3d 54 	call  40011b94 <__bss_end+0x2064>
40002648:	40 00 28 48 	call  4000c768 <__sfvwrite_r+0x2b0>
4000264c:	40 00 2c 3c 	call  4000d73c <strcmp+0xa8>

40002650 <_vfprintf_r>:
40002650:	9d e3 be 20 	save  %sp, -480, %sp
40002654:	40 00 14 a1 	call  400078d8 <_localeconv_r>
40002658:	90 10 00 18 	mov  %i0, %o0
4000265c:	c2 02 00 00 	ld  [ %o0 ], %g1
40002660:	c2 27 be ac 	st  %g1, [ %fp + -340 ]
40002664:	40 00 1d f2 	call  40009e2c <strlen>
40002668:	90 10 00 01 	mov  %g1, %o0
4000266c:	f6 27 be dc 	st  %i3, [ %fp + -292 ]
40002670:	80 a6 20 00 	cmp  %i0, 0
40002674:	02 80 00 06 	be  4000268c <_vfprintf_r+0x3c>
40002678:	d0 27 be b8 	st  %o0, [ %fp + -328 ]
4000267c:	c2 06 20 18 	ld  [ %i0 + 0x18 ], %g1
40002680:	80 a0 60 00 	cmp  %g1, 0
40002684:	02 80 01 54 	be  40002bd4 <_vfprintf_r+0x584>
40002688:	01 00 00 00 	nop 
4000268c:	03 10 00 3b 	sethi  %hi(0x4000ec00), %g1
40002690:	82 10 62 50 	or  %g1, 0x250, %g1	! 4000ee50 <__sf_fake_stdin>
40002694:	80 a6 40 01 	cmp  %i1, %g1
40002698:	22 80 00 0b 	be,a   400026c4 <_vfprintf_r+0x74>
4000269c:	f2 06 20 04 	ld  [ %i0 + 4 ], %i1
400026a0:	03 10 00 3b 	sethi  %hi(0x4000ec00), %g1
400026a4:	82 10 62 30 	or  %g1, 0x230, %g1	! 4000ee30 <__sf_fake_stdout>
400026a8:	80 a6 40 01 	cmp  %i1, %g1
400026ac:	02 80 01 53 	be  40002bf8 <_vfprintf_r+0x5a8>
400026b0:	03 10 00 3b 	sethi  %hi(0x4000ec00), %g1
400026b4:	82 10 62 10 	or  %g1, 0x210, %g1	! 4000ee10 <__sf_fake_stderr>
400026b8:	80 a6 40 01 	cmp  %i1, %g1
400026bc:	22 80 00 02 	be,a   400026c4 <_vfprintf_r+0x74>
400026c0:	f2 06 20 0c 	ld  [ %i0 + 0xc ], %i1
400026c4:	c2 16 60 0c 	lduh  [ %i1 + 0xc ], %g1
400026c8:	05 00 00 08 	sethi  %hi(0x2000), %g2
400026cc:	80 88 80 01 	btst  %g2, %g1
400026d0:	12 80 00 08 	bne  400026f0 <_vfprintf_r+0xa0>
400026d4:	80 88 60 08 	btst  8, %g1
400026d8:	82 10 80 01 	or  %g2, %g1, %g1
400026dc:	c6 06 60 60 	ld  [ %i1 + 0x60 ], %g3
400026e0:	c2 36 60 0c 	sth  %g1, [ %i1 + 0xc ]
400026e4:	84 28 c0 02 	andn  %g3, %g2, %g2
400026e8:	c4 26 60 60 	st  %g2, [ %i1 + 0x60 ]
400026ec:	80 88 60 08 	btst  8, %g1
400026f0:	02 80 03 84 	be  40003500 <_vfprintf_r+0xeb0>
400026f4:	92 10 00 19 	mov  %i1, %o1
400026f8:	c4 06 60 10 	ld  [ %i1 + 0x10 ], %g2
400026fc:	80 a0 a0 00 	cmp  %g2, 0
40002700:	02 80 03 80 	be  40003500 <_vfprintf_r+0xeb0>
40002704:	82 08 60 1a 	and  %g1, 0x1a, %g1
40002708:	80 a0 60 0a 	cmp  %g1, 0xa
4000270c:	22 80 03 88 	be,a   4000352c <_vfprintf_r+0xedc>
40002710:	c2 56 60 0e 	ldsh  [ %i1 + 0xe ], %g1
40002714:	82 07 bf 58 	add  %fp, -168, %g1
40002718:	21 10 00 3b 	sethi  %hi(0x4000ec00), %l0
4000271c:	c2 27 bf 4c 	st  %g1, [ %fp + -180 ]
40002720:	ba 10 00 01 	mov  %g1, %i5
40002724:	c0 27 be b0 	clr  [ %fp + -336 ]
40002728:	03 10 00 09 	sethi  %hi(0x40002400), %g1
4000272c:	c0 27 be b4 	clr  [ %fp + -332 ]
40002730:	82 10 60 e4 	or  %g1, 0xe4, %g1
40002734:	c0 27 bf 54 	clr  [ %fp + -172 ]
40002738:	c0 27 bf 50 	clr  [ %fp + -176 ]
4000273c:	c0 27 be c4 	clr  [ %fp + -316 ]
40002740:	c0 27 be a8 	clr  [ %fp + -344 ]
40002744:	c0 27 be a4 	clr  [ %fp + -348 ]
40002748:	c0 27 be a0 	clr  [ %fp + -352 ]
4000274c:	c0 27 be 9c 	clr  [ %fp + -356 ]
40002750:	c0 27 be 98 	clr  [ %fp + -360 ]
40002754:	c0 27 be ec 	clr  [ %fp + -276 ]
40002758:	c2 27 be d8 	st  %g1, [ %fp + -296 ]
4000275c:	a0 14 21 90 	or  %l0, 0x190, %l0
40002760:	c2 0e 80 00 	ldub  [ %i2 ], %g1
40002764:	83 28 60 18 	sll  %g1, 0x18, %g1
40002768:	85 38 60 18 	sra  %g1, 0x18, %g2
4000276c:	80 a0 a0 25 	cmp  %g2, 0x25
40002770:	02 80 00 21 	be  400027f4 <_vfprintf_r+0x1a4>
40002774:	b8 10 00 1a 	mov  %i2, %i4
40002778:	80 a0 a0 00 	cmp  %g2, 0
4000277c:	02 80 00 1f 	be  400027f8 <_vfprintf_r+0x1a8>
40002780:	80 a0 60 00 	cmp  %g1, 0
40002784:	b6 10 00 1c 	mov  %i4, %i3
40002788:	b8 07 20 01 	inc  %i4
4000278c:	c2 0f 00 00 	ldub  [ %i4 ], %g1
40002790:	83 28 60 18 	sll  %g1, 0x18, %g1
40002794:	80 a0 60 00 	cmp  %g1, 0
40002798:	02 80 00 05 	be  400027ac <_vfprintf_r+0x15c>
4000279c:	85 38 60 18 	sra  %g1, 0x18, %g2
400027a0:	80 a0 a0 25 	cmp  %g2, 0x25
400027a4:	32 bf ff f9 	bne,a   40002788 <_vfprintf_r+0x138>
400027a8:	b6 10 00 1c 	mov  %i4, %i3
400027ac:	a2 a7 00 1a 	subcc  %i4, %i2, %l1
400027b0:	02 80 00 11 	be  400027f4 <_vfprintf_r+0x1a4>
400027b4:	c4 07 bf 54 	ld  [ %fp + -172 ], %g2
400027b8:	c2 07 bf 50 	ld  [ %fp + -176 ], %g1
400027bc:	84 00 80 11 	add  %g2, %l1, %g2
400027c0:	82 00 60 01 	inc  %g1
400027c4:	f4 27 40 00 	st  %i2, [ %i5 ]
400027c8:	e2 27 60 04 	st  %l1, [ %i5 + 4 ]
400027cc:	c4 27 bf 54 	st  %g2, [ %fp + -172 ]
400027d0:	c2 27 bf 50 	st  %g1, [ %fp + -176 ]
400027d4:	80 a0 60 07 	cmp  %g1, 7
400027d8:	14 80 02 f2 	bg  400033a0 <_vfprintf_r+0xd50>
400027dc:	ba 07 60 08 	add  %i5, 8, %i5
400027e0:	c4 07 be ec 	ld  [ %fp + -276 ], %g2
400027e4:	c2 0e e0 01 	ldub  [ %i3 + 1 ], %g1
400027e8:	84 00 80 11 	add  %g2, %l1, %g2
400027ec:	83 28 60 18 	sll  %g1, 0x18, %g1
400027f0:	c4 27 be ec 	st  %g2, [ %fp + -276 ]
400027f4:	80 a0 60 00 	cmp  %g1, 0
400027f8:	02 80 06 33 	be  400040c4 <_vfprintf_r+0x1a74>
400027fc:	b4 07 20 01 	add  %i4, 1, %i2
40002800:	c2 0f 20 01 	ldub  [ %i4 + 1 ], %g1
40002804:	c0 2f be f7 	clrb  [ %fp + -265 ]
40002808:	b8 10 3f ff 	mov  -1, %i4
4000280c:	b6 10 20 00 	clr  %i3
40002810:	a4 10 20 00 	clr  %l2
40002814:	83 28 60 18 	sll  %g1, 0x18, %g1
40002818:	a2 10 20 2b 	mov  0x2b, %l1
4000281c:	a6 10 20 20 	mov  0x20, %l3
40002820:	b4 06 a0 01 	inc  %i2
40002824:	ad 38 60 18 	sra  %g1, 0x18, %l6
40002828:	82 05 bf e0 	add  %l6, -32, %g1
4000282c:	80 a0 60 5a 	cmp  %g1, 0x5a
40002830:	18 80 00 06 	bgu  40002848 <_vfprintf_r+0x1f8>
40002834:	83 28 60 02 	sll  %g1, 2, %g1
40002838:	c4 07 be d8 	ld  [ %fp + -296 ], %g2
4000283c:	c2 00 80 01 	ld  [ %g2 + %g1 ], %g1
40002840:	81 c0 40 00 	jmp  %g1
40002844:	01 00 00 00 	nop 
40002848:	80 a5 a0 00 	cmp  %l6, 0
4000284c:	02 80 06 1f 	be  400040c8 <_vfprintf_r+0x1a78>
40002850:	c2 07 bf 54 	ld  [ %fp + -172 ], %g1
40002854:	ec 2f bf 98 	stb  %l6, [ %fp + -104 ]
40002858:	c0 2f be f7 	clrb  [ %fp + -265 ]
4000285c:	82 10 20 01 	mov  1, %g1
40002860:	a2 10 20 01 	mov  1, %l1
40002864:	9a 10 20 00 	clr  %o5
40002868:	c0 27 be e8 	clr  [ %fp + -280 ]
4000286c:	c2 27 be e0 	st  %g1, [ %fp + -288 ]
40002870:	b8 10 20 00 	clr  %i4
40002874:	c0 27 be bc 	clr  [ %fp + -324 ]
40002878:	c0 27 be c0 	clr  [ %fp + -320 ]
4000287c:	c0 27 be c8 	clr  [ %fp + -312 ]
40002880:	a6 07 bf 98 	add  %fp, -104, %l3
40002884:	9b 2b 60 18 	sll  %o5, 0x18, %o5
40002888:	80 a0 00 0d 	cmp  %g0, %o5
4000288c:	a2 40 00 11 	addx  %g0, %l1, %l1
40002890:	96 8c a0 02 	andcc  %l2, 2, %o3
40002894:	32 80 00 02 	bne,a   4000289c <_vfprintf_r+0x24c>
40002898:	a2 04 60 02 	add  %l1, 2, %l1
4000289c:	82 8c a0 84 	andcc  %l2, 0x84, %g1
400028a0:	c2 27 be d0 	st  %g1, [ %fp + -304 ]
400028a4:	12 80 00 06 	bne  400028bc <_vfprintf_r+0x26c>
400028a8:	de 07 bf 54 	ld  [ %fp + -172 ], %o7
400028ac:	88 26 c0 11 	sub  %i3, %l1, %g4
400028b0:	80 a1 20 00 	cmp  %g4, 0
400028b4:	34 80 02 c4 	bg,a   400033c4 <_vfprintf_r+0xd74>
400028b8:	1b 10 00 3b 	sethi  %hi(0x4000ec00), %o5
400028bc:	80 a3 60 00 	cmp  %o5, 0
400028c0:	02 80 00 0f 	be  400028fc <_vfprintf_r+0x2ac>
400028c4:	80 a2 e0 00 	cmp  %o3, 0
400028c8:	9a 07 be f7 	add  %fp, -265, %o5
400028cc:	c8 07 bf 50 	ld  [ %fp + -176 ], %g4
400028d0:	da 27 40 00 	st  %o5, [ %i5 ]
400028d4:	88 01 20 01 	inc  %g4
400028d8:	9e 03 e0 01 	inc  %o7
400028dc:	9a 10 20 01 	mov  1, %o5
400028e0:	de 27 bf 54 	st  %o7, [ %fp + -172 ]
400028e4:	da 27 60 04 	st  %o5, [ %i5 + 4 ]
400028e8:	c8 27 bf 50 	st  %g4, [ %fp + -176 ]
400028ec:	80 a1 20 07 	cmp  %g4, 7
400028f0:	14 80 02 f9 	bg  400034d4 <_vfprintf_r+0xe84>
400028f4:	ba 07 60 08 	add  %i5, 8, %i5
400028f8:	80 a2 e0 00 	cmp  %o3, 0
400028fc:	02 80 00 0f 	be  40002938 <_vfprintf_r+0x2e8>
40002900:	c2 07 be d0 	ld  [ %fp + -304 ], %g1
40002904:	9a 07 be f8 	add  %fp, -264, %o5
40002908:	c8 07 bf 50 	ld  [ %fp + -176 ], %g4
4000290c:	da 27 40 00 	st  %o5, [ %i5 ]
40002910:	88 01 20 01 	inc  %g4
40002914:	9e 03 e0 02 	add  %o7, 2, %o7
40002918:	9a 10 20 02 	mov  2, %o5
4000291c:	de 27 bf 54 	st  %o7, [ %fp + -172 ]
40002920:	da 27 60 04 	st  %o5, [ %i5 + 4 ]
40002924:	c8 27 bf 50 	st  %g4, [ %fp + -176 ]
40002928:	80 a1 20 07 	cmp  %g4, 7
4000292c:	14 80 02 e1 	bg  400034b0 <_vfprintf_r+0xe60>
40002930:	ba 07 60 08 	add  %i5, 8, %i5
40002934:	c2 07 be d0 	ld  [ %fp + -304 ], %g1
40002938:	80 a0 60 80 	cmp  %g1, 0x80
4000293c:	02 80 01 f0 	be  400030fc <_vfprintf_r+0xaac>
40002940:	ae 26 c0 11 	sub  %i3, %l1, %l7
40002944:	c2 07 be e0 	ld  [ %fp + -288 ], %g1
40002948:	b8 27 00 01 	sub  %i4, %g1, %i4
4000294c:	80 a7 20 00 	cmp  %i4, 0
40002950:	14 80 02 1f 	bg  400031cc <_vfprintf_r+0xb7c>
40002954:	80 a7 20 10 	cmp  %i4, 0x10
40002958:	80 8c a1 00 	btst  0x100, %l2
4000295c:	12 80 01 a0 	bne  40002fdc <_vfprintf_r+0x98c>
40002960:	80 a5 a0 65 	cmp  %l6, 0x65
40002964:	c4 07 be e0 	ld  [ %fp + -288 ], %g2
40002968:	c2 07 bf 50 	ld  [ %fp + -176 ], %g1
4000296c:	9e 03 c0 02 	add  %o7, %g2, %o7
40002970:	82 00 60 01 	inc  %g1
40002974:	e6 27 40 00 	st  %l3, [ %i5 ]
40002978:	c4 27 60 04 	st  %g2, [ %i5 + 4 ]
4000297c:	de 27 bf 54 	st  %o7, [ %fp + -172 ]
40002980:	80 a0 60 07 	cmp  %g1, 7
40002984:	14 80 00 8b 	bg  40002bb0 <_vfprintf_r+0x560>
40002988:	c2 27 bf 50 	st  %g1, [ %fp + -176 ]
4000298c:	ba 07 60 08 	add  %i5, 8, %i5
40002990:	80 8c a0 04 	btst  4, %l2
40002994:	02 80 00 07 	be  400029b0 <_vfprintf_r+0x360>
40002998:	80 a6 c0 11 	cmp  %i3, %l1
4000299c:	b8 26 c0 11 	sub  %i3, %l1, %i4
400029a0:	80 a7 20 00 	cmp  %i4, 0
400029a4:	14 80 02 e8 	bg  40003544 <_vfprintf_r+0xef4>
400029a8:	1b 10 00 3b 	sethi  %hi(0x4000ec00), %o5
400029ac:	80 a6 c0 11 	cmp  %i3, %l1
400029b0:	26 80 00 02 	bl,a   400029b8 <_vfprintf_r+0x368>
400029b4:	b6 10 00 11 	mov  %l1, %i3
400029b8:	c2 07 be ec 	ld  [ %fp + -276 ], %g1
400029bc:	82 00 40 1b 	add  %g1, %i3, %g1
400029c0:	80 a3 e0 00 	cmp  %o7, 0
400029c4:	12 80 02 63 	bne  40003350 <_vfprintf_r+0xd00>
400029c8:	c2 27 be ec 	st  %g1, [ %fp + -276 ]
400029cc:	c0 27 bf 50 	clr  [ %fp + -176 ]
400029d0:	c2 07 be e8 	ld  [ %fp + -280 ], %g1
400029d4:	80 a0 60 00 	cmp  %g1, 0
400029d8:	02 bf ff 62 	be  40002760 <_vfprintf_r+0x110>
400029dc:	ba 07 bf 58 	add  %fp, -168, %i5
400029e0:	92 10 00 01 	mov  %g1, %o1
400029e4:	40 00 12 c0 	call  400074e4 <_free_r>
400029e8:	90 10 00 18 	mov  %i0, %o0
400029ec:	10 bf ff 5e 	b  40002764 <_vfprintf_r+0x114>
400029f0:	c2 0e 80 00 	ldub  [ %i2 ], %g1
400029f4:	b6 10 20 00 	clr  %i3
400029f8:	82 05 bf d0 	add  %l6, -48, %g1
400029fc:	85 2e e0 02 	sll  %i3, 2, %g2
40002a00:	b4 06 a0 01 	inc  %i2
40002a04:	b6 00 80 1b 	add  %g2, %i3, %i3
40002a08:	ec 4e bf ff 	ldsb  [ %i2 + -1 ], %l6
40002a0c:	b7 2e e0 01 	sll  %i3, 1, %i3
40002a10:	b6 00 40 1b 	add  %g1, %i3, %i3
40002a14:	82 05 bf d0 	add  %l6, -48, %g1
40002a18:	80 a0 60 09 	cmp  %g1, 9
40002a1c:	08 bf ff f9 	bleu  40002a00 <_vfprintf_r+0x3b0>
40002a20:	85 2e e0 02 	sll  %i3, 2, %g2
40002a24:	10 bf ff 82 	b  4000282c <_vfprintf_r+0x1dc>
40002a28:	82 05 bf e0 	add  %l6, -32, %g1
40002a2c:	d2 07 be dc 	ld  [ %fp + -292 ], %o1
40002a30:	94 10 20 08 	mov  8, %o2
40002a34:	80 8c a0 08 	btst  8, %l2
40002a38:	12 80 03 f0 	bne  400039f8 <_vfprintf_r+0x13a8>
40002a3c:	ae 02 60 08 	add  %o1, 8, %l7
40002a40:	7f ff fe 02 	call  40002248 <memcpy>
40002a44:	90 07 bf 28 	add  %fp, -216, %o0
40002a48:	d1 1f bf 28 	ldd  [ %fp + -216 ], %f8
40002a4c:	d1 3f be b0 	std  %f8, [ %fp + -336 ]
40002a50:	95 a0 00 28 	fmovs  %f8, %f10
40002a54:	97 a0 00 29 	fmovs  %f9, %f11
40002a58:	91 a0 01 2a 	fabss  %f10, %f8
40002a5c:	93 a0 00 2b 	fmovs  %f11, %f9
40002a60:	03 10 00 3b 	sethi  %hi(0x4000ec00), %g1
40002a64:	d9 18 61 70 	ldd  [ %g1 + 0x170 ], %f12	! 4000ed70 <_global_impure_ptr+0x6c>
40002a68:	81 aa 0a 4c 	fcmpd  %f8, %f12
40002a6c:	01 00 00 00 	nop 
40002a70:	1d 80 03 f1 	fbule  40003a34 <_vfprintf_r+0x13e4>
40002a74:	91 a0 00 2a 	fmovs  %f10, %f8
40002a78:	03 10 00 3b 	sethi  %hi(0x4000ec00), %g1
40002a7c:	d1 18 61 68 	ldd  [ %g1 + 0x168 ], %f8	! 4000ed68 <_global_impure_ptr+0x64>
40002a80:	81 aa 8a c8 	fcmped  %f10, %f8
40002a84:	01 00 00 00 	nop 
40002a88:	09 80 06 58 	fbl  400043e8 <_vfprintf_r+0x1d98>
40002a8c:	84 10 20 2d 	mov  0x2d, %g2	! 2d <fpu_state_f11+0x1>
40002a90:	da 0f be f7 	ldub  [ %fp + -265 ], %o5
40002a94:	80 a5 a0 47 	cmp  %l6, 0x47
40002a98:	04 80 05 a2 	ble  40004120 <_vfprintf_r+0x1ad0>
40002a9c:	05 10 00 3b 	sethi  %hi(0x4000ec00), %g2
40002aa0:	05 10 00 3b 	sethi  %hi(0x4000ec00), %g2
40002aa4:	a6 10 a1 10 	or  %g2, 0x110, %l3	! 4000ed10 <_global_impure_ptr+0xc>
40002aa8:	a4 0c bf 7f 	and  %l2, -129, %l2
40002aac:	82 10 20 03 	mov  3, %g1
40002ab0:	ee 27 be dc 	st  %l7, [ %fp + -292 ]
40002ab4:	a2 10 20 03 	mov  3, %l1
40002ab8:	c0 27 be e8 	clr  [ %fp + -280 ]
40002abc:	c2 27 be e0 	st  %g1, [ %fp + -288 ]
40002ac0:	b8 10 20 00 	clr  %i4
40002ac4:	c0 27 be bc 	clr  [ %fp + -324 ]
40002ac8:	c0 27 be c0 	clr  [ %fp + -320 ]
40002acc:	10 bf ff 6e 	b  40002884 <_vfprintf_r+0x234>
40002ad0:	c0 27 be c8 	clr  [ %fp + -312 ]
40002ad4:	f8 07 bf 50 	ld  [ %fp + -176 ], %i4
40002ad8:	c4 07 be c4 	ld  [ %fp + -316 ], %g2
40002adc:	9e 03 e0 01 	inc  %o7
40002ae0:	82 07 20 01 	add  %i4, 1, %g1
40002ae4:	80 a0 a0 01 	cmp  %g2, 1
40002ae8:	04 80 03 3e 	ble  400037e0 <_vfprintf_r+0x1190>
40002aec:	88 07 60 08 	add  %i5, 8, %g4
40002af0:	b8 10 20 01 	mov  1, %i4
40002af4:	de 27 bf 54 	st  %o7, [ %fp + -172 ]
40002af8:	f8 27 60 04 	st  %i4, [ %i5 + 4 ]
40002afc:	80 a0 60 07 	cmp  %g1, 7
40002b00:	14 80 05 11 	bg  40003f44 <_vfprintf_r+0x18f4>
40002b04:	c2 27 bf 50 	st  %g1, [ %fp + -176 ]
40002b08:	82 00 60 01 	inc  %g1
40002b0c:	c4 07 be b8 	ld  [ %fp + -328 ], %g2
40002b10:	c6 07 be ac 	ld  [ %fp + -340 ], %g3
40002b14:	9e 03 c0 02 	add  %o7, %g2, %o7
40002b18:	c6 21 00 00 	st  %g3, [ %g4 ]
40002b1c:	c4 21 20 04 	st  %g2, [ %g4 + 4 ]
40002b20:	de 27 bf 54 	st  %o7, [ %fp + -172 ]
40002b24:	c2 27 bf 50 	st  %g1, [ %fp + -176 ]
40002b28:	80 a0 60 07 	cmp  %g1, 7
40002b2c:	14 80 05 1a 	bg  40003f94 <_vfprintf_r+0x1944>
40002b30:	88 01 20 08 	add  %g4, 8, %g4
40002b34:	c4 07 be c4 	ld  [ %fp + -316 ], %g2
40002b38:	d1 1f be b0 	ldd  [ %fp + -336 ], %f8
40002b3c:	ac 00 bf ff 	add  %g2, -1, %l6
40002b40:	b8 00 60 01 	add  %g1, 1, %i4
40002b44:	05 10 00 3b 	sethi  %hi(0x4000ec00), %g2
40002b48:	d5 18 a1 68 	ldd  [ %g2 + 0x168 ], %f10	! 4000ed68 <_global_impure_ptr+0x64>
40002b4c:	81 aa 0a 4a 	fcmpd  %f8, %f10
40002b50:	01 00 00 00 	nop 
40002b54:	13 80 03 2f 	fbe  40003810 <_vfprintf_r+0x11c0>
40002b58:	ba 01 20 08 	add  %g4, 8, %i5
40002b5c:	84 04 e0 01 	add  %l3, 1, %g2
40002b60:	9e 03 c0 16 	add  %o7, %l6, %o7
40002b64:	c4 21 00 00 	st  %g2, [ %g4 ]
40002b68:	ec 21 20 04 	st  %l6, [ %g4 + 4 ]
40002b6c:	de 27 bf 54 	st  %o7, [ %fp + -172 ]
40002b70:	80 a7 20 07 	cmp  %i4, 7
40002b74:	14 80 04 51 	bg  40003cb8 <_vfprintf_r+0x1668>
40002b78:	f8 27 bf 50 	st  %i4, [ %fp + -176 ]
40002b7c:	84 01 20 10 	add  %g4, 0x10, %g2
40002b80:	b8 00 60 02 	add  %g1, 2, %i4
40002b84:	88 10 00 1d 	mov  %i5, %g4
40002b88:	ba 10 00 02 	mov  %g2, %i5
40002b8c:	c4 07 be a4 	ld  [ %fp + -348 ], %g2
40002b90:	82 07 bf 08 	add  %fp, -248, %g1
40002b94:	9e 00 80 0f 	add  %g2, %o7, %o7
40002b98:	c2 21 00 00 	st  %g1, [ %g4 ]
40002b9c:	c4 21 20 04 	st  %g2, [ %g4 + 4 ]
40002ba0:	de 27 bf 54 	st  %o7, [ %fp + -172 ]
40002ba4:	80 a7 20 07 	cmp  %i4, 7
40002ba8:	04 bf ff 7a 	ble  40002990 <_vfprintf_r+0x340>
40002bac:	f8 27 bf 50 	st  %i4, [ %fp + -176 ]
40002bb0:	94 07 bf 4c 	add  %fp, -180, %o2
40002bb4:	92 10 00 19 	mov  %i1, %o1
40002bb8:	40 00 1d 8e 	call  4000a1f0 <__sprint_r>
40002bbc:	90 10 00 18 	mov  %i0, %o0
40002bc0:	80 a2 20 00 	cmp  %o0, 0
40002bc4:	12 80 01 ea 	bne  4000336c <_vfprintf_r+0xd1c>
40002bc8:	de 07 bf 54 	ld  [ %fp + -172 ], %o7
40002bcc:	10 bf ff 71 	b  40002990 <_vfprintf_r+0x340>
40002bd0:	ba 07 bf 58 	add  %fp, -168, %i5
40002bd4:	40 00 11 ff 	call  400073d0 <__sinit>
40002bd8:	90 10 00 18 	mov  %i0, %o0
40002bdc:	03 10 00 3b 	sethi  %hi(0x4000ec00), %g1
40002be0:	82 10 62 50 	or  %g1, 0x250, %g1	! 4000ee50 <__sf_fake_stdin>
40002be4:	80 a6 40 01 	cmp  %i1, %g1
40002be8:	12 bf fe af 	bne  400026a4 <_vfprintf_r+0x54>
40002bec:	03 10 00 3b 	sethi  %hi(0x4000ec00), %g1
40002bf0:	10 bf fe b5 	b  400026c4 <_vfprintf_r+0x74>
40002bf4:	f2 06 20 04 	ld  [ %i0 + 4 ], %i1
40002bf8:	10 bf fe b3 	b  400026c4 <_vfprintf_r+0x74>
40002bfc:	f2 06 20 08 	ld  [ %i0 + 8 ], %i1
40002c00:	40 00 13 36 	call  400078d8 <_localeconv_r>
40002c04:	90 10 00 18 	mov  %i0, %o0
40002c08:	c2 02 20 04 	ld  [ %o0 + 4 ], %g1
40002c0c:	c2 27 be 98 	st  %g1, [ %fp + -360 ]
40002c10:	40 00 1c 87 	call  40009e2c <strlen>
40002c14:	90 10 00 01 	mov  %g1, %o0
40002c18:	82 10 00 08 	mov  %o0, %g1
40002c1c:	90 10 00 18 	mov  %i0, %o0
40002c20:	ac 10 00 01 	mov  %g1, %l6
40002c24:	40 00 13 2d 	call  400078d8 <_localeconv_r>
40002c28:	c2 27 be 9c 	st  %g1, [ %fp + -356 ]
40002c2c:	82 95 a0 00 	orcc  %l6, 0, %g1
40002c30:	c2 02 20 08 	ld  [ %o0 + 8 ], %g1
40002c34:	12 80 03 45 	bne  40003948 <_vfprintf_r+0x12f8>
40002c38:	c2 27 be a0 	st  %g1, [ %fp + -352 ]
40002c3c:	c4 0e 80 00 	ldub  [ %i2 ], %g2
40002c40:	10 bf fe f8 	b  40002820 <_vfprintf_r+0x1d0>
40002c44:	83 28 a0 18 	sll  %g2, 0x18, %g1
40002c48:	c4 0e 80 00 	ldub  [ %i2 ], %g2
40002c4c:	a4 14 a0 20 	or  %l2, 0x20, %l2
40002c50:	10 bf fe f4 	b  40002820 <_vfprintf_r+0x1d0>
40002c54:	83 28 a0 18 	sll  %g2, 0x18, %g1
40002c58:	a4 14 a0 10 	or  %l2, 0x10, %l2
40002c5c:	80 8c a0 20 	btst  0x20, %l2
40002c60:	02 80 03 25 	be  400038f4 <_vfprintf_r+0x12a4>
40002c64:	c2 07 be dc 	ld  [ %fp + -292 ], %g1
40002c68:	92 10 00 01 	mov  %g1, %o1
40002c6c:	82 00 60 08 	add  %g1, 8, %g1
40002c70:	94 10 20 08 	mov  8, %o2
40002c74:	90 07 bf 18 	add  %fp, -232, %o0
40002c78:	7f ff fd 74 	call  40002248 <memcpy>
40002c7c:	c2 27 be dc 	st  %g1, [ %fp + -292 ]
40002c80:	c4 07 bf 18 	ld  [ %fp + -232 ], %g2
40002c84:	ea 07 bf 1c 	ld  [ %fp + -228 ], %l5
40002c88:	a8 10 00 02 	mov  %g2, %l4
40002c8c:	80 a0 a0 00 	cmp  %g2, 0
40002c90:	06 80 03 27 	bl  4000392c <_vfprintf_r+0x12dc>
40002c94:	80 a7 3f ff 	cmp  %i4, -1
40002c98:	02 80 02 5b 	be  40003604 <_vfprintf_r+0xfb4>
40002c9c:	80 a7 20 00 	cmp  %i4, 0
40002ca0:	12 80 02 59 	bne  40003604 <_vfprintf_r+0xfb4>
40002ca4:	a4 0c bf 7f 	and  %l2, -129, %l2
40002ca8:	80 95 00 15 	orcc  %l4, %l5, %g0
40002cac:	32 80 02 57 	bne,a   40003608 <_vfprintf_r+0xfb8>
40002cb0:	a2 10 00 12 	mov  %l2, %l1
40002cb4:	c0 27 be e0 	clr  [ %fp + -288 ]
40002cb8:	a6 07 bf fc 	add  %fp, -4, %l3
40002cbc:	10 80 00 44 	b  40002dcc <_vfprintf_r+0x77c>
40002cc0:	c2 07 be e0 	ld  [ %fp + -288 ], %g1
40002cc4:	c2 07 be dc 	ld  [ %fp + -292 ], %g1
40002cc8:	c0 2f be f7 	clrb  [ %fp + -265 ]
40002ccc:	c4 00 40 00 	ld  [ %g1 ], %g2
40002cd0:	82 00 60 04 	add  %g1, 4, %g1
40002cd4:	c4 2f bf 98 	stb  %g2, [ %fp + -104 ]
40002cd8:	10 bf fe e1 	b  4000285c <_vfprintf_r+0x20c>
40002cdc:	c2 27 be dc 	st  %g1, [ %fp + -292 ]
40002ce0:	c2 07 be dc 	ld  [ %fp + -292 ], %g1
40002ce4:	c0 2f be f7 	clrb  [ %fp + -265 ]
40002ce8:	e6 00 40 00 	ld  [ %g1 ], %l3
40002cec:	82 00 60 04 	add  %g1, 4, %g1
40002cf0:	80 a4 e0 00 	cmp  %l3, 0
40002cf4:	02 80 04 3b 	be  40003de0 <_vfprintf_r+0x1790>
40002cf8:	c2 27 be dc 	st  %g1, [ %fp + -292 ]
40002cfc:	80 a7 3f ff 	cmp  %i4, -1
40002d00:	02 80 04 fb 	be  400040ec <_vfprintf_r+0x1a9c>
40002d04:	94 10 00 1c 	mov  %i4, %o2
40002d08:	92 10 20 00 	clr  %o1
40002d0c:	40 00 15 84 	call  4000831c <memchr>
40002d10:	90 10 00 13 	mov  %l3, %o0
40002d14:	80 a2 20 00 	cmp  %o0, 0
40002d18:	02 80 08 02 	be  40004d20 <_vfprintf_r+0x26d0>
40002d1c:	d0 27 be e8 	st  %o0, [ %fp + -280 ]
40002d20:	82 22 00 13 	sub  %o0, %l3, %g1
40002d24:	da 0f be f7 	ldub  [ %fp + -265 ], %o5
40002d28:	a2 38 00 01 	xnor  %g0, %g1, %l1
40002d2c:	c2 27 be e0 	st  %g1, [ %fp + -288 ]
40002d30:	a3 3c 60 1f 	sra  %l1, 0x1f, %l1
40002d34:	c0 27 be e8 	clr  [ %fp + -280 ]
40002d38:	b8 10 20 00 	clr  %i4
40002d3c:	a2 08 40 11 	and  %g1, %l1, %l1
40002d40:	c0 27 be bc 	clr  [ %fp + -324 ]
40002d44:	c0 27 be c0 	clr  [ %fp + -320 ]
40002d48:	10 bf fe cf 	b  40002884 <_vfprintf_r+0x234>
40002d4c:	c0 27 be c8 	clr  [ %fp + -312 ]
40002d50:	a4 14 a0 10 	or  %l2, 0x10, %l2
40002d54:	80 8c a0 20 	btst  0x20, %l2
40002d58:	02 80 02 ce 	be  40003890 <_vfprintf_r+0x1240>
40002d5c:	c2 07 be dc 	ld  [ %fp + -292 ], %g1
40002d60:	92 10 00 01 	mov  %g1, %o1
40002d64:	82 00 60 08 	add  %g1, 8, %g1
40002d68:	94 10 20 08 	mov  8, %o2
40002d6c:	90 07 bf 30 	add  %fp, -208, %o0
40002d70:	7f ff fd 36 	call  40002248 <memcpy>
40002d74:	c2 27 be dc 	st  %g1, [ %fp + -292 ]
40002d78:	a2 0c bb ff 	and  %l2, -1025, %l1
40002d7c:	e8 1f bf 30 	ldd  [ %fp + -208 ], %l4
40002d80:	84 10 20 00 	clr  %g2
40002d84:	c0 2f be f7 	clrb  [ %fp + -265 ]
40002d88:	80 a7 3f ff 	cmp  %i4, -1
40002d8c:	02 80 01 40 	be  4000328c <_vfprintf_r+0xc3c>
40002d90:	80 95 00 15 	orcc  %l4, %l5, %g0
40002d94:	12 80 01 3d 	bne  40003288 <_vfprintf_r+0xc38>
40002d98:	a4 0c 7f 7f 	and  %l1, -129, %l2
40002d9c:	80 a7 20 00 	cmp  %i4, 0
40002da0:	12 80 01 3a 	bne  40003288 <_vfprintf_r+0xc38>
40002da4:	80 88 a0 ff 	btst  0xff, %g2
40002da8:	12 bf ff c3 	bne  40002cb4 <_vfprintf_r+0x664>
40002dac:	b8 10 20 00 	clr  %i4
40002db0:	82 8c 60 01 	andcc  %l1, 1, %g1
40002db4:	c2 27 be e0 	st  %g1, [ %fp + -288 ]
40002db8:	02 80 00 05 	be  40002dcc <_vfprintf_r+0x77c>
40002dbc:	a6 07 bf fc 	add  %fp, -4, %l3
40002dc0:	84 10 20 30 	mov  0x30, %g2
40002dc4:	a6 07 bf fb 	add  %fp, -5, %l3
40002dc8:	c4 2f bf fb 	stb  %g2, [ %fp + -5 ]
40002dcc:	da 0f be f7 	ldub  [ %fp + -265 ], %o5
40002dd0:	80 a7 00 01 	cmp  %i4, %g1
40002dd4:	16 80 00 03 	bge  40002de0 <_vfprintf_r+0x790>
40002dd8:	a2 10 00 1c 	mov  %i4, %l1
40002ddc:	a2 10 00 01 	mov  %g1, %l1
40002de0:	c0 27 be e8 	clr  [ %fp + -280 ]
40002de4:	c0 27 be bc 	clr  [ %fp + -324 ]
40002de8:	c0 27 be c0 	clr  [ %fp + -320 ]
40002dec:	10 bf fe a6 	b  40002884 <_vfprintf_r+0x234>
40002df0:	c0 27 be c8 	clr  [ %fp + -312 ]
40002df4:	c4 07 be dc 	ld  [ %fp + -292 ], %g2
40002df8:	c2 00 80 00 	ld  [ %g2 ], %g1
40002dfc:	84 00 a0 04 	add  %g2, 4, %g2
40002e00:	80 8c a0 20 	btst  0x20, %l2
40002e04:	12 80 02 f8 	bne  400039e4 <_vfprintf_r+0x1394>
40002e08:	c4 27 be dc 	st  %g2, [ %fp + -292 ]
40002e0c:	80 8c a0 10 	btst  0x10, %l2
40002e10:	12 80 04 ab 	bne  400040bc <_vfprintf_r+0x1a6c>
40002e14:	c4 07 be ec 	ld  [ %fp + -276 ], %g2
40002e18:	80 8c a0 40 	btst  0x40, %l2
40002e1c:	32 bf fe 51 	bne,a   40002760 <_vfprintf_r+0x110>
40002e20:	c4 30 40 00 	sth  %g2, [ %g1 ]
40002e24:	80 8c a2 00 	btst  0x200, %l2
40002e28:	22 bf fe 4e 	be,a   40002760 <_vfprintf_r+0x110>
40002e2c:	c4 20 40 00 	st  %g2, [ %g1 ]
40002e30:	c4 07 be ec 	ld  [ %fp + -276 ], %g2
40002e34:	10 bf fe 4b 	b  40002760 <_vfprintf_r+0x110>
40002e38:	c4 28 40 00 	stb  %g2, [ %g1 ]
40002e3c:	c2 07 be dc 	ld  [ %fp + -292 ], %g1
40002e40:	e8 00 40 00 	ld  [ %g1 ], %l4
40002e44:	82 00 60 04 	add  %g1, 4, %g1
40002e48:	c2 27 be dc 	st  %g1, [ %fp + -292 ]
40002e4c:	03 00 00 0c 	sethi  %hi(0x3000), %g1
40002e50:	82 10 60 78 	or  %g1, 0x78, %g1	! 3078 <__data_size+0x2a68>
40002e54:	aa 10 00 14 	mov  %l4, %l5
40002e58:	c2 37 be f8 	sth  %g1, [ %fp + -264 ]
40002e5c:	a8 10 20 00 	clr  %l4
40002e60:	03 10 00 3b 	sethi  %hi(0x4000ec00), %g1
40002e64:	a2 14 a0 02 	or  %l2, 2, %l1
40002e68:	82 10 61 28 	or  %g1, 0x128, %g1
40002e6c:	84 10 20 02 	mov  2, %g2
40002e70:	c2 27 be a8 	st  %g1, [ %fp + -344 ]
40002e74:	10 bf ff c4 	b  40002d84 <_vfprintf_r+0x734>
40002e78:	ac 10 20 78 	mov  0x78, %l6
40002e7c:	c4 0e 80 00 	ldub  [ %i2 ], %g2
40002e80:	83 28 a0 18 	sll  %g2, 0x18, %g1
40002e84:	85 38 60 18 	sra  %g1, 0x18, %g2
40002e88:	80 a0 a0 6c 	cmp  %g2, 0x6c
40002e8c:	22 80 03 a1 	be,a   40003d10 <_vfprintf_r+0x16c0>
40002e90:	c4 0e a0 01 	ldub  [ %i2 + 1 ], %g2
40002e94:	10 bf fe 63 	b  40002820 <_vfprintf_r+0x1d0>
40002e98:	a4 14 a0 10 	or  %l2, 0x10, %l2
40002e9c:	c4 0e 80 00 	ldub  [ %i2 ], %g2
40002ea0:	83 28 a0 18 	sll  %g2, 0x18, %g1
40002ea4:	85 38 60 18 	sra  %g1, 0x18, %g2
40002ea8:	80 a0 a0 68 	cmp  %g2, 0x68
40002eac:	22 80 03 9d 	be,a   40003d20 <_vfprintf_r+0x16d0>
40002eb0:	c4 0e a0 01 	ldub  [ %i2 + 1 ], %g2
40002eb4:	10 bf fe 5b 	b  40002820 <_vfprintf_r+0x1d0>
40002eb8:	a4 14 a0 40 	or  %l2, 0x40, %l2
40002ebc:	a2 14 a0 10 	or  %l2, 0x10, %l1
40002ec0:	80 8c 60 20 	btst  0x20, %l1
40002ec4:	02 80 02 80 	be  400038c4 <_vfprintf_r+0x1274>
40002ec8:	c2 07 be dc 	ld  [ %fp + -292 ], %g1
40002ecc:	92 10 00 01 	mov  %g1, %o1
40002ed0:	82 00 60 08 	add  %g1, 8, %g1
40002ed4:	94 10 20 08 	mov  8, %o2
40002ed8:	90 07 bf 38 	add  %fp, -200, %o0
40002edc:	7f ff fc db 	call  40002248 <memcpy>
40002ee0:	c2 27 be dc 	st  %g1, [ %fp + -292 ]
40002ee4:	84 10 20 01 	mov  1, %g2
40002ee8:	10 bf ff a7 	b  40002d84 <_vfprintf_r+0x734>
40002eec:	e8 1f bf 38 	ldd  [ %fp + -200 ], %l4
40002ef0:	c4 0e 80 00 	ldub  [ %i2 ], %g2
40002ef4:	a4 14 a0 80 	or  %l2, 0x80, %l2
40002ef8:	10 bf fe 4a 	b  40002820 <_vfprintf_r+0x1d0>
40002efc:	83 28 a0 18 	sll  %g2, 0x18, %g1
40002f00:	ec 4e 80 00 	ldsb  [ %i2 ], %l6
40002f04:	80 a5 a0 2a 	cmp  %l6, 0x2a
40002f08:	02 80 08 5a 	be  40005070 <_vfprintf_r+0x2a20>
40002f0c:	86 06 a0 01 	add  %i2, 1, %g3
40002f10:	82 05 bf d0 	add  %l6, -48, %g1
40002f14:	b4 10 00 03 	mov  %g3, %i2
40002f18:	80 a0 60 09 	cmp  %g1, 9
40002f1c:	18 bf fe 43 	bgu  40002828 <_vfprintf_r+0x1d8>
40002f20:	b8 10 20 00 	clr  %i4
40002f24:	85 2f 20 02 	sll  %i4, 2, %g2
40002f28:	b4 06 a0 01 	inc  %i2
40002f2c:	b8 00 80 1c 	add  %g2, %i4, %i4
40002f30:	ec 4e bf ff 	ldsb  [ %i2 + -1 ], %l6
40002f34:	b9 2f 20 01 	sll  %i4, 1, %i4
40002f38:	b8 07 00 01 	add  %i4, %g1, %i4
40002f3c:	82 05 bf d0 	add  %l6, -48, %g1
40002f40:	80 a0 60 09 	cmp  %g1, 9
40002f44:	08 bf ff f9 	bleu  40002f28 <_vfprintf_r+0x8d8>
40002f48:	85 2f 20 02 	sll  %i4, 2, %g2
40002f4c:	10 bf fe 38 	b  4000282c <_vfprintf_r+0x1dc>
40002f50:	82 05 bf e0 	add  %l6, -32, %g1
40002f54:	c4 0e 80 00 	ldub  [ %i2 ], %g2
40002f58:	a4 14 a0 04 	or  %l2, 4, %l2
40002f5c:	10 bf fe 31 	b  40002820 <_vfprintf_r+0x1d0>
40002f60:	83 28 a0 18 	sll  %g2, 0x18, %g1
40002f64:	c4 0e 80 00 	ldub  [ %i2 ], %g2
40002f68:	e2 2f be f7 	stb  %l1, [ %fp + -265 ]
40002f6c:	10 bf fe 2d 	b  40002820 <_vfprintf_r+0x1d0>
40002f70:	83 28 a0 18 	sll  %g2, 0x18, %g1
40002f74:	c2 07 be dc 	ld  [ %fp + -292 ], %g1
40002f78:	f6 00 40 00 	ld  [ %g1 ], %i3
40002f7c:	82 00 60 04 	add  %g1, 4, %g1
40002f80:	c2 27 be dc 	st  %g1, [ %fp + -292 ]
40002f84:	c4 0e 80 00 	ldub  [ %i2 ], %g2
40002f88:	80 a6 e0 00 	cmp  %i3, 0
40002f8c:	16 bf fe 25 	bge  40002820 <_vfprintf_r+0x1d0>
40002f90:	83 28 a0 18 	sll  %g2, 0x18, %g1
40002f94:	b6 20 00 1b 	neg  %i3
40002f98:	10 bf fe 22 	b  40002820 <_vfprintf_r+0x1d0>
40002f9c:	a4 14 a0 04 	or  %l2, 4, %l2
40002fa0:	c4 0e 80 00 	ldub  [ %i2 ], %g2
40002fa4:	a4 14 a0 01 	or  %l2, 1, %l2
40002fa8:	10 bf fe 1e 	b  40002820 <_vfprintf_r+0x1d0>
40002fac:	83 28 a0 18 	sll  %g2, 0x18, %g1
40002fb0:	c4 0e 80 00 	ldub  [ %i2 ], %g2
40002fb4:	c6 4f be f7 	ldsb  [ %fp + -265 ], %g3
40002fb8:	80 a0 e0 00 	cmp  %g3, 0
40002fbc:	12 bf fe 19 	bne  40002820 <_vfprintf_r+0x1d0>
40002fc0:	83 28 a0 18 	sll  %g2, 0x18, %g1
40002fc4:	10 bf fe 17 	b  40002820 <_vfprintf_r+0x1d0>
40002fc8:	e6 2f be f7 	stb  %l3, [ %fp + -265 ]
40002fcc:	c4 0e 80 00 	ldub  [ %i2 ], %g2
40002fd0:	a4 14 a0 08 	or  %l2, 8, %l2
40002fd4:	10 bf fe 13 	b  40002820 <_vfprintf_r+0x1d0>
40002fd8:	83 28 a0 18 	sll  %g2, 0x18, %g1
40002fdc:	24 bf fe be 	ble,a   40002ad4 <_vfprintf_r+0x484>
40002fe0:	e6 27 40 00 	st  %l3, [ %i5 ]
40002fe4:	03 10 00 3b 	sethi  %hi(0x4000ec00), %g1
40002fe8:	d1 1f be b0 	ldd  [ %fp + -336 ], %f8
40002fec:	d5 18 61 68 	ldd  [ %g1 + 0x168 ], %f10
40002ff0:	81 aa 0a 4a 	fcmpd  %f8, %f10
40002ff4:	01 00 00 00 	nop 
40002ff8:	03 80 01 8f 	fbne  40003634 <_vfprintf_r+0xfe4>
40002ffc:	c8 07 bf 00 	ld  [ %fp + -256 ], %g4
40003000:	05 10 00 3b 	sethi  %hi(0x4000ec00), %g2
40003004:	84 10 a1 60 	or  %g2, 0x160, %g2	! 4000ed60 <_global_impure_ptr+0x5c>
40003008:	c2 07 bf 50 	ld  [ %fp + -176 ], %g1
4000300c:	c4 27 40 00 	st  %g2, [ %i5 ]
40003010:	82 00 60 01 	inc  %g1
40003014:	9e 03 e0 01 	inc  %o7
40003018:	84 10 20 01 	mov  1, %g2
4000301c:	de 27 bf 54 	st  %o7, [ %fp + -172 ]
40003020:	c4 27 60 04 	st  %g2, [ %i5 + 4 ]
40003024:	c2 27 bf 50 	st  %g1, [ %fp + -176 ]
40003028:	80 a0 60 07 	cmp  %g1, 7
4000302c:	14 80 04 1b 	bg  40004098 <_vfprintf_r+0x1a48>
40003030:	ba 07 60 08 	add  %i5, 8, %i5
40003034:	c2 07 bf 00 	ld  [ %fp + -256 ], %g1
40003038:	c4 07 be c4 	ld  [ %fp + -316 ], %g2
4000303c:	80 a0 40 02 	cmp  %g1, %g2
40003040:	16 80 02 4b 	bge  4000396c <_vfprintf_r+0x131c>
40003044:	80 8c a0 01 	btst  1, %l2
40003048:	c4 07 be b8 	ld  [ %fp + -328 ], %g2
4000304c:	c2 07 bf 50 	ld  [ %fp + -176 ], %g1
40003050:	9e 03 c0 02 	add  %o7, %g2, %o7
40003054:	82 00 60 01 	inc  %g1
40003058:	c6 07 be ac 	ld  [ %fp + -340 ], %g3
4000305c:	c4 27 60 04 	st  %g2, [ %i5 + 4 ]
40003060:	c6 27 40 00 	st  %g3, [ %i5 ]
40003064:	de 27 bf 54 	st  %o7, [ %fp + -172 ]
40003068:	c2 27 bf 50 	st  %g1, [ %fp + -176 ]
4000306c:	80 a0 60 07 	cmp  %g1, 7
40003070:	14 80 03 30 	bg  40003d30 <_vfprintf_r+0x16e0>
40003074:	ba 07 60 08 	add  %i5, 8, %i5
40003078:	c2 07 be c4 	ld  [ %fp + -316 ], %g1
4000307c:	b8 00 7f ff 	add  %g1, -1, %i4
40003080:	80 a7 20 00 	cmp  %i4, 0
40003084:	04 bf fe 44 	ble  40002994 <_vfprintf_r+0x344>
40003088:	80 8c a0 04 	btst  4, %l2
4000308c:	80 a7 20 10 	cmp  %i4, 0x10
40003090:	04 80 03 98 	ble  40003ef0 <_vfprintf_r+0x18a0>
40003094:	c2 07 bf 50 	ld  [ %fp + -176 ], %g1
40003098:	10 80 00 06 	b  400030b0 <_vfprintf_r+0xa60>
4000309c:	a6 10 20 10 	mov  0x10, %l3
400030a0:	b8 07 3f f0 	add  %i4, -16, %i4
400030a4:	80 a7 20 10 	cmp  %i4, 0x10
400030a8:	24 80 03 93 	ble,a   40003ef4 <_vfprintf_r+0x18a4>
400030ac:	e0 27 40 00 	st  %l0, [ %i5 ]
400030b0:	82 00 60 01 	inc  %g1
400030b4:	9e 03 e0 10 	add  %o7, 0x10, %o7
400030b8:	e0 27 40 00 	st  %l0, [ %i5 ]
400030bc:	e6 27 60 04 	st  %l3, [ %i5 + 4 ]
400030c0:	de 27 bf 54 	st  %o7, [ %fp + -172 ]
400030c4:	c2 27 bf 50 	st  %g1, [ %fp + -176 ]
400030c8:	80 a0 60 07 	cmp  %g1, 7
400030cc:	04 bf ff f5 	ble  400030a0 <_vfprintf_r+0xa50>
400030d0:	ba 07 60 08 	add  %i5, 8, %i5
400030d4:	94 07 bf 4c 	add  %fp, -180, %o2
400030d8:	92 10 00 19 	mov  %i1, %o1
400030dc:	40 00 1c 45 	call  4000a1f0 <__sprint_r>
400030e0:	90 10 00 18 	mov  %i0, %o0
400030e4:	80 a2 20 00 	cmp  %o0, 0
400030e8:	12 80 00 a1 	bne  4000336c <_vfprintf_r+0xd1c>
400030ec:	de 07 bf 54 	ld  [ %fp + -172 ], %o7
400030f0:	c2 07 bf 50 	ld  [ %fp + -176 ], %g1
400030f4:	10 bf ff eb 	b  400030a0 <_vfprintf_r+0xa50>
400030f8:	ba 07 bf 58 	add  %fp, -168, %i5
400030fc:	80 a5 e0 00 	cmp  %l7, 0
40003100:	04 bf fe 12 	ble  40002948 <_vfprintf_r+0x2f8>
40003104:	c2 07 be e0 	ld  [ %fp + -288 ], %g1
40003108:	80 a5 e0 10 	cmp  %l7, 0x10
4000310c:	04 80 00 1e 	ble  40003184 <_vfprintf_r+0xb34>
40003110:	da 07 bf 50 	ld  [ %fp + -176 ], %o5
40003114:	10 80 00 06 	b  4000312c <_vfprintf_r+0xadc>
40003118:	88 10 20 10 	mov  0x10, %g4
4000311c:	ae 05 ff f0 	add  %l7, -16, %l7
40003120:	80 a5 e0 10 	cmp  %l7, 0x10
40003124:	24 80 00 19 	ble,a   40003188 <_vfprintf_r+0xb38>
40003128:	9a 03 60 01 	inc  %o5
4000312c:	9a 03 60 01 	inc  %o5
40003130:	9e 03 e0 10 	add  %o7, 0x10, %o7
40003134:	e0 27 40 00 	st  %l0, [ %i5 ]
40003138:	c8 27 60 04 	st  %g4, [ %i5 + 4 ]
4000313c:	de 27 bf 54 	st  %o7, [ %fp + -172 ]
40003140:	da 27 bf 50 	st  %o5, [ %fp + -176 ]
40003144:	80 a3 60 07 	cmp  %o5, 7
40003148:	04 bf ff f5 	ble  4000311c <_vfprintf_r+0xacc>
4000314c:	ba 07 60 08 	add  %i5, 8, %i5
40003150:	94 07 bf 4c 	add  %fp, -180, %o2
40003154:	92 10 00 19 	mov  %i1, %o1
40003158:	40 00 1c 26 	call  4000a1f0 <__sprint_r>
4000315c:	90 10 00 18 	mov  %i0, %o0
40003160:	80 a2 20 00 	cmp  %o0, 0
40003164:	12 80 00 82 	bne  4000336c <_vfprintf_r+0xd1c>
40003168:	ae 05 ff f0 	add  %l7, -16, %l7
4000316c:	de 07 bf 54 	ld  [ %fp + -172 ], %o7
40003170:	da 07 bf 50 	ld  [ %fp + -176 ], %o5
40003174:	ba 07 bf 58 	add  %fp, -168, %i5
40003178:	80 a5 e0 10 	cmp  %l7, 0x10
4000317c:	14 bf ff ec 	bg  4000312c <_vfprintf_r+0xadc>
40003180:	88 10 20 10 	mov  0x10, %g4
40003184:	9a 03 60 01 	inc  %o5
40003188:	9e 03 c0 17 	add  %o7, %l7, %o7
4000318c:	e0 27 40 00 	st  %l0, [ %i5 ]
40003190:	ee 27 60 04 	st  %l7, [ %i5 + 4 ]
40003194:	de 27 bf 54 	st  %o7, [ %fp + -172 ]
40003198:	da 27 bf 50 	st  %o5, [ %fp + -176 ]
4000319c:	80 a3 60 07 	cmp  %o5, 7
400031a0:	04 bf fd e9 	ble  40002944 <_vfprintf_r+0x2f4>
400031a4:	ba 07 60 08 	add  %i5, 8, %i5
400031a8:	94 07 bf 4c 	add  %fp, -180, %o2
400031ac:	92 10 00 19 	mov  %i1, %o1
400031b0:	40 00 1c 10 	call  4000a1f0 <__sprint_r>
400031b4:	90 10 00 18 	mov  %i0, %o0
400031b8:	80 a2 20 00 	cmp  %o0, 0
400031bc:	12 80 00 6c 	bne  4000336c <_vfprintf_r+0xd1c>
400031c0:	de 07 bf 54 	ld  [ %fp + -172 ], %o7
400031c4:	10 bf fd e0 	b  40002944 <_vfprintf_r+0x2f4>
400031c8:	ba 07 bf 58 	add  %fp, -168, %i5
400031cc:	04 80 00 1d 	ble  40003240 <_vfprintf_r+0xbf0>
400031d0:	c8 07 bf 50 	ld  [ %fp + -176 ], %g4
400031d4:	10 80 00 06 	b  400031ec <_vfprintf_r+0xb9c>
400031d8:	ae 10 20 10 	mov  0x10, %l7
400031dc:	b8 07 3f f0 	add  %i4, -16, %i4
400031e0:	80 a7 20 10 	cmp  %i4, 0x10
400031e4:	24 80 00 18 	ble,a   40003244 <_vfprintf_r+0xbf4>
400031e8:	88 01 20 01 	inc  %g4
400031ec:	88 01 20 01 	inc  %g4
400031f0:	9e 03 e0 10 	add  %o7, 0x10, %o7
400031f4:	e0 27 40 00 	st  %l0, [ %i5 ]
400031f8:	ee 27 60 04 	st  %l7, [ %i5 + 4 ]
400031fc:	de 27 bf 54 	st  %o7, [ %fp + -172 ]
40003200:	c8 27 bf 50 	st  %g4, [ %fp + -176 ]
40003204:	80 a1 20 07 	cmp  %g4, 7
40003208:	04 bf ff f5 	ble  400031dc <_vfprintf_r+0xb8c>
4000320c:	ba 07 60 08 	add  %i5, 8, %i5
40003210:	94 07 bf 4c 	add  %fp, -180, %o2
40003214:	92 10 00 19 	mov  %i1, %o1
40003218:	40 00 1b f6 	call  4000a1f0 <__sprint_r>
4000321c:	90 10 00 18 	mov  %i0, %o0
40003220:	80 a2 20 00 	cmp  %o0, 0
40003224:	12 80 00 52 	bne  4000336c <_vfprintf_r+0xd1c>
40003228:	b8 07 3f f0 	add  %i4, -16, %i4
4000322c:	de 07 bf 54 	ld  [ %fp + -172 ], %o7
40003230:	c8 07 bf 50 	ld  [ %fp + -176 ], %g4
40003234:	80 a7 20 10 	cmp  %i4, 0x10
40003238:	14 bf ff ed 	bg  400031ec <_vfprintf_r+0xb9c>
4000323c:	ba 07 bf 58 	add  %fp, -168, %i5
40003240:	88 01 20 01 	inc  %g4
40003244:	9e 03 c0 1c 	add  %o7, %i4, %o7
40003248:	e0 27 40 00 	st  %l0, [ %i5 ]
4000324c:	f8 27 60 04 	st  %i4, [ %i5 + 4 ]
40003250:	de 27 bf 54 	st  %o7, [ %fp + -172 ]
40003254:	c8 27 bf 50 	st  %g4, [ %fp + -176 ]
40003258:	80 a1 20 07 	cmp  %g4, 7
4000325c:	04 bf fd bf 	ble  40002958 <_vfprintf_r+0x308>
40003260:	ba 07 60 08 	add  %i5, 8, %i5
40003264:	94 07 bf 4c 	add  %fp, -180, %o2
40003268:	92 10 00 19 	mov  %i1, %o1
4000326c:	40 00 1b e1 	call  4000a1f0 <__sprint_r>
40003270:	90 10 00 18 	mov  %i0, %o0
40003274:	80 a2 20 00 	cmp  %o0, 0
40003278:	12 80 00 3d 	bne  4000336c <_vfprintf_r+0xd1c>
4000327c:	de 07 bf 54 	ld  [ %fp + -172 ], %o7
40003280:	10 bf fd b6 	b  40002958 <_vfprintf_r+0x308>
40003284:	ba 07 bf 58 	add  %fp, -168, %i5
40003288:	a2 10 00 12 	mov  %l2, %l1
4000328c:	84 08 a0 ff 	and  %g2, 0xff, %g2
40003290:	80 a0 a0 01 	cmp  %g2, 1
40003294:	02 80 00 dd 	be  40003608 <_vfprintf_r+0xfb8>
40003298:	a4 07 bf fc 	add  %fp, -4, %l2
4000329c:	80 a0 a0 02 	cmp  %g2, 2
400032a0:	12 80 00 12 	bne  400032e8 <_vfprintf_r+0xc98>
400032a4:	a6 10 00 12 	mov  %l2, %l3
400032a8:	c8 07 be a8 	ld  [ %fp + -344 ], %g4
400032ac:	82 0d 60 0f 	and  %l5, 0xf, %g1
400032b0:	a6 04 ff ff 	add  %l3, -1, %l3
400032b4:	c2 09 00 01 	ldub  [ %g4 + %g1 ], %g1
400032b8:	c2 2c c0 00 	stb  %g1, [ %l3 ]
400032bc:	85 2d 20 1c 	sll  %l4, 0x1c, %g2
400032c0:	87 35 20 04 	srl  %l4, 4, %g3
400032c4:	83 35 60 04 	srl  %l5, 4, %g1
400032c8:	aa 10 80 01 	or  %g2, %g1, %l5
400032cc:	80 90 c0 15 	orcc  %g3, %l5, %g0
400032d0:	12 bf ff f7 	bne  400032ac <_vfprintf_r+0xc5c>
400032d4:	a8 10 00 03 	mov  %g3, %l4
400032d8:	82 24 80 13 	sub  %l2, %l3, %g1
400032dc:	a4 10 00 11 	mov  %l1, %l2
400032e0:	10 bf fe bb 	b  40002dcc <_vfprintf_r+0x77c>
400032e4:	c2 27 be e0 	st  %g1, [ %fp + -288 ]
400032e8:	98 10 00 13 	mov  %l3, %o4
400032ec:	86 0d 60 07 	and  %l5, 7, %g3
400032f0:	a6 04 ff ff 	add  %l3, -1, %l3
400032f4:	86 00 e0 30 	add  %g3, 0x30, %g3
400032f8:	c6 2c c0 00 	stb  %g3, [ %l3 ]
400032fc:	85 2d 20 1d 	sll  %l4, 0x1d, %g2
40003300:	89 35 20 03 	srl  %l4, 3, %g4
40003304:	83 35 60 03 	srl  %l5, 3, %g1
40003308:	aa 10 80 01 	or  %g2, %g1, %l5
4000330c:	80 91 00 15 	orcc  %g4, %l5, %g0
40003310:	12 bf ff f6 	bne  400032e8 <_vfprintf_r+0xc98>
40003314:	a8 10 00 04 	mov  %g4, %l4
40003318:	86 08 e0 7f 	and  %g3, 0x7f, %g3
4000331c:	80 a0 e0 30 	cmp  %g3, 0x30
40003320:	02 bf ff ee 	be  400032d8 <_vfprintf_r+0xc88>
40003324:	80 8c 60 01 	btst  1, %l1
40003328:	22 bf ff ed 	be,a   400032dc <_vfprintf_r+0xc8c>
4000332c:	82 24 80 13 	sub  %l2, %l3, %g1
40003330:	98 03 3f fe 	add  %o4, -2, %o4
40003334:	86 10 20 30 	mov  0x30, %g3
40003338:	82 24 80 0c 	sub  %l2, %o4, %g1
4000333c:	c6 2c ff ff 	stb  %g3, [ %l3 + -1 ]
40003340:	c2 27 be e0 	st  %g1, [ %fp + -288 ]
40003344:	a4 10 00 11 	mov  %l1, %l2
40003348:	10 bf fe a1 	b  40002dcc <_vfprintf_r+0x77c>
4000334c:	a6 10 00 0c 	mov  %o4, %l3
40003350:	94 07 bf 4c 	add  %fp, -180, %o2
40003354:	92 10 00 19 	mov  %i1, %o1
40003358:	40 00 1b a6 	call  4000a1f0 <__sprint_r>
4000335c:	90 10 00 18 	mov  %i0, %o0
40003360:	80 a2 20 00 	cmp  %o0, 0
40003364:	22 bf fd 9b 	be,a   400029d0 <_vfprintf_r+0x380>
40003368:	c0 27 bf 50 	clr  [ %fp + -176 ]
4000336c:	c2 07 be e8 	ld  [ %fp + -280 ], %g1
40003370:	80 a0 60 00 	cmp  %g1, 0
40003374:	02 80 00 04 	be  40003384 <_vfprintf_r+0xd34>
40003378:	92 10 00 01 	mov  %g1, %o1
4000337c:	40 00 10 5a 	call  400074e4 <_free_r>
40003380:	90 10 00 18 	mov  %i0, %o0
40003384:	c2 16 60 0c 	lduh  [ %i1 + 0xc ], %g1
40003388:	80 88 60 40 	btst  0x40, %g1
4000338c:	12 80 06 ac 	bne  40004e3c <_vfprintf_r+0x27ec>
40003390:	82 10 3f ff 	mov  -1, %g1
40003394:	f0 07 be ec 	ld  [ %fp + -276 ], %i0
40003398:	81 c7 e0 08 	ret 
4000339c:	81 e8 00 00 	restore 
400033a0:	94 07 bf 4c 	add  %fp, -180, %o2
400033a4:	92 10 00 19 	mov  %i1, %o1
400033a8:	40 00 1b 92 	call  4000a1f0 <__sprint_r>
400033ac:	90 10 00 18 	mov  %i0, %o0
400033b0:	80 a2 20 00 	cmp  %o0, 0
400033b4:	12 bf ff f4 	bne  40003384 <_vfprintf_r+0xd34>
400033b8:	ba 07 bf 58 	add  %fp, -168, %i5
400033bc:	10 bf fd 0a 	b  400027e4 <_vfprintf_r+0x194>
400033c0:	c4 07 be ec 	ld  [ %fp + -276 ], %g2
400033c4:	d4 07 bf 50 	ld  [ %fp + -176 ], %o2
400033c8:	80 a1 20 10 	cmp  %g4, 0x10
400033cc:	04 80 00 2d 	ble  40003480 <_vfprintf_r+0xe30>
400033d0:	ae 13 61 a0 	or  %o5, 0x1a0, %l7
400033d4:	ae 13 61 a0 	or  %o5, 0x1a0, %l7
400033d8:	e8 3f be 88 	std  %l4, [ %fp + -376 ]
400033dc:	82 10 00 17 	mov  %l7, %g1
400033e0:	98 10 20 10 	mov  0x10, %o4
400033e4:	ae 10 00 1a 	mov  %i2, %l7
400033e8:	d6 27 be 94 	st  %o3, [ %fp + -364 ]
400033ec:	b4 10 00 1c 	mov  %i4, %i2
400033f0:	a8 10 00 04 	mov  %g4, %l4
400033f4:	10 80 00 06 	b  4000340c <_vfprintf_r+0xdbc>
400033f8:	b8 10 00 01 	mov  %g1, %i4
400033fc:	a8 05 3f f0 	add  %l4, -16, %l4
40003400:	80 a5 20 10 	cmp  %l4, 0x10
40003404:	04 80 00 19 	ble  40003468 <_vfprintf_r+0xe18>
40003408:	82 10 00 1c 	mov  %i4, %g1
4000340c:	94 02 a0 01 	inc  %o2
40003410:	9e 03 e0 10 	add  %o7, 0x10, %o7
40003414:	f8 27 40 00 	st  %i4, [ %i5 ]
40003418:	d8 27 60 04 	st  %o4, [ %i5 + 4 ]
4000341c:	de 27 bf 54 	st  %o7, [ %fp + -172 ]
40003420:	d4 27 bf 50 	st  %o2, [ %fp + -176 ]
40003424:	80 a2 a0 07 	cmp  %o2, 7
40003428:	04 bf ff f5 	ble  400033fc <_vfprintf_r+0xdac>
4000342c:	ba 07 60 08 	add  %i5, 8, %i5
40003430:	94 07 bf 4c 	add  %fp, -180, %o2
40003434:	92 10 00 19 	mov  %i1, %o1
40003438:	40 00 1b 6e 	call  4000a1f0 <__sprint_r>
4000343c:	90 10 00 18 	mov  %i0, %o0
40003440:	80 a2 20 00 	cmp  %o0, 0
40003444:	12 bf ff ca 	bne  4000336c <_vfprintf_r+0xd1c>
40003448:	de 07 bf 54 	ld  [ %fp + -172 ], %o7
4000344c:	a8 05 3f f0 	add  %l4, -16, %l4
40003450:	d4 07 bf 50 	ld  [ %fp + -176 ], %o2
40003454:	ba 07 bf 58 	add  %fp, -168, %i5
40003458:	80 a5 20 10 	cmp  %l4, 0x10
4000345c:	14 bf ff ec 	bg  4000340c <_vfprintf_r+0xdbc>
40003460:	98 10 20 10 	mov  0x10, %o4
40003464:	82 10 00 1c 	mov  %i4, %g1
40003468:	88 10 00 14 	mov  %l4, %g4
4000346c:	b8 10 00 1a 	mov  %i2, %i4
40003470:	d6 07 be 94 	ld  [ %fp + -364 ], %o3
40003474:	b4 10 00 17 	mov  %l7, %i2
40003478:	e8 1f be 88 	ldd  [ %fp + -376 ], %l4
4000347c:	ae 10 00 01 	mov  %g1, %l7
40003480:	94 02 a0 01 	inc  %o2
40003484:	9e 03 c0 04 	add  %o7, %g4, %o7
40003488:	ee 27 40 00 	st  %l7, [ %i5 ]
4000348c:	c8 27 60 04 	st  %g4, [ %i5 + 4 ]
40003490:	de 27 bf 54 	st  %o7, [ %fp + -172 ]
40003494:	80 a2 a0 07 	cmp  %o2, 7
40003498:	14 80 02 d0 	bg  40003fd8 <_vfprintf_r+0x1988>
4000349c:	d4 27 bf 50 	st  %o2, [ %fp + -176 ]
400034a0:	da 0f be f7 	ldub  [ %fp + -265 ], %o5
400034a4:	ba 07 60 08 	add  %i5, 8, %i5
400034a8:	10 bf fd 05 	b  400028bc <_vfprintf_r+0x26c>
400034ac:	9b 2b 60 18 	sll  %o5, 0x18, %o5
400034b0:	94 07 bf 4c 	add  %fp, -180, %o2
400034b4:	92 10 00 19 	mov  %i1, %o1
400034b8:	40 00 1b 4e 	call  4000a1f0 <__sprint_r>
400034bc:	90 10 00 18 	mov  %i0, %o0
400034c0:	80 a2 20 00 	cmp  %o0, 0
400034c4:	12 bf ff aa 	bne  4000336c <_vfprintf_r+0xd1c>
400034c8:	de 07 bf 54 	ld  [ %fp + -172 ], %o7
400034cc:	10 bf fd 1a 	b  40002934 <_vfprintf_r+0x2e4>
400034d0:	ba 07 bf 58 	add  %fp, -168, %i5
400034d4:	d6 27 be 94 	st  %o3, [ %fp + -364 ]
400034d8:	94 07 bf 4c 	add  %fp, -180, %o2
400034dc:	92 10 00 19 	mov  %i1, %o1
400034e0:	40 00 1b 44 	call  4000a1f0 <__sprint_r>
400034e4:	90 10 00 18 	mov  %i0, %o0
400034e8:	80 a2 20 00 	cmp  %o0, 0
400034ec:	12 bf ff a0 	bne  4000336c <_vfprintf_r+0xd1c>
400034f0:	de 07 bf 54 	ld  [ %fp + -172 ], %o7
400034f4:	ba 07 bf 58 	add  %fp, -168, %i5
400034f8:	10 bf fd 00 	b  400028f8 <_vfprintf_r+0x2a8>
400034fc:	d6 07 be 94 	ld  [ %fp + -364 ], %o3
40003500:	40 00 07 3c 	call  400051f0 <__swsetup_r>
40003504:	90 10 00 18 	mov  %i0, %o0
40003508:	80 a2 20 00 	cmp  %o0, 0
4000350c:	12 80 06 4c 	bne  40004e3c <_vfprintf_r+0x27ec>
40003510:	82 10 3f ff 	mov  -1, %g1
40003514:	c2 16 60 0c 	lduh  [ %i1 + 0xc ], %g1
40003518:	82 08 60 1a 	and  %g1, 0x1a, %g1
4000351c:	80 a0 60 0a 	cmp  %g1, 0xa
40003520:	12 bf fc 7e 	bne  40002718 <_vfprintf_r+0xc8>
40003524:	82 07 bf 58 	add  %fp, -168, %g1
40003528:	c2 56 60 0e 	ldsh  [ %i1 + 0xe ], %g1
4000352c:	80 a0 60 00 	cmp  %g1, 0
40003530:	06 bf fc 7a 	bl  40002718 <_vfprintf_r+0xc8>
40003534:	82 07 bf 58 	add  %fp, -168, %g1
40003538:	f6 07 be dc 	ld  [ %fp + -292 ], %i3
4000353c:	40 00 07 02 	call  40005144 <__sbprintf>
40003540:	81 e8 00 00 	restore 
40003544:	c2 07 bf 50 	ld  [ %fp + -176 ], %g1
40003548:	80 a7 20 10 	cmp  %i4, 0x10
4000354c:	04 80 00 1d 	ble  400035c0 <_vfprintf_r+0xf70>
40003550:	ae 13 61 a0 	or  %o5, 0x1a0, %l7
40003554:	10 80 00 06 	b  4000356c <_vfprintf_r+0xf1c>
40003558:	a4 10 20 10 	mov  0x10, %l2
4000355c:	b8 07 3f f0 	add  %i4, -16, %i4
40003560:	80 a7 20 10 	cmp  %i4, 0x10
40003564:	24 80 00 18 	ble,a   400035c4 <_vfprintf_r+0xf74>
40003568:	82 00 60 01 	inc  %g1
4000356c:	82 00 60 01 	inc  %g1
40003570:	9e 03 e0 10 	add  %o7, 0x10, %o7
40003574:	ee 27 40 00 	st  %l7, [ %i5 ]
40003578:	e4 27 60 04 	st  %l2, [ %i5 + 4 ]
4000357c:	de 27 bf 54 	st  %o7, [ %fp + -172 ]
40003580:	c2 27 bf 50 	st  %g1, [ %fp + -176 ]
40003584:	80 a0 60 07 	cmp  %g1, 7
40003588:	04 bf ff f5 	ble  4000355c <_vfprintf_r+0xf0c>
4000358c:	ba 07 60 08 	add  %i5, 8, %i5
40003590:	94 07 bf 4c 	add  %fp, -180, %o2
40003594:	92 10 00 19 	mov  %i1, %o1
40003598:	40 00 1b 16 	call  4000a1f0 <__sprint_r>
4000359c:	90 10 00 18 	mov  %i0, %o0
400035a0:	80 a2 20 00 	cmp  %o0, 0
400035a4:	12 bf ff 72 	bne  4000336c <_vfprintf_r+0xd1c>
400035a8:	b8 07 3f f0 	add  %i4, -16, %i4
400035ac:	de 07 bf 54 	ld  [ %fp + -172 ], %o7
400035b0:	c2 07 bf 50 	ld  [ %fp + -176 ], %g1
400035b4:	80 a7 20 10 	cmp  %i4, 0x10
400035b8:	14 bf ff ed 	bg  4000356c <_vfprintf_r+0xf1c>
400035bc:	ba 07 bf 58 	add  %fp, -168, %i5
400035c0:	82 00 60 01 	inc  %g1
400035c4:	9e 03 c0 1c 	add  %o7, %i4, %o7
400035c8:	ee 27 40 00 	st  %l7, [ %i5 ]
400035cc:	f8 27 60 04 	st  %i4, [ %i5 + 4 ]
400035d0:	de 27 bf 54 	st  %o7, [ %fp + -172 ]
400035d4:	80 a0 60 07 	cmp  %g1, 7
400035d8:	04 bf fc f5 	ble  400029ac <_vfprintf_r+0x35c>
400035dc:	c2 27 bf 50 	st  %g1, [ %fp + -176 ]
400035e0:	94 07 bf 4c 	add  %fp, -180, %o2
400035e4:	92 10 00 19 	mov  %i1, %o1
400035e8:	40 00 1b 02 	call  4000a1f0 <__sprint_r>
400035ec:	90 10 00 18 	mov  %i0, %o0
400035f0:	80 a2 20 00 	cmp  %o0, 0
400035f4:	12 bf ff 5e 	bne  4000336c <_vfprintf_r+0xd1c>
400035f8:	de 07 bf 54 	ld  [ %fp + -172 ], %o7
400035fc:	10 bf fc ed 	b  400029b0 <_vfprintf_r+0x360>
40003600:	80 a6 c0 11 	cmp  %i3, %l1
40003604:	a2 10 00 12 	mov  %l2, %l1
40003608:	80 a5 20 00 	cmp  %l4, 0
4000360c:	12 80 02 1d 	bne  40003e80 <_vfprintf_r+0x1830>
40003610:	80 a5 60 09 	cmp  %l5, 9
40003614:	18 80 02 1b 	bgu  40003e80 <_vfprintf_r+0x1830>
40003618:	84 05 60 30 	add  %l5, 0x30, %g2
4000361c:	82 10 20 01 	mov  1, %g1
40003620:	a4 10 00 11 	mov  %l1, %l2
40003624:	c4 2f bf fb 	stb  %g2, [ %fp + -5 ]
40003628:	c2 27 be e0 	st  %g1, [ %fp + -288 ]
4000362c:	10 bf fd e8 	b  40002dcc <_vfprintf_r+0x77c>
40003630:	a6 07 bf fb 	add  %fp, -5, %l3
40003634:	80 a1 20 00 	cmp  %g4, 0
40003638:	04 80 02 75 	ble  4000400c <_vfprintf_r+0x19bc>
4000363c:	c2 07 be c8 	ld  [ %fp + -312 ], %g1
40003640:	c4 07 be c4 	ld  [ %fp + -316 ], %g2
40003644:	80 a0 40 02 	cmp  %g1, %g2
40003648:	14 80 01 8e 	bg  40003c80 <_vfprintf_r+0x1630>
4000364c:	b8 10 00 01 	mov  %g1, %i4
40003650:	80 a7 20 00 	cmp  %i4, 0
40003654:	04 80 00 0d 	ble  40003688 <_vfprintf_r+0x1038>
40003658:	82 38 00 1c 	xnor  %g0, %i4, %g1
4000365c:	c2 07 bf 50 	ld  [ %fp + -176 ], %g1
40003660:	9e 03 c0 1c 	add  %o7, %i4, %o7
40003664:	82 00 60 01 	inc  %g1
40003668:	e6 27 40 00 	st  %l3, [ %i5 ]
4000366c:	f8 27 60 04 	st  %i4, [ %i5 + 4 ]
40003670:	de 27 bf 54 	st  %o7, [ %fp + -172 ]
40003674:	c2 27 bf 50 	st  %g1, [ %fp + -176 ]
40003678:	80 a0 60 07 	cmp  %g1, 7
4000367c:	14 80 04 5b 	bg  400047e8 <_vfprintf_r+0x2198>
40003680:	ba 07 60 08 	add  %i5, 8, %i5
40003684:	82 38 00 1c 	xnor  %g0, %i4, %g1
40003688:	83 38 60 1f 	sra  %g1, 0x1f, %g1
4000368c:	b8 0f 00 01 	and  %i4, %g1, %i4
40003690:	c2 07 be c8 	ld  [ %fp + -312 ], %g1
40003694:	b8 20 40 1c 	sub  %g1, %i4, %i4
40003698:	80 a7 20 00 	cmp  %i4, 0
4000369c:	14 80 01 de 	bg  40003e14 <_vfprintf_r+0x17c4>
400036a0:	80 a7 20 10 	cmp  %i4, 0x10
400036a4:	c2 07 be c8 	ld  [ %fp + -312 ], %g1
400036a8:	80 8c a4 00 	btst  0x400, %l2
400036ac:	12 80 03 70 	bne  4000446c <_vfprintf_r+0x1e1c>
400036b0:	ae 04 c0 01 	add  %l3, %g1, %l7
400036b4:	f8 07 bf 00 	ld  [ %fp + -256 ], %i4
400036b8:	c2 07 be c4 	ld  [ %fp + -316 ], %g1
400036bc:	80 a7 00 01 	cmp  %i4, %g1
400036c0:	26 80 00 06 	bl,a   400036d8 <_vfprintf_r+0x1088>
400036c4:	c2 07 be b8 	ld  [ %fp + -328 ], %g1
400036c8:	80 8c a0 01 	btst  1, %l2
400036cc:	02 80 04 50 	be  4000480c <_vfprintf_r+0x21bc>
400036d0:	88 20 40 1c 	sub  %g1, %i4, %g4
400036d4:	c2 07 be b8 	ld  [ %fp + -328 ], %g1
400036d8:	da 07 bf 50 	ld  [ %fp + -176 ], %o5
400036dc:	9e 03 c0 01 	add  %o7, %g1, %o7
400036e0:	9a 03 60 01 	inc  %o5
400036e4:	c4 07 be ac 	ld  [ %fp + -340 ], %g2
400036e8:	c2 27 60 04 	st  %g1, [ %i5 + 4 ]
400036ec:	c4 27 40 00 	st  %g2, [ %i5 ]
400036f0:	de 27 bf 54 	st  %o7, [ %fp + -172 ]
400036f4:	da 27 bf 50 	st  %o5, [ %fp + -176 ]
400036f8:	80 a3 60 07 	cmp  %o5, 7
400036fc:	14 80 05 4a 	bg  40004c24 <_vfprintf_r+0x25d4>
40003700:	ba 07 60 08 	add  %i5, 8, %i5
40003704:	c2 07 be c4 	ld  [ %fp + -316 ], %g1
40003708:	88 20 40 1c 	sub  %g1, %i4, %g4
4000370c:	84 04 c0 01 	add  %l3, %g1, %g2
40003710:	84 20 80 17 	sub  %g2, %l7, %g2
40003714:	80 a1 00 02 	cmp  %g4, %g2
40003718:	04 80 00 03 	ble  40003724 <_vfprintf_r+0x10d4>
4000371c:	a6 10 00 04 	mov  %g4, %l3
40003720:	a6 10 00 02 	mov  %g2, %l3
40003724:	80 a4 e0 00 	cmp  %l3, 0
40003728:	04 80 00 0b 	ble  40003754 <_vfprintf_r+0x1104>
4000372c:	c4 07 bf 50 	ld  [ %fp + -176 ], %g2
40003730:	9e 03 c0 13 	add  %o7, %l3, %o7
40003734:	84 00 a0 01 	inc  %g2
40003738:	ee 27 40 00 	st  %l7, [ %i5 ]
4000373c:	e6 27 60 04 	st  %l3, [ %i5 + 4 ]
40003740:	de 27 bf 54 	st  %o7, [ %fp + -172 ]
40003744:	c4 27 bf 50 	st  %g2, [ %fp + -176 ]
40003748:	80 a0 a0 07 	cmp  %g2, 7
4000374c:	14 80 05 95 	bg  40004da0 <_vfprintf_r+0x2750>
40003750:	ba 07 60 08 	add  %i5, 8, %i5
40003754:	b8 38 00 13 	xnor  %g0, %l3, %i4
40003758:	b9 3f 20 1f 	sra  %i4, 0x1f, %i4
4000375c:	b8 0c c0 1c 	and  %l3, %i4, %i4
40003760:	b8 21 00 1c 	sub  %g4, %i4, %i4
40003764:	80 a7 20 00 	cmp  %i4, 0
40003768:	04 bf fc 8b 	ble  40002994 <_vfprintf_r+0x344>
4000376c:	80 8c a0 04 	btst  4, %l2
40003770:	80 a7 20 10 	cmp  %i4, 0x10
40003774:	04 80 01 df 	ble  40003ef0 <_vfprintf_r+0x18a0>
40003778:	c2 07 bf 50 	ld  [ %fp + -176 ], %g1
4000377c:	10 80 00 06 	b  40003794 <_vfprintf_r+0x1144>
40003780:	a6 10 20 10 	mov  0x10, %l3
40003784:	b8 07 3f f0 	add  %i4, -16, %i4
40003788:	80 a7 20 10 	cmp  %i4, 0x10
4000378c:	24 80 01 da 	ble,a   40003ef4 <_vfprintf_r+0x18a4>
40003790:	e0 27 40 00 	st  %l0, [ %i5 ]
40003794:	82 00 60 01 	inc  %g1
40003798:	9e 03 e0 10 	add  %o7, 0x10, %o7
4000379c:	e0 27 40 00 	st  %l0, [ %i5 ]
400037a0:	e6 27 60 04 	st  %l3, [ %i5 + 4 ]
400037a4:	de 27 bf 54 	st  %o7, [ %fp + -172 ]
400037a8:	c2 27 bf 50 	st  %g1, [ %fp + -176 ]
400037ac:	80 a0 60 07 	cmp  %g1, 7
400037b0:	04 bf ff f5 	ble  40003784 <_vfprintf_r+0x1134>
400037b4:	ba 07 60 08 	add  %i5, 8, %i5
400037b8:	94 07 bf 4c 	add  %fp, -180, %o2
400037bc:	92 10 00 19 	mov  %i1, %o1
400037c0:	40 00 1a 8c 	call  4000a1f0 <__sprint_r>
400037c4:	90 10 00 18 	mov  %i0, %o0
400037c8:	80 a2 20 00 	cmp  %o0, 0
400037cc:	12 bf fe e8 	bne  4000336c <_vfprintf_r+0xd1c>
400037d0:	de 07 bf 54 	ld  [ %fp + -172 ], %o7
400037d4:	c2 07 bf 50 	ld  [ %fp + -176 ], %g1
400037d8:	10 bf ff eb 	b  40003784 <_vfprintf_r+0x1134>
400037dc:	ba 07 bf 58 	add  %fp, -168, %i5
400037e0:	80 8c a0 01 	btst  1, %l2
400037e4:	32 bf fc c4 	bne,a   40002af4 <_vfprintf_r+0x4a4>
400037e8:	b8 10 20 01 	mov  1, %i4
400037ec:	84 10 20 01 	mov  1, %g2
400037f0:	de 27 bf 54 	st  %o7, [ %fp + -172 ]
400037f4:	c4 27 60 04 	st  %g2, [ %i5 + 4 ]
400037f8:	80 a0 60 07 	cmp  %g1, 7
400037fc:	14 80 01 2f 	bg  40003cb8 <_vfprintf_r+0x1668>
40003800:	c2 27 bf 50 	st  %g1, [ %fp + -176 ]
40003804:	b8 07 20 02 	add  %i4, 2, %i4
40003808:	10 bf fc e1 	b  40002b8c <_vfprintf_r+0x53c>
4000380c:	ba 07 60 10 	add  %i5, 0x10, %i5
40003810:	80 a5 a0 00 	cmp  %l6, 0
40003814:	04 bf fc df 	ble  40002b90 <_vfprintf_r+0x540>
40003818:	c4 07 be a4 	ld  [ %fp + -348 ], %g2
4000381c:	80 a5 a0 10 	cmp  %l6, 0x10
40003820:	24 80 01 1f 	ble,a   40003c9c <_vfprintf_r+0x164c>
40003824:	82 10 00 1d 	mov  %i5, %g1
40003828:	ba 10 20 10 	mov  0x10, %i5
4000382c:	10 80 00 07 	b  40003848 <_vfprintf_r+0x11f8>
40003830:	82 10 00 1c 	mov  %i4, %g1
40003834:	ac 05 bf f0 	add  %l6, -16, %l6
40003838:	80 a5 a0 10 	cmp  %l6, 0x10
4000383c:	04 80 01 17 	ble  40003c98 <_vfprintf_r+0x1648>
40003840:	b8 00 60 01 	add  %g1, 1, %i4
40003844:	82 00 60 01 	inc  %g1
40003848:	9e 03 e0 10 	add  %o7, 0x10, %o7
4000384c:	e0 21 00 00 	st  %l0, [ %g4 ]
40003850:	fa 21 20 04 	st  %i5, [ %g4 + 4 ]
40003854:	de 27 bf 54 	st  %o7, [ %fp + -172 ]
40003858:	c2 27 bf 50 	st  %g1, [ %fp + -176 ]
4000385c:	80 a0 60 07 	cmp  %g1, 7
40003860:	04 bf ff f5 	ble  40003834 <_vfprintf_r+0x11e4>
40003864:	88 01 20 08 	add  %g4, 8, %g4
40003868:	94 07 bf 4c 	add  %fp, -180, %o2
4000386c:	92 10 00 19 	mov  %i1, %o1
40003870:	40 00 1a 60 	call  4000a1f0 <__sprint_r>
40003874:	90 10 00 18 	mov  %i0, %o0
40003878:	80 a2 20 00 	cmp  %o0, 0
4000387c:	12 bf fe bc 	bne  4000336c <_vfprintf_r+0xd1c>
40003880:	de 07 bf 54 	ld  [ %fp + -172 ], %o7
40003884:	c2 07 bf 50 	ld  [ %fp + -176 ], %g1
40003888:	10 bf ff eb 	b  40003834 <_vfprintf_r+0x11e4>
4000388c:	88 07 bf 58 	add  %fp, -168, %g4
40003890:	80 8c a0 10 	btst  0x10, %l2
40003894:	12 80 00 3c 	bne  40003984 <_vfprintf_r+0x1334>
40003898:	84 00 60 04 	add  %g1, 4, %g2
4000389c:	80 8c a0 40 	btst  0x40, %l2
400038a0:	02 80 00 37 	be  4000397c <_vfprintf_r+0x132c>
400038a4:	80 8c a2 00 	btst  0x200, %l2
400038a8:	e8 10 60 02 	lduh  [ %g1 + 2 ], %l4
400038ac:	c4 27 be dc 	st  %g2, [ %fp + -292 ]
400038b0:	aa 10 00 14 	mov  %l4, %l5
400038b4:	a2 0c bb ff 	and  %l2, -1025, %l1
400038b8:	a8 10 20 00 	clr  %l4
400038bc:	10 bf fd 32 	b  40002d84 <_vfprintf_r+0x734>
400038c0:	84 10 20 00 	clr  %g2
400038c4:	80 8c 60 10 	btst  0x10, %l1
400038c8:	12 80 00 41 	bne  400039cc <_vfprintf_r+0x137c>
400038cc:	86 00 60 04 	add  %g1, 4, %g3
400038d0:	80 8c 60 40 	btst  0x40, %l1
400038d4:	02 80 00 3c 	be  400039c4 <_vfprintf_r+0x1374>
400038d8:	80 8c 62 00 	btst  0x200, %l1
400038dc:	e8 10 60 02 	lduh  [ %g1 + 2 ], %l4
400038e0:	84 10 20 01 	mov  1, %g2
400038e4:	aa 10 00 14 	mov  %l4, %l5
400038e8:	c6 27 be dc 	st  %g3, [ %fp + -292 ]
400038ec:	10 bf fd 26 	b  40002d84 <_vfprintf_r+0x734>
400038f0:	a8 10 20 00 	clr  %l4
400038f4:	80 8c a0 10 	btst  0x10, %l2
400038f8:	12 80 00 2c 	bne  400039a8 <_vfprintf_r+0x1358>
400038fc:	84 00 60 04 	add  %g1, 4, %g2
40003900:	80 8c a0 40 	btst  0x40, %l2
40003904:	02 80 00 27 	be  400039a0 <_vfprintf_r+0x1350>
40003908:	80 8c a2 00 	btst  0x200, %l2
4000390c:	c8 00 40 00 	ld  [ %g1 ], %g4
40003910:	c4 27 be dc 	st  %g2, [ %fp + -292 ]
40003914:	85 29 20 10 	sll  %g4, 0x10, %g2
40003918:	89 38 a0 1f 	sra  %g2, 0x1f, %g4
4000391c:	ab 38 a0 10 	sra  %g2, 0x10, %l5
40003920:	a8 10 00 04 	mov  %g4, %l4
40003924:	10 bf fc da 	b  40002c8c <_vfprintf_r+0x63c>
40003928:	84 10 00 04 	mov  %g4, %g2
4000392c:	84 10 20 2d 	mov  0x2d, %g2
40003930:	aa a0 00 15 	subcc  %g0, %l5, %l5
40003934:	c4 2f be f7 	stb  %g2, [ %fp + -265 ]
40003938:	a8 60 00 14 	subx  %g0, %l4, %l4
4000393c:	a2 10 00 12 	mov  %l2, %l1
40003940:	10 bf fd 12 	b  40002d88 <_vfprintf_r+0x738>
40003944:	84 10 20 01 	mov  1, %g2
40003948:	80 a0 60 00 	cmp  %g1, 0
4000394c:	02 bf fc bd 	be  40002c40 <_vfprintf_r+0x5f0>
40003950:	c4 0e 80 00 	ldub  [ %i2 ], %g2
40003954:	c6 48 40 00 	ldsb  [ %g1 ], %g3
40003958:	80 a0 e0 00 	cmp  %g3, 0
4000395c:	02 bf fb b1 	be  40002820 <_vfprintf_r+0x1d0>
40003960:	83 28 a0 18 	sll  %g2, 0x18, %g1
40003964:	10 bf fb af 	b  40002820 <_vfprintf_r+0x1d0>
40003968:	a4 14 a4 00 	or  %l2, 0x400, %l2
4000396c:	02 bf fc 0a 	be  40002994 <_vfprintf_r+0x344>
40003970:	80 8c a0 04 	btst  4, %l2
40003974:	10 bf fd b6 	b  4000304c <_vfprintf_r+0x9fc>
40003978:	c4 07 be b8 	ld  [ %fp + -328 ], %g2
4000397c:	32 80 03 b7 	bne,a   40004858 <_vfprintf_r+0x2208>
40003980:	e8 08 60 03 	ldub  [ %g1 + 3 ], %l4
40003984:	e8 00 40 00 	ld  [ %g1 ], %l4
40003988:	a2 0c bb ff 	and  %l2, -1025, %l1
4000398c:	c4 27 be dc 	st  %g2, [ %fp + -292 ]
40003990:	aa 10 00 14 	mov  %l4, %l5
40003994:	84 10 20 00 	clr  %g2
40003998:	10 bf fc fb 	b  40002d84 <_vfprintf_r+0x734>
4000399c:	a8 10 20 00 	clr  %l4
400039a0:	32 80 03 a7 	bne,a   4000483c <_vfprintf_r+0x21ec>
400039a4:	c8 00 40 00 	ld  [ %g1 ], %g4
400039a8:	de 00 40 00 	ld  [ %g1 ], %o7
400039ac:	c4 27 be dc 	st  %g2, [ %fp + -292 ]
400039b0:	89 3b e0 1f 	sra  %o7, 0x1f, %g4
400039b4:	aa 10 00 0f 	mov  %o7, %l5
400039b8:	84 10 00 04 	mov  %g4, %g2
400039bc:	10 bf fc b4 	b  40002c8c <_vfprintf_r+0x63c>
400039c0:	a8 10 00 04 	mov  %g4, %l4
400039c4:	32 80 03 99 	bne,a   40004828 <_vfprintf_r+0x21d8>
400039c8:	e8 08 60 03 	ldub  [ %g1 + 3 ], %l4
400039cc:	e8 00 40 00 	ld  [ %g1 ], %l4
400039d0:	84 10 20 01 	mov  1, %g2
400039d4:	aa 10 00 14 	mov  %l4, %l5
400039d8:	c6 27 be dc 	st  %g3, [ %fp + -292 ]
400039dc:	10 bf fc ea 	b  40002d84 <_vfprintf_r+0x734>
400039e0:	a8 10 20 00 	clr  %l4
400039e4:	c6 07 be ec 	ld  [ %fp + -276 ], %g3
400039e8:	85 38 e0 1f 	sra  %g3, 0x1f, %g2
400039ec:	c6 20 60 04 	st  %g3, [ %g1 + 4 ]
400039f0:	10 bf fb 5c 	b  40002760 <_vfprintf_r+0x110>
400039f4:	c4 20 40 00 	st  %g2, [ %g1 ]
400039f8:	7f ff fa 14 	call  40002248 <memcpy>
400039fc:	90 07 bf 20 	add  %fp, -224, %o0
40003a00:	d1 1f bf 20 	ldd  [ %fp + -224 ], %f8
40003a04:	d1 3f be b0 	std  %f8, [ %fp + -336 ]
40003a08:	95 a0 00 28 	fmovs  %f8, %f10
40003a0c:	97 a0 00 29 	fmovs  %f9, %f11
40003a10:	91 a0 01 2a 	fabss  %f10, %f8
40003a14:	93 a0 00 2b 	fmovs  %f11, %f9
40003a18:	03 10 00 3b 	sethi  %hi(0x4000ec00), %g1
40003a1c:	d9 18 61 70 	ldd  [ %g1 + 0x170 ], %f12	! 4000ed70 <_global_impure_ptr+0x6c>
40003a20:	81 aa 0a 4c 	fcmpd  %f8, %f12
40003a24:	01 00 00 00 	nop 
40003a28:	0d bf fc 14 	fbg  40002a78 <_vfprintf_r+0x428>
40003a2c:	01 00 00 00 	nop 
40003a30:	91 a0 00 2a 	fmovs  %f10, %f8
40003a34:	81 aa 0a 48 	fcmpd  %f8, %f8
40003a38:	01 00 00 00 	nop 
40003a3c:	0f 80 05 49 	fbu  40004f60 <_vfprintf_r+0x2910>
40003a40:	a2 0d bf df 	and  %l6, -33, %l1
40003a44:	80 a4 60 41 	cmp  %l1, 0x41
40003a48:	12 80 01 b8 	bne  40004128 <_vfprintf_r+0x1ad8>
40003a4c:	80 a7 3f ff 	cmp  %i4, -1
40003a50:	84 10 20 30 	mov  0x30, %g2
40003a54:	c4 2f be f8 	stb  %g2, [ %fp + -264 ]
40003a58:	80 a5 a0 61 	cmp  %l6, 0x61
40003a5c:	02 80 00 03 	be  40003a68 <_vfprintf_r+0x1418>
40003a60:	84 10 20 78 	mov  0x78, %g2
40003a64:	84 10 20 58 	mov  0x58, %g2
40003a68:	c4 2f be f9 	stb  %g2, [ %fp + -263 ]
40003a6c:	c0 27 be e8 	clr  [ %fp + -280 ]
40003a70:	80 a7 20 63 	cmp  %i4, 0x63
40003a74:	14 80 03 cd 	bg  400049a8 <_vfprintf_r+0x2358>
40003a78:	a6 07 bf 98 	add  %fp, -104, %l3
40003a7c:	d1 1f be b0 	ldd  [ %fp + -336 ], %f8
40003a80:	d1 27 be e0 	st  %f8, [ %fp + -288 ]
40003a84:	c8 07 be e0 	ld  [ %fp + -288 ], %g4
40003a88:	80 a1 20 00 	cmp  %g4, 0
40003a8c:	16 80 03 87 	bge  400048a8 <_vfprintf_r+0x2258>
40003a90:	82 10 20 2d 	mov  0x2d, %g1
40003a94:	d1 1f be b0 	ldd  [ %fp + -336 ], %f8
40003a98:	91 a0 00 a8 	fnegs  %f8, %f8
40003a9c:	c2 2f be dc 	stb  %g1, [ %fp + -292 ]
40003aa0:	d1 3f be e0 	std  %f8, [ %fp + -288 ]
40003aa4:	94 07 bf 00 	add  %fp, -256, %o2
40003aa8:	40 00 18 66 	call  40009c40 <frexp>
40003aac:	d0 1f be e0 	ldd  [ %fp + -288 ], %o0
40003ab0:	03 10 00 3b 	sethi  %hi(0x4000ec00), %g1
40003ab4:	d1 18 61 78 	ldd  [ %g1 + 0x178 ], %f8	! 4000ed78 <_global_impure_ptr+0x74>
40003ab8:	03 10 00 3b 	sethi  %hi(0x4000ec00), %g1
40003abc:	81 a0 09 48 	fmuld  %f0, %f8, %f0
40003ac0:	d1 18 61 68 	ldd  [ %g1 + 0x168 ], %f8
40003ac4:	81 a8 0a 48 	fcmpd  %f0, %f8
40003ac8:	01 00 00 00 	nop 
40003acc:	03 80 00 04 	fbne  40003adc <_vfprintf_r+0x148c>
40003ad0:	80 a5 a0 61 	cmp  %l6, 0x61
40003ad4:	88 10 20 01 	mov  1, %g4
40003ad8:	c8 27 bf 00 	st  %g4, [ %fp + -256 ]
40003adc:	22 80 05 63 	be,a   40005068 <_vfprintf_r+0x2a18>
40003ae0:	1b 10 00 3b 	sethi  %hi(0x4000ec00), %o5
40003ae4:	1b 10 00 3b 	sethi  %hi(0x4000ec00), %o5
40003ae8:	9a 13 61 40 	or  %o5, 0x140, %o5	! 4000ed40 <_global_impure_ptr+0x3c>
40003aec:	03 10 00 3b 	sethi  %hi(0x4000ec00), %g1
40003af0:	b8 07 3f ff 	add  %i4, -1, %i4
40003af4:	88 10 00 13 	mov  %l3, %g4
40003af8:	10 80 00 08 	b  40003b18 <_vfprintf_r+0x14c8>
40003afc:	d5 18 61 80 	ldd  [ %g1 + 0x180 ], %f10
40003b00:	03 10 00 3b 	sethi  %hi(0x4000ec00), %g1
40003b04:	d1 18 61 68 	ldd  [ %g1 + 0x168 ], %f8	! 4000ed68 <_global_impure_ptr+0x64>
40003b08:	81 a8 0a 48 	fcmpd  %f0, %f8
40003b0c:	01 00 00 00 	nop 
40003b10:	13 80 00 0f 	fbe  40003b4c <_vfprintf_r+0x14fc>
40003b14:	b8 07 3f ff 	add  %i4, -1, %i4
40003b18:	81 a0 09 4a 	fmuld  %f0, %f10, %f0
40003b1c:	96 10 00 04 	mov  %g4, %o3
40003b20:	91 a0 1a 40 	fdtoi  %f0, %f8
40003b24:	88 01 20 01 	inc  %g4
40003b28:	d1 27 be e0 	st  %f8, [ %fp + -288 ]
40003b2c:	de 07 be e0 	ld  [ %fp + -288 ], %o7
40003b30:	c2 0b 40 0f 	ldub  [ %o5 + %o7 ], %g1
40003b34:	c2 29 3f ff 	stb  %g1, [ %g4 + -1 ]
40003b38:	91 a0 19 08 	fitod  %f8, %f8
40003b3c:	98 10 00 1c 	mov  %i4, %o4
40003b40:	80 a7 3f ff 	cmp  %i4, -1
40003b44:	12 bf ff ef 	bne  40003b00 <_vfprintf_r+0x14b0>
40003b48:	81 a0 08 c8 	fsubd  %f0, %f8, %f0
40003b4c:	03 10 00 3b 	sethi  %hi(0x4000ec00), %g1
40003b50:	d1 18 61 88 	ldd  [ %g1 + 0x188 ], %f8	! 4000ed88 <_global_impure_ptr+0x84>
40003b54:	81 a8 0a c8 	fcmped  %f0, %f8
40003b58:	01 00 00 00 	nop 
40003b5c:	2d 80 05 21 	fbg,a   40004fe0 <_vfprintf_r+0x2990>
40003b60:	d8 4b 60 0f 	ldsb  [ %o5 + 0xf ], %o4
40003b64:	81 a8 0a 48 	fcmpd  %f0, %f8
40003b68:	01 00 00 00 	nop 
40003b6c:	03 80 00 06 	fbne  40003b84 <_vfprintf_r+0x1534>
40003b70:	80 a3 20 00 	cmp  %o4, 0
40003b74:	80 8b e0 01 	btst  1, %o7
40003b78:	32 80 05 1a 	bne,a   40004fe0 <_vfprintf_r+0x2990>
40003b7c:	d8 4b 60 0f 	ldsb  [ %o5 + 0xf ], %o4
40003b80:	80 a3 20 00 	cmp  %o4, 0
40003b84:	06 80 00 39 	bl  40003c68 <_vfprintf_r+0x1618>
40003b88:	9e 03 3f ff 	add  %o4, -1, %o7
40003b8c:	b8 20 00 04 	neg  %g4, %i4
40003b90:	9a 03 20 01 	add  %o4, 1, %o5
40003b94:	80 a3 20 05 	cmp  %o4, 5
40003b98:	04 80 05 61 	ble  4000511c <_vfprintf_r+0x2acc>
40003b9c:	b8 0f 20 03 	and  %i4, 3, %i4
40003ba0:	80 a7 20 00 	cmp  %i4, 0
40003ba4:	02 80 00 10 	be  40003be4 <_vfprintf_r+0x1594>
40003ba8:	94 10 00 04 	mov  %g4, %o2
40003bac:	92 10 20 30 	mov  0x30, %o1
40003bb0:	d2 29 00 00 	stb  %o1, [ %g4 ]
40003bb4:	94 02 e0 02 	add  %o3, 2, %o2
40003bb8:	80 a7 20 01 	cmp  %i4, 1
40003bbc:	02 80 00 0a 	be  40003be4 <_vfprintf_r+0x1594>
40003bc0:	9e 03 3f fe 	add  %o4, -2, %o7
40003bc4:	d2 29 20 01 	stb  %o1, [ %g4 + 1 ]
40003bc8:	94 01 20 02 	add  %g4, 2, %o2
40003bcc:	80 a7 20 03 	cmp  %i4, 3
40003bd0:	12 80 00 05 	bne  40003be4 <_vfprintf_r+0x1594>
40003bd4:	9e 03 3f fd 	add  %o4, -3, %o7
40003bd8:	94 01 20 03 	add  %g4, 3, %o2
40003bdc:	d2 29 20 02 	stb  %o1, [ %g4 + 2 ]
40003be0:	9e 03 3f fc 	add  %o4, -4, %o7
40003be4:	98 23 40 1c 	sub  %o5, %i4, %o4
40003be8:	17 0c 0c 0c 	sethi  %hi(0x30303000), %o3
40003bec:	b8 01 00 1c 	add  %g4, %i4, %i4
40003bf0:	92 0b 3f fc 	and  %o4, -4, %o1
40003bf4:	96 12 e0 30 	or  %o3, 0x30, %o3
40003bf8:	92 02 40 1c 	add  %o1, %i4, %o1
40003bfc:	d6 27 00 00 	st  %o3, [ %i4 ]
40003c00:	b8 07 20 04 	add  %i4, 4, %i4
40003c04:	80 a2 40 1c 	cmp  %o1, %i4
40003c08:	32 bf ff fe 	bne,a   40003c00 <_vfprintf_r+0x15b0>
40003c0c:	d6 27 00 00 	st  %o3, [ %i4 ]
40003c10:	96 0b 3f fc 	and  %o4, -4, %o3
40003c14:	b8 02 80 0b 	add  %o2, %o3, %i4
40003c18:	80 a2 c0 0c 	cmp  %o3, %o4
40003c1c:	02 80 00 12 	be  40003c64 <_vfprintf_r+0x1614>
40003c20:	9e 23 c0 0b 	sub  %o7, %o3, %o7
40003c24:	98 10 20 30 	mov  0x30, %o4
40003c28:	80 a3 e0 00 	cmp  %o7, 0
40003c2c:	06 80 00 0e 	bl  40003c64 <_vfprintf_r+0x1614>
40003c30:	d8 2f 00 00 	stb  %o4, [ %i4 ]
40003c34:	04 80 00 0c 	ble  40003c64 <_vfprintf_r+0x1614>
40003c38:	d8 2f 20 01 	stb  %o4, [ %i4 + 1 ]
40003c3c:	80 a3 e0 01 	cmp  %o7, 1
40003c40:	04 80 00 09 	ble  40003c64 <_vfprintf_r+0x1614>
40003c44:	d8 2f 20 02 	stb  %o4, [ %i4 + 2 ]
40003c48:	80 a3 e0 02 	cmp  %o7, 2
40003c4c:	04 80 00 06 	ble  40003c64 <_vfprintf_r+0x1614>
40003c50:	d8 2f 20 03 	stb  %o4, [ %i4 + 3 ]
40003c54:	80 a3 e0 03 	cmp  %o7, 3
40003c58:	04 80 00 03 	ble  40003c64 <_vfprintf_r+0x1614>
40003c5c:	d8 2f 20 04 	stb  %o4, [ %i4 + 4 ]
40003c60:	d8 2f 20 05 	stb  %o4, [ %i4 + 5 ]
40003c64:	88 01 00 0d 	add  %g4, %o5, %g4
40003c68:	82 21 00 13 	sub  %g4, %l3, %g1
40003c6c:	a4 14 a0 02 	or  %l2, 2, %l2
40003c70:	c2 27 be c4 	st  %g1, [ %fp + -316 ]
40003c74:	c2 07 bf 00 	ld  [ %fp + -256 ], %g1
40003c78:	10 80 01 67 	b  40004214 <_vfprintf_r+0x1bc4>
40003c7c:	c2 27 be c8 	st  %g1, [ %fp + -312 ]
40003c80:	b8 10 00 02 	mov  %g2, %i4
40003c84:	80 a7 20 00 	cmp  %i4, 0
40003c88:	34 bf fe 76 	bg,a   40003660 <_vfprintf_r+0x1010>
40003c8c:	c2 07 bf 50 	ld  [ %fp + -176 ], %g1
40003c90:	10 bf fe 7e 	b  40003688 <_vfprintf_r+0x1038>
40003c94:	82 38 00 1c 	xnor  %g0, %i4, %g1
40003c98:	82 01 20 08 	add  %g4, 8, %g1
40003c9c:	9e 03 c0 16 	add  %o7, %l6, %o7
40003ca0:	e0 21 00 00 	st  %l0, [ %g4 ]
40003ca4:	ec 21 20 04 	st  %l6, [ %g4 + 4 ]
40003ca8:	de 27 bf 54 	st  %o7, [ %fp + -172 ]
40003cac:	80 a7 20 07 	cmp  %i4, 7
40003cb0:	04 80 02 c8 	ble  400047d0 <_vfprintf_r+0x2180>
40003cb4:	f8 27 bf 50 	st  %i4, [ %fp + -176 ]
40003cb8:	94 07 bf 4c 	add  %fp, -180, %o2
40003cbc:	92 10 00 19 	mov  %i1, %o1
40003cc0:	40 00 19 4c 	call  4000a1f0 <__sprint_r>
40003cc4:	90 10 00 18 	mov  %i0, %o0
40003cc8:	80 a2 20 00 	cmp  %o0, 0
40003ccc:	12 bf fd a8 	bne  4000336c <_vfprintf_r+0xd1c>
40003cd0:	de 07 bf 54 	ld  [ %fp + -172 ], %o7
40003cd4:	f8 07 bf 50 	ld  [ %fp + -176 ], %i4
40003cd8:	88 07 bf 58 	add  %fp, -168, %g4
40003cdc:	b8 07 20 01 	inc  %i4
40003ce0:	c4 07 be a4 	ld  [ %fp + -348 ], %g2
40003ce4:	82 07 bf 08 	add  %fp, -248, %g1
40003ce8:	9e 00 80 0f 	add  %g2, %o7, %o7
40003cec:	c2 21 00 00 	st  %g1, [ %g4 ]
40003cf0:	c4 21 20 04 	st  %g2, [ %g4 + 4 ]
40003cf4:	de 27 bf 54 	st  %o7, [ %fp + -172 ]
40003cf8:	f8 27 bf 50 	st  %i4, [ %fp + -176 ]
40003cfc:	80 a7 20 07 	cmp  %i4, 7
40003d00:	04 bf fb 24 	ble  40002990 <_vfprintf_r+0x340>
40003d04:	ba 07 bf 60 	add  %fp, -160, %i5
40003d08:	10 bf fb ab 	b  40002bb4 <_vfprintf_r+0x564>
40003d0c:	94 07 bf 4c 	add  %fp, -180, %o2
40003d10:	a4 14 a0 20 	or  %l2, 0x20, %l2
40003d14:	b4 06 a0 01 	inc  %i2
40003d18:	10 bf fa c2 	b  40002820 <_vfprintf_r+0x1d0>
40003d1c:	83 28 a0 18 	sll  %g2, 0x18, %g1
40003d20:	a4 14 a2 00 	or  %l2, 0x200, %l2
40003d24:	b4 06 a0 01 	inc  %i2
40003d28:	10 bf fa be 	b  40002820 <_vfprintf_r+0x1d0>
40003d2c:	83 28 a0 18 	sll  %g2, 0x18, %g1
40003d30:	94 07 bf 4c 	add  %fp, -180, %o2
40003d34:	92 10 00 19 	mov  %i1, %o1
40003d38:	40 00 19 2e 	call  4000a1f0 <__sprint_r>
40003d3c:	90 10 00 18 	mov  %i0, %o0
40003d40:	80 a2 20 00 	cmp  %o0, 0
40003d44:	12 bf fd 8a 	bne  4000336c <_vfprintf_r+0xd1c>
40003d48:	de 07 bf 54 	ld  [ %fp + -172 ], %o7
40003d4c:	10 bf fc cb 	b  40003078 <_vfprintf_r+0xa28>
40003d50:	ba 07 bf 58 	add  %fp, -168, %i5
40003d54:	05 10 00 3b 	sethi  %hi(0x4000ec00), %g2
40003d58:	a2 10 20 78 	mov  0x78, %l1
40003d5c:	82 10 a1 28 	or  %g2, 0x128, %g1
40003d60:	c2 27 be a8 	st  %g1, [ %fp + -344 ]
40003d64:	80 8c a0 20 	btst  0x20, %l2
40003d68:	02 80 00 6c 	be  40003f18 <_vfprintf_r+0x18c8>
40003d6c:	c2 07 be dc 	ld  [ %fp + -292 ], %g1
40003d70:	92 10 00 01 	mov  %g1, %o1
40003d74:	82 00 60 08 	add  %g1, 8, %g1
40003d78:	94 10 20 08 	mov  8, %o2
40003d7c:	90 07 bf 40 	add  %fp, -192, %o0
40003d80:	7f ff f9 32 	call  40002248 <memcpy>
40003d84:	c2 27 be dc 	st  %g1, [ %fp + -292 ]
40003d88:	e8 1f bf 40 	ldd  [ %fp + -192 ], %l4
40003d8c:	80 95 00 15 	orcc  %l4, %l5, %g0
40003d90:	02 80 00 04 	be  40003da0 <_vfprintf_r+0x1750>
40003d94:	80 8c a0 01 	btst  1, %l2
40003d98:	32 80 00 05 	bne,a   40003dac <_vfprintf_r+0x175c>
40003d9c:	84 10 20 30 	mov  0x30, %g2
40003da0:	a2 0c bb ff 	and  %l2, -1025, %l1
40003da4:	10 bf fb f8 	b  40002d84 <_vfprintf_r+0x734>
40003da8:	84 10 20 02 	mov  2, %g2
40003dac:	e2 2f be f9 	stb  %l1, [ %fp + -263 ]
40003db0:	c4 2f be f8 	stb  %g2, [ %fp + -264 ]
40003db4:	a4 14 a0 02 	or  %l2, 2, %l2
40003db8:	84 10 20 02 	mov  2, %g2
40003dbc:	10 bf fb f2 	b  40002d84 <_vfprintf_r+0x734>
40003dc0:	a2 0c bb ff 	and  %l2, -1025, %l1
40003dc4:	10 bf fc 3f 	b  40002ec0 <_vfprintf_r+0x870>
40003dc8:	a2 10 00 12 	mov  %l2, %l1
40003dcc:	05 10 00 3b 	sethi  %hi(0x4000ec00), %g2
40003dd0:	a2 10 20 58 	mov  0x58, %l1
40003dd4:	82 10 a1 40 	or  %g2, 0x140, %g1
40003dd8:	10 bf ff e3 	b  40003d64 <_vfprintf_r+0x1714>
40003ddc:	c2 27 be a8 	st  %g1, [ %fp + -344 ]
40003de0:	80 a7 20 06 	cmp  %i4, 6
40003de4:	18 80 02 7f 	bgu  400047e0 <_vfprintf_r+0x2190>
40003de8:	a2 10 00 1c 	mov  %i4, %l1
40003dec:	05 10 00 3b 	sethi  %hi(0x4000ec00), %g2
40003df0:	c0 27 be e8 	clr  [ %fp + -280 ]
40003df4:	e2 27 be e0 	st  %l1, [ %fp + -288 ]
40003df8:	9a 10 20 00 	clr  %o5
40003dfc:	b8 10 20 00 	clr  %i4
40003e00:	c0 27 be bc 	clr  [ %fp + -324 ]
40003e04:	c0 27 be c0 	clr  [ %fp + -320 ]
40003e08:	c0 27 be c8 	clr  [ %fp + -312 ]
40003e0c:	10 bf fa 9e 	b  40002884 <_vfprintf_r+0x234>
40003e10:	a6 10 a1 58 	or  %g2, 0x158, %l3
40003e14:	04 80 01 84 	ble  40004424 <_vfprintf_r+0x1dd4>
40003e18:	c2 07 bf 50 	ld  [ %fp + -176 ], %g1
40003e1c:	10 80 00 06 	b  40003e34 <_vfprintf_r+0x17e4>
40003e20:	ac 10 20 10 	mov  0x10, %l6
40003e24:	b8 07 3f f0 	add  %i4, -16, %i4
40003e28:	80 a7 20 10 	cmp  %i4, 0x10
40003e2c:	24 80 01 7f 	ble,a   40004428 <_vfprintf_r+0x1dd8>
40003e30:	82 00 60 01 	inc  %g1
40003e34:	82 00 60 01 	inc  %g1
40003e38:	9e 03 e0 10 	add  %o7, 0x10, %o7
40003e3c:	e0 27 40 00 	st  %l0, [ %i5 ]
40003e40:	ec 27 60 04 	st  %l6, [ %i5 + 4 ]
40003e44:	de 27 bf 54 	st  %o7, [ %fp + -172 ]
40003e48:	c2 27 bf 50 	st  %g1, [ %fp + -176 ]
40003e4c:	80 a0 60 07 	cmp  %g1, 7
40003e50:	04 bf ff f5 	ble  40003e24 <_vfprintf_r+0x17d4>
40003e54:	ba 07 60 08 	add  %i5, 8, %i5
40003e58:	94 07 bf 4c 	add  %fp, -180, %o2
40003e5c:	92 10 00 19 	mov  %i1, %o1
40003e60:	40 00 18 e4 	call  4000a1f0 <__sprint_r>
40003e64:	90 10 00 18 	mov  %i0, %o0
40003e68:	80 a2 20 00 	cmp  %o0, 0
40003e6c:	12 bf fd 40 	bne  4000336c <_vfprintf_r+0xd1c>
40003e70:	de 07 bf 54 	ld  [ %fp + -172 ], %o7
40003e74:	c2 07 bf 50 	ld  [ %fp + -176 ], %g1
40003e78:	10 bf ff eb 	b  40003e24 <_vfprintf_r+0x17d4>
40003e7c:	ba 07 bf 58 	add  %fp, -168, %i5
40003e80:	80 8c 64 00 	btst  0x400, %l1
40003e84:	12 80 01 38 	bne  40004364 <_vfprintf_r+0x1d14>
40003e88:	a4 07 bf fc 	add  %fp, -4, %l2
40003e8c:	a6 10 00 12 	mov  %l2, %l3
40003e90:	94 10 20 00 	clr  %o2
40003e94:	96 10 20 0a 	mov  0xa, %o3
40003e98:	90 10 00 14 	mov  %l4, %o0
40003e9c:	40 00 2a 77 	call  4000e878 <__umoddi3>
40003ea0:	92 10 00 15 	mov  %l5, %o1
40003ea4:	82 02 60 30 	add  %o1, 0x30, %g1
40003ea8:	90 10 00 14 	mov  %l4, %o0
40003eac:	92 10 00 15 	mov  %l5, %o1
40003eb0:	94 10 20 00 	clr  %o2
40003eb4:	96 10 20 0a 	mov  0xa, %o3
40003eb8:	40 00 29 9b 	call  4000e524 <__udivdi3>
40003ebc:	c2 2c ff ff 	stb  %g1, [ %l3 + -1 ]
40003ec0:	a6 04 ff ff 	add  %l3, -1, %l3
40003ec4:	84 10 00 15 	mov  %l5, %g2
40003ec8:	80 a5 20 00 	cmp  %l4, 0
40003ecc:	86 24 80 13 	sub  %l2, %l3, %g3
40003ed0:	a8 10 00 08 	mov  %o0, %l4
40003ed4:	12 bf ff ef 	bne  40003e90 <_vfprintf_r+0x1840>
40003ed8:	aa 10 00 09 	mov  %o1, %l5
40003edc:	80 a0 a0 09 	cmp  %g2, 9
40003ee0:	18 bf ff ed 	bgu  40003e94 <_vfprintf_r+0x1844>
40003ee4:	94 10 20 00 	clr  %o2
40003ee8:	10 bf fc fc 	b  400032d8 <_vfprintf_r+0xc88>
40003eec:	c6 27 be c4 	st  %g3, [ %fp + -316 ]
40003ef0:	e0 27 40 00 	st  %l0, [ %i5 ]
40003ef4:	f8 27 60 04 	st  %i4, [ %i5 + 4 ]
40003ef8:	82 00 60 01 	inc  %g1
40003efc:	9e 03 c0 1c 	add  %o7, %i4, %o7
40003f00:	c2 27 bf 50 	st  %g1, [ %fp + -176 ]
40003f04:	80 a0 60 07 	cmp  %g1, 7
40003f08:	04 bf fa a1 	ble  4000298c <_vfprintf_r+0x33c>
40003f0c:	de 27 bf 54 	st  %o7, [ %fp + -172 ]
40003f10:	10 bf fb 29 	b  40002bb4 <_vfprintf_r+0x564>
40003f14:	94 07 bf 4c 	add  %fp, -180, %o2
40003f18:	80 8c a0 10 	btst  0x10, %l2
40003f1c:	12 80 00 2a 	bne  40003fc4 <_vfprintf_r+0x1974>
40003f20:	84 00 60 04 	add  %g1, 4, %g2
40003f24:	80 8c a0 40 	btst  0x40, %l2
40003f28:	02 80 00 25 	be  40003fbc <_vfprintf_r+0x196c>
40003f2c:	80 8c a2 00 	btst  0x200, %l2
40003f30:	e8 10 60 02 	lduh  [ %g1 + 2 ], %l4
40003f34:	c4 27 be dc 	st  %g2, [ %fp + -292 ]
40003f38:	aa 10 00 14 	mov  %l4, %l5
40003f3c:	10 bf ff 94 	b  40003d8c <_vfprintf_r+0x173c>
40003f40:	a8 10 20 00 	clr  %l4
40003f44:	94 07 bf 4c 	add  %fp, -180, %o2
40003f48:	92 10 00 19 	mov  %i1, %o1
40003f4c:	40 00 18 a9 	call  4000a1f0 <__sprint_r>
40003f50:	90 10 00 18 	mov  %i0, %o0
40003f54:	80 a2 20 00 	cmp  %o0, 0
40003f58:	12 bf fd 05 	bne  4000336c <_vfprintf_r+0xd1c>
40003f5c:	88 07 bf 58 	add  %fp, -168, %g4
40003f60:	de 07 bf 54 	ld  [ %fp + -172 ], %o7
40003f64:	c2 07 bf 50 	ld  [ %fp + -176 ], %g1
40003f68:	c4 07 be b8 	ld  [ %fp + -328 ], %g2
40003f6c:	82 00 60 01 	inc  %g1
40003f70:	9e 03 c0 02 	add  %o7, %g2, %o7
40003f74:	c6 07 be ac 	ld  [ %fp + -340 ], %g3
40003f78:	c4 21 20 04 	st  %g2, [ %g4 + 4 ]
40003f7c:	c6 21 00 00 	st  %g3, [ %g4 ]
40003f80:	de 27 bf 54 	st  %o7, [ %fp + -172 ]
40003f84:	c2 27 bf 50 	st  %g1, [ %fp + -176 ]
40003f88:	80 a0 60 07 	cmp  %g1, 7
40003f8c:	04 bf fa ea 	ble  40002b34 <_vfprintf_r+0x4e4>
40003f90:	88 01 20 08 	add  %g4, 8, %g4
40003f94:	94 07 bf 4c 	add  %fp, -180, %o2
40003f98:	92 10 00 19 	mov  %i1, %o1
40003f9c:	40 00 18 95 	call  4000a1f0 <__sprint_r>
40003fa0:	90 10 00 18 	mov  %i0, %o0
40003fa4:	80 a2 20 00 	cmp  %o0, 0
40003fa8:	12 bf fc f1 	bne  4000336c <_vfprintf_r+0xd1c>
40003fac:	de 07 bf 54 	ld  [ %fp + -172 ], %o7
40003fb0:	c2 07 bf 50 	ld  [ %fp + -176 ], %g1
40003fb4:	10 bf fa e0 	b  40002b34 <_vfprintf_r+0x4e4>
40003fb8:	88 07 bf 58 	add  %fp, -168, %g4
40003fbc:	32 80 02 2d 	bne,a   40004870 <_vfprintf_r+0x2220>
40003fc0:	e8 08 60 03 	ldub  [ %g1 + 3 ], %l4
40003fc4:	e8 00 40 00 	ld  [ %g1 ], %l4
40003fc8:	c4 27 be dc 	st  %g2, [ %fp + -292 ]
40003fcc:	aa 10 00 14 	mov  %l4, %l5
40003fd0:	10 bf ff 6f 	b  40003d8c <_vfprintf_r+0x173c>
40003fd4:	a8 10 20 00 	clr  %l4
40003fd8:	d6 27 be 94 	st  %o3, [ %fp + -364 ]
40003fdc:	94 07 bf 4c 	add  %fp, -180, %o2
40003fe0:	92 10 00 19 	mov  %i1, %o1
40003fe4:	40 00 18 83 	call  4000a1f0 <__sprint_r>
40003fe8:	90 10 00 18 	mov  %i0, %o0
40003fec:	80 a2 20 00 	cmp  %o0, 0
40003ff0:	12 bf fc df 	bne  4000336c <_vfprintf_r+0xd1c>
40003ff4:	da 0f be f7 	ldub  [ %fp + -265 ], %o5
40003ff8:	de 07 bf 54 	ld  [ %fp + -172 ], %o7
40003ffc:	ba 07 bf 58 	add  %fp, -168, %i5
40004000:	9b 2b 60 18 	sll  %o5, 0x18, %o5
40004004:	10 bf fa 2e 	b  400028bc <_vfprintf_r+0x26c>
40004008:	d6 07 be 94 	ld  [ %fp + -364 ], %o3
4000400c:	39 10 00 3b 	sethi  %hi(0x4000ec00), %i4
40004010:	b8 17 21 60 	or  %i4, 0x160, %i4	! 4000ed60 <_global_impure_ptr+0x5c>
40004014:	c2 07 bf 50 	ld  [ %fp + -176 ], %g1
40004018:	f8 27 40 00 	st  %i4, [ %i5 ]
4000401c:	82 00 60 01 	inc  %g1
40004020:	9e 03 e0 01 	inc  %o7
40004024:	b8 10 20 01 	mov  1, %i4
40004028:	de 27 bf 54 	st  %o7, [ %fp + -172 ]
4000402c:	f8 27 60 04 	st  %i4, [ %i5 + 4 ]
40004030:	c2 27 bf 50 	st  %g1, [ %fp + -176 ]
40004034:	80 a0 60 07 	cmp  %g1, 7
40004038:	14 80 02 ba 	bg  40004b20 <_vfprintf_r+0x24d0>
4000403c:	ba 07 60 08 	add  %i5, 8, %i5
40004040:	c2 07 be c4 	ld  [ %fp + -316 ], %g1
40004044:	80 90 40 04 	orcc  %g1, %g4, %g0
40004048:	02 80 02 de 	be  40004bc0 <_vfprintf_r+0x2570>
4000404c:	c4 07 be b8 	ld  [ %fp + -328 ], %g2
40004050:	c2 07 bf 50 	ld  [ %fp + -176 ], %g1
40004054:	9e 00 80 0f 	add  %g2, %o7, %o7
40004058:	82 00 60 01 	inc  %g1
4000405c:	c6 07 be ac 	ld  [ %fp + -340 ], %g3
40004060:	c4 27 60 04 	st  %g2, [ %i5 + 4 ]
40004064:	c6 27 40 00 	st  %g3, [ %i5 ]
40004068:	de 27 bf 54 	st  %o7, [ %fp + -172 ]
4000406c:	c2 27 bf 50 	st  %g1, [ %fp + -176 ]
40004070:	80 a0 60 07 	cmp  %g1, 7
40004074:	14 80 02 e1 	bg  40004bf8 <_vfprintf_r+0x25a8>
40004078:	ba 07 60 08 	add  %i5, 8, %i5
4000407c:	80 a1 20 00 	cmp  %g4, 0
40004080:	06 80 03 54 	bl  40004dd0 <_vfprintf_r+0x2780>
40004084:	80 a1 3f f0 	cmp  %g4, -16
40004088:	c4 07 be c4 	ld  [ %fp + -316 ], %g2
4000408c:	82 00 60 01 	inc  %g1
40004090:	10 bf fa 39 	b  40002974 <_vfprintf_r+0x324>
40004094:	9e 00 80 0f 	add  %g2, %o7, %o7
40004098:	94 07 bf 4c 	add  %fp, -180, %o2
4000409c:	92 10 00 19 	mov  %i1, %o1
400040a0:	40 00 18 54 	call  4000a1f0 <__sprint_r>
400040a4:	90 10 00 18 	mov  %i0, %o0
400040a8:	80 a2 20 00 	cmp  %o0, 0
400040ac:	12 bf fc b0 	bne  4000336c <_vfprintf_r+0xd1c>
400040b0:	de 07 bf 54 	ld  [ %fp + -172 ], %o7
400040b4:	10 bf fb e0 	b  40003034 <_vfprintf_r+0x9e4>
400040b8:	ba 07 bf 58 	add  %fp, -168, %i5
400040bc:	10 bf f9 a9 	b  40002760 <_vfprintf_r+0x110>
400040c0:	c4 20 40 00 	st  %g2, [ %g1 ]
400040c4:	c2 07 bf 54 	ld  [ %fp + -172 ], %g1
400040c8:	80 a0 60 00 	cmp  %g1, 0
400040cc:	22 bf fc af 	be,a   40003388 <_vfprintf_r+0xd38>
400040d0:	c2 16 60 0c 	lduh  [ %i1 + 0xc ], %g1
400040d4:	94 07 bf 4c 	add  %fp, -180, %o2
400040d8:	92 10 00 19 	mov  %i1, %o1
400040dc:	40 00 18 45 	call  4000a1f0 <__sprint_r>
400040e0:	90 10 00 18 	mov  %i0, %o0
400040e4:	10 bf fc a9 	b  40003388 <_vfprintf_r+0xd38>
400040e8:	c2 16 60 0c 	lduh  [ %i1 + 0xc ], %g1
400040ec:	90 10 00 13 	mov  %l3, %o0
400040f0:	40 00 17 4f 	call  40009e2c <strlen>
400040f4:	c0 27 be e8 	clr  [ %fp + -280 ]
400040f8:	da 0f be f7 	ldub  [ %fp + -265 ], %o5
400040fc:	a2 38 00 08 	xnor  %g0, %o0, %l1
40004100:	d0 27 be e0 	st  %o0, [ %fp + -288 ]
40004104:	a3 3c 60 1f 	sra  %l1, 0x1f, %l1
40004108:	b8 10 20 00 	clr  %i4
4000410c:	c0 27 be bc 	clr  [ %fp + -324 ]
40004110:	c0 27 be c0 	clr  [ %fp + -320 ]
40004114:	a2 0a 00 11 	and  %o0, %l1, %l1
40004118:	10 bf f9 db 	b  40002884 <_vfprintf_r+0x234>
4000411c:	c0 27 be c8 	clr  [ %fp + -312 ]
40004120:	10 bf fa 62 	b  40002aa8 <_vfprintf_r+0x458>
40004124:	a6 10 a1 08 	or  %g2, 0x108, %l3
40004128:	02 80 01 e2 	be  400048b0 <_vfprintf_r+0x2260>
4000412c:	80 a7 20 00 	cmp  %i4, 0
40004130:	12 80 01 e1 	bne  400048b4 <_vfprintf_r+0x2264>
40004134:	80 a4 60 47 	cmp  %l1, 0x47
40004138:	12 80 01 df 	bne  400048b4 <_vfprintf_r+0x2264>
4000413c:	82 14 a1 00 	or  %l2, 0x100, %g1
40004140:	d5 27 be e0 	st  %f10, [ %fp + -288 ]
40004144:	c2 27 be e8 	st  %g1, [ %fp + -280 ]
40004148:	c4 07 be e0 	ld  [ %fp + -288 ], %g2
4000414c:	80 a0 a0 00 	cmp  %g2, 0
40004150:	06 80 03 9e 	bl  40004fc8 <_vfprintf_r+0x2978>
40004154:	98 10 20 01 	mov  1, %o4
40004158:	c0 2f be dc 	clrb  [ %fp + -292 ]
4000415c:	b8 10 20 01 	mov  1, %i4
40004160:	84 07 bf 10 	add  %fp, -240, %g2
40004164:	c4 23 a0 60 	st  %g2, [ %sp + 0x60 ]
40004168:	84 07 bf 04 	add  %fp, -252, %g2
4000416c:	d1 3f be e0 	std  %f8, [ %fp + -288 ]
40004170:	d8 27 be c8 	st  %o4, [ %fp + -312 ]
40004174:	d1 3f be d0 	std  %f8, [ %fp + -304 ]
40004178:	c4 23 a0 5c 	st  %g2, [ %sp + 0x5c ]
4000417c:	9a 07 bf 00 	add  %fp, -256, %o5
40004180:	96 10 20 02 	mov  2, %o3
40004184:	d2 07 be e0 	ld  [ %fp + -288 ], %o1
40004188:	d4 07 be e4 	ld  [ %fp + -284 ], %o2
4000418c:	40 00 06 10 	call  400059cc <_dtoa_r>
40004190:	90 10 00 18 	mov  %i0, %o0
40004194:	80 a4 60 47 	cmp  %l1, 0x47
40004198:	a6 10 00 08 	mov  %o0, %l3
4000419c:	d1 1f be d0 	ldd  [ %fp + -304 ], %f8
400041a0:	12 80 02 d4 	bne  40004cf0 <_vfprintf_r+0x26a0>
400041a4:	d8 07 be c8 	ld  [ %fp + -312 ], %o4
400041a8:	80 8c a0 01 	btst  1, %l2
400041ac:	32 80 01 ec 	bne,a   4000495c <_vfprintf_r+0x230c>
400041b0:	98 04 c0 0c 	add  %l3, %o4, %o4
400041b4:	c8 07 bf 10 	ld  [ %fp + -240 ], %g4
400041b8:	82 21 00 13 	sub  %g4, %l3, %g1
400041bc:	c2 27 be c4 	st  %g1, [ %fp + -316 ]
400041c0:	c2 07 bf 00 	ld  [ %fp + -256 ], %g1
400041c4:	80 a4 60 47 	cmp  %l1, 0x47
400041c8:	12 80 02 3e 	bne  40004ac0 <_vfprintf_r+0x2470>
400041cc:	c2 27 be c8 	st  %g1, [ %fp + -312 ]
400041d0:	80 a7 00 01 	cmp  %i4, %g1
400041d4:	06 80 00 03 	bl  400041e0 <_vfprintf_r+0x1b90>
400041d8:	88 10 20 01 	mov  1, %g4
400041dc:	88 10 20 00 	clr  %g4
400041e0:	80 89 20 ff 	btst  0xff, %g4
400041e4:	12 80 00 09 	bne  40004208 <_vfprintf_r+0x1bb8>
400041e8:	c2 07 be c8 	ld  [ %fp + -312 ], %g1
400041ec:	80 a0 7f fd 	cmp  %g1, -3
400041f0:	06 80 00 03 	bl  400041fc <_vfprintf_r+0x1bac>
400041f4:	88 10 20 01 	mov  1, %g4
400041f8:	88 10 20 00 	clr  %g4
400041fc:	80 89 20 ff 	btst  0xff, %g4
40004200:	02 80 02 16 	be  40004a58 <_vfprintf_r+0x2408>
40004204:	c4 07 be c4 	ld  [ %fp + -316 ], %g2
40004208:	ac 05 bf fe 	add  %l6, -2, %l6
4000420c:	c0 27 be e8 	clr  [ %fp + -280 ]
40004210:	a2 0d bf df 	and  %l6, -33, %l1
40004214:	c2 07 be c8 	ld  [ %fp + -312 ], %g1
40004218:	b8 00 7f ff 	add  %g1, -1, %i4
4000421c:	f8 27 bf 00 	st  %i4, [ %fp + -256 ]
40004220:	80 a4 60 41 	cmp  %l1, 0x41
40004224:	12 80 00 03 	bne  40004230 <_vfprintf_r+0x1be0>
40004228:	88 10 00 16 	mov  %l6, %g4
4000422c:	88 05 a0 0f 	add  %l6, 0xf, %g4
40004230:	c8 2f bf 08 	stb  %g4, [ %fp + -248 ]
40004234:	80 a7 20 00 	cmp  %i4, 0
40004238:	16 80 00 06 	bge  40004250 <_vfprintf_r+0x1c00>
4000423c:	88 10 20 2b 	mov  0x2b, %g4
40004240:	b8 10 20 01 	mov  1, %i4
40004244:	c2 07 be c8 	ld  [ %fp + -312 ], %g1
40004248:	88 10 20 2d 	mov  0x2d, %g4
4000424c:	b8 27 00 01 	sub  %i4, %g1, %i4
40004250:	80 a7 20 09 	cmp  %i4, 9
40004254:	04 80 03 4b 	ble  40004f80 <_vfprintf_r+0x2930>
40004258:	c8 2f bf 09 	stb  %g4, [ %fp + -247 ]
4000425c:	84 07 bf 17 	add  %fp, -233, %g2
40004260:	e8 3f be e0 	std  %l4, [ %fp + -288 ]
40004264:	a8 10 00 02 	mov  %g2, %l4
40004268:	92 10 20 0a 	mov  0xa, %o1
4000426c:	40 00 28 04 	call  4000e27c <.rem>
40004270:	90 10 00 1c 	mov  %i4, %o0
40004274:	82 02 20 30 	add  %o0, 0x30, %g1
40004278:	92 10 20 0a 	mov  0xa, %o1
4000427c:	90 10 00 1c 	mov  %i4, %o0
40004280:	40 00 27 53 	call  4000dfcc <.div>
40004284:	c2 2d 3f ff 	stb  %g1, [ %l4 + -1 ]
40004288:	86 10 00 1c 	mov  %i4, %g3
4000428c:	a2 10 00 14 	mov  %l4, %l1
40004290:	b8 10 00 08 	mov  %o0, %i4
40004294:	a8 05 3f ff 	add  %l4, -1, %l4
40004298:	80 a0 e0 63 	cmp  %g3, 0x63
4000429c:	14 bf ff f3 	bg  40004268 <_vfprintf_r+0x1c18>
400042a0:	84 07 bf 17 	add  %fp, -233, %g2
400042a4:	82 10 00 14 	mov  %l4, %g1
400042a8:	b8 02 20 30 	add  %o0, 0x30, %i4
400042ac:	f8 28 7f ff 	stb  %i4, [ %g1 + -1 ]
400042b0:	88 04 7f fe 	add  %l1, -2, %g4
400042b4:	80 a1 00 02 	cmp  %g4, %g2
400042b8:	1a 80 03 8f 	bcc  400050f4 <_vfprintf_r+0x2aa4>
400042bc:	e8 1f be e0 	ldd  [ %fp + -288 ], %l4
400042c0:	b8 07 bf 0a 	add  %fp, -246, %i4
400042c4:	c2 09 00 00 	ldub  [ %g4 ], %g1
400042c8:	c2 2f 00 00 	stb  %g1, [ %i4 ]
400042cc:	88 01 20 01 	inc  %g4
400042d0:	80 a1 00 02 	cmp  %g4, %g2
400042d4:	12 bf ff fc 	bne  400042c4 <_vfprintf_r+0x1c74>
400042d8:	b8 07 20 01 	inc  %i4
400042dc:	82 07 bf 0a 	add  %fp, -246, %g1
400042e0:	88 07 bf 19 	add  %fp, -231, %g4
400042e4:	b8 07 bf 08 	add  %fp, -248, %i4
400042e8:	88 21 00 11 	sub  %g4, %l1, %g4
400042ec:	88 00 40 04 	add  %g1, %g4, %g4
400042f0:	82 21 00 1c 	sub  %g4, %i4, %g1
400042f4:	c2 27 be a4 	st  %g1, [ %fp + -348 ]
400042f8:	84 10 00 01 	mov  %g1, %g2
400042fc:	c2 07 be c4 	ld  [ %fp + -316 ], %g1
40004300:	84 00 80 01 	add  %g2, %g1, %g2
40004304:	80 a0 60 01 	cmp  %g1, 1
40004308:	04 80 03 51 	ble  4000504c <_vfprintf_r+0x29fc>
4000430c:	c4 27 be e0 	st  %g2, [ %fp + -288 ]
40004310:	c2 07 be e0 	ld  [ %fp + -288 ], %g1
40004314:	c4 07 be b8 	ld  [ %fp + -328 ], %g2
40004318:	82 00 40 02 	add  %g1, %g2, %g1
4000431c:	c2 27 be e0 	st  %g1, [ %fp + -288 ]
40004320:	c2 07 be e0 	ld  [ %fp + -288 ], %g1
40004324:	86 0c bb ff 	and  %l2, -1025, %g3
40004328:	a2 38 00 01 	xnor  %g0, %g1, %l1
4000432c:	a4 10 e1 00 	or  %g3, 0x100, %l2
40004330:	a3 3c 60 1f 	sra  %l1, 0x1f, %l1
40004334:	c0 27 be bc 	clr  [ %fp + -324 ]
40004338:	a2 08 40 11 	and  %g1, %l1, %l1
4000433c:	c0 27 be c0 	clr  [ %fp + -320 ]
40004340:	c0 27 be c8 	clr  [ %fp + -312 ]
40004344:	c2 0f be dc 	ldub  [ %fp + -292 ], %g1
40004348:	80 88 60 ff 	btst  0xff, %g1
4000434c:	12 80 01 f0 	bne  40004b0c <_vfprintf_r+0x24bc>
40004350:	88 10 20 2d 	mov  0x2d, %g4
40004354:	da 0f be f7 	ldub  [ %fp + -265 ], %o5
40004358:	ee 27 be dc 	st  %l7, [ %fp + -292 ]
4000435c:	10 bf f9 4a 	b  40002884 <_vfprintf_r+0x234>
40004360:	b8 10 20 00 	clr  %i4
40004364:	a6 10 00 12 	mov  %l2, %l3
40004368:	f8 27 be e0 	st  %i4, [ %fp + -288 ]
4000436c:	ae 10 20 00 	clr  %l7
40004370:	b8 10 00 12 	mov  %l2, %i4
40004374:	a4 10 00 1a 	mov  %i2, %l2
40004378:	b4 10 00 1d 	mov  %i5, %i2
4000437c:	fa 07 be a0 	ld  [ %fp + -352 ], %i5
40004380:	94 10 20 00 	clr  %o2
40004384:	96 10 20 0a 	mov  0xa, %o3
40004388:	90 10 00 14 	mov  %l4, %o0
4000438c:	40 00 29 3b 	call  4000e878 <__umoddi3>
40004390:	92 10 00 15 	mov  %l5, %o1
40004394:	92 02 60 30 	add  %o1, 0x30, %o1
40004398:	d2 2f 3f ff 	stb  %o1, [ %i4 + -1 ]
4000439c:	ae 05 e0 01 	inc  %l7
400043a0:	c4 4f 40 00 	ldsb  [ %i5 ], %g2
400043a4:	80 a0 a0 7f 	cmp  %g2, 0x7f
400043a8:	02 80 00 05 	be  400043bc <_vfprintf_r+0x1d6c>
400043ac:	b8 07 3f ff 	add  %i4, -1, %i4
400043b0:	80 a0 80 17 	cmp  %g2, %l7
400043b4:	02 80 00 10 	be  400043f4 <_vfprintf_r+0x1da4>
400043b8:	80 a5 20 00 	cmp  %l4, 0
400043bc:	94 10 20 00 	clr  %o2
400043c0:	96 10 20 0a 	mov  0xa, %o3
400043c4:	90 10 00 14 	mov  %l4, %o0
400043c8:	40 00 28 57 	call  4000e524 <__udivdi3>
400043cc:	92 10 00 15 	mov  %l5, %o1
400043d0:	80 a5 20 00 	cmp  %l4, 0
400043d4:	02 80 01 8f 	be  40004a10 <_vfprintf_r+0x23c0>
400043d8:	80 a5 60 09 	cmp  %l5, 9
400043dc:	a8 10 00 08 	mov  %o0, %l4
400043e0:	10 bf ff e8 	b  40004380 <_vfprintf_r+0x1d30>
400043e4:	aa 10 00 09 	mov  %o1, %l5
400043e8:	9a 10 20 2d 	mov  0x2d, %o5
400043ec:	10 bf f9 aa 	b  40002a94 <_vfprintf_r+0x444>
400043f0:	c4 2f be f7 	stb  %g2, [ %fp + -265 ]
400043f4:	12 80 01 75 	bne  400049c8 <_vfprintf_r+0x2378>
400043f8:	80 a5 60 09 	cmp  %l5, 9
400043fc:	38 80 01 74 	bgu,a   400049cc <_vfprintf_r+0x237c>
40004400:	c2 07 be 9c 	ld  [ %fp + -356 ], %g1
40004404:	fa 27 be a0 	st  %i5, [ %fp + -352 ]
40004408:	ee 27 be c4 	st  %l7, [ %fp + -316 ]
4000440c:	ba 10 00 1a 	mov  %i2, %i5
40004410:	b4 10 00 12 	mov  %l2, %i2
40004414:	a4 10 00 13 	mov  %l3, %l2
40004418:	a6 10 00 1c 	mov  %i4, %l3
4000441c:	10 bf fb af 	b  400032d8 <_vfprintf_r+0xc88>
40004420:	f8 07 be e0 	ld  [ %fp + -288 ], %i4
40004424:	82 00 60 01 	inc  %g1
40004428:	9e 03 c0 1c 	add  %o7, %i4, %o7
4000442c:	e0 27 40 00 	st  %l0, [ %i5 ]
40004430:	f8 27 60 04 	st  %i4, [ %i5 + 4 ]
40004434:	de 27 bf 54 	st  %o7, [ %fp + -172 ]
40004438:	c2 27 bf 50 	st  %g1, [ %fp + -176 ]
4000443c:	80 a0 60 07 	cmp  %g1, 7
40004440:	04 bf fc 99 	ble  400036a4 <_vfprintf_r+0x1054>
40004444:	ba 07 60 08 	add  %i5, 8, %i5
40004448:	94 07 bf 4c 	add  %fp, -180, %o2
4000444c:	92 10 00 19 	mov  %i1, %o1
40004450:	40 00 17 68 	call  4000a1f0 <__sprint_r>
40004454:	90 10 00 18 	mov  %i0, %o0
40004458:	80 a2 20 00 	cmp  %o0, 0
4000445c:	12 bf fb c4 	bne  4000336c <_vfprintf_r+0xd1c>
40004460:	de 07 bf 54 	ld  [ %fp + -172 ], %o7
40004464:	10 bf fc 90 	b  400036a4 <_vfprintf_r+0x1054>
40004468:	ba 07 bf 58 	add  %fp, -168, %i5
4000446c:	c2 07 be bc 	ld  [ %fp + -324 ], %g1
40004470:	80 a0 60 00 	cmp  %g1, 0
40004474:	14 80 00 0c 	bg  400044a4 <_vfprintf_r+0x1e54>
40004478:	c2 07 be c0 	ld  [ %fp + -320 ], %g1
4000447c:	80 a0 60 00 	cmp  %g1, 0
40004480:	14 80 00 0a 	bg  400044a8 <_vfprintf_r+0x1e58>
40004484:	c2 07 be c4 	ld  [ %fp + -316 ], %g1
40004488:	82 04 c0 01 	add  %l3, %g1, %g1
4000448c:	84 10 00 01 	mov  %g1, %g2
40004490:	80 a5 c0 02 	cmp  %l7, %g2
40004494:	38 bf fc 88 	bgu,a   400036b4 <_vfprintf_r+0x1064>
40004498:	ae 10 00 02 	mov  %g2, %l7
4000449c:	10 bf fc 87 	b  400036b8 <_vfprintf_r+0x1068>
400044a0:	f8 07 bf 00 	ld  [ %fp + -256 ], %i4
400044a4:	c2 07 be c4 	ld  [ %fp + -316 ], %g1
400044a8:	e4 27 be d0 	st  %l2, [ %fp + -304 ]
400044ac:	b8 04 c0 01 	add  %l3, %g1, %i4
400044b0:	ec 07 be bc 	ld  [ %fp + -324 ], %l6
400044b4:	e8 3f be c8 	std  %l4, [ %fp + -312 ]
400044b8:	82 10 00 1d 	mov  %i5, %g1
400044bc:	a4 10 00 17 	mov  %l7, %l2
400044c0:	e6 27 be e0 	st  %l3, [ %fp + -288 ]
400044c4:	ae 10 00 1b 	mov  %i3, %l7
400044c8:	e8 07 be a0 	ld  [ %fp + -352 ], %l4
400044cc:	f6 07 be c0 	ld  [ %fp + -320 ], %i3
400044d0:	e2 27 be bc 	st  %l1, [ %fp + -324 ]
400044d4:	f4 27 be c0 	st  %i2, [ %fp + -320 ]
400044d8:	fa 07 be 9c 	ld  [ %fp + -356 ], %i5
400044dc:	f4 07 be 98 	ld  [ %fp + -360 ], %i2
400044e0:	80 a5 a0 00 	cmp  %l6, 0
400044e4:	12 80 00 34 	bne  400045b4 <_vfprintf_r+0x1f64>
400044e8:	c4 07 bf 50 	ld  [ %fp + -176 ], %g2
400044ec:	9e 03 c0 1d 	add  %o7, %i5, %o7
400044f0:	84 00 a0 01 	inc  %g2
400044f4:	f4 20 40 00 	st  %i2, [ %g1 ]
400044f8:	fa 20 60 04 	st  %i5, [ %g1 + 4 ]
400044fc:	de 27 bf 54 	st  %o7, [ %fp + -172 ]
40004500:	c4 27 bf 50 	st  %g2, [ %fp + -176 ]
40004504:	a8 05 3f ff 	add  %l4, -1, %l4
40004508:	b6 06 ff ff 	add  %i3, -1, %i3
4000450c:	80 a0 a0 07 	cmp  %g2, 7
40004510:	14 80 00 34 	bg  400045e0 <_vfprintf_r+0x1f90>
40004514:	82 00 60 08 	add  %g1, 8, %g1
40004518:	96 27 00 12 	sub  %i4, %l2, %o3
4000451c:	c4 0d 00 00 	ldub  [ %l4 ], %g2
40004520:	a2 10 00 1c 	mov  %i4, %l1
40004524:	85 28 a0 18 	sll  %g2, 0x18, %g2
40004528:	99 38 a0 18 	sra  %g2, 0x18, %o4
4000452c:	80 a3 00 0b 	cmp  %o4, %o3
40004530:	04 80 00 03 	ble  4000453c <_vfprintf_r+0x1eec>
40004534:	a6 10 00 0c 	mov  %o4, %l3
40004538:	a6 10 00 0b 	mov  %o3, %l3
4000453c:	80 a4 e0 00 	cmp  %l3, 0
40004540:	04 80 00 10 	ble  40004580 <_vfprintf_r+0x1f30>
40004544:	96 38 00 13 	xnor  %g0, %l3, %o3
40004548:	c4 07 bf 50 	ld  [ %fp + -176 ], %g2
4000454c:	9e 03 c0 13 	add  %o7, %l3, %o7
40004550:	84 00 a0 01 	inc  %g2
40004554:	e4 20 40 00 	st  %l2, [ %g1 ]
40004558:	e6 20 60 04 	st  %l3, [ %g1 + 4 ]
4000455c:	de 27 bf 54 	st  %o7, [ %fp + -172 ]
40004560:	80 a0 a0 07 	cmp  %g2, 7
40004564:	14 80 00 8f 	bg  400047a0 <_vfprintf_r+0x2150>
40004568:	c4 27 bf 50 	st  %g2, [ %fp + -176 ]
4000456c:	c4 0d 00 00 	ldub  [ %l4 ], %g2
40004570:	82 00 60 08 	add  %g1, 8, %g1
40004574:	85 28 a0 18 	sll  %g2, 0x18, %g2
40004578:	99 38 a0 18 	sra  %g2, 0x18, %o4
4000457c:	96 38 00 13 	xnor  %g0, %l3, %o3
40004580:	97 3a e0 1f 	sra  %o3, 0x1f, %o3
40004584:	86 0c c0 0b 	and  %l3, %o3, %g3
40004588:	a6 23 00 03 	sub  %o4, %g3, %l3
4000458c:	80 a4 e0 00 	cmp  %l3, 0
40004590:	14 80 00 1d 	bg  40004604 <_vfprintf_r+0x1fb4>
40004594:	80 a4 e0 10 	cmp  %l3, 0x10
40004598:	85 38 a0 18 	sra  %g2, 0x18, %g2
4000459c:	80 a6 e0 00 	cmp  %i3, 0
400045a0:	14 bf ff d0 	bg  400044e0 <_vfprintf_r+0x1e90>
400045a4:	a4 04 80 02 	add  %l2, %g2, %l2
400045a8:	80 a5 a0 00 	cmp  %l6, 0
400045ac:	24 80 01 1e 	ble,a   40004a24 <_vfprintf_r+0x23d4>
400045b0:	e8 27 be a0 	st  %l4, [ %fp + -352 ]
400045b4:	c4 07 bf 50 	ld  [ %fp + -176 ], %g2
400045b8:	9e 03 c0 1d 	add  %o7, %i5, %o7
400045bc:	84 00 a0 01 	inc  %g2
400045c0:	f4 20 40 00 	st  %i2, [ %g1 ]
400045c4:	fa 20 60 04 	st  %i5, [ %g1 + 4 ]
400045c8:	de 27 bf 54 	st  %o7, [ %fp + -172 ]
400045cc:	c4 27 bf 50 	st  %g2, [ %fp + -176 ]
400045d0:	ac 05 bf ff 	add  %l6, -1, %l6
400045d4:	80 a0 a0 07 	cmp  %g2, 7
400045d8:	04 bf ff d0 	ble  40004518 <_vfprintf_r+0x1ec8>
400045dc:	82 00 60 08 	add  %g1, 8, %g1
400045e0:	94 07 bf 4c 	add  %fp, -180, %o2
400045e4:	92 10 00 19 	mov  %i1, %o1
400045e8:	40 00 17 02 	call  4000a1f0 <__sprint_r>
400045ec:	90 10 00 18 	mov  %i0, %o0
400045f0:	80 a2 20 00 	cmp  %o0, 0
400045f4:	12 bf fb 5e 	bne  4000336c <_vfprintf_r+0xd1c>
400045f8:	de 07 bf 54 	ld  [ %fp + -172 ], %o7
400045fc:	10 bf ff c7 	b  40004518 <_vfprintf_r+0x1ec8>
40004600:	82 07 bf 58 	add  %fp, -168, %g1
40004604:	04 80 02 97 	ble  40005060 <_vfprintf_r+0x2a10>
40004608:	c4 07 bf 50 	ld  [ %fp + -176 ], %g2
4000460c:	84 00 a0 01 	inc  %g2
40004610:	e0 20 40 00 	st  %l0, [ %g1 ]
40004614:	86 10 20 10 	mov  0x10, %g3
40004618:	9e 03 e0 10 	add  %o7, 0x10, %o7
4000461c:	c6 20 60 04 	st  %g3, [ %g1 + 4 ]
40004620:	c4 27 bf 50 	st  %g2, [ %fp + -176 ]
40004624:	de 27 bf 54 	st  %o7, [ %fp + -172 ]
40004628:	80 a0 a0 07 	cmp  %g2, 7
4000462c:	14 80 01 47 	bg  40004b48 <_vfprintf_r+0x24f8>
40004630:	82 00 60 08 	add  %g1, 8, %g1
40004634:	98 04 ff f0 	add  %l3, -16, %o4
40004638:	80 a3 20 10 	cmp  %o4, 0x10
4000463c:	04 80 00 4d 	ble  40004770 <_vfprintf_r+0x2120>
40004640:	86 10 20 10 	mov  0x10, %g3
40004644:	84 00 a0 01 	inc  %g2
40004648:	e0 20 40 00 	st  %l0, [ %g1 ]
4000464c:	9e 03 e0 10 	add  %o7, 0x10, %o7
40004650:	c6 20 60 04 	st  %g3, [ %g1 + 4 ]
40004654:	c4 27 bf 50 	st  %g2, [ %fp + -176 ]
40004658:	de 27 bf 54 	st  %o7, [ %fp + -172 ]
4000465c:	80 a0 a0 07 	cmp  %g2, 7
40004660:	14 80 01 44 	bg  40004b70 <_vfprintf_r+0x2520>
40004664:	82 00 60 08 	add  %g1, 8, %g1
40004668:	98 04 ff e0 	add  %l3, -32, %o4
4000466c:	80 a3 20 10 	cmp  %o4, 0x10
40004670:	04 80 00 40 	ble  40004770 <_vfprintf_r+0x2120>
40004674:	86 10 20 10 	mov  0x10, %g3
40004678:	84 00 a0 01 	inc  %g2
4000467c:	e0 20 40 00 	st  %l0, [ %g1 ]
40004680:	9e 03 e0 10 	add  %o7, 0x10, %o7
40004684:	c6 20 60 04 	st  %g3, [ %g1 + 4 ]
40004688:	c4 27 bf 50 	st  %g2, [ %fp + -176 ]
4000468c:	de 27 bf 54 	st  %o7, [ %fp + -172 ]
40004690:	80 a0 a0 07 	cmp  %g2, 7
40004694:	14 80 01 41 	bg  40004b98 <_vfprintf_r+0x2548>
40004698:	82 00 60 08 	add  %g1, 8, %g1
4000469c:	98 04 ff d0 	add  %l3, -48, %o4
400046a0:	80 a3 20 10 	cmp  %o4, 0x10
400046a4:	04 80 00 33 	ble  40004770 <_vfprintf_r+0x2120>
400046a8:	86 10 20 10 	mov  0x10, %g3
400046ac:	84 00 a0 01 	inc  %g2
400046b0:	e0 20 40 00 	st  %l0, [ %g1 ]
400046b4:	9e 03 e0 10 	add  %o7, 0x10, %o7
400046b8:	c6 20 60 04 	st  %g3, [ %g1 + 4 ]
400046bc:	c4 27 bf 50 	st  %g2, [ %fp + -176 ]
400046c0:	de 27 bf 54 	st  %o7, [ %fp + -172 ]
400046c4:	80 a0 a0 07 	cmp  %g2, 7
400046c8:	14 80 01 61 	bg  40004c4c <_vfprintf_r+0x25fc>
400046cc:	82 00 60 08 	add  %g1, 8, %g1
400046d0:	98 04 ff c0 	add  %l3, -64, %o4
400046d4:	80 a3 20 10 	cmp  %o4, 0x10
400046d8:	04 80 00 26 	ble  40004770 <_vfprintf_r+0x2120>
400046dc:	86 10 20 10 	mov  0x10, %g3
400046e0:	84 00 a0 01 	inc  %g2
400046e4:	e0 20 40 00 	st  %l0, [ %g1 ]
400046e8:	9e 03 e0 10 	add  %o7, 0x10, %o7
400046ec:	c6 20 60 04 	st  %g3, [ %g1 + 4 ]
400046f0:	c4 27 bf 50 	st  %g2, [ %fp + -176 ]
400046f4:	de 27 bf 54 	st  %o7, [ %fp + -172 ]
400046f8:	80 a0 a0 07 	cmp  %g2, 7
400046fc:	14 80 01 7f 	bg  40004cf8 <_vfprintf_r+0x26a8>
40004700:	82 00 60 08 	add  %g1, 8, %g1
40004704:	98 04 ff b0 	add  %l3, -80, %o4
40004708:	80 a3 20 10 	cmp  %o4, 0x10
4000470c:	04 80 00 19 	ble  40004770 <_vfprintf_r+0x2120>
40004710:	86 10 20 10 	mov  0x10, %g3
40004714:	84 00 a0 01 	inc  %g2
40004718:	e0 20 40 00 	st  %l0, [ %g1 ]
4000471c:	9e 03 e0 10 	add  %o7, 0x10, %o7
40004720:	c6 20 60 04 	st  %g3, [ %g1 + 4 ]
40004724:	c4 27 bf 50 	st  %g2, [ %fp + -176 ]
40004728:	de 27 bf 54 	st  %o7, [ %fp + -172 ]
4000472c:	80 a0 a0 07 	cmp  %g2, 7
40004730:	14 80 01 84 	bg  40004d40 <_vfprintf_r+0x26f0>
40004734:	82 00 60 08 	add  %g1, 8, %g1
40004738:	98 04 ff a0 	add  %l3, -96, %o4
4000473c:	80 a3 20 10 	cmp  %o4, 0x10
40004740:	04 80 00 0c 	ble  40004770 <_vfprintf_r+0x2120>
40004744:	86 10 20 10 	mov  0x10, %g3
40004748:	84 00 a0 01 	inc  %g2
4000474c:	9e 03 e0 10 	add  %o7, 0x10, %o7
40004750:	e0 20 40 00 	st  %l0, [ %g1 ]
40004754:	de 27 bf 54 	st  %o7, [ %fp + -172 ]
40004758:	c6 20 60 04 	st  %g3, [ %g1 + 4 ]
4000475c:	c4 27 bf 50 	st  %g2, [ %fp + -176 ]
40004760:	80 a0 a0 07 	cmp  %g2, 7
40004764:	14 80 00 47 	bg  40004880 <_vfprintf_r+0x2230>
40004768:	82 00 60 08 	add  %g1, 8, %g1
4000476c:	98 04 ff 90 	add  %l3, -112, %o4
40004770:	84 00 a0 01 	inc  %g2
40004774:	9e 03 c0 0c 	add  %o7, %o4, %o7
40004778:	e0 20 40 00 	st  %l0, [ %g1 ]
4000477c:	d8 20 60 04 	st  %o4, [ %g1 + 4 ]
40004780:	de 27 bf 54 	st  %o7, [ %fp + -172 ]
40004784:	80 a0 a0 07 	cmp  %g2, 7
40004788:	14 80 01 3b 	bg  40004c74 <_vfprintf_r+0x2624>
4000478c:	c4 27 bf 50 	st  %g2, [ %fp + -176 ]
40004790:	c4 0d 00 00 	ldub  [ %l4 ], %g2
40004794:	82 00 60 08 	add  %g1, 8, %g1
40004798:	10 bf ff 80 	b  40004598 <_vfprintf_r+0x1f48>
4000479c:	85 28 a0 18 	sll  %g2, 0x18, %g2
400047a0:	94 07 bf 4c 	add  %fp, -180, %o2
400047a4:	92 10 00 19 	mov  %i1, %o1
400047a8:	40 00 16 92 	call  4000a1f0 <__sprint_r>
400047ac:	90 10 00 18 	mov  %i0, %o0
400047b0:	80 a2 20 00 	cmp  %o0, 0
400047b4:	12 bf fa ee 	bne  4000336c <_vfprintf_r+0xd1c>
400047b8:	de 07 bf 54 	ld  [ %fp + -172 ], %o7
400047bc:	c4 0d 00 00 	ldub  [ %l4 ], %g2
400047c0:	85 28 a0 18 	sll  %g2, 0x18, %g2
400047c4:	82 07 bf 58 	add  %fp, -168, %g1
400047c8:	10 bf ff 6d 	b  4000457c <_vfprintf_r+0x1f2c>
400047cc:	99 38 a0 18 	sra  %g2, 0x18, %o4
400047d0:	b8 07 20 01 	inc  %i4
400047d4:	ba 00 60 08 	add  %g1, 8, %i5
400047d8:	10 bf f8 ed 	b  40002b8c <_vfprintf_r+0x53c>
400047dc:	88 10 00 01 	mov  %g1, %g4
400047e0:	10 bf fd 83 	b  40003dec <_vfprintf_r+0x179c>
400047e4:	a2 10 20 06 	mov  6, %l1
400047e8:	94 07 bf 4c 	add  %fp, -180, %o2
400047ec:	92 10 00 19 	mov  %i1, %o1
400047f0:	40 00 16 80 	call  4000a1f0 <__sprint_r>
400047f4:	90 10 00 18 	mov  %i0, %o0
400047f8:	80 a2 20 00 	cmp  %o0, 0
400047fc:	12 bf fa dc 	bne  4000336c <_vfprintf_r+0xd1c>
40004800:	de 07 bf 54 	ld  [ %fp + -172 ], %o7
40004804:	10 bf fb a0 	b  40003684 <_vfprintf_r+0x1034>
40004808:	ba 07 bf 58 	add  %fp, -168, %i5
4000480c:	84 04 c0 01 	add  %l3, %g1, %g2
40004810:	82 20 80 17 	sub  %g2, %l7, %g1
40004814:	80 a1 00 01 	cmp  %g4, %g1
40004818:	04 bf fb cf 	ble  40003754 <_vfprintf_r+0x1104>
4000481c:	a6 10 00 04 	mov  %g4, %l3
40004820:	10 bf fb cd 	b  40003754 <_vfprintf_r+0x1104>
40004824:	a6 10 00 01 	mov  %g1, %l3
40004828:	84 10 20 01 	mov  1, %g2
4000482c:	aa 10 00 14 	mov  %l4, %l5
40004830:	c6 27 be dc 	st  %g3, [ %fp + -292 ]
40004834:	10 bf f9 54 	b  40002d84 <_vfprintf_r+0x734>
40004838:	a8 10 20 00 	clr  %l4
4000483c:	c4 27 be dc 	st  %g2, [ %fp + -292 ]
40004840:	85 29 20 18 	sll  %g4, 0x18, %g2
40004844:	89 38 a0 1f 	sra  %g2, 0x1f, %g4
40004848:	ab 38 a0 18 	sra  %g2, 0x18, %l5
4000484c:	a8 10 00 04 	mov  %g4, %l4
40004850:	10 bf f9 0f 	b  40002c8c <_vfprintf_r+0x63c>
40004854:	84 10 00 04 	mov  %g4, %g2
40004858:	c4 27 be dc 	st  %g2, [ %fp + -292 ]
4000485c:	aa 10 00 14 	mov  %l4, %l5
40004860:	a2 0c bb ff 	and  %l2, -1025, %l1
40004864:	a8 10 20 00 	clr  %l4
40004868:	10 bf f9 47 	b  40002d84 <_vfprintf_r+0x734>
4000486c:	84 10 20 00 	clr  %g2
40004870:	c4 27 be dc 	st  %g2, [ %fp + -292 ]
40004874:	aa 10 00 14 	mov  %l4, %l5
40004878:	10 bf fd 45 	b  40003d8c <_vfprintf_r+0x173c>
4000487c:	a8 10 20 00 	clr  %l4
40004880:	94 07 bf 4c 	add  %fp, -180, %o2
40004884:	92 10 00 19 	mov  %i1, %o1
40004888:	40 00 16 5a 	call  4000a1f0 <__sprint_r>
4000488c:	90 10 00 18 	mov  %i0, %o0
40004890:	80 a2 20 00 	cmp  %o0, 0
40004894:	12 bf fa b6 	bne  4000336c <_vfprintf_r+0xd1c>
40004898:	de 07 bf 54 	ld  [ %fp + -172 ], %o7
4000489c:	c4 07 bf 50 	ld  [ %fp + -176 ], %g2
400048a0:	10 bf ff b3 	b  4000476c <_vfprintf_r+0x211c>
400048a4:	82 07 bf 58 	add  %fp, -168, %g1
400048a8:	10 bf fc 7e 	b  40003aa0 <_vfprintf_r+0x1450>
400048ac:	c0 2f be dc 	clrb  [ %fp + -292 ]
400048b0:	b8 10 20 06 	mov  6, %i4
400048b4:	82 14 a1 00 	or  %l2, 0x100, %g1
400048b8:	d1 1f be b0 	ldd  [ %fp + -336 ], %f8
400048bc:	c2 27 be e8 	st  %g1, [ %fp + -280 ]
400048c0:	d1 27 be e0 	st  %f8, [ %fp + -288 ]
400048c4:	c4 07 be e0 	ld  [ %fp + -288 ], %g2
400048c8:	80 a0 a0 00 	cmp  %g2, 0
400048cc:	26 80 01 c1 	bl,a   40004fd0 <_vfprintf_r+0x2980>
400048d0:	d1 1f be b0 	ldd  [ %fp + -336 ], %f8
400048d4:	c0 2f be dc 	clrb  [ %fp + -292 ]
400048d8:	80 a4 60 46 	cmp  %l1, 0x46
400048dc:	12 80 00 f3 	bne  40004ca8 <_vfprintf_r+0x2658>
400048e0:	84 07 bf 10 	add  %fp, -240, %g2
400048e4:	c4 23 a0 60 	st  %g2, [ %sp + 0x60 ]
400048e8:	84 07 bf 04 	add  %fp, -252, %g2
400048ec:	d1 3f be e0 	std  %f8, [ %fp + -288 ]
400048f0:	d1 3f be d0 	std  %f8, [ %fp + -304 ]
400048f4:	c4 23 a0 5c 	st  %g2, [ %sp + 0x5c ]
400048f8:	9a 07 bf 00 	add  %fp, -256, %o5
400048fc:	98 10 00 1c 	mov  %i4, %o4
40004900:	96 10 20 03 	mov  3, %o3
40004904:	d2 07 be e0 	ld  [ %fp + -288 ], %o1
40004908:	d4 07 be e4 	ld  [ %fp + -284 ], %o2
4000490c:	40 00 04 30 	call  400059cc <_dtoa_r>
40004910:	90 10 00 18 	mov  %i0, %o0
40004914:	d1 1f be d0 	ldd  [ %fp + -304 ], %f8
40004918:	c8 4a 00 00 	ldsb  [ %o0 ], %g4
4000491c:	80 a1 20 30 	cmp  %g4, 0x30
40004920:	12 80 00 0c 	bne  40004950 <_vfprintf_r+0x2300>
40004924:	a6 10 00 08 	mov  %o0, %l3
40004928:	03 10 00 3b 	sethi  %hi(0x4000ec00), %g1
4000492c:	d5 18 61 68 	ldd  [ %g1 + 0x168 ], %f10	! 4000ed68 <_global_impure_ptr+0x64>
40004930:	81 aa 0a 4a 	fcmpd  %f8, %f10
40004934:	01 00 00 00 	nop 
40004938:	03 80 00 03 	fbne  40004944 <_vfprintf_r+0x22f4>
4000493c:	88 10 20 01 	mov  1, %g4	! 1 <_CONTEXT_I_>
40004940:	88 10 20 00 	clr  %g4
40004944:	80 89 20 ff 	btst  0xff, %g4
40004948:	32 80 00 41 	bne,a   40004a4c <_vfprintf_r+0x23fc>
4000494c:	88 10 20 01 	mov  1, %g4
40004950:	c8 07 bf 00 	ld  [ %fp + -256 ], %g4
40004954:	88 01 00 1c 	add  %g4, %i4, %g4
40004958:	98 04 c0 04 	add  %l3, %g4, %o4
4000495c:	03 10 00 3b 	sethi  %hi(0x4000ec00), %g1
40004960:	d5 18 61 68 	ldd  [ %g1 + 0x168 ], %f10	! 4000ed68 <_global_impure_ptr+0x64>
40004964:	81 aa 0a 4a 	fcmpd  %f8, %f10
40004968:	01 00 00 00 	nop 
4000496c:	13 bf fe 13 	fbe  400041b8 <_vfprintf_r+0x1b68>
40004970:	88 10 00 0c 	mov  %o4, %g4
40004974:	c8 07 bf 10 	ld  [ %fp + -240 ], %g4
40004978:	80 a1 00 0c 	cmp  %g4, %o4
4000497c:	1a bf fe 0f 	bcc  400041b8 <_vfprintf_r+0x1b68>
40004980:	9a 10 20 30 	mov  0x30, %o5
40004984:	82 01 20 01 	add  %g4, 1, %g1
40004988:	c2 27 bf 10 	st  %g1, [ %fp + -240 ]
4000498c:	da 29 00 00 	stb  %o5, [ %g4 ]
40004990:	c8 07 bf 10 	ld  [ %fp + -240 ], %g4
40004994:	80 a3 00 04 	cmp  %o4, %g4
40004998:	38 bf ff fc 	bgu,a   40004988 <_vfprintf_r+0x2338>
4000499c:	82 01 20 01 	add  %g4, 1, %g1
400049a0:	10 bf fe 07 	b  400041bc <_vfprintf_r+0x1b6c>
400049a4:	82 21 00 13 	sub  %g4, %l3, %g1
400049a8:	92 07 20 01 	add  %i4, 1, %o1
400049ac:	40 00 0c 67 	call  40007b48 <_malloc_r>
400049b0:	90 10 00 18 	mov  %i0, %o0
400049b4:	a6 92 20 00 	orcc  %o0, 0, %l3
400049b8:	22 80 01 d5 	be,a   4000510c <_vfprintf_r+0x2abc>
400049bc:	c2 16 60 0c 	lduh  [ %i1 + 0xc ], %g1
400049c0:	10 bf fc 2f 	b  40003a7c <_vfprintf_r+0x142c>
400049c4:	e6 27 be e8 	st  %l3, [ %fp + -280 ]
400049c8:	c2 07 be 9c 	ld  [ %fp + -356 ], %g1
400049cc:	d2 07 be 98 	ld  [ %fp + -360 ], %o1
400049d0:	94 10 00 01 	mov  %g1, %o2
400049d4:	b8 27 00 01 	sub  %i4, %g1, %i4
400049d8:	40 00 15 40 	call  40009ed8 <strncpy>
400049dc:	90 10 00 1c 	mov  %i4, %o0
400049e0:	c4 4f 60 01 	ldsb  [ %i5 + 1 ], %g2
400049e4:	80 a0 00 02 	cmp  %g0, %g2
400049e8:	90 10 00 14 	mov  %l4, %o0
400049ec:	92 10 00 15 	mov  %l5, %o1
400049f0:	94 10 20 00 	clr  %o2
400049f4:	96 10 20 0a 	mov  0xa, %o3
400049f8:	ba 40 00 1d 	addx  %g0, %i5, %i5
400049fc:	40 00 26 ca 	call  4000e524 <__udivdi3>
40004a00:	ae 10 20 00 	clr  %l7
40004a04:	a8 10 00 08 	mov  %o0, %l4
40004a08:	10 bf fe 5e 	b  40004380 <_vfprintf_r+0x1d30>
40004a0c:	aa 10 00 09 	mov  %o1, %l5
40004a10:	28 bf fe 7e 	bleu,a   40004408 <_vfprintf_r+0x1db8>
40004a14:	fa 27 be a0 	st  %i5, [ %fp + -352 ]
40004a18:	a8 10 00 08 	mov  %o0, %l4
40004a1c:	10 bf fe 59 	b  40004380 <_vfprintf_r+0x1d30>
40004a20:	aa 10 00 09 	mov  %o1, %l5
40004a24:	84 10 00 11 	mov  %l1, %g2
40004a28:	b6 10 00 17 	mov  %l7, %i3
40004a2c:	e6 07 be e0 	ld  [ %fp + -288 ], %l3
40004a30:	ae 10 00 12 	mov  %l2, %l7
40004a34:	e8 1f be c8 	ldd  [ %fp + -312 ], %l4
40004a38:	e2 07 be bc 	ld  [ %fp + -324 ], %l1
40004a3c:	ba 10 00 01 	mov  %g1, %i5
40004a40:	e4 07 be d0 	ld  [ %fp + -304 ], %l2
40004a44:	10 bf fe 93 	b  40004490 <_vfprintf_r+0x1e40>
40004a48:	f4 07 be c0 	ld  [ %fp + -320 ], %i2
40004a4c:	88 21 00 1c 	sub  %g4, %i4, %g4
40004a50:	10 bf ff c1 	b  40004954 <_vfprintf_r+0x2304>
40004a54:	c8 27 bf 00 	st  %g4, [ %fp + -256 ]
40004a58:	c2 07 be c8 	ld  [ %fp + -312 ], %g1
40004a5c:	80 a0 80 01 	cmp  %g2, %g1
40004a60:	34 80 00 c2 	bg,a   40004d68 <_vfprintf_r+0x2718>
40004a64:	82 10 00 02 	mov  %g2, %g1
40004a68:	80 8c a0 01 	btst  1, %l2
40004a6c:	02 80 00 05 	be  40004a80 <_vfprintf_r+0x2430>
40004a70:	c2 27 be e0 	st  %g1, [ %fp + -288 ]
40004a74:	c4 07 be b8 	ld  [ %fp + -328 ], %g2
40004a78:	82 00 40 02 	add  %g1, %g2, %g1
40004a7c:	c2 27 be e0 	st  %g1, [ %fp + -288 ]
40004a80:	80 8c a4 00 	btst  0x400, %l2
40004a84:	02 80 00 05 	be  40004a98 <_vfprintf_r+0x2448>
40004a88:	c2 07 be c8 	ld  [ %fp + -312 ], %g1
40004a8c:	80 a0 60 00 	cmp  %g1, 0
40004a90:	34 80 00 ff 	bg,a   40004e8c <_vfprintf_r+0x283c>
40004a94:	ac 10 20 67 	mov  0x67, %l6
40004a98:	c2 07 be e0 	ld  [ %fp + -288 ], %g1
40004a9c:	ac 10 20 67 	mov  0x67, %l6
40004aa0:	a2 38 00 01 	xnor  %g0, %g1, %l1
40004aa4:	a3 3c 60 1f 	sra  %l1, 0x1f, %l1
40004aa8:	a2 08 40 11 	and  %g1, %l1, %l1
40004aac:	e4 07 be e8 	ld  [ %fp + -280 ], %l2
40004ab0:	c0 27 be bc 	clr  [ %fp + -324 ]
40004ab4:	c0 27 be e8 	clr  [ %fp + -280 ]
40004ab8:	10 bf fe 23 	b  40004344 <_vfprintf_r+0x1cf4>
40004abc:	c0 27 be c0 	clr  [ %fp + -320 ]
40004ac0:	80 a4 60 46 	cmp  %l1, 0x46
40004ac4:	12 80 01 90 	bne  40005104 <_vfprintf_r+0x2ab4>
40004ac8:	84 10 00 01 	mov  %g1, %g2
40004acc:	82 0c a0 01 	and  %l2, 1, %g1
40004ad0:	80 a0 a0 00 	cmp  %g2, 0
40004ad4:	04 80 01 76 	ble  400050ac <_vfprintf_r+0x2a5c>
40004ad8:	82 10 40 1c 	or  %g1, %i4, %g1
40004adc:	80 a0 60 00 	cmp  %g1, 0
40004ae0:	12 80 01 35 	bne  40004fb4 <_vfprintf_r+0x2964>
40004ae4:	c2 07 be b8 	ld  [ %fp + -328 ], %g1
40004ae8:	c4 27 be e0 	st  %g2, [ %fp + -288 ]
40004aec:	ac 10 20 66 	mov  0x66, %l6
40004af0:	80 8c a4 00 	btst  0x400, %l2
40004af4:	12 80 00 e6 	bne  40004e8c <_vfprintf_r+0x283c>
40004af8:	c2 07 be e0 	ld  [ %fp + -288 ], %g1
40004afc:	a2 38 00 01 	xnor  %g0, %g1, %l1
40004b00:	a3 3c 60 1f 	sra  %l1, 0x1f, %l1
40004b04:	10 bf ff ea 	b  40004aac <_vfprintf_r+0x245c>
40004b08:	a2 08 40 11 	and  %g1, %l1, %l1
40004b0c:	ee 27 be dc 	st  %l7, [ %fp + -292 ]
40004b10:	c8 2f be f7 	stb  %g4, [ %fp + -265 ]
40004b14:	9a 10 20 2d 	mov  0x2d, %o5
40004b18:	10 bf f7 5b 	b  40002884 <_vfprintf_r+0x234>
40004b1c:	b8 10 20 00 	clr  %i4
40004b20:	94 07 bf 4c 	add  %fp, -180, %o2
40004b24:	92 10 00 19 	mov  %i1, %o1
40004b28:	40 00 15 b2 	call  4000a1f0 <__sprint_r>
40004b2c:	90 10 00 18 	mov  %i0, %o0
40004b30:	80 a2 20 00 	cmp  %o0, 0
40004b34:	12 bf fa 0e 	bne  4000336c <_vfprintf_r+0xd1c>
40004b38:	c8 07 bf 00 	ld  [ %fp + -256 ], %g4
40004b3c:	de 07 bf 54 	ld  [ %fp + -172 ], %o7
40004b40:	10 bf fd 40 	b  40004040 <_vfprintf_r+0x19f0>
40004b44:	ba 07 bf 58 	add  %fp, -168, %i5
40004b48:	94 07 bf 4c 	add  %fp, -180, %o2
40004b4c:	92 10 00 19 	mov  %i1, %o1
40004b50:	40 00 15 a8 	call  4000a1f0 <__sprint_r>
40004b54:	90 10 00 18 	mov  %i0, %o0
40004b58:	80 a2 20 00 	cmp  %o0, 0
40004b5c:	12 bf fa 04 	bne  4000336c <_vfprintf_r+0xd1c>
40004b60:	de 07 bf 54 	ld  [ %fp + -172 ], %o7
40004b64:	c4 07 bf 50 	ld  [ %fp + -176 ], %g2
40004b68:	10 bf fe b3 	b  40004634 <_vfprintf_r+0x1fe4>
40004b6c:	82 07 bf 58 	add  %fp, -168, %g1
40004b70:	94 07 bf 4c 	add  %fp, -180, %o2
40004b74:	92 10 00 19 	mov  %i1, %o1
40004b78:	40 00 15 9e 	call  4000a1f0 <__sprint_r>
40004b7c:	90 10 00 18 	mov  %i0, %o0
40004b80:	80 a2 20 00 	cmp  %o0, 0
40004b84:	12 bf f9 fa 	bne  4000336c <_vfprintf_r+0xd1c>
40004b88:	de 07 bf 54 	ld  [ %fp + -172 ], %o7
40004b8c:	c4 07 bf 50 	ld  [ %fp + -176 ], %g2
40004b90:	10 bf fe b6 	b  40004668 <_vfprintf_r+0x2018>
40004b94:	82 07 bf 58 	add  %fp, -168, %g1
40004b98:	94 07 bf 4c 	add  %fp, -180, %o2
40004b9c:	92 10 00 19 	mov  %i1, %o1
40004ba0:	40 00 15 94 	call  4000a1f0 <__sprint_r>
40004ba4:	90 10 00 18 	mov  %i0, %o0
40004ba8:	80 a2 20 00 	cmp  %o0, 0
40004bac:	12 bf f9 f0 	bne  4000336c <_vfprintf_r+0xd1c>
40004bb0:	de 07 bf 54 	ld  [ %fp + -172 ], %o7
40004bb4:	c4 07 bf 50 	ld  [ %fp + -176 ], %g2
40004bb8:	10 bf fe b9 	b  4000469c <_vfprintf_r+0x204c>
40004bbc:	82 07 bf 58 	add  %fp, -168, %g1
40004bc0:	80 8c a0 01 	btst  1, %l2
40004bc4:	02 bf f7 74 	be  40002994 <_vfprintf_r+0x344>
40004bc8:	80 8c a0 04 	btst  4, %l2
40004bcc:	c4 07 be b8 	ld  [ %fp + -328 ], %g2
40004bd0:	c2 07 bf 50 	ld  [ %fp + -176 ], %g1
40004bd4:	9e 00 80 0f 	add  %g2, %o7, %o7
40004bd8:	82 00 60 01 	inc  %g1
40004bdc:	c6 07 be ac 	ld  [ %fp + -340 ], %g3
40004be0:	c4 27 60 04 	st  %g2, [ %i5 + 4 ]
40004be4:	c6 27 40 00 	st  %g3, [ %i5 ]
40004be8:	de 27 bf 54 	st  %o7, [ %fp + -172 ]
40004bec:	80 a0 60 07 	cmp  %g1, 7
40004bf0:	04 80 00 2c 	ble  40004ca0 <_vfprintf_r+0x2650>
40004bf4:	c2 27 bf 50 	st  %g1, [ %fp + -176 ]
40004bf8:	94 07 bf 4c 	add  %fp, -180, %o2
40004bfc:	92 10 00 19 	mov  %i1, %o1
40004c00:	40 00 15 7c 	call  4000a1f0 <__sprint_r>
40004c04:	90 10 00 18 	mov  %i0, %o0
40004c08:	80 a2 20 00 	cmp  %o0, 0
40004c0c:	12 bf f9 d8 	bne  4000336c <_vfprintf_r+0xd1c>
40004c10:	c8 07 bf 00 	ld  [ %fp + -256 ], %g4
40004c14:	de 07 bf 54 	ld  [ %fp + -172 ], %o7
40004c18:	c2 07 bf 50 	ld  [ %fp + -176 ], %g1
40004c1c:	10 bf fd 18 	b  4000407c <_vfprintf_r+0x1a2c>
40004c20:	ba 07 bf 58 	add  %fp, -168, %i5
40004c24:	94 07 bf 4c 	add  %fp, -180, %o2
40004c28:	92 10 00 19 	mov  %i1, %o1
40004c2c:	40 00 15 71 	call  4000a1f0 <__sprint_r>
40004c30:	90 10 00 18 	mov  %i0, %o0
40004c34:	80 a2 20 00 	cmp  %o0, 0
40004c38:	12 bf f9 cd 	bne  4000336c <_vfprintf_r+0xd1c>
40004c3c:	f8 07 bf 00 	ld  [ %fp + -256 ], %i4
40004c40:	de 07 bf 54 	ld  [ %fp + -172 ], %o7
40004c44:	10 bf fa b0 	b  40003704 <_vfprintf_r+0x10b4>
40004c48:	ba 07 bf 58 	add  %fp, -168, %i5
40004c4c:	94 07 bf 4c 	add  %fp, -180, %o2
40004c50:	92 10 00 19 	mov  %i1, %o1
40004c54:	40 00 15 67 	call  4000a1f0 <__sprint_r>
40004c58:	90 10 00 18 	mov  %i0, %o0
40004c5c:	80 a2 20 00 	cmp  %o0, 0
40004c60:	12 bf f9 c3 	bne  4000336c <_vfprintf_r+0xd1c>
40004c64:	de 07 bf 54 	ld  [ %fp + -172 ], %o7
40004c68:	c4 07 bf 50 	ld  [ %fp + -176 ], %g2
40004c6c:	10 bf fe 99 	b  400046d0 <_vfprintf_r+0x2080>
40004c70:	82 07 bf 58 	add  %fp, -168, %g1
40004c74:	94 07 bf 4c 	add  %fp, -180, %o2
40004c78:	92 10 00 19 	mov  %i1, %o1
40004c7c:	40 00 15 5d 	call  4000a1f0 <__sprint_r>
40004c80:	90 10 00 18 	mov  %i0, %o0
40004c84:	80 a2 20 00 	cmp  %o0, 0
40004c88:	12 bf f9 b9 	bne  4000336c <_vfprintf_r+0xd1c>
40004c8c:	de 07 bf 54 	ld  [ %fp + -172 ], %o7
40004c90:	c4 0d 00 00 	ldub  [ %l4 ], %g2
40004c94:	82 07 bf 58 	add  %fp, -168, %g1
40004c98:	10 bf fe 40 	b  40004598 <_vfprintf_r+0x1f48>
40004c9c:	85 28 a0 18 	sll  %g2, 0x18, %g2
40004ca0:	10 bf fc fa 	b  40004088 <_vfprintf_r+0x1a38>
40004ca4:	ba 07 60 08 	add  %i5, 8, %i5
40004ca8:	80 a4 60 45 	cmp  %l1, 0x45
40004cac:	12 80 01 10 	bne  400050ec <_vfprintf_r+0x2a9c>
40004cb0:	9a 07 bf 00 	add  %fp, -256, %o5
40004cb4:	c4 23 a0 60 	st  %g2, [ %sp + 0x60 ]
40004cb8:	84 07 bf 04 	add  %fp, -252, %g2
40004cbc:	d1 3f be e0 	std  %f8, [ %fp + -288 ]
40004cc0:	98 07 20 01 	add  %i4, 1, %o4
40004cc4:	d1 3f be d0 	std  %f8, [ %fp + -304 ]
40004cc8:	d8 27 be c8 	st  %o4, [ %fp + -312 ]
40004ccc:	c4 23 a0 5c 	st  %g2, [ %sp + 0x5c ]
40004cd0:	96 10 20 02 	mov  2, %o3
40004cd4:	d2 07 be e0 	ld  [ %fp + -288 ], %o1
40004cd8:	d4 07 be e4 	ld  [ %fp + -284 ], %o2
40004cdc:	40 00 03 3c 	call  400059cc <_dtoa_r>
40004ce0:	90 10 00 18 	mov  %i0, %o0
40004ce4:	d1 1f be d0 	ldd  [ %fp + -304 ], %f8
40004ce8:	a6 10 00 08 	mov  %o0, %l3
40004cec:	d8 07 be c8 	ld  [ %fp + -312 ], %o4
40004cf0:	10 bf ff 1b 	b  4000495c <_vfprintf_r+0x230c>
40004cf4:	98 04 c0 0c 	add  %l3, %o4, %o4
40004cf8:	94 07 bf 4c 	add  %fp, -180, %o2
40004cfc:	92 10 00 19 	mov  %i1, %o1
40004d00:	40 00 15 3c 	call  4000a1f0 <__sprint_r>
40004d04:	90 10 00 18 	mov  %i0, %o0
40004d08:	80 a2 20 00 	cmp  %o0, 0
40004d0c:	12 bf f9 98 	bne  4000336c <_vfprintf_r+0xd1c>
40004d10:	de 07 bf 54 	ld  [ %fp + -172 ], %o7
40004d14:	c4 07 bf 50 	ld  [ %fp + -176 ], %g2
40004d18:	10 bf fe 7b 	b  40004704 <_vfprintf_r+0x20b4>
40004d1c:	82 07 bf 58 	add  %fp, -168, %g1
40004d20:	a2 10 00 1c 	mov  %i4, %l1
40004d24:	f8 27 be e0 	st  %i4, [ %fp + -288 ]
40004d28:	da 0f be f7 	ldub  [ %fp + -265 ], %o5
40004d2c:	b8 10 20 00 	clr  %i4
40004d30:	c0 27 be bc 	clr  [ %fp + -324 ]
40004d34:	c0 27 be c0 	clr  [ %fp + -320 ]
40004d38:	10 bf f6 d3 	b  40002884 <_vfprintf_r+0x234>
40004d3c:	c0 27 be c8 	clr  [ %fp + -312 ]
40004d40:	94 07 bf 4c 	add  %fp, -180, %o2
40004d44:	92 10 00 19 	mov  %i1, %o1
40004d48:	40 00 15 2a 	call  4000a1f0 <__sprint_r>
40004d4c:	90 10 00 18 	mov  %i0, %o0
40004d50:	80 a2 20 00 	cmp  %o0, 0
40004d54:	12 bf f9 86 	bne  4000336c <_vfprintf_r+0xd1c>
40004d58:	de 07 bf 54 	ld  [ %fp + -172 ], %o7
40004d5c:	c4 07 bf 50 	ld  [ %fp + -176 ], %g2
40004d60:	10 bf fe 76 	b  40004738 <_vfprintf_r+0x20e8>
40004d64:	82 07 bf 58 	add  %fp, -168, %g1
40004d68:	c4 07 be b8 	ld  [ %fp + -328 ], %g2
40004d6c:	82 00 40 02 	add  %g1, %g2, %g1
40004d70:	c2 27 be e0 	st  %g1, [ %fp + -288 ]
40004d74:	c4 07 be c8 	ld  [ %fp + -312 ], %g2
40004d78:	80 a0 a0 00 	cmp  %g2, 0
40004d7c:	14 bf ff 5d 	bg  40004af0 <_vfprintf_r+0x24a0>
40004d80:	ac 10 20 67 	mov  0x67, %l6
40004d84:	a4 20 40 02 	sub  %g1, %g2, %l2
40004d88:	82 04 a0 01 	add  %l2, 1, %g1
40004d8c:	a2 38 00 01 	xnor  %g0, %g1, %l1
40004d90:	c2 27 be e0 	st  %g1, [ %fp + -288 ]
40004d94:	a3 3c 60 1f 	sra  %l1, 0x1f, %l1
40004d98:	10 bf ff 45 	b  40004aac <_vfprintf_r+0x245c>
40004d9c:	a2 08 40 11 	and  %g1, %l1, %l1
40004da0:	94 07 bf 4c 	add  %fp, -180, %o2
40004da4:	92 10 00 19 	mov  %i1, %o1
40004da8:	40 00 15 12 	call  4000a1f0 <__sprint_r>
40004dac:	90 10 00 18 	mov  %i0, %o0
40004db0:	80 a2 20 00 	cmp  %o0, 0
40004db4:	12 bf f9 6e 	bne  4000336c <_vfprintf_r+0xd1c>
40004db8:	c8 07 bf 00 	ld  [ %fp + -256 ], %g4
40004dbc:	c2 07 be c4 	ld  [ %fp + -316 ], %g1
40004dc0:	de 07 bf 54 	ld  [ %fp + -172 ], %o7
40004dc4:	88 20 40 04 	sub  %g1, %g4, %g4
40004dc8:	10 bf fa 63 	b  40003754 <_vfprintf_r+0x1104>
40004dcc:	ba 07 bf 58 	add  %fp, -168, %i5
40004dd0:	16 80 00 1d 	bge  40004e44 <_vfprintf_r+0x27f4>
40004dd4:	b8 20 00 04 	neg  %g4, %i4
40004dd8:	10 80 00 06 	b  40004df0 <_vfprintf_r+0x27a0>
40004ddc:	ac 10 20 10 	mov  0x10, %l6
40004de0:	b8 07 3f f0 	add  %i4, -16, %i4
40004de4:	80 a7 20 10 	cmp  %i4, 0x10
40004de8:	24 80 00 18 	ble,a   40004e48 <_vfprintf_r+0x27f8>
40004dec:	82 00 60 01 	inc  %g1
40004df0:	82 00 60 01 	inc  %g1
40004df4:	9e 03 e0 10 	add  %o7, 0x10, %o7
40004df8:	e0 27 40 00 	st  %l0, [ %i5 ]
40004dfc:	ec 27 60 04 	st  %l6, [ %i5 + 4 ]
40004e00:	de 27 bf 54 	st  %o7, [ %fp + -172 ]
40004e04:	c2 27 bf 50 	st  %g1, [ %fp + -176 ]
40004e08:	80 a0 60 07 	cmp  %g1, 7
40004e0c:	04 bf ff f5 	ble  40004de0 <_vfprintf_r+0x2790>
40004e10:	ba 07 60 08 	add  %i5, 8, %i5
40004e14:	94 07 bf 4c 	add  %fp, -180, %o2
40004e18:	92 10 00 19 	mov  %i1, %o1
40004e1c:	40 00 14 f5 	call  4000a1f0 <__sprint_r>
40004e20:	90 10 00 18 	mov  %i0, %o0
40004e24:	80 a2 20 00 	cmp  %o0, 0
40004e28:	12 bf f9 51 	bne  4000336c <_vfprintf_r+0xd1c>
40004e2c:	de 07 bf 54 	ld  [ %fp + -172 ], %o7
40004e30:	c2 07 bf 50 	ld  [ %fp + -176 ], %g1
40004e34:	10 bf ff eb 	b  40004de0 <_vfprintf_r+0x2790>
40004e38:	ba 07 bf 58 	add  %fp, -168, %i5
40004e3c:	10 bf f9 56 	b  40003394 <_vfprintf_r+0xd44>
40004e40:	c2 27 be ec 	st  %g1, [ %fp + -276 ]
40004e44:	82 00 60 01 	inc  %g1
40004e48:	9e 03 c0 1c 	add  %o7, %i4, %o7
40004e4c:	e0 27 40 00 	st  %l0, [ %i5 ]
40004e50:	f8 27 60 04 	st  %i4, [ %i5 + 4 ]
40004e54:	de 27 bf 54 	st  %o7, [ %fp + -172 ]
40004e58:	80 a0 60 07 	cmp  %g1, 7
40004e5c:	04 bf ff 91 	ble  40004ca0 <_vfprintf_r+0x2650>
40004e60:	c2 27 bf 50 	st  %g1, [ %fp + -176 ]
40004e64:	94 07 bf 4c 	add  %fp, -180, %o2
40004e68:	92 10 00 19 	mov  %i1, %o1
40004e6c:	40 00 14 e1 	call  4000a1f0 <__sprint_r>
40004e70:	90 10 00 18 	mov  %i0, %o0
40004e74:	80 a2 20 00 	cmp  %o0, 0
40004e78:	12 bf f9 3d 	bne  4000336c <_vfprintf_r+0xd1c>
40004e7c:	de 07 bf 54 	ld  [ %fp + -172 ], %o7
40004e80:	c2 07 bf 50 	ld  [ %fp + -176 ], %g1
40004e84:	10 bf fc 81 	b  40004088 <_vfprintf_r+0x1a38>
40004e88:	ba 07 bf 58 	add  %fp, -168, %i5
40004e8c:	c0 27 be bc 	clr  [ %fp + -324 ]
40004e90:	c0 27 be c0 	clr  [ %fp + -320 ]
40004e94:	c2 07 be a0 	ld  [ %fp + -352 ], %g1
40004e98:	c6 08 40 00 	ldub  [ %g1 ], %g3
40004e9c:	87 28 e0 18 	sll  %g3, 0x18, %g3
40004ea0:	89 38 e0 18 	sra  %g3, 0x18, %g4
40004ea4:	80 a1 20 7f 	cmp  %g4, 0x7f
40004ea8:	02 80 00 16 	be  40004f00 <_vfprintf_r+0x28b0>
40004eac:	88 10 00 01 	mov  %g1, %g4
40004eb0:	c4 07 be c8 	ld  [ %fp + -312 ], %g2
40004eb4:	83 38 e0 18 	sra  %g3, 0x18, %g1
40004eb8:	80 a0 40 02 	cmp  %g1, %g2
40004ebc:	36 80 00 10 	bge,a   40004efc <_vfprintf_r+0x28ac>
40004ec0:	c8 27 be a0 	st  %g4, [ %fp + -352 ]
40004ec4:	c6 09 20 01 	ldub  [ %g4 + 1 ], %g3
40004ec8:	84 20 80 01 	sub  %g2, %g1, %g2
40004ecc:	87 28 e0 18 	sll  %g3, 0x18, %g3
40004ed0:	83 38 e0 18 	sra  %g3, 0x18, %g1
40004ed4:	80 a0 60 00 	cmp  %g1, 0
40004ed8:	22 80 00 18 	be,a   40004f38 <_vfprintf_r+0x28e8>
40004edc:	c2 07 be bc 	ld  [ %fp + -324 ], %g1
40004ee0:	f8 07 be c0 	ld  [ %fp + -320 ], %i4
40004ee4:	b8 07 20 01 	inc  %i4
40004ee8:	f8 27 be c0 	st  %i4, [ %fp + -320 ]
40004eec:	80 a0 60 7f 	cmp  %g1, 0x7f
40004ef0:	12 bf ff f2 	bne  40004eb8 <_vfprintf_r+0x2868>
40004ef4:	88 01 20 01 	inc  %g4
40004ef8:	c8 27 be a0 	st  %g4, [ %fp + -352 ]
40004efc:	c4 27 be c8 	st  %g2, [ %fp + -312 ]
40004f00:	c2 07 be c0 	ld  [ %fp + -320 ], %g1
40004f04:	c4 07 be bc 	ld  [ %fp + -324 ], %g2
40004f08:	d2 07 be 9c 	ld  [ %fp + -356 ], %o1
40004f0c:	40 00 23 f4 	call  4000dedc <.umul>
40004f10:	90 00 40 02 	add  %g1, %g2, %o0
40004f14:	c2 07 be e0 	ld  [ %fp + -288 ], %g1
40004f18:	e4 07 be e8 	ld  [ %fp + -280 ], %l2
40004f1c:	82 02 00 01 	add  %o0, %g1, %g1
40004f20:	c0 27 be e8 	clr  [ %fp + -280 ]
40004f24:	a2 38 00 01 	xnor  %g0, %g1, %l1
40004f28:	c2 27 be e0 	st  %g1, [ %fp + -288 ]
40004f2c:	a3 3c 60 1f 	sra  %l1, 0x1f, %l1
40004f30:	10 bf fd 05 	b  40004344 <_vfprintf_r+0x1cf4>
40004f34:	a2 08 40 11 	and  %g1, %l1, %l1
40004f38:	82 00 60 01 	inc  %g1
40004f3c:	c2 27 be bc 	st  %g1, [ %fp + -324 ]
40004f40:	c6 09 00 00 	ldub  [ %g4 ], %g3
40004f44:	87 28 e0 18 	sll  %g3, 0x18, %g3
40004f48:	83 38 e0 18 	sra  %g3, 0x18, %g1
40004f4c:	80 a0 60 7f 	cmp  %g1, 0x7f
40004f50:	12 bf ff db 	bne  40004ebc <_vfprintf_r+0x286c>
40004f54:	80 a0 40 02 	cmp  %g1, %g2
40004f58:	10 bf ff e9 	b  40004efc <_vfprintf_r+0x28ac>
40004f5c:	c8 27 be a0 	st  %g4, [ %fp + -352 ]
40004f60:	80 a5 a0 47 	cmp  %l6, 0x47
40004f64:	04 80 00 4e 	ble  4000509c <_vfprintf_r+0x2a4c>
40004f68:	05 10 00 3b 	sethi  %hi(0x4000ec00), %g2
40004f6c:	05 10 00 3b 	sethi  %hi(0x4000ec00), %g2
40004f70:	a4 0c bf 7f 	and  %l2, -129, %l2
40004f74:	a6 10 a1 20 	or  %g2, 0x120, %l3
40004f78:	10 bf f6 cd 	b  40002aac <_vfprintf_r+0x45c>
40004f7c:	da 0f be f7 	ldub  [ %fp + -265 ], %o5
40004f80:	80 a4 60 41 	cmp  %l1, 0x41
40004f84:	02 80 00 05 	be  40004f98 <_vfprintf_r+0x2948>
40004f88:	88 07 bf 0a 	add  %fp, -246, %g4
40004f8c:	9e 10 20 30 	mov  0x30, %o7
40004f90:	88 07 bf 0b 	add  %fp, -245, %g4
40004f94:	de 2f bf 0a 	stb  %o7, [ %fp + -246 ]
40004f98:	b8 07 20 30 	add  %i4, 0x30, %i4
40004f9c:	9e 21 00 1e 	sub  %g4, %fp, %o7
40004fa0:	f8 29 00 00 	stb  %i4, [ %g4 ]
40004fa4:	82 03 e0 f9 	add  %o7, 0xf9, %g1
40004fa8:	c2 27 be a4 	st  %g1, [ %fp + -348 ]
40004fac:	10 bf fc d4 	b  400042fc <_vfprintf_r+0x1cac>
40004fb0:	84 10 00 01 	mov  %g1, %g2
40004fb4:	ac 10 20 66 	mov  0x66, %l6
40004fb8:	82 00 80 01 	add  %g2, %g1, %g1
40004fbc:	82 00 40 1c 	add  %g1, %i4, %g1
40004fc0:	10 bf fe cc 	b  40004af0 <_vfprintf_r+0x24a0>
40004fc4:	c2 27 be e0 	st  %g1, [ %fp + -288 ]
40004fc8:	b8 10 20 01 	mov  1, %i4
40004fcc:	d1 1f be b0 	ldd  [ %fp + -336 ], %f8
40004fd0:	82 10 20 2d 	mov  0x2d, %g1
40004fd4:	91 a0 00 a8 	fnegs  %f8, %f8
40004fd8:	10 bf fe 40 	b  400048d8 <_vfprintf_r+0x2288>
40004fdc:	c2 2f be dc 	stb  %g1, [ %fp + -292 ]
40004fe0:	d6 27 bf 10 	st  %o3, [ %fp + -240 ]
40004fe4:	f8 09 3f ff 	ldub  [ %g4 + -1 ], %i4
40004fe8:	9f 2f 20 18 	sll  %i4, 0x18, %o7
40004fec:	95 3b e0 18 	sra  %o7, 0x18, %o2
40004ff0:	80 a2 80 0c 	cmp  %o2, %o4
40004ff4:	12 80 00 0d 	bne  40005028 <_vfprintf_r+0x29d8>
40004ff8:	98 10 00 04 	mov  %g4, %o4
40004ffc:	92 10 20 30 	mov  0x30, %o1
40005000:	d2 2b 3f ff 	stb  %o1, [ %o4 + -1 ]
40005004:	d8 07 bf 10 	ld  [ %fp + -240 ], %o4
40005008:	82 03 3f ff 	add  %o4, -1, %g1
4000500c:	c2 27 bf 10 	st  %g1, [ %fp + -240 ]
40005010:	f8 0b 3f ff 	ldub  [ %o4 + -1 ], %i4
40005014:	9f 2f 20 18 	sll  %i4, 0x18, %o7
40005018:	83 3b e0 18 	sra  %o7, 0x18, %g1
4000501c:	80 a2 80 01 	cmp  %o2, %g1
40005020:	22 bf ff f9 	be,a   40005004 <_vfprintf_r+0x29b4>
40005024:	d2 2b 3f ff 	stb  %o1, [ %o4 + -1 ]
40005028:	9f 3b e0 18 	sra  %o7, 0x18, %o7
4000502c:	80 a3 e0 39 	cmp  %o7, 0x39
40005030:	02 80 00 04 	be  40005040 <_vfprintf_r+0x29f0>
40005034:	b8 07 20 01 	inc  %i4
40005038:	10 bf fb 0c 	b  40003c68 <_vfprintf_r+0x1618>
4000503c:	f8 2b 3f ff 	stb  %i4, [ %o4 + -1 ]
40005040:	f8 0b 60 0a 	ldub  [ %o5 + 0xa ], %i4
40005044:	10 bf fb 09 	b  40003c68 <_vfprintf_r+0x1618>
40005048:	f8 2b 3f ff 	stb  %i4, [ %o4 + -1 ]
4000504c:	80 8c a0 01 	btst  1, %l2
40005050:	02 bf fc b5 	be  40004324 <_vfprintf_r+0x1cd4>
40005054:	c2 07 be e0 	ld  [ %fp + -288 ], %g1
40005058:	10 bf fc b0 	b  40004318 <_vfprintf_r+0x1cc8>
4000505c:	c4 07 be b8 	ld  [ %fp + -328 ], %g2
40005060:	10 bf fd c4 	b  40004770 <_vfprintf_r+0x2120>
40005064:	98 10 00 13 	mov  %l3, %o4
40005068:	10 bf fa a1 	b  40003aec <_vfprintf_r+0x149c>
4000506c:	9a 13 61 28 	or  %o5, 0x128, %o5
40005070:	c2 07 be dc 	ld  [ %fp + -292 ], %g1
40005074:	f8 00 40 00 	ld  [ %g1 ], %i4
40005078:	82 00 60 04 	add  %g1, 4, %g1
4000507c:	80 a7 20 00 	cmp  %i4, 0
40005080:	16 80 00 03 	bge  4000508c <_vfprintf_r+0x2a3c>
40005084:	c2 27 be dc 	st  %g1, [ %fp + -292 ]
40005088:	b8 10 3f ff 	mov  -1, %i4
4000508c:	c4 0e a0 01 	ldub  [ %i2 + 1 ], %g2
40005090:	b4 10 00 03 	mov  %g3, %i2
40005094:	10 bf f5 e3 	b  40002820 <_vfprintf_r+0x1d0>
40005098:	83 28 a0 18 	sll  %g2, 0x18, %g1
4000509c:	a4 0c bf 7f 	and  %l2, -129, %l2
400050a0:	a6 10 a1 18 	or  %g2, 0x118, %l3
400050a4:	10 bf f6 82 	b  40002aac <_vfprintf_r+0x45c>
400050a8:	da 0f be f7 	ldub  [ %fp + -265 ], %o5
400050ac:	80 a0 60 00 	cmp  %g1, 0
400050b0:	12 80 00 07 	bne  400050cc <_vfprintf_r+0x2a7c>
400050b4:	c2 07 be b8 	ld  [ %fp + -328 ], %g1
400050b8:	82 10 20 01 	mov  1, %g1
400050bc:	a2 10 20 01 	mov  1, %l1
400050c0:	ac 10 20 66 	mov  0x66, %l6
400050c4:	10 bf fe 7a 	b  40004aac <_vfprintf_r+0x245c>
400050c8:	c2 27 be e0 	st  %g1, [ %fp + -288 ]
400050cc:	ac 10 20 66 	mov  0x66, %l6
400050d0:	a4 00 60 01 	add  %g1, 1, %l2
400050d4:	82 04 80 1c 	add  %l2, %i4, %g1
400050d8:	a2 38 00 01 	xnor  %g0, %g1, %l1
400050dc:	c2 27 be e0 	st  %g1, [ %fp + -288 ]
400050e0:	a3 3c 60 1f 	sra  %l1, 0x1f, %l1
400050e4:	10 bf fe 72 	b  40004aac <_vfprintf_r+0x245c>
400050e8:	a2 08 40 11 	and  %g1, %l1, %l1
400050ec:	10 bf fc 1d 	b  40004160 <_vfprintf_r+0x1b10>
400050f0:	98 10 00 1c 	mov  %i4, %o4
400050f4:	82 10 20 02 	mov  2, %g1
400050f8:	c2 27 be a4 	st  %g1, [ %fp + -348 ]
400050fc:	10 bf fc 80 	b  400042fc <_vfprintf_r+0x1cac>
40005100:	84 10 00 01 	mov  %g1, %g2
40005104:	10 bf fc 44 	b  40004214 <_vfprintf_r+0x1bc4>
40005108:	c0 27 be e8 	clr  [ %fp + -280 ]
4000510c:	84 10 60 40 	or  %g1, 0x40, %g2
40005110:	82 10 00 02 	mov  %g2, %g1
40005114:	10 bf f8 9d 	b  40003388 <_vfprintf_r+0xd38>
40005118:	c4 36 60 0c 	sth  %g2, [ %i1 + 0xc ]
4000511c:	10 bf fa c2 	b  40003c24 <_vfprintf_r+0x15d4>
40005120:	b8 10 00 04 	mov  %g4, %i4

40005124 <vfprintf>:
40005124:	96 10 00 0a 	mov  %o2, %o3
40005128:	03 10 00 3c 	sethi  %hi(0x4000f000), %g1
4000512c:	94 10 00 09 	mov  %o1, %o2
40005130:	92 10 00 08 	mov  %o0, %o1
40005134:	d0 00 63 8c 	ld  [ %g1 + 0x38c ], %o0
40005138:	82 13 c0 00 	mov  %o7, %g1
4000513c:	7f ff f5 45 	call  40002650 <_vfprintf_r>
40005140:	9e 10 40 00 	mov  %g1, %o7

40005144 <__sbprintf>:
40005144:	9d e3 bb 38 	save  %sp, -1224, %sp
40005148:	84 10 24 00 	mov  0x400, %g2
4000514c:	86 07 bc 00 	add  %fp, -1024, %g3
40005150:	fa 06 60 20 	ld  [ %i1 + 0x20 ], %i5
40005154:	c2 16 60 0c 	lduh  [ %i1 + 0xc ], %g1
40005158:	de 06 60 60 	ld  [ %i1 + 0x60 ], %o7
4000515c:	82 08 7f fd 	and  %g1, -3, %g1
40005160:	c8 06 60 28 	ld  [ %i1 + 0x28 ], %g4
40005164:	f8 16 60 0e 	lduh  [ %i1 + 0xe ], %i4
40005168:	fa 27 bb bc 	st  %i5, [ %fp + -1092 ]
4000516c:	c2 37 bb a8 	sth  %g1, [ %fp + -1112 ]
40005170:	de 27 bb fc 	st  %o7, [ %fp + -1028 ]
40005174:	f8 37 bb aa 	sth  %i4, [ %fp + -1110 ]
40005178:	c8 27 bb c4 	st  %g4, [ %fp + -1084 ]
4000517c:	c6 27 bb 9c 	st  %g3, [ %fp + -1124 ]
40005180:	c6 27 bb ac 	st  %g3, [ %fp + -1108 ]
40005184:	c4 27 bb a4 	st  %g2, [ %fp + -1116 ]
40005188:	c4 27 bb b0 	st  %g2, [ %fp + -1104 ]
4000518c:	c0 27 bb b4 	clr  [ %fp + -1100 ]
40005190:	96 10 00 1b 	mov  %i3, %o3
40005194:	94 10 00 1a 	mov  %i2, %o2
40005198:	92 07 bb 9c 	add  %fp, -1124, %o1
4000519c:	7f ff f5 2d 	call  40002650 <_vfprintf_r>
400051a0:	90 10 00 18 	mov  %i0, %o0
400051a4:	ba 92 20 00 	orcc  %o0, 0, %i5
400051a8:	16 80 00 0b 	bge  400051d4 <__sbprintf+0x90>
400051ac:	92 07 bb 9c 	add  %fp, -1124, %o1
400051b0:	c2 17 bb a8 	lduh  [ %fp + -1112 ], %g1
400051b4:	80 88 60 40 	btst  0x40, %g1
400051b8:	02 80 00 05 	be  400051cc <__sbprintf+0x88>
400051bc:	01 00 00 00 	nop 
400051c0:	c2 16 60 0c 	lduh  [ %i1 + 0xc ], %g1
400051c4:	82 10 60 40 	or  %g1, 0x40, %g1
400051c8:	c2 36 60 0c 	sth  %g1, [ %i1 + 0xc ]
400051cc:	81 c7 e0 08 	ret 
400051d0:	91 e8 00 1d 	restore  %g0, %i5, %o0
400051d4:	40 00 07 58 	call  40006f34 <_fflush_r>
400051d8:	90 10 00 18 	mov  %i0, %o0
400051dc:	80 a2 20 00 	cmp  %o0, 0
400051e0:	32 bf ff f4 	bne,a   400051b0 <__sbprintf+0x6c>
400051e4:	ba 10 3f ff 	mov  -1, %i5
400051e8:	10 bf ff f3 	b  400051b4 <__sbprintf+0x70>
400051ec:	c2 17 bb a8 	lduh  [ %fp + -1112 ], %g1

400051f0 <__swsetup_r>:
400051f0:	9d e3 bf a0 	save  %sp, -96, %sp
400051f4:	03 10 00 3c 	sethi  %hi(0x4000f000), %g1
400051f8:	fa 00 63 8c 	ld  [ %g1 + 0x38c ], %i5	! 4000f38c <_impure_ptr>
400051fc:	80 a7 60 00 	cmp  %i5, 0
40005200:	02 80 00 06 	be  40005218 <__swsetup_r+0x28>
40005204:	03 10 00 3b 	sethi  %hi(0x4000ec00), %g1
40005208:	c2 07 60 18 	ld  [ %i5 + 0x18 ], %g1
4000520c:	80 a0 60 00 	cmp  %g1, 0
40005210:	02 80 00 29 	be  400052b4 <__swsetup_r+0xc4>
40005214:	03 10 00 3b 	sethi  %hi(0x4000ec00), %g1
40005218:	82 10 62 50 	or  %g1, 0x250, %g1	! 4000ee50 <__sf_fake_stdin>
4000521c:	80 a6 40 01 	cmp  %i1, %g1
40005220:	22 80 00 2d 	be,a   400052d4 <__swsetup_r+0xe4>
40005224:	f2 07 60 04 	ld  [ %i5 + 4 ], %i1
40005228:	03 10 00 3b 	sethi  %hi(0x4000ec00), %g1
4000522c:	82 10 62 30 	or  %g1, 0x230, %g1	! 4000ee30 <__sf_fake_stdout>
40005230:	80 a6 40 01 	cmp  %i1, %g1
40005234:	02 80 00 4a 	be  4000535c <__swsetup_r+0x16c>
40005238:	03 10 00 3b 	sethi  %hi(0x4000ec00), %g1
4000523c:	82 10 62 10 	or  %g1, 0x210, %g1	! 4000ee10 <__sf_fake_stderr>
40005240:	80 a6 40 01 	cmp  %i1, %g1
40005244:	22 80 00 02 	be,a   4000524c <__swsetup_r+0x5c>
40005248:	f2 07 60 0c 	ld  [ %i5 + 0xc ], %i1
4000524c:	c2 16 60 0c 	lduh  [ %i1 + 0xc ], %g1
40005250:	80 88 60 08 	btst  8, %g1
40005254:	02 80 00 24 	be  400052e4 <__swsetup_r+0xf4>
40005258:	84 10 00 01 	mov  %g1, %g2
4000525c:	c6 06 60 10 	ld  [ %i1 + 0x10 ], %g3
40005260:	80 a0 e0 00 	cmp  %g3, 0
40005264:	02 80 00 2d 	be  40005318 <__swsetup_r+0x128>
40005268:	88 08 a2 80 	and  %g2, 0x280, %g4
4000526c:	80 88 a0 01 	btst  1, %g2
40005270:	02 80 00 36 	be  40005348 <__swsetup_r+0x158>
40005274:	80 88 a0 02 	btst  2, %g2
40005278:	c8 06 60 14 	ld  [ %i1 + 0x14 ], %g4
4000527c:	c0 26 60 08 	clr  [ %i1 + 8 ]
40005280:	88 20 00 04 	neg  %g4
40005284:	c8 26 60 18 	st  %g4, [ %i1 + 0x18 ]
40005288:	80 a0 e0 00 	cmp  %g3, 0
4000528c:	02 80 00 04 	be  4000529c <__swsetup_r+0xac>
40005290:	b0 10 20 00 	clr  %i0
40005294:	81 c7 e0 08 	ret 
40005298:	81 e8 00 00 	restore 
4000529c:	80 88 a0 80 	btst  0x80, %g2
400052a0:	02 bf ff fd 	be  40005294 <__swsetup_r+0xa4>
400052a4:	82 10 60 40 	or  %g1, 0x40, %g1
400052a8:	c2 36 60 0c 	sth  %g1, [ %i1 + 0xc ]
400052ac:	81 c7 e0 08 	ret 
400052b0:	91 e8 3f ff 	restore  %g0, -1, %o0
400052b4:	40 00 08 47 	call  400073d0 <__sinit>
400052b8:	90 10 00 1d 	mov  %i5, %o0
400052bc:	03 10 00 3b 	sethi  %hi(0x4000ec00), %g1
400052c0:	82 10 62 50 	or  %g1, 0x250, %g1	! 4000ee50 <__sf_fake_stdin>
400052c4:	80 a6 40 01 	cmp  %i1, %g1
400052c8:	12 bf ff d9 	bne  4000522c <__swsetup_r+0x3c>
400052cc:	03 10 00 3b 	sethi  %hi(0x4000ec00), %g1
400052d0:	f2 07 60 04 	ld  [ %i5 + 4 ], %i1
400052d4:	c2 16 60 0c 	lduh  [ %i1 + 0xc ], %g1
400052d8:	80 88 60 08 	btst  8, %g1
400052dc:	12 bf ff e0 	bne  4000525c <__swsetup_r+0x6c>
400052e0:	84 10 00 01 	mov  %g1, %g2
400052e4:	80 88 60 10 	btst  0x10, %g1
400052e8:	22 80 00 2e 	be,a   400053a0 <__swsetup_r+0x1b0>
400052ec:	84 10 20 09 	mov  9, %g2
400052f0:	80 88 60 04 	btst  4, %g1
400052f4:	32 80 00 1c 	bne,a   40005364 <__swsetup_r+0x174>
400052f8:	d2 06 60 34 	ld  [ %i1 + 0x34 ], %o1
400052fc:	c6 06 60 10 	ld  [ %i1 + 0x10 ], %g3
40005300:	84 10 60 08 	or  %g1, 8, %g2
40005304:	c4 36 60 0c 	sth  %g2, [ %i1 + 0xc ]
40005308:	80 a0 e0 00 	cmp  %g3, 0
4000530c:	12 bf ff d8 	bne  4000526c <__swsetup_r+0x7c>
40005310:	82 10 00 02 	mov  %g2, %g1
40005314:	88 08 a2 80 	and  %g2, 0x280, %g4
40005318:	80 a1 22 00 	cmp  %g4, 0x200
4000531c:	02 bf ff d5 	be  40005270 <__swsetup_r+0x80>
40005320:	80 88 a0 01 	btst  1, %g2
40005324:	92 10 00 19 	mov  %i1, %o1
40005328:	40 00 09 82 	call  40007930 <__smakebuf_r>
4000532c:	90 10 00 18 	mov  %i0, %o0
40005330:	c2 16 60 0c 	lduh  [ %i1 + 0xc ], %g1
40005334:	84 10 00 01 	mov  %g1, %g2
40005338:	80 88 a0 01 	btst  1, %g2
4000533c:	12 bf ff cf 	bne  40005278 <__swsetup_r+0x88>
40005340:	c6 06 60 10 	ld  [ %i1 + 0x10 ], %g3
40005344:	80 88 a0 02 	btst  2, %g2
40005348:	12 80 00 03 	bne  40005354 <__swsetup_r+0x164>
4000534c:	88 10 20 00 	clr  %g4
40005350:	c8 06 60 14 	ld  [ %i1 + 0x14 ], %g4
40005354:	10 bf ff cd 	b  40005288 <__swsetup_r+0x98>
40005358:	c8 26 60 08 	st  %g4, [ %i1 + 8 ]
4000535c:	10 bf ff bc 	b  4000524c <__swsetup_r+0x5c>
40005360:	f2 07 60 08 	ld  [ %i5 + 8 ], %i1
40005364:	80 a2 60 00 	cmp  %o1, 0
40005368:	02 80 00 09 	be  4000538c <__swsetup_r+0x19c>
4000536c:	84 06 60 44 	add  %i1, 0x44, %g2
40005370:	80 a2 40 02 	cmp  %o1, %g2
40005374:	22 80 00 06 	be,a   4000538c <__swsetup_r+0x19c>
40005378:	c0 26 60 34 	clr  [ %i1 + 0x34 ]
4000537c:	40 00 08 5a 	call  400074e4 <_free_r>
40005380:	90 10 00 18 	mov  %i0, %o0
40005384:	c2 16 60 0c 	lduh  [ %i1 + 0xc ], %g1
40005388:	c0 26 60 34 	clr  [ %i1 + 0x34 ]
4000538c:	c6 06 60 10 	ld  [ %i1 + 0x10 ], %g3
40005390:	82 08 7f db 	and  %g1, -37, %g1
40005394:	c0 26 60 04 	clr  [ %i1 + 4 ]
40005398:	10 bf ff da 	b  40005300 <__swsetup_r+0x110>
4000539c:	c6 26 40 00 	st  %g3, [ %i1 ]
400053a0:	c4 26 00 00 	st  %g2, [ %i0 ]
400053a4:	82 10 60 40 	or  %g1, 0x40, %g1
400053a8:	c2 36 60 0c 	sth  %g1, [ %i1 + 0xc ]
400053ac:	81 c7 e0 08 	ret 
400053b0:	91 e8 3f ff 	restore  %g0, -1, %o0

400053b4 <__register_exitproc>:
400053b4:	9d e3 bf a0 	save  %sp, -96, %sp
400053b8:	39 10 00 3e 	sethi  %hi(0x4000f800), %i4
400053bc:	fa 07 22 dc 	ld  [ %i4 + 0x2dc ], %i5	! 4000fadc <_global_atexit>
400053c0:	80 a7 60 00 	cmp  %i5, 0
400053c4:	22 80 00 3a 	be,a   400054ac <__register_exitproc+0xf8>
400053c8:	3b 10 00 3e 	sethi  %hi(0x4000f800), %i5
400053cc:	c2 07 60 04 	ld  [ %i5 + 4 ], %g1	! 4000f804 <__global_locale+0x4>
400053d0:	80 a0 60 1f 	cmp  %g1, 0x1f
400053d4:	04 80 00 1a 	ble  4000543c <__register_exitproc+0x88>
400053d8:	80 a6 20 00 	cmp  %i0, 0
400053dc:	21 10 00 1e 	sethi  %hi(0x40007800), %l0
400053e0:	a0 14 23 18 	or  %l0, 0x318, %l0	! 40007b18 <malloc>
400053e4:	80 a4 20 00 	cmp  %l0, 0
400053e8:	02 80 00 3a 	be  400054d0 <__register_exitproc+0x11c>
400053ec:	01 00 00 00 	nop 
400053f0:	40 00 09 ca 	call  40007b18 <malloc>
400053f4:	90 10 20 8c 	mov  0x8c, %o0	! 8c <sizeof_fpu_state+0x4>
400053f8:	ba 92 20 00 	orcc  %o0, 0, %i5
400053fc:	02 80 00 35 	be  400054d0 <__register_exitproc+0x11c>
40005400:	c2 07 22 dc 	ld  [ %i4 + 0x2dc ], %g1
40005404:	c2 27 40 00 	st  %g1, [ %i5 ]
40005408:	c0 27 60 04 	clr  [ %i5 + 4 ]
4000540c:	fa 27 22 dc 	st  %i5, [ %i4 + 0x2dc ]
40005410:	80 a6 20 00 	cmp  %i0, 0
40005414:	12 80 00 31 	bne  400054d8 <__register_exitproc+0x124>
40005418:	c0 27 60 88 	clr  [ %i5 + 0x88 ]
4000541c:	82 10 20 00 	clr  %g1
40005420:	84 10 20 01 	mov  1, %g2
40005424:	c4 27 60 04 	st  %g2, [ %i5 + 4 ]
40005428:	82 00 60 02 	add  %g1, 2, %g1
4000542c:	83 28 60 02 	sll  %g1, 2, %g1
40005430:	f2 27 40 01 	st  %i1, [ %i5 + %g1 ]
40005434:	81 c7 e0 08 	ret 
40005438:	91 e8 20 00 	restore  %g0, 0, %o0
4000543c:	02 bf ff fa 	be  40005424 <__register_exitproc+0x70>
40005440:	84 00 60 01 	add  %g1, 1, %g2
40005444:	d0 07 60 88 	ld  [ %i5 + 0x88 ], %o0
40005448:	21 10 00 1e 	sethi  %hi(0x40007800), %l0
4000544c:	80 a2 20 00 	cmp  %o0, 0
40005450:	02 80 00 22 	be  400054d8 <__register_exitproc+0x124>
40005454:	a0 14 23 18 	or  %l0, 0x318, %l0
40005458:	c8 02 21 00 	ld  [ %o0 + 0x100 ], %g4
4000545c:	85 28 60 02 	sll  %g1, 2, %g2
40005460:	f4 22 00 02 	st  %i2, [ %o0 + %g2 ]
40005464:	86 10 20 01 	mov  1, %g3
40005468:	87 28 c0 01 	sll  %g3, %g1, %g3
4000546c:	88 10 c0 04 	or  %g3, %g4, %g4
40005470:	c8 22 21 00 	st  %g4, [ %o0 + 0x100 ]
40005474:	84 02 00 02 	add  %o0, %g2, %g2
40005478:	f6 20 a0 80 	st  %i3, [ %g2 + 0x80 ]
4000547c:	80 a6 20 02 	cmp  %i0, 2
40005480:	12 bf ff e9 	bne  40005424 <__register_exitproc+0x70>
40005484:	84 00 60 01 	add  %g1, 1, %g2
40005488:	c8 02 21 04 	ld  [ %o0 + 0x104 ], %g4
4000548c:	86 11 00 03 	or  %g4, %g3, %g3
40005490:	c6 22 21 04 	st  %g3, [ %o0 + 0x104 ]
40005494:	c4 27 60 04 	st  %g2, [ %i5 + 4 ]
40005498:	82 00 60 02 	add  %g1, 2, %g1
4000549c:	83 28 60 02 	sll  %g1, 2, %g1
400054a0:	f2 27 40 01 	st  %i1, [ %i5 + %g1 ]
400054a4:	81 c7 e0 08 	ret 
400054a8:	91 e8 20 00 	restore  %g0, 0, %o0
400054ac:	ba 17 62 50 	or  %i5, 0x250, %i5
400054b0:	03 00 00 00 	sethi  %hi(0), %g1
400054b4:	84 10 60 00 	mov  %g1, %g2	! 0 <__bcc_cfg_skip_clear_bss>
400054b8:	80 a0 a0 00 	cmp  %g2, 0
400054bc:	02 bf ff c4 	be  400053cc <__register_exitproc+0x18>
400054c0:	fa 27 22 dc 	st  %i5, [ %i4 + 0x2dc ]
400054c4:	c2 00 60 00 	ld  [ %g1 ], %g1
400054c8:	10 bf ff c1 	b  400053cc <__register_exitproc+0x18>
400054cc:	c2 27 60 88 	st  %g1, [ %i5 + 0x88 ]
400054d0:	81 c7 e0 08 	ret 
400054d4:	91 e8 3f ff 	restore  %g0, -1, %o0
400054d8:	80 a4 20 00 	cmp  %l0, 0
400054dc:	02 bf ff fd 	be  400054d0 <__register_exitproc+0x11c>
400054e0:	01 00 00 00 	nop 
400054e4:	40 00 09 8d 	call  40007b18 <malloc>
400054e8:	90 10 21 08 	mov  0x108, %o0	! 108 <sizeof_fpu_state+0x80>
400054ec:	80 a2 20 00 	cmp  %o0, 0
400054f0:	02 bf ff f8 	be  400054d0 <__register_exitproc+0x11c>
400054f4:	88 10 20 00 	clr  %g4
400054f8:	c0 22 21 00 	clr  [ %o0 + 0x100 ]
400054fc:	c0 22 21 04 	clr  [ %o0 + 0x104 ]
40005500:	d0 27 60 88 	st  %o0, [ %i5 + 0x88 ]
40005504:	10 bf ff d6 	b  4000545c <__register_exitproc+0xa8>
40005508:	c2 07 60 04 	ld  [ %i5 + 4 ], %g1

4000550c <__call_exitprocs>:
4000550c:	9d e3 bf a0 	save  %sp, -96, %sp
40005510:	23 10 00 3e 	sethi  %hi(0x4000f800), %l1
40005514:	25 10 00 1e 	sethi  %hi(0x40007800), %l2
40005518:	a2 14 62 dc 	or  %l1, 0x2dc, %l1
4000551c:	a0 10 20 01 	mov  1, %l0
40005520:	a4 14 a3 30 	or  %l2, 0x330, %l2
40005524:	f6 04 40 00 	ld  [ %l1 ], %i3
40005528:	80 a6 e0 00 	cmp  %i3, 0
4000552c:	02 80 00 4a 	be  40005654 <__call_exitprocs+0x148>
40005530:	ae 10 00 11 	mov  %l1, %l7
40005534:	f8 06 e0 04 	ld  [ %i3 + 4 ], %i4
40005538:	ba 87 3f ff 	addcc  %i4, -1, %i5
4000553c:	0c 80 00 32 	bneg  40005604 <__call_exitprocs+0xf8>
40005540:	e6 06 e0 88 	ld  [ %i3 + 0x88 ], %l3
40005544:	80 a6 60 00 	cmp  %i1, 0
40005548:	02 80 00 53 	be  40005694 <__call_exitprocs+0x188>
4000554c:	80 a4 e0 00 	cmp  %l3, 0
40005550:	02 80 00 2e 	be  40005608 <__call_exitprocs+0xfc>
40005554:	80 a4 a0 00 	cmp  %l2, 0
40005558:	b9 2f 20 02 	sll  %i4, 2, %i4
4000555c:	aa 04 e0 7c 	add  %l3, 0x7c, %l5
40005560:	ac 06 e0 04 	add  %i3, 4, %l6
40005564:	10 80 00 06 	b  4000557c <__call_exitprocs+0x70>
40005568:	a8 04 ff fc 	add  %l3, -4, %l4
4000556c:	ba 07 7f ff 	add  %i5, -1, %i5
40005570:	80 a7 7f ff 	cmp  %i5, -1
40005574:	02 80 00 24 	be  40005604 <__call_exitprocs+0xf8>
40005578:	b8 07 3f fc 	add  %i4, -4, %i4
4000557c:	c2 05 40 1c 	ld  [ %l5 + %i4 ], %g1
40005580:	80 a6 40 01 	cmp  %i1, %g1
40005584:	32 bf ff fb 	bne,a   40005570 <__call_exitprocs+0x64>
40005588:	ba 07 7f ff 	add  %i5, -1, %i5
4000558c:	f4 06 e0 04 	ld  [ %i3 + 4 ], %i2
40005590:	84 06 bf ff 	add  %i2, -1, %g2
40005594:	80 a7 40 02 	cmp  %i5, %g2
40005598:	02 80 00 35 	be  4000566c <__call_exitprocs+0x160>
4000559c:	c2 05 80 1c 	ld  [ %l6 + %i4 ], %g1
400055a0:	c0 25 80 1c 	clr  [ %l6 + %i4 ]
400055a4:	80 a0 60 00 	cmp  %g1, 0
400055a8:	02 bf ff f1 	be  4000556c <__call_exitprocs+0x60>
400055ac:	85 2c 00 1d 	sll  %l0, %i5, %g2
400055b0:	c6 04 e1 00 	ld  [ %l3 + 0x100 ], %g3
400055b4:	80 88 80 03 	btst  %g2, %g3
400055b8:	02 80 00 29 	be  4000565c <__call_exitprocs+0x150>
400055bc:	01 00 00 00 	nop 
400055c0:	c6 04 e1 04 	ld  [ %l3 + 0x104 ], %g3
400055c4:	80 88 80 03 	btst  %g2, %g3
400055c8:	02 80 00 2c 	be  40005678 <__call_exitprocs+0x16c>
400055cc:	d2 05 00 1c 	ld  [ %l4 + %i4 ], %o1
400055d0:	9f c0 40 00 	call  %g1
400055d4:	90 10 00 09 	mov  %o1, %o0
400055d8:	c2 06 e0 04 	ld  [ %i3 + 4 ], %g1
400055dc:	80 a6 80 01 	cmp  %i2, %g1
400055e0:	32 bf ff d2 	bne,a   40005528 <__call_exitprocs+0x1c>
400055e4:	f6 04 40 00 	ld  [ %l1 ], %i3
400055e8:	c2 05 c0 00 	ld  [ %l7 ], %g1
400055ec:	80 a6 c0 01 	cmp  %i3, %g1
400055f0:	12 bf ff cd 	bne  40005524 <__call_exitprocs+0x18>
400055f4:	ba 07 7f ff 	add  %i5, -1, %i5
400055f8:	80 a7 7f ff 	cmp  %i5, -1
400055fc:	12 bf ff e0 	bne  4000557c <__call_exitprocs+0x70>
40005600:	b8 07 3f fc 	add  %i4, -4, %i4
40005604:	80 a4 a0 00 	cmp  %l2, 0
40005608:	02 80 00 6d 	be  400057bc <__call_exitprocs+0x2b0>
4000560c:	01 00 00 00 	nop 
40005610:	c4 06 e0 04 	ld  [ %i3 + 4 ], %g2
40005614:	80 a0 a0 00 	cmp  %g2, 0
40005618:	12 80 00 1c 	bne  40005688 <__call_exitprocs+0x17c>
4000561c:	c2 06 c0 00 	ld  [ %i3 ], %g1
40005620:	80 a0 60 00 	cmp  %g1, 0
40005624:	02 80 00 19 	be  40005688 <__call_exitprocs+0x17c>
40005628:	80 a4 e0 00 	cmp  %l3, 0
4000562c:	02 80 00 04 	be  4000563c <__call_exitprocs+0x130>
40005630:	c2 25 c0 00 	st  %g1, [ %l7 ]
40005634:	40 00 09 3f 	call  40007b30 <free>
40005638:	90 10 00 13 	mov  %l3, %o0
4000563c:	40 00 09 3d 	call  40007b30 <free>
40005640:	90 10 00 1b 	mov  %i3, %o0
40005644:	f6 05 c0 00 	ld  [ %l7 ], %i3
40005648:	80 a6 e0 00 	cmp  %i3, 0
4000564c:	32 bf ff bb 	bne,a   40005538 <__call_exitprocs+0x2c>
40005650:	f8 06 e0 04 	ld  [ %i3 + 4 ], %i4
40005654:	81 c7 e0 08 	ret 
40005658:	81 e8 00 00 	restore 
4000565c:	9f c0 40 00 	call  %g1
40005660:	01 00 00 00 	nop 
40005664:	10 bf ff de 	b  400055dc <__call_exitprocs+0xd0>
40005668:	c2 06 e0 04 	ld  [ %i3 + 4 ], %g1
4000566c:	fa 26 e0 04 	st  %i5, [ %i3 + 4 ]
40005670:	10 bf ff cd 	b  400055a4 <__call_exitprocs+0x98>
40005674:	b4 10 00 1d 	mov  %i5, %i2
40005678:	9f c0 40 00 	call  %g1
4000567c:	90 10 00 18 	mov  %i0, %o0
40005680:	10 bf ff d7 	b  400055dc <__call_exitprocs+0xd0>
40005684:	c2 06 e0 04 	ld  [ %i3 + 4 ], %g1
40005688:	ae 10 00 1b 	mov  %i3, %l7
4000568c:	10 bf ff ef 	b  40005648 <__call_exitprocs+0x13c>
40005690:	b6 10 00 01 	mov  %g1, %i3
40005694:	b5 2f 20 02 	sll  %i4, 2, %i2
40005698:	12 80 00 1f 	bne  40005714 <__call_exitprocs+0x208>
4000569c:	b4 06 c0 1a 	add  %i3, %i2, %i2
400056a0:	10 80 00 38 	b  40005780 <__call_exitprocs+0x274>
400056a4:	84 07 3f ff 	add  %i4, -1, %g2
400056a8:	c0 26 a0 04 	clr  [ %i2 + 4 ]
400056ac:	80 a0 60 00 	cmp  %g1, 0
400056b0:	02 80 00 14 	be  40005700 <__call_exitprocs+0x1f4>
400056b4:	85 2c 00 1d 	sll  %l0, %i5, %g2
400056b8:	c6 04 e1 00 	ld  [ %l3 + 0x100 ], %g3
400056bc:	80 88 80 03 	btst  %g2, %g3
400056c0:	02 80 00 37 	be  4000579c <__call_exitprocs+0x290>
400056c4:	87 2f 60 02 	sll  %i5, 2, %g3
400056c8:	c8 04 e1 04 	ld  [ %l3 + 0x104 ], %g4
400056cc:	80 88 80 04 	btst  %g2, %g4
400056d0:	12 80 00 37 	bne  400057ac <__call_exitprocs+0x2a0>
400056d4:	d2 04 c0 03 	ld  [ %l3 + %g3 ], %o1
400056d8:	9f c0 40 00 	call  %g1
400056dc:	90 10 00 18 	mov  %i0, %o0
400056e0:	f8 06 e0 04 	ld  [ %i3 + 4 ], %i4
400056e4:	80 a5 00 1c 	cmp  %l4, %i4
400056e8:	32 bf ff 90 	bne,a   40005528 <__call_exitprocs+0x1c>
400056ec:	f6 04 40 00 	ld  [ %l1 ], %i3
400056f0:	c2 05 c0 00 	ld  [ %l7 ], %g1
400056f4:	80 a6 c0 01 	cmp  %i3, %g1
400056f8:	32 bf ff 8c 	bne,a   40005528 <__call_exitprocs+0x1c>
400056fc:	f6 04 40 00 	ld  [ %l1 ], %i3
40005700:	ba 07 7f ff 	add  %i5, -1, %i5
40005704:	80 a7 7f ff 	cmp  %i5, -1
40005708:	02 bf ff bf 	be  40005604 <__call_exitprocs+0xf8>
4000570c:	b4 06 bf fc 	add  %i2, -4, %i2
40005710:	f8 06 e0 04 	ld  [ %i3 + 4 ], %i4
40005714:	84 07 3f ff 	add  %i4, -1, %g2
40005718:	a8 10 00 1c 	mov  %i4, %l4
4000571c:	80 a7 40 02 	cmp  %i5, %g2
40005720:	12 bf ff e2 	bne  400056a8 <__call_exitprocs+0x19c>
40005724:	c2 06 a0 04 	ld  [ %i2 + 4 ], %g1
40005728:	fa 26 e0 04 	st  %i5, [ %i3 + 4 ]
4000572c:	10 bf ff e0 	b  400056ac <__call_exitprocs+0x1a0>
40005730:	a8 10 00 1d 	mov  %i5, %l4
40005734:	c0 26 a0 04 	clr  [ %i2 + 4 ]
40005738:	80 a0 60 00 	cmp  %g1, 0
4000573c:	22 80 00 0c 	be,a   4000576c <__call_exitprocs+0x260>
40005740:	ba 07 7f ff 	add  %i5, -1, %i5
40005744:	9f c0 40 00 	call  %g1
40005748:	01 00 00 00 	nop 
4000574c:	f8 06 e0 04 	ld  [ %i3 + 4 ], %i4
40005750:	80 a7 00 14 	cmp  %i4, %l4
40005754:	32 bf ff 75 	bne,a   40005528 <__call_exitprocs+0x1c>
40005758:	f6 04 40 00 	ld  [ %l1 ], %i3
4000575c:	c2 05 c0 00 	ld  [ %l7 ], %g1
40005760:	80 a0 40 1b 	cmp  %g1, %i3
40005764:	12 bf ff 70 	bne  40005524 <__call_exitprocs+0x18>
40005768:	ba 07 7f ff 	add  %i5, -1, %i5
4000576c:	80 a7 7f ff 	cmp  %i5, -1
40005770:	02 bf ff a5 	be  40005604 <__call_exitprocs+0xf8>
40005774:	b4 06 bf fc 	add  %i2, -4, %i2
40005778:	f8 06 e0 04 	ld  [ %i3 + 4 ], %i4
4000577c:	84 07 3f ff 	add  %i4, -1, %g2
40005780:	a8 10 00 1c 	mov  %i4, %l4
40005784:	80 a7 40 02 	cmp  %i5, %g2
40005788:	12 bf ff eb 	bne  40005734 <__call_exitprocs+0x228>
4000578c:	c2 06 a0 04 	ld  [ %i2 + 4 ], %g1
40005790:	fa 26 e0 04 	st  %i5, [ %i3 + 4 ]
40005794:	10 bf ff e9 	b  40005738 <__call_exitprocs+0x22c>
40005798:	a8 10 00 1d 	mov  %i5, %l4
4000579c:	9f c0 40 00 	call  %g1
400057a0:	01 00 00 00 	nop 
400057a4:	10 bf ff d0 	b  400056e4 <__call_exitprocs+0x1d8>
400057a8:	f8 06 e0 04 	ld  [ %i3 + 4 ], %i4
400057ac:	9f c0 40 00 	call  %g1
400057b0:	90 10 00 09 	mov  %o1, %o0
400057b4:	10 bf ff cc 	b  400056e4 <__call_exitprocs+0x1d8>
400057b8:	f8 06 e0 04 	ld  [ %i3 + 4 ], %i4
400057bc:	81 c7 e0 08 	ret 
400057c0:	81 e8 00 00 	restore 

400057c4 <quorem>:
400057c4:	9d e3 bf 98 	save  %sp, -104, %sp
400057c8:	c2 06 20 10 	ld  [ %i0 + 0x10 ], %g1
400057cc:	a0 10 00 18 	mov  %i0, %l0
400057d0:	f6 06 60 10 	ld  [ %i1 + 0x10 ], %i3
400057d4:	80 a0 40 1b 	cmp  %g1, %i3
400057d8:	06 80 00 7b 	bl  400059c4 <quorem+0x200>
400057dc:	b0 10 20 00 	clr  %i0
400057e0:	a8 06 60 14 	add  %i1, 0x14, %l4
400057e4:	a2 04 20 14 	add  %l0, 0x14, %l1
400057e8:	b6 06 ff ff 	add  %i3, -1, %i3
400057ec:	a7 2e e0 02 	sll  %i3, 2, %l3
400057f0:	ea 04 40 13 	ld  [ %l1 + %l3 ], %l5
400057f4:	fa 05 00 13 	ld  [ %l4 + %l3 ], %i5
400057f8:	90 10 00 15 	mov  %l5, %o0
400057fc:	ba 07 60 01 	inc  %i5
40005800:	40 00 21 f1 	call  4000dfc4 <.udiv>
40005804:	92 10 00 1d 	mov  %i5, %o1
40005808:	82 04 40 13 	add  %l1, %l3, %g1
4000580c:	c2 27 bf fc 	st  %g1, [ %fp + -4 ]
40005810:	b4 05 00 13 	add  %l4, %l3, %i2
40005814:	80 a5 40 1d 	cmp  %l5, %i5
40005818:	0a 80 00 39 	bcs  400058fc <quorem+0x138>
4000581c:	b8 10 00 08 	mov  %o0, %i4
40005820:	31 00 00 3f 	sethi  %hi(0xfc00), %i0
40005824:	ac 10 00 14 	mov  %l4, %l6
40005828:	aa 10 00 11 	mov  %l1, %l5
4000582c:	ba 10 20 00 	clr  %i5
40005830:	a4 10 20 00 	clr  %l2
40005834:	b0 16 23 ff 	or  %i0, 0x3ff, %i0
40005838:	ee 05 80 00 	ld  [ %l6 ], %l7
4000583c:	92 10 00 1c 	mov  %i4, %o1
40005840:	40 00 21 a7 	call  4000dedc <.umul>
40005844:	90 0d c0 18 	and  %l7, %i0, %o0
40005848:	92 10 00 1c 	mov  %i4, %o1
4000584c:	ba 02 00 1d 	add  %o0, %i5, %i5
40005850:	40 00 21 a3 	call  4000dedc <.umul>
40005854:	91 35 e0 10 	srl  %l7, 0x10, %o0
40005858:	87 37 60 10 	srl  %i5, 0x10, %g3
4000585c:	ba 0f 40 18 	and  %i5, %i0, %i5
40005860:	90 02 00 03 	add  %o0, %g3, %o0
40005864:	ba 24 80 1d 	sub  %l2, %i5, %i5
40005868:	86 0a 00 18 	and  %o0, %i0, %g3
4000586c:	c4 05 40 00 	ld  [ %l5 ], %g2
40005870:	82 08 80 18 	and  %g2, %i0, %g1
40005874:	85 30 a0 10 	srl  %g2, 0x10, %g2
40005878:	82 07 40 01 	add  %i5, %g1, %g1
4000587c:	84 20 80 03 	sub  %g2, %g3, %g2
40005880:	bb 38 60 10 	sra  %g1, 0x10, %i5
40005884:	82 08 40 18 	and  %g1, %i0, %g1
40005888:	84 00 80 1d 	add  %g2, %i5, %g2
4000588c:	87 28 a0 10 	sll  %g2, 0x10, %g3
40005890:	82 10 c0 01 	or  %g3, %g1, %g1
40005894:	c2 25 40 00 	st  %g1, [ %l5 ]
40005898:	aa 05 60 04 	add  %l5, 4, %l5
4000589c:	ac 05 a0 04 	add  %l6, 4, %l6
400058a0:	bb 32 20 10 	srl  %o0, 0x10, %i5
400058a4:	80 a6 80 16 	cmp  %i2, %l6
400058a8:	1a bf ff e4 	bcc  40005838 <quorem+0x74>
400058ac:	a5 38 a0 10 	sra  %g2, 0x10, %l2
400058b0:	c2 04 40 13 	ld  [ %l1 + %l3 ], %g1
400058b4:	80 a0 60 00 	cmp  %g1, 0
400058b8:	12 80 00 12 	bne  40005900 <quorem+0x13c>
400058bc:	92 10 00 19 	mov  %i1, %o1
400058c0:	c2 07 bf fc 	ld  [ %fp + -4 ], %g1
400058c4:	a4 00 7f fc 	add  %g1, -4, %l2
400058c8:	80 a4 40 12 	cmp  %l1, %l2
400058cc:	2a 80 00 08 	bcs,a   400058ec <quorem+0x128>
400058d0:	c2 04 80 00 	ld  [ %l2 ], %g1
400058d4:	10 80 00 0b 	b  40005900 <quorem+0x13c>
400058d8:	f6 24 20 10 	st  %i3, [ %l0 + 0x10 ]
400058dc:	80 a4 40 12 	cmp  %l1, %l2
400058e0:	1a 80 00 06 	bcc  400058f8 <quorem+0x134>
400058e4:	b6 06 ff ff 	add  %i3, -1, %i3
400058e8:	c2 04 80 00 	ld  [ %l2 ], %g1
400058ec:	80 a0 60 00 	cmp  %g1, 0
400058f0:	22 bf ff fb 	be,a   400058dc <quorem+0x118>
400058f4:	a4 04 bf fc 	add  %l2, -4, %l2
400058f8:	f6 24 20 10 	st  %i3, [ %l0 + 0x10 ]
400058fc:	92 10 00 19 	mov  %i1, %o1
40005900:	40 00 0d d9 	call  40009064 <__mcmp>
40005904:	90 10 00 10 	mov  %l0, %o0
40005908:	80 a2 20 00 	cmp  %o0, 0
4000590c:	06 80 00 2d 	bl  400059c0 <quorem+0x1fc>
40005910:	33 00 00 3f 	sethi  %hi(0xfc00), %i1
40005914:	b8 07 20 01 	inc  %i4
40005918:	ba 10 00 11 	mov  %l1, %i5
4000591c:	82 10 20 00 	clr  %g1
40005920:	b2 16 63 ff 	or  %i1, 0x3ff, %i1
40005924:	c8 05 00 00 	ld  [ %l4 ], %g4
40005928:	c4 07 40 00 	ld  [ %i5 ], %g2
4000592c:	b0 09 00 19 	and  %g4, %i1, %i0
40005930:	86 08 80 19 	and  %g2, %i1, %g3
40005934:	82 20 40 18 	sub  %g1, %i0, %g1
40005938:	85 30 a0 10 	srl  %g2, 0x10, %g2
4000593c:	86 00 40 03 	add  %g1, %g3, %g3
40005940:	89 31 20 10 	srl  %g4, 0x10, %g4
40005944:	82 20 80 04 	sub  %g2, %g4, %g1
40005948:	85 38 e0 10 	sra  %g3, 0x10, %g2
4000594c:	ba 07 60 04 	add  %i5, 4, %i5
40005950:	82 00 40 02 	add  %g1, %g2, %g1
40005954:	86 08 c0 19 	and  %g3, %i1, %g3
40005958:	85 28 60 10 	sll  %g1, 0x10, %g2
4000595c:	86 10 80 03 	or  %g2, %g3, %g3
40005960:	c6 27 7f fc 	st  %g3, [ %i5 + -4 ]
40005964:	a8 05 20 04 	add  %l4, 4, %l4
40005968:	80 a6 80 14 	cmp  %i2, %l4
4000596c:	1a bf ff ee 	bcc  40005924 <quorem+0x160>
40005970:	83 38 60 10 	sra  %g1, 0x10, %g1
40005974:	83 2e e0 02 	sll  %i3, 2, %g1
40005978:	c4 04 40 01 	ld  [ %l1 + %g1 ], %g2
4000597c:	80 a0 a0 00 	cmp  %g2, 0
40005980:	12 80 00 10 	bne  400059c0 <quorem+0x1fc>
40005984:	82 04 40 01 	add  %l1, %g1, %g1
40005988:	82 00 7f fc 	add  %g1, -4, %g1
4000598c:	80 a4 40 01 	cmp  %l1, %g1
40005990:	2a 80 00 08 	bcs,a   400059b0 <quorem+0x1ec>
40005994:	c4 00 40 00 	ld  [ %g1 ], %g2
40005998:	10 80 00 0a 	b  400059c0 <quorem+0x1fc>
4000599c:	f6 24 20 10 	st  %i3, [ %l0 + 0x10 ]
400059a0:	80 a4 40 01 	cmp  %l1, %g1
400059a4:	1a 80 00 06 	bcc  400059bc <quorem+0x1f8>
400059a8:	b6 06 ff ff 	add  %i3, -1, %i3
400059ac:	c4 00 40 00 	ld  [ %g1 ], %g2
400059b0:	80 a0 a0 00 	cmp  %g2, 0
400059b4:	22 bf ff fb 	be,a   400059a0 <quorem+0x1dc>
400059b8:	82 00 7f fc 	add  %g1, -4, %g1
400059bc:	f6 24 20 10 	st  %i3, [ %l0 + 0x10 ]
400059c0:	b0 10 00 1c 	mov  %i4, %i0
400059c4:	81 c7 e0 08 	ret 
400059c8:	81 e8 00 00 	restore 

400059cc <_dtoa_r>:
400059cc:	9d e3 bf 70 	save  %sp, -144, %sp
400059d0:	f2 27 bf f0 	st  %i1, [ %fp + -16 ]
400059d4:	f4 27 bf f4 	st  %i2, [ %fp + -12 ]
400059d8:	c4 1f bf f0 	ldd  [ %fp + -16 ], %g2
400059dc:	c4 3f bf e8 	std  %g2, [ %fp + -24 ]
400059e0:	c2 06 20 24 	ld  [ %i0 + 0x24 ], %g1
400059e4:	80 a0 60 00 	cmp  %g1, 0
400059e8:	02 80 02 25 	be  4000627c <_dtoa_r+0x8b0>
400059ec:	01 00 00 00 	nop 
400059f0:	d2 00 40 00 	ld  [ %g1 ], %o1
400059f4:	80 a2 60 00 	cmp  %o1, 0
400059f8:	02 80 00 0c 	be  40005a28 <_dtoa_r+0x5c>
400059fc:	f2 07 bf f0 	ld  [ %fp + -16 ], %i1
40005a00:	c4 00 60 04 	ld  [ %g1 + 4 ], %g2
40005a04:	82 10 20 01 	mov  1, %g1
40005a08:	83 28 40 02 	sll  %g1, %g2, %g1
40005a0c:	c4 22 60 04 	st  %g2, [ %o1 + 4 ]
40005a10:	c2 22 60 08 	st  %g1, [ %o1 + 8 ]
40005a14:	40 00 0b 01 	call  40008618 <_Bfree>
40005a18:	90 10 00 18 	mov  %i0, %o0
40005a1c:	c2 06 20 24 	ld  [ %i0 + 0x24 ], %g1
40005a20:	c0 20 40 00 	clr  [ %g1 ]
40005a24:	f2 07 bf f0 	ld  [ %fp + -16 ], %i1
40005a28:	80 a6 60 00 	cmp  %i1, 0
40005a2c:	16 80 00 06 	bge  40005a44 <_dtoa_r+0x78>
40005a30:	84 10 20 00 	clr  %g2
40005a34:	03 20 00 00 	sethi  %hi(0x80000000), %g1
40005a38:	84 10 20 01 	mov  1, %g2
40005a3c:	b2 2e 40 01 	andn  %i1, %g1, %i1
40005a40:	f2 27 bf e8 	st  %i1, [ %fp + -24 ]
40005a44:	c6 07 a0 5c 	ld  [ %fp + 0x5c ], %g3
40005a48:	c4 20 c0 00 	st  %g2, [ %g3 ]
40005a4c:	05 1f fc 00 	sethi  %hi(0x7ff00000), %g2
40005a50:	86 0e 40 02 	and  %i1, %g2, %g3
40005a54:	80 a0 c0 02 	cmp  %g3, %g2
40005a58:	02 80 01 1b 	be  40005ec4 <_dtoa_r+0x4f8>
40005a5c:	03 00 00 09 	sethi  %hi(0x2400), %g1
40005a60:	c0 27 bf e0 	clr  [ %fp + -32 ]
40005a64:	c0 27 bf e4 	clr  [ %fp + -28 ]
40005a68:	d5 1f bf e8 	ldd  [ %fp + -24 ], %f10
40005a6c:	d1 1f bf e0 	ldd  [ %fp + -32 ], %f8
40005a70:	81 aa 8a 48 	fcmpd  %f10, %f8
40005a74:	01 00 00 00 	nop 
40005a78:	03 80 00 0c 	fbne  40005aa8 <_dtoa_r+0xdc>
40005a7c:	82 10 20 01 	mov  1, %g1	! 1 <_CONTEXT_I_>
40005a80:	c2 27 40 00 	st  %g1, [ %i5 ]
40005a84:	c2 07 a0 60 	ld  [ %fp + 0x60 ], %g1
40005a88:	80 a0 60 00 	cmp  %g1, 0
40005a8c:	02 80 02 0c 	be  400062bc <_dtoa_r+0x8f0>
40005a90:	37 10 00 3b 	sethi  %hi(0x4000ec00), %i3
40005a94:	b6 16 e1 61 	or  %i3, 0x161, %i3	! 4000ed61 <_global_impure_ptr+0x5d>
40005a98:	f6 20 40 00 	st  %i3, [ %g1 ]
40005a9c:	b6 06 ff ff 	add  %i3, -1, %i3
40005aa0:	81 c7 e0 08 	ret 
40005aa4:	91 e8 00 1b 	restore  %g0, %i3, %o0
40005aa8:	d5 3f bf e0 	std  %f10, [ %fp + -32 ]
40005aac:	d5 3f bf d8 	std  %f10, [ %fp + -40 ]
40005ab0:	98 07 bf f8 	add  %fp, -8, %o4
40005ab4:	96 07 bf fc 	add  %fp, -4, %o3
40005ab8:	d2 07 bf e0 	ld  [ %fp + -32 ], %o1
40005abc:	d4 07 bf e4 	ld  [ %fp + -28 ], %o2
40005ac0:	40 00 0e 98 	call  40009520 <__d2b>
40005ac4:	90 10 00 18 	mov  %i0, %o0
40005ac8:	83 36 60 14 	srl  %i1, 0x14, %g1
40005acc:	b4 10 00 08 	mov  %o0, %i2
40005ad0:	80 a0 60 00 	cmp  %g1, 0
40005ad4:	12 80 01 0d 	bne  40005f08 <_dtoa_r+0x53c>
40005ad8:	d5 1f bf d8 	ldd  [ %fp + -40 ], %f10
40005adc:	de 07 bf f8 	ld  [ %fp + -8 ], %o7
40005ae0:	c8 07 bf fc 	ld  [ %fp + -4 ], %g4
40005ae4:	c4 07 bf f4 	ld  [ %fp + -12 ], %g2
40005ae8:	88 03 c0 04 	add  %o7, %g4, %g4
40005aec:	82 01 24 32 	add  %g4, 0x432, %g1
40005af0:	80 a0 60 20 	cmp  %g1, 0x20
40005af4:	04 80 01 f6 	ble  400062cc <_dtoa_r+0x900>
40005af8:	82 20 00 01 	neg  %g1
40005afc:	86 01 24 12 	add  %g4, 0x412, %g3
40005b00:	83 2e 40 01 	sll  %i1, %g1, %g1
40005b04:	85 30 80 03 	srl  %g2, %g3, %g2
40005b08:	84 10 40 02 	or  %g1, %g2, %g2
40005b0c:	c4 27 bf f0 	st  %g2, [ %fp + -16 ]
40005b10:	80 a0 a0 00 	cmp  %g2, 0
40005b14:	d1 07 bf f0 	ld  [ %fp + -16 ], %f8
40005b18:	16 80 00 05 	bge  40005b2c <_dtoa_r+0x160>
40005b1c:	91 a0 19 08 	fitod  %f8, %f8
40005b20:	03 10 00 3b 	sethi  %hi(0x4000ec00), %g1
40005b24:	d9 18 61 c8 	ldd  [ %g1 + 0x1c8 ], %f12	! 4000edc8 <blanks.1+0x28>
40005b28:	91 a2 08 4c 	faddd  %f8, %f12, %f8
40005b2c:	d1 3f bf f0 	std  %f8, [ %fp + -16 ]
40005b30:	c4 1f bf f0 	ldd  [ %fp + -16 ], %g2
40005b34:	d1 27 bf f0 	st  %f8, [ %fp + -16 ]
40005b38:	f2 07 bf f0 	ld  [ %fp + -16 ], %i1
40005b3c:	82 01 3f ff 	add  %g4, -1, %g1
40005b40:	09 3f 84 00 	sethi  %hi(0xfe100000), %g4
40005b44:	84 06 40 04 	add  %i1, %g4, %g2
40005b48:	b2 10 20 01 	mov  1, %i1
40005b4c:	c4 3f bf f0 	std  %g2, [ %fp + -16 ]
40005b50:	05 10 00 3b 	sethi  %hi(0x4000ec00), %g2
40005b54:	d9 1f bf f0 	ldd  [ %fp + -16 ], %f12
40005b58:	09 10 00 3b 	sethi  %hi(0x4000ec00), %g4
40005b5c:	d1 19 21 d0 	ldd  [ %g4 + 0x1d0 ], %f8	! 4000edd0 <blanks.1+0x30>
40005b60:	91 a3 08 c8 	fsubd  %f12, %f8, %f8
40005b64:	d9 18 a1 d8 	ldd  [ %g2 + 0x1d8 ], %f12
40005b68:	05 10 00 3b 	sethi  %hi(0x4000ec00), %g2
40005b6c:	dd 18 a1 e0 	ldd  [ %g2 + 0x1e0 ], %f14	! 4000ede0 <blanks.1+0x40>
40005b70:	c2 27 bf f0 	st  %g1, [ %fp + -16 ]
40005b74:	91 a2 09 4c 	fmuld  %f8, %f12, %f8
40005b78:	05 10 00 3b 	sethi  %hi(0x4000ec00), %g2
40005b7c:	d9 07 bf f0 	ld  [ %fp + -16 ], %f12
40005b80:	91 a2 08 4e 	faddd  %f8, %f14, %f8
40005b84:	99 a0 19 0c 	fitod  %f12, %f12
40005b88:	dd 18 a1 e8 	ldd  [ %g2 + 0x1e8 ], %f14
40005b8c:	99 a3 09 4e 	fmuld  %f12, %f14, %f12
40005b90:	91 a2 08 4c 	faddd  %f8, %f12, %f8
40005b94:	99 a0 1a 48 	fdtoi  %f8, %f12
40005b98:	d9 27 bf f0 	st  %f12, [ %fp + -16 ]
40005b9c:	c0 27 bf f4 	clr  [ %fp + -12 ]
40005ba0:	ec 07 bf f0 	ld  [ %fp + -16 ], %l6
40005ba4:	c0 27 bf f0 	clr  [ %fp + -16 ]
40005ba8:	d9 1f bf f0 	ldd  [ %fp + -16 ], %f12
40005bac:	81 aa 0a cc 	fcmped  %f8, %f12
40005bb0:	01 00 00 00 	nop 
40005bb4:	29 80 01 ba 	fbl,a   4000629c <_dtoa_r+0x8d0>
40005bb8:	ec 27 bf f0 	st  %l6, [ %fp + -16 ]
40005bbc:	82 23 c0 01 	sub  %o7, %g1, %g1
40005bc0:	80 a5 a0 16 	cmp  %l6, 0x16
40005bc4:	18 80 01 a5 	bgu  40006258 <_dtoa_r+0x88c>
40005bc8:	ae 00 7f ff 	add  %g1, -1, %l7
40005bcc:	85 2d a0 03 	sll  %l6, 3, %g2
40005bd0:	07 10 00 3b 	sethi  %hi(0x4000ec00), %g3
40005bd4:	86 10 e2 d0 	or  %g3, 0x2d0, %g3	! 4000eed0 <__mprec_tens>
40005bd8:	d1 18 c0 02 	ldd  [ %g3 + %g2 ], %f8
40005bdc:	81 aa 8a c8 	fcmped  %f10, %f8
40005be0:	01 00 00 00 	nop 
40005be4:	19 80 01 7f 	fbuge  400061e0 <_dtoa_r+0x814>
40005be8:	01 00 00 00 	nop 
40005bec:	c0 27 bf d8 	clr  [ %fp + -40 ]
40005bf0:	ac 05 bf ff 	add  %l6, -1, %l6
40005bf4:	80 a5 e0 00 	cmp  %l7, 0
40005bf8:	06 80 01 9d 	bl  4000626c <_dtoa_r+0x8a0>
40005bfc:	a6 10 20 00 	clr  %l3
40005c00:	80 a5 a0 00 	cmp  %l6, 0
40005c04:	36 80 01 7c 	bge,a   400061f4 <_dtoa_r+0x828>
40005c08:	ae 05 c0 16 	add  %l7, %l6, %l7
40005c0c:	a6 24 c0 16 	sub  %l3, %l6, %l3
40005c10:	a0 20 00 16 	neg  %l6, %l0
40005c14:	a8 10 00 16 	mov  %l6, %l4
40005c18:	e2 06 20 24 	ld  [ %i0 + 0x24 ], %l1
40005c1c:	80 a6 e0 09 	cmp  %i3, 9
40005c20:	18 80 01 7a 	bgu  40006208 <_dtoa_r+0x83c>
40005c24:	ac 10 20 00 	clr  %l6
40005c28:	80 a6 e0 05 	cmp  %i3, 5
40005c2c:	04 80 00 04 	ble  40005c3c <_dtoa_r+0x270>
40005c30:	a4 10 20 01 	mov  1, %l2
40005c34:	b6 06 ff fc 	add  %i3, -4, %i3
40005c38:	a4 10 20 00 	clr  %l2
40005c3c:	80 a6 e0 04 	cmp  %i3, 4
40005c40:	02 80 03 18 	be  400068a0 <_dtoa_r+0xed4>
40005c44:	80 a6 e0 05 	cmp  %i3, 5
40005c48:	02 80 02 49 	be  4000656c <_dtoa_r+0xba0>
40005c4c:	80 a6 e0 02 	cmp  %i3, 2
40005c50:	12 80 01 78 	bne  40006230 <_dtoa_r+0x864>
40005c54:	c0 27 bf f0 	clr  [ %fp + -16 ]
40005c58:	80 a7 20 00 	cmp  %i4, 0
40005c5c:	04 80 02 9f 	ble  400066d8 <_dtoa_r+0xd0c>
40005c60:	9e 10 00 1c 	mov  %i4, %o7
40005c64:	f8 27 bf d4 	st  %i4, [ %fp + -44 ]
40005c68:	aa 10 00 1c 	mov  %i4, %l5
40005c6c:	80 a5 60 0f 	cmp  %l5, 0xf
40005c70:	c0 24 60 04 	clr  [ %l1 + 4 ]
40005c74:	82 40 20 00 	addx  %g0, 0, %g1
40005c78:	80 a3 e0 17 	cmp  %o7, 0x17
40005c7c:	04 80 03 fd 	ble  40006c70 <_dtoa_r+0x12a4>
40005c80:	a4 08 40 12 	and  %g1, %l2, %l2
40005c84:	84 10 20 01 	mov  1, %g2
40005c88:	82 10 20 04 	mov  4, %g1
40005c8c:	92 10 00 02 	mov  %g2, %o1
40005c90:	83 28 60 01 	sll  %g1, 1, %g1
40005c94:	86 00 60 14 	add  %g1, 0x14, %g3
40005c98:	80 a3 c0 03 	cmp  %o7, %g3
40005c9c:	1a bf ff fc 	bcc  40005c8c <_dtoa_r+0x2c0>
40005ca0:	84 00 a0 01 	inc  %g2
40005ca4:	d2 24 60 04 	st  %o1, [ %l1 + 4 ]
40005ca8:	d5 3f bf e0 	std  %f10, [ %fp + -32 ]
40005cac:	40 00 0a 27 	call  40008548 <_Balloc>
40005cb0:	90 10 00 18 	mov  %i0, %o0
40005cb4:	d0 24 40 00 	st  %o0, [ %l1 ]
40005cb8:	c2 06 20 24 	ld  [ %i0 + 0x24 ], %g1
40005cbc:	80 8c a0 ff 	btst  0xff, %l2
40005cc0:	e2 00 40 00 	ld  [ %g1 ], %l1
40005cc4:	02 80 00 bd 	be  40005fb8 <_dtoa_r+0x5ec>
40005cc8:	d5 1f bf e0 	ldd  [ %fp + -32 ], %f10
40005ccc:	80 a5 20 00 	cmp  %l4, 0
40005cd0:	04 80 01 e1 	ble  40006454 <_dtoa_r+0xa88>
40005cd4:	84 0d 20 0f 	and  %l4, 0xf, %g2
40005cd8:	07 10 00 3b 	sethi  %hi(0x4000ec00), %g3
40005cdc:	85 28 a0 03 	sll  %g2, 3, %g2
40005ce0:	86 10 e2 d0 	or  %g3, 0x2d0, %g3
40005ce4:	83 3d 20 04 	sra  %l4, 4, %g1
40005ce8:	80 8d 21 00 	btst  0x100, %l4
40005cec:	02 80 02 77 	be  400066c8 <_dtoa_r+0xcfc>
40005cf0:	d9 18 c0 02 	ldd  [ %g3 + %g2 ], %f12
40005cf4:	05 10 00 3b 	sethi  %hi(0x4000ec00), %g2
40005cf8:	82 08 60 0f 	and  %g1, 0xf, %g1
40005cfc:	d1 18 a2 c8 	ldd  [ %g2 + 0x2c8 ], %f8
40005d00:	84 10 20 03 	mov  3, %g2
40005d04:	91 a2 89 c8 	fdivd  %f10, %f8, %f8
40005d08:	80 a0 60 00 	cmp  %g1, 0
40005d0c:	22 80 00 0e 	be,a   40005d44 <_dtoa_r+0x378>
40005d10:	91 a2 09 cc 	fdivd  %f8, %f12, %f8
40005d14:	07 10 00 3b 	sethi  %hi(0x4000ec00), %g3
40005d18:	86 10 e2 a8 	or  %g3, 0x2a8, %g3	! 4000eea8 <__mprec_bigtens>
40005d1c:	80 88 60 01 	btst  1, %g1
40005d20:	02 80 00 05 	be  40005d34 <_dtoa_r+0x368>
40005d24:	83 38 60 01 	sra  %g1, 1, %g1
40005d28:	dd 18 c0 00 	ldd  [ %g3 ], %f14
40005d2c:	84 00 a0 01 	inc  %g2
40005d30:	99 a3 09 4e 	fmuld  %f12, %f14, %f12
40005d34:	80 a0 60 00 	cmp  %g1, 0
40005d38:	12 bf ff f9 	bne  40005d1c <_dtoa_r+0x350>
40005d3c:	86 00 e0 08 	add  %g3, 8, %g3
40005d40:	91 a2 09 cc 	fdivd  %f8, %f12, %f8
40005d44:	c2 07 bf d8 	ld  [ %fp + -40 ], %g1
40005d48:	80 a0 60 00 	cmp  %g1, 0
40005d4c:	22 80 00 09 	be,a   40005d70 <_dtoa_r+0x3a4>
40005d50:	c4 27 bf e0 	st  %g2, [ %fp + -32 ]
40005d54:	03 10 00 3b 	sethi  %hi(0x4000ec00), %g1
40005d58:	d9 18 61 f0 	ldd  [ %g1 + 0x1f0 ], %f12	! 4000edf0 <blanks.1+0x50>
40005d5c:	81 aa 0a cc 	fcmped  %f8, %f12
40005d60:	01 00 00 00 	nop 
40005d64:	09 80 02 dd 	fbl  400068d8 <_dtoa_r+0xf0c>
40005d68:	80 a5 60 00 	cmp  %l5, 0
40005d6c:	c4 27 bf e0 	st  %g2, [ %fp + -32 ]
40005d70:	03 10 00 3b 	sethi  %hi(0x4000ec00), %g1
40005d74:	d9 07 bf e0 	ld  [ %fp + -32 ], %f12
40005d78:	dd 18 62 00 	ldd  [ %g1 + 0x200 ], %f14
40005d7c:	99 a0 19 0c 	fitod  %f12, %f12
40005d80:	99 a3 09 48 	fmuld  %f12, %f8, %f12
40005d84:	99 a3 08 4e 	faddd  %f12, %f14, %f12
40005d88:	d9 3f bf e0 	std  %f12, [ %fp + -32 ]
40005d8c:	03 3f 30 00 	sethi  %hi(0xfcc00000), %g1
40005d90:	d4 1f bf e0 	ldd  [ %fp + -32 ], %o2
40005d94:	80 a5 60 00 	cmp  %l5, 0
40005d98:	86 10 00 0b 	mov  %o3, %g3
40005d9c:	02 80 00 7a 	be  40005f84 <_dtoa_r+0x5b8>
40005da0:	84 02 80 01 	add  %o2, %g1, %g2
40005da4:	9e 10 00 14 	mov  %l4, %o7
40005da8:	92 10 00 15 	mov  %l5, %o1
40005dac:	99 a0 1a 48 	fdtoi  %f8, %f12
40005db0:	d9 27 bf e0 	st  %f12, [ %fp + -32 ]
40005db4:	c2 07 bf e0 	ld  [ %fp + -32 ], %g1
40005db8:	c4 3f bf e0 	std  %g2, [ %fp + -32 ]
40005dbc:	94 00 60 30 	add  %g1, 0x30, %o2
40005dc0:	05 10 00 3b 	sethi  %hi(0x4000ec00), %g2
40005dc4:	d4 2c 40 00 	stb  %o2, [ %l1 ]
40005dc8:	84 10 a2 d0 	or  %g2, 0x2d0, %g2
40005dcc:	9d a0 19 0c 	fitod  %f12, %f14
40005dd0:	90 02 7f ff 	add  %o1, -1, %o0
40005dd4:	91 a2 08 ce 	fsubd  %f8, %f14, %f8
40005dd8:	91 2a 20 03 	sll  %o0, 3, %o0
40005ddc:	96 04 60 01 	add  %l1, 1, %o3
40005de0:	e1 18 80 08 	ldd  [ %g2 + %o0 ], %f16
40005de4:	82 10 00 0a 	mov  %o2, %g1
40005de8:	c4 07 bf f0 	ld  [ %fp + -16 ], %g2
40005dec:	80 a0 a0 00 	cmp  %g2, 0
40005df0:	02 80 02 3d 	be  400066e4 <_dtoa_r+0xd18>
40005df4:	d9 1f bf e0 	ldd  [ %fp + -32 ], %f12
40005df8:	05 10 00 3b 	sethi  %hi(0x4000ec00), %g2
40005dfc:	dd 18 a1 88 	ldd  [ %g2 + 0x188 ], %f14	! 4000ed88 <_global_impure_ptr+0x84>
40005e00:	9d a3 89 d0 	fdivd  %f14, %f16, %f14
40005e04:	9d a3 88 cc 	fsubd  %f14, %f12, %f14
40005e08:	81 ab 8a c8 	fcmped  %f14, %f8
40005e0c:	01 00 00 00 	nop 
40005e10:	0d 80 03 3d 	fbg  40006b04 <_dtoa_r+0x1138>
40005e14:	07 10 00 3b 	sethi  %hi(0x4000ec00), %g3
40005e18:	84 10 20 00 	clr  %g2
40005e1c:	e5 18 e1 f0 	ldd  [ %g3 + 0x1f0 ], %f18
40005e20:	07 10 00 3b 	sethi  %hi(0x4000ec00), %g3
40005e24:	10 80 00 12 	b  40005e6c <_dtoa_r+0x4a0>
40005e28:	e1 18 e1 f8 	ldd  [ %g3 + 0x1f8 ], %f16	! 4000edf8 <blanks.1+0x58>
40005e2c:	84 00 a0 01 	inc  %g2
40005e30:	80 a0 80 09 	cmp  %g2, %o1
40005e34:	16 80 00 61 	bge  40005fb8 <_dtoa_r+0x5ec>
40005e38:	96 02 e0 01 	inc  %o3
40005e3c:	91 a2 09 50 	fmuld  %f8, %f16, %f8
40005e40:	99 a0 1a 48 	fdtoi  %f8, %f12
40005e44:	d9 27 bf e0 	st  %f12, [ %fp + -32 ]
40005e48:	c2 07 bf e0 	ld  [ %fp + -32 ], %g1
40005e4c:	82 00 60 30 	add  %g1, 0x30, %g1
40005e50:	9d a3 89 50 	fmuld  %f14, %f16, %f14
40005e54:	99 a0 19 0c 	fitod  %f12, %f12
40005e58:	91 a2 08 cc 	fsubd  %f8, %f12, %f8
40005e5c:	81 aa 0a ce 	fcmped  %f8, %f14
40005e60:	01 00 00 00 	nop 
40005e64:	09 80 03 28 	fbl  40006b04 <_dtoa_r+0x1138>
40005e68:	c2 2a ff ff 	stb  %g1, [ %o3 + -1 ]
40005e6c:	99 a4 88 c8 	fsubd  %f18, %f8, %f12
40005e70:	81 ab 0a ce 	fcmped  %f12, %f14
40005e74:	01 00 00 00 	nop 
40005e78:	19 bf ff ed 	fbuge  40005e2c <_dtoa_r+0x460>
40005e7c:	01 00 00 00 	nop 
40005e80:	b6 10 00 11 	mov  %l1, %i3
40005e84:	a8 03 e0 01 	add  %o7, 1, %l4
40005e88:	10 80 00 07 	b  40005ea4 <_dtoa_r+0x4d8>
40005e8c:	a2 10 00 0b 	mov  %o3, %l1
40005e90:	80 a0 c0 1b 	cmp  %g3, %i3
40005e94:	02 80 02 f8 	be  40006a74 <_dtoa_r+0x10a8>
40005e98:	82 10 20 31 	mov  0x31, %g1
40005e9c:	c2 08 ff ff 	ldub  [ %g3 + -1 ], %g1
40005ea0:	a2 10 00 03 	mov  %g3, %l1
40005ea4:	85 28 60 18 	sll  %g1, 0x18, %g2
40005ea8:	85 38 a0 18 	sra  %g2, 0x18, %g2
40005eac:	80 a0 a0 39 	cmp  %g2, 0x39
40005eb0:	02 bf ff f8 	be  40005e90 <_dtoa_r+0x4c4>
40005eb4:	86 04 7f ff 	add  %l1, -1, %g3
40005eb8:	82 00 60 01 	inc  %g1
40005ebc:	10 80 00 bd 	b  400061b0 <_dtoa_r+0x7e4>
40005ec0:	c2 28 c0 00 	stb  %g1, [ %g3 ]
40005ec4:	82 10 63 0f 	or  %g1, 0x30f, %g1
40005ec8:	c2 27 40 00 	st  %g1, [ %i5 ]
40005ecc:	c4 07 bf f4 	ld  [ %fp + -12 ], %g2
40005ed0:	03 3f fc 00 	sethi  %hi(0xfff00000), %g1
40005ed4:	82 2e 40 01 	andn  %i1, %g1, %g1
40005ed8:	80 90 40 02 	orcc  %g1, %g2, %g0
40005edc:	12 80 00 17 	bne  40005f38 <_dtoa_r+0x56c>
40005ee0:	c2 07 a0 60 	ld  [ %fp + 0x60 ], %g1
40005ee4:	37 10 00 3b 	sethi  %hi(0x4000ec00), %i3
40005ee8:	80 a0 60 00 	cmp  %g1, 0
40005eec:	02 bf fe ed 	be  40005aa0 <_dtoa_r+0xd4>
40005ef0:	b6 16 e1 b0 	or  %i3, 0x1b0, %i3
40005ef4:	82 06 e0 08 	add  %i3, 8, %g1
40005ef8:	c4 07 a0 60 	ld  [ %fp + 0x60 ], %g2
40005efc:	c2 20 80 00 	st  %g1, [ %g2 ]
40005f00:	81 c7 e0 08 	ret 
40005f04:	91 e8 00 1b 	restore  %g0, %i3, %o0
40005f08:	d5 3f bf f0 	std  %f10, [ %fp + -16 ]
40005f0c:	c4 1f bf f0 	ldd  [ %fp + -16 ], %g2
40005f10:	d5 27 bf f0 	st  %f10, [ %fp + -16 ]
40005f14:	f2 07 bf f0 	ld  [ %fp + -16 ], %i1
40005f18:	09 3f fc 00 	sethi  %hi(0xfff00000), %g4
40005f1c:	88 2e 40 04 	andn  %i1, %g4, %g4
40005f20:	33 0f fc 00 	sethi  %hi(0x3ff00000), %i1
40005f24:	82 00 7c 01 	add  %g1, -1023, %g1
40005f28:	84 11 00 19 	or  %g4, %i1, %g2
40005f2c:	de 07 bf f8 	ld  [ %fp + -8 ], %o7
40005f30:	10 bf ff 07 	b  40005b4c <_dtoa_r+0x180>
40005f34:	b2 10 20 00 	clr  %i1
40005f38:	37 10 00 3b 	sethi  %hi(0x4000ec00), %i3
40005f3c:	80 a0 60 00 	cmp  %g1, 0
40005f40:	02 bf fe d8 	be  40005aa0 <_dtoa_r+0xd4>
40005f44:	b6 16 e1 c0 	or  %i3, 0x1c0, %i3
40005f48:	82 06 e0 03 	add  %i3, 3, %g1
40005f4c:	c4 07 a0 60 	ld  [ %fp + 0x60 ], %g2
40005f50:	10 bf ff ec 	b  40005f00 <_dtoa_r+0x534>
40005f54:	c2 20 80 00 	st  %g1, [ %g2 ]
40005f58:	03 10 00 3b 	sethi  %hi(0x4000ec00), %g1
40005f5c:	d9 07 bf e0 	ld  [ %fp + -32 ], %f12
40005f60:	dd 18 62 00 	ldd  [ %g1 + 0x200 ], %f14
40005f64:	99 a0 19 0c 	fitod  %f12, %f12
40005f68:	03 3f 30 00 	sethi  %hi(0xfcc00000), %g1
40005f6c:	99 a3 09 48 	fmuld  %f12, %f8, %f12
40005f70:	99 a3 08 4e 	faddd  %f12, %f14, %f12
40005f74:	d9 3f bf e0 	std  %f12, [ %fp + -32 ]
40005f78:	d4 1f bf e0 	ldd  [ %fp + -32 ], %o2
40005f7c:	86 10 00 0b 	mov  %o3, %g3
40005f80:	84 02 80 01 	add  %o2, %g1, %g2
40005f84:	c4 3f bf e0 	std  %g2, [ %fp + -32 ]
40005f88:	03 10 00 3b 	sethi  %hi(0x4000ec00), %g1
40005f8c:	dd 1f bf e0 	ldd  [ %fp + -32 ], %f14
40005f90:	d9 18 62 08 	ldd  [ %g1 + 0x208 ], %f12
40005f94:	91 a2 08 cc 	fsubd  %f8, %f12, %f8
40005f98:	81 aa 0a ce 	fcmped  %f8, %f14
40005f9c:	01 00 00 00 	nop 
40005fa0:	0d 80 02 73 	fbg  4000696c <_dtoa_r+0xfa0>
40005fa4:	9d a0 00 ae 	fnegs  %f14, %f14
40005fa8:	81 aa 0a ce 	fcmped  %f8, %f14
40005fac:	01 00 00 00 	nop 
40005fb0:	29 80 02 1c 	fbl,a   40006820 <_dtoa_r+0xe54>
40005fb4:	a0 10 20 00 	clr  %l0	! 0 <__bcc_cfg_skip_clear_bss>
40005fb8:	c2 07 bf fc 	ld  [ %fp + -4 ], %g1
40005fbc:	80 a0 60 00 	cmp  %g1, 0
40005fc0:	06 80 00 08 	bl  40005fe0 <_dtoa_r+0x614>
40005fc4:	80 a5 20 0e 	cmp  %l4, 0xe
40005fc8:	04 80 00 03 	ble  40005fd4 <_dtoa_r+0x608>
40005fcc:	84 10 20 01 	mov  1, %g2
40005fd0:	84 10 20 00 	clr  %g2
40005fd4:	80 88 a0 ff 	btst  0xff, %g2
40005fd8:	32 80 01 41 	bne,a   400064dc <_dtoa_r+0xb10>
40005fdc:	83 2d 20 03 	sll  %l4, 3, %g1
40005fe0:	c4 07 bf f0 	ld  [ %fp + -16 ], %g2
40005fe4:	80 a0 a0 00 	cmp  %g2, 0
40005fe8:	02 80 00 bf 	be  400062e4 <_dtoa_r+0x918>
40005fec:	84 10 00 10 	mov  %l0, %g2
40005ff0:	80 a6 e0 01 	cmp  %i3, 1
40005ff4:	04 80 02 50 	ble  40006934 <_dtoa_r+0xf68>
40005ff8:	80 a6 60 00 	cmp  %i1, 0
40005ffc:	82 05 7f ff 	add  %l5, -1, %g1
40006000:	80 a4 00 01 	cmp  %l0, %g1
40006004:	16 80 00 06 	bge  4000601c <_dtoa_r+0x650>
40006008:	84 24 00 01 	sub  %l0, %g1, %g2
4000600c:	a0 20 40 10 	sub  %g1, %l0, %l0
40006010:	84 10 20 00 	clr  %g2
40006014:	ac 05 80 10 	add  %l6, %l0, %l6
40006018:	a0 10 00 01 	mov  %g1, %l0
4000601c:	80 a5 60 00 	cmp  %l5, 0
40006020:	06 80 00 05 	bl  40006034 <_dtoa_r+0x668>
40006024:	a4 24 c0 15 	sub  %l3, %l5, %l2
40006028:	a4 10 00 13 	mov  %l3, %l2
4000602c:	ae 05 c0 15 	add  %l7, %l5, %l7
40006030:	a6 04 c0 15 	add  %l3, %l5, %l3
40006034:	c4 27 bf e0 	st  %g2, [ %fp + -32 ]
40006038:	92 10 20 01 	mov  1, %o1
4000603c:	40 00 0a 66 	call  400089d4 <__i2b>
40006040:	90 10 00 18 	mov  %i0, %o0
40006044:	c4 07 bf e0 	ld  [ %fp + -32 ], %g2
40006048:	b2 10 00 08 	mov  %o0, %i1
4000604c:	80 a4 a0 00 	cmp  %l2, 0
40006050:	04 80 00 09 	ble  40006074 <_dtoa_r+0x6a8>
40006054:	80 a5 e0 00 	cmp  %l7, 0
40006058:	04 80 00 07 	ble  40006074 <_dtoa_r+0x6a8>
4000605c:	80 a4 80 17 	cmp  %l2, %l7
40006060:	14 80 01 c8 	bg  40006780 <_dtoa_r+0xdb4>
40006064:	82 10 00 12 	mov  %l2, %g1
40006068:	a6 24 c0 01 	sub  %l3, %g1, %l3
4000606c:	a4 24 80 01 	sub  %l2, %g1, %l2
40006070:	ae 25 c0 01 	sub  %l7, %g1, %l7
40006074:	80 a4 20 00 	cmp  %l0, 0
40006078:	02 80 00 0a 	be  400060a0 <_dtoa_r+0x6d4>
4000607c:	c2 07 bf f0 	ld  [ %fp + -16 ], %g1
40006080:	80 a0 60 00 	cmp  %g1, 0
40006084:	02 80 02 34 	be  40006954 <_dtoa_r+0xf88>
40006088:	80 a0 a0 00 	cmp  %g2, 0
4000608c:	14 80 01 e7 	bg  40006828 <_dtoa_r+0xe5c>
40006090:	94 10 00 02 	mov  %g2, %o2
40006094:	94 a4 00 02 	subcc  %l0, %g2, %o2
40006098:	12 80 01 f3 	bne  40006864 <_dtoa_r+0xe98>
4000609c:	92 10 00 1a 	mov  %i2, %o1
400060a0:	92 10 20 01 	mov  1, %o1
400060a4:	40 00 0a 4c 	call  400089d4 <__i2b>
400060a8:	90 10 00 18 	mov  %i0, %o0
400060ac:	80 a5 a0 00 	cmp  %l6, 0
400060b0:	14 80 01 1e 	bg  40006528 <_dtoa_r+0xb5c>
400060b4:	a0 10 00 08 	mov  %o0, %l0
400060b8:	80 a6 e0 01 	cmp  %i3, 1
400060bc:	04 80 01 fc 	ble  400068ac <_dtoa_r+0xee0>
400060c0:	c0 27 bf e0 	clr  [ %fp + -32 ]
400060c4:	80 a5 a0 00 	cmp  %l6, 0
400060c8:	12 80 01 20 	bne  40006548 <_dtoa_r+0xb7c>
400060cc:	82 10 20 01 	mov  1, %g1
400060d0:	82 00 40 17 	add  %g1, %l7, %g1
400060d4:	82 88 60 1f 	andcc  %g1, 0x1f, %g1
400060d8:	22 80 00 7f 	be,a   400062d4 <_dtoa_r+0x908>
400060dc:	82 10 20 1c 	mov  0x1c, %g1
400060e0:	84 10 20 20 	mov  0x20, %g2
400060e4:	84 20 80 01 	sub  %g2, %g1, %g2
400060e8:	80 a0 a0 04 	cmp  %g2, 4
400060ec:	04 80 02 da 	ble  40006c54 <_dtoa_r+0x1288>
400060f0:	84 10 20 1c 	mov  0x1c, %g2
400060f4:	82 20 80 01 	sub  %g2, %g1, %g1
400060f8:	a6 04 c0 01 	add  %l3, %g1, %l3
400060fc:	a4 04 80 01 	add  %l2, %g1, %l2
40006100:	ae 05 c0 01 	add  %l7, %g1, %l7
40006104:	80 a4 e0 00 	cmp  %l3, 0
40006108:	04 80 00 08 	ble  40006128 <_dtoa_r+0x75c>
4000610c:	80 a5 e0 00 	cmp  %l7, 0
40006110:	92 10 00 1a 	mov  %i2, %o1
40006114:	94 10 00 13 	mov  %l3, %o2
40006118:	40 00 0b 62 	call  40008ea0 <__lshift>
4000611c:	90 10 00 18 	mov  %i0, %o0
40006120:	b4 10 00 08 	mov  %o0, %i2
40006124:	80 a5 e0 00 	cmp  %l7, 0
40006128:	04 80 00 08 	ble  40006148 <_dtoa_r+0x77c>
4000612c:	80 a6 e0 02 	cmp  %i3, 2
40006130:	92 10 00 10 	mov  %l0, %o1
40006134:	94 10 00 17 	mov  %l7, %o2
40006138:	40 00 0b 5a 	call  40008ea0 <__lshift>
4000613c:	90 10 00 18 	mov  %i0, %o0
40006140:	a0 10 00 08 	mov  %o0, %l0
40006144:	80 a6 e0 02 	cmp  %i3, 2
40006148:	14 80 00 03 	bg  40006154 <_dtoa_r+0x788>
4000614c:	a6 10 20 01 	mov  1, %l3
40006150:	a6 10 20 00 	clr  %l3
40006154:	c2 07 bf d8 	ld  [ %fp + -40 ], %g1
40006158:	80 a0 60 00 	cmp  %g1, 0
4000615c:	12 80 01 07 	bne  40006578 <_dtoa_r+0xbac>
40006160:	92 10 00 10 	mov  %l0, %o1
40006164:	80 a5 60 00 	cmp  %l5, 0
40006168:	14 80 00 62 	bg  400062f0 <_dtoa_r+0x924>
4000616c:	80 8c e0 ff 	btst  0xff, %l3
40006170:	02 80 00 61 	be  400062f4 <_dtoa_r+0x928>
40006174:	c2 07 bf f0 	ld  [ %fp + -16 ], %g1
40006178:	80 a5 60 00 	cmp  %l5, 0
4000617c:	02 80 01 83 	be  40006788 <_dtoa_r+0xdbc>
40006180:	92 10 00 10 	mov  %l0, %o1
40006184:	a8 38 00 1c 	xnor  %g0, %i4, %l4
40006188:	b6 10 00 11 	mov  %l1, %i3
4000618c:	92 10 00 10 	mov  %l0, %o1
40006190:	40 00 09 22 	call  40008618 <_Bfree>
40006194:	90 10 00 18 	mov  %i0, %o0
40006198:	80 a6 60 00 	cmp  %i1, 0
4000619c:	02 80 00 05 	be  400061b0 <_dtoa_r+0x7e4>
400061a0:	a8 05 20 01 	inc  %l4
400061a4:	92 10 00 19 	mov  %i1, %o1
400061a8:	40 00 09 1c 	call  40008618 <_Bfree>
400061ac:	90 10 00 18 	mov  %i0, %o0
400061b0:	92 10 00 1a 	mov  %i2, %o1
400061b4:	40 00 09 19 	call  40008618 <_Bfree>
400061b8:	90 10 00 18 	mov  %i0, %o0
400061bc:	c0 2c 40 00 	clrb  [ %l1 ]
400061c0:	e8 27 40 00 	st  %l4, [ %i5 ]
400061c4:	c2 07 a0 60 	ld  [ %fp + 0x60 ], %g1
400061c8:	80 a0 60 00 	cmp  %g1, 0
400061cc:	02 bf fe 35 	be  40005aa0 <_dtoa_r+0xd4>
400061d0:	01 00 00 00 	nop 
400061d4:	e2 20 40 00 	st  %l1, [ %g1 ]
400061d8:	81 c7 e0 08 	ret 
400061dc:	91 e8 00 1b 	restore  %g0, %i3, %o0
400061e0:	c0 27 bf d8 	clr  [ %fp + -40 ]
400061e4:	80 a5 e0 00 	cmp  %l7, 0
400061e8:	06 80 00 21 	bl  4000626c <_dtoa_r+0x8a0>
400061ec:	a6 10 20 00 	clr  %l3
400061f0:	ae 05 c0 16 	add  %l7, %l6, %l7
400061f4:	a8 10 00 16 	mov  %l6, %l4
400061f8:	a0 10 20 00 	clr  %l0
400061fc:	80 a6 e0 09 	cmp  %i3, 9
40006200:	08 bf fe 8a 	bleu  40005c28 <_dtoa_r+0x25c>
40006204:	e2 06 20 24 	ld  [ %i0 + 0x24 ], %l1
40006208:	82 10 20 01 	mov  1, %g1
4000620c:	a4 10 20 00 	clr  %l2
40006210:	b6 10 20 00 	clr  %i3
40006214:	c2 27 bf f0 	st  %g1, [ %fp + -16 ]
40006218:	aa 10 3f ff 	mov  -1, %l5
4000621c:	b8 10 20 00 	clr  %i4
40006220:	c0 24 60 04 	clr  [ %l1 + 4 ]
40006224:	ea 27 bf d4 	st  %l5, [ %fp + -44 ]
40006228:	10 bf fe a0 	b  40005ca8 <_dtoa_r+0x2dc>
4000622c:	92 10 20 00 	clr  %o1
40006230:	80 a6 e0 03 	cmp  %i3, 3
40006234:	32 80 02 91 	bne,a   40006c78 <_dtoa_r+0x12ac>
40006238:	c0 24 60 04 	clr  [ %l1 + 4 ]
4000623c:	82 07 00 14 	add  %i4, %l4, %g1
40006240:	aa 00 60 01 	add  %g1, 1, %l5
40006244:	9e 95 60 00 	orcc  %l5, 0, %o7
40006248:	14 bf fe 89 	bg  40005c6c <_dtoa_r+0x2a0>
4000624c:	c2 27 bf d4 	st  %g1, [ %fp + -44 ]
40006250:	10 bf fe 87 	b  40005c6c <_dtoa_r+0x2a0>
40006254:	9e 10 20 01 	mov  1, %o7
40006258:	84 10 20 01 	mov  1, %g2
4000625c:	c4 27 bf d8 	st  %g2, [ %fp + -40 ]
40006260:	80 a5 e0 00 	cmp  %l7, 0
40006264:	16 bf fe 67 	bge  40005c00 <_dtoa_r+0x234>
40006268:	a6 10 20 00 	clr  %l3
4000626c:	98 10 20 01 	mov  1, %o4
40006270:	ae 10 20 00 	clr  %l7
40006274:	10 bf fe 63 	b  40005c00 <_dtoa_r+0x234>
40006278:	a6 23 00 01 	sub  %o4, %g1, %l3
4000627c:	40 00 06 27 	call  40007b18 <malloc>
40006280:	90 10 20 10 	mov  0x10, %o0
40006284:	d0 26 20 24 	st  %o0, [ %i0 + 0x24 ]
40006288:	c0 22 20 04 	clr  [ %o0 + 4 ]
4000628c:	c0 22 20 08 	clr  [ %o0 + 8 ]
40006290:	c0 22 00 00 	clr  [ %o0 ]
40006294:	10 bf fd e4 	b  40005a24 <_dtoa_r+0x58>
40006298:	c0 22 20 0c 	clr  [ %o0 + 0xc ]
4000629c:	d9 07 bf f0 	ld  [ %fp + -16 ], %f12
400062a0:	99 a0 19 0c 	fitod  %f12, %f12
400062a4:	81 ab 0a 48 	fcmpd  %f12, %f8
400062a8:	01 00 00 00 	nop 
400062ac:	23 bf fe 44 	fbne,a   40005bbc <_dtoa_r+0x1f0>
400062b0:	ac 05 bf ff 	add  %l6, -1, %l6
400062b4:	10 bf fe 43 	b  40005bc0 <_dtoa_r+0x1f4>
400062b8:	82 23 c0 01 	sub  %o7, %g1, %g1
400062bc:	37 10 00 3b 	sethi  %hi(0x4000ec00), %i3
400062c0:	b6 16 e1 60 	or  %i3, 0x160, %i3	! 4000ed60 <_global_impure_ptr+0x5c>
400062c4:	81 c7 e0 08 	ret 
400062c8:	91 e8 00 1b 	restore  %g0, %i3, %o0
400062cc:	10 bf fe 10 	b  40005b0c <_dtoa_r+0x140>
400062d0:	85 28 80 01 	sll  %g2, %g1, %g2
400062d4:	a6 04 c0 01 	add  %l3, %g1, %l3
400062d8:	a4 04 80 01 	add  %l2, %g1, %l2
400062dc:	10 bf ff 8a 	b  40006104 <_dtoa_r+0x738>
400062e0:	ae 05 c0 01 	add  %l7, %g1, %l7
400062e4:	a4 10 00 13 	mov  %l3, %l2
400062e8:	10 bf ff 59 	b  4000604c <_dtoa_r+0x680>
400062ec:	b2 10 20 00 	clr  %i1
400062f0:	c2 07 bf f0 	ld  [ %fp + -16 ], %g1
400062f4:	80 a0 60 00 	cmp  %g1, 0
400062f8:	02 80 00 b8 	be  400065d8 <_dtoa_r+0xc0c>
400062fc:	a8 05 20 01 	inc  %l4
40006300:	80 a4 a0 00 	cmp  %l2, 0
40006304:	04 80 00 08 	ble  40006324 <_dtoa_r+0x958>
40006308:	c2 07 bf e0 	ld  [ %fp + -32 ], %g1
4000630c:	92 10 00 19 	mov  %i1, %o1
40006310:	94 10 00 12 	mov  %l2, %o2
40006314:	40 00 0a e3 	call  40008ea0 <__lshift>
40006318:	90 10 00 18 	mov  %i0, %o0
4000631c:	b2 10 00 08 	mov  %o0, %i1
40006320:	c2 07 bf e0 	ld  [ %fp + -32 ], %g1
40006324:	80 a0 60 00 	cmp  %g1, 0
40006328:	12 80 01 fe 	bne  40006b20 <_dtoa_r+0x1154>
4000632c:	a4 10 00 19 	mov  %i1, %l2
40006330:	82 04 7f ff 	add  %l1, -1, %g1
40006334:	82 00 40 15 	add  %g1, %l5, %g1
40006338:	ac 10 00 11 	mov  %l1, %l6
4000633c:	c2 27 bf e0 	st  %g1, [ %fp + -32 ]
40006340:	c2 07 bf ec 	ld  [ %fp + -20 ], %g1
40006344:	82 08 60 01 	and  %g1, 1, %g1
40006348:	c2 27 bf f0 	st  %g1, [ %fp + -16 ]
4000634c:	92 10 00 10 	mov  %l0, %o1
40006350:	7f ff fd 1d 	call  400057c4 <quorem>
40006354:	90 10 00 1a 	mov  %i2, %o0
40006358:	92 10 00 19 	mov  %i1, %o1
4000635c:	aa 10 00 08 	mov  %o0, %l5
40006360:	40 00 0b 41 	call  40009064 <__mcmp>
40006364:	90 10 00 1a 	mov  %i2, %o0
40006368:	92 10 00 10 	mov  %l0, %o1
4000636c:	94 10 00 12 	mov  %l2, %o2
40006370:	b8 10 00 08 	mov  %o0, %i4
40006374:	40 00 0b 56 	call  400090cc <__mdiff>
40006378:	90 10 00 18 	mov  %i0, %o0
4000637c:	ae 05 60 30 	add  %l5, 0x30, %l7
40006380:	c4 02 20 0c 	ld  [ %o0 + 0xc ], %g2
40006384:	a6 10 00 08 	mov  %o0, %l3
40006388:	80 a0 a0 00 	cmp  %g2, 0
4000638c:	12 80 01 3a 	bne  40006874 <_dtoa_r+0xea8>
40006390:	92 10 00 08 	mov  %o0, %o1
40006394:	40 00 0b 34 	call  40009064 <__mcmp>
40006398:	90 10 00 1a 	mov  %i2, %o0
4000639c:	92 10 00 13 	mov  %l3, %o1
400063a0:	d0 27 bf e8 	st  %o0, [ %fp + -24 ]
400063a4:	40 00 08 9d 	call  40008618 <_Bfree>
400063a8:	90 10 00 18 	mov  %i0, %o0
400063ac:	c4 07 bf e8 	ld  [ %fp + -24 ], %g2
400063b0:	c2 07 bf f0 	ld  [ %fp + -16 ], %g1
400063b4:	86 10 80 1b 	or  %g2, %i3, %g3
400063b8:	80 90 40 03 	orcc  %g1, %g3, %g0
400063bc:	02 80 02 09 	be  40006be0 <_dtoa_r+0x1214>
400063c0:	80 a5 e0 39 	cmp  %l7, 0x39
400063c4:	80 a7 20 00 	cmp  %i4, 0
400063c8:	06 80 01 b5 	bl  40006a9c <_dtoa_r+0x10d0>
400063cc:	a6 05 a0 01 	add  %l6, 1, %l3
400063d0:	b8 17 00 1b 	or  %i4, %i3, %i4
400063d4:	c2 07 bf f0 	ld  [ %fp + -16 ], %g1
400063d8:	80 90 40 1c 	orcc  %g1, %i4, %g0
400063dc:	02 80 01 b0 	be  40006a9c <_dtoa_r+0x10d0>
400063e0:	80 a0 a0 00 	cmp  %g2, 0
400063e4:	14 80 01 ef 	bg  40006ba0 <_dtoa_r+0x11d4>
400063e8:	80 a5 e0 39 	cmp  %l7, 0x39
400063ec:	ee 2d 80 00 	stb  %l7, [ %l6 ]
400063f0:	c2 07 bf e0 	ld  [ %fp + -32 ], %g1
400063f4:	80 a0 40 16 	cmp  %g1, %l6
400063f8:	02 80 01 f0 	be  40006bb8 <_dtoa_r+0x11ec>
400063fc:	92 10 00 1a 	mov  %i2, %o1
40006400:	96 10 20 00 	clr  %o3
40006404:	94 10 20 0a 	mov  0xa, %o2
40006408:	40 00 08 9c 	call  40008678 <__multadd>
4000640c:	90 10 00 18 	mov  %i0, %o0
40006410:	92 10 00 19 	mov  %i1, %o1
40006414:	b4 10 00 08 	mov  %o0, %i2
40006418:	96 10 20 00 	clr  %o3
4000641c:	94 10 20 0a 	mov  0xa, %o2
40006420:	80 a6 40 12 	cmp  %i1, %l2
40006424:	02 80 01 1a 	be  4000688c <_dtoa_r+0xec0>
40006428:	90 10 00 18 	mov  %i0, %o0
4000642c:	40 00 08 93 	call  40008678 <__multadd>
40006430:	ac 10 00 13 	mov  %l3, %l6
40006434:	92 10 00 12 	mov  %l2, %o1
40006438:	b2 10 00 08 	mov  %o0, %i1
4000643c:	96 10 20 00 	clr  %o3
40006440:	94 10 20 0a 	mov  0xa, %o2
40006444:	40 00 08 8d 	call  40008678 <__multadd>
40006448:	90 10 00 18 	mov  %i0, %o0
4000644c:	10 bf ff c0 	b  4000634c <_dtoa_r+0x980>
40006450:	a4 10 00 08 	mov  %o0, %l2
40006454:	02 80 00 de 	be  400067cc <_dtoa_r+0xe00>
40006458:	91 a0 00 2a 	fmovs  %f10, %f8
4000645c:	9e 20 00 14 	neg  %l4, %o7
40006460:	05 10 00 3b 	sethi  %hi(0x4000ec00), %g2
40006464:	82 0b e0 0f 	and  %o7, 0xf, %g1
40006468:	84 10 a2 d0 	or  %g2, 0x2d0, %g2
4000646c:	83 28 60 03 	sll  %g1, 3, %g1
40006470:	9f 3b e0 04 	sra  %o7, 4, %o7
40006474:	dd 18 80 01 	ldd  [ %g2 + %g1 ], %f14
40006478:	80 a3 e0 00 	cmp  %o7, 0
4000647c:	9d a2 89 4e 	fmuld  %f10, %f14, %f14
40006480:	91 a0 00 2e 	fmovs  %f14, %f8
40006484:	02 80 01 f0 	be  40006c44 <_dtoa_r+0x1278>
40006488:	93 a0 00 2f 	fmovs  %f15, %f9
4000648c:	03 10 00 3b 	sethi  %hi(0x4000ec00), %g1
40006490:	86 10 20 00 	clr  %g3
40006494:	82 10 62 a8 	or  %g1, 0x2a8, %g1
40006498:	84 10 20 02 	mov  2, %g2
4000649c:	80 8b e0 01 	btst  1, %o7
400064a0:	02 80 00 06 	be  400064b8 <_dtoa_r+0xaec>
400064a4:	9f 3b e0 01 	sra  %o7, 1, %o7
400064a8:	d9 18 40 00 	ldd  [ %g1 ], %f12
400064ac:	84 00 a0 01 	inc  %g2
400064b0:	91 a2 09 4c 	fmuld  %f8, %f12, %f8
400064b4:	86 10 00 12 	mov  %l2, %g3
400064b8:	80 a3 e0 00 	cmp  %o7, 0
400064bc:	12 bf ff f8 	bne  4000649c <_dtoa_r+0xad0>
400064c0:	82 00 60 08 	add  %g1, 8, %g1
400064c4:	80 88 e0 ff 	btst  0xff, %g3
400064c8:	12 bf fe 20 	bne  40005d48 <_dtoa_r+0x37c>
400064cc:	c2 07 bf d8 	ld  [ %fp + -40 ], %g1
400064d0:	91 a0 00 2e 	fmovs  %f14, %f8
400064d4:	10 bf fe 1d 	b  40005d48 <_dtoa_r+0x37c>
400064d8:	93 a0 00 2f 	fmovs  %f15, %f9
400064dc:	05 10 00 3b 	sethi  %hi(0x4000ec00), %g2
400064e0:	80 a7 20 00 	cmp  %i4, 0
400064e4:	84 10 a2 d0 	or  %g2, 0x2d0, %g2
400064e8:	16 80 01 28 	bge  40006988 <_dtoa_r+0xfbc>
400064ec:	dd 18 80 01 	ldd  [ %g2 + %g1 ], %f14
400064f0:	80 a5 60 00 	cmp  %l5, 0
400064f4:	34 80 01 26 	bg,a   4000698c <_dtoa_r+0xfc0>
400064f8:	99 a2 89 ce 	fdivd  %f10, %f14, %f12
400064fc:	12 80 00 c8 	bne  4000681c <_dtoa_r+0xe50>
40006500:	03 10 00 3b 	sethi  %hi(0x4000ec00), %g1
40006504:	a0 10 20 00 	clr  %l0
40006508:	d1 18 62 08 	ldd  [ %g1 + 0x208 ], %f8
4000650c:	9d a3 89 48 	fmuld  %f14, %f8, %f14
40006510:	81 aa 8a ce 	fcmped  %f10, %f14
40006514:	01 00 00 00 	nop 
40006518:	1b bf ff 1b 	fble  40006184 <_dtoa_r+0x7b8>
4000651c:	b2 10 20 00 	clr  %i1	! 0 <__bcc_cfg_skip_clear_bss>
40006520:	10 80 00 a6 	b  400067b8 <_dtoa_r+0xdec>
40006524:	b6 10 00 11 	mov  %l1, %i3
40006528:	92 10 00 08 	mov  %o0, %o1
4000652c:	94 10 00 16 	mov  %l6, %o2
40006530:	40 00 09 f9 	call  40008d14 <__pow5mult>
40006534:	90 10 00 18 	mov  %i0, %o0
40006538:	c0 27 bf e0 	clr  [ %fp + -32 ]
4000653c:	80 a6 e0 01 	cmp  %i3, 1
40006540:	04 80 00 a6 	ble  400067d8 <_dtoa_r+0xe0c>
40006544:	a0 10 00 08 	mov  %o0, %l0
40006548:	c2 04 20 10 	ld  [ %l0 + 0x10 ], %g1
4000654c:	82 00 60 03 	add  %g1, 3, %g1
40006550:	83 28 60 02 	sll  %g1, 2, %g1
40006554:	82 04 00 01 	add  %l0, %g1, %g1
40006558:	40 00 08 c4 	call  40008868 <__hi0bits>
4000655c:	d0 00 60 04 	ld  [ %g1 + 4 ], %o0
40006560:	82 10 20 20 	mov  0x20, %g1
40006564:	10 bf fe db 	b  400060d0 <_dtoa_r+0x704>
40006568:	82 20 40 08 	sub  %g1, %o0, %g1
4000656c:	82 10 20 01 	mov  1, %g1
40006570:	10 bf ff 33 	b  4000623c <_dtoa_r+0x870>
40006574:	c2 27 bf f0 	st  %g1, [ %fp + -16 ]
40006578:	40 00 0a bb 	call  40009064 <__mcmp>
4000657c:	90 10 00 1a 	mov  %i2, %o0
40006580:	80 a2 20 00 	cmp  %o0, 0
40006584:	16 bf fe f9 	bge  40006168 <_dtoa_r+0x79c>
40006588:	80 a5 60 00 	cmp  %l5, 0
4000658c:	92 10 00 1a 	mov  %i2, %o1
40006590:	96 10 20 00 	clr  %o3
40006594:	94 10 20 0a 	mov  0xa, %o2
40006598:	40 00 08 38 	call  40008678 <__multadd>
4000659c:	90 10 00 18 	mov  %i0, %o0
400065a0:	c4 07 bf d4 	ld  [ %fp + -44 ], %g2
400065a4:	ae 05 3f ff 	add  %l4, -1, %l7
400065a8:	82 00 bf ff 	add  %g2, -1, %g1
400065ac:	b4 10 00 08 	mov  %o0, %i2
400065b0:	82 10 80 01 	or  %g2, %g1, %g1
400065b4:	c4 07 bf f0 	ld  [ %fp + -16 ], %g2
400065b8:	83 30 60 1f 	srl  %g1, 0x1f, %g1
400065bc:	80 a0 a0 00 	cmp  %g2, 0
400065c0:	12 80 01 8f 	bne  40006bfc <_dtoa_r+0x1230>
400065c4:	aa 08 40 13 	and  %g1, %l3, %l5
400065c8:	80 a5 60 00 	cmp  %l5, 0
400065cc:	32 80 01 80 	bne,a   40006bcc <_dtoa_r+0x1200>
400065d0:	a8 10 00 17 	mov  %l7, %l4
400065d4:	ea 07 bf d4 	ld  [ %fp + -44 ], %l5
400065d8:	b8 10 20 01 	mov  1, %i4
400065dc:	10 80 00 09 	b  40006600 <_dtoa_r+0xc34>
400065e0:	b6 04 7f ff 	add  %l1, -1, %i3
400065e4:	92 10 00 1a 	mov  %i2, %o1
400065e8:	96 10 20 00 	clr  %o3
400065ec:	94 10 20 0a 	mov  0xa, %o2
400065f0:	90 10 00 18 	mov  %i0, %o0
400065f4:	40 00 08 21 	call  40008678 <__multadd>
400065f8:	b8 07 20 01 	inc  %i4
400065fc:	b4 10 00 08 	mov  %o0, %i2
40006600:	92 10 00 10 	mov  %l0, %o1
40006604:	7f ff fc 70 	call  400057c4 <quorem>
40006608:	90 10 00 1a 	mov  %i2, %o0
4000660c:	ae 02 20 30 	add  %o0, 0x30, %l7
40006610:	80 a7 00 15 	cmp  %i4, %l5
40006614:	06 bf ff f4 	bl  400065e4 <_dtoa_r+0xc18>
40006618:	ee 2e c0 1c 	stb  %l7, [ %i3 + %i4 ]
4000661c:	80 a5 60 00 	cmp  %l5, 0
40006620:	04 80 00 03 	ble  4000662c <_dtoa_r+0xc60>
40006624:	b8 10 20 01 	mov  1, %i4
40006628:	b8 10 00 15 	mov  %l5, %i4
4000662c:	b8 04 40 1c 	add  %l1, %i4, %i4
40006630:	b6 10 20 00 	clr  %i3
40006634:	92 10 00 1a 	mov  %i2, %o1
40006638:	94 10 20 01 	mov  1, %o2
4000663c:	40 00 0a 19 	call  40008ea0 <__lshift>
40006640:	90 10 00 18 	mov  %i0, %o0
40006644:	92 10 00 10 	mov  %l0, %o1
40006648:	40 00 0a 87 	call  40009064 <__mcmp>
4000664c:	b4 10 00 08 	mov  %o0, %i2
40006650:	80 a2 20 00 	cmp  %o0, 0
40006654:	14 80 00 07 	bg  40006670 <_dtoa_r+0xca4>
40006658:	a6 10 00 1c 	mov  %i4, %l3
4000665c:	30 80 00 f6 	b,a   40006a34 <_dtoa_r+0x1068>
40006660:	80 a7 00 11 	cmp  %i4, %l1
40006664:	02 80 01 01 	be  40006a68 <_dtoa_r+0x109c>
40006668:	82 10 20 31 	mov  0x31, %g1
4000666c:	a6 10 00 1c 	mov  %i4, %l3
40006670:	b8 07 3f ff 	add  %i4, -1, %i4
40006674:	c2 4c ff ff 	ldsb  [ %l3 + -1 ], %g1
40006678:	80 a0 60 39 	cmp  %g1, 0x39
4000667c:	02 bf ff f9 	be  40006660 <_dtoa_r+0xc94>
40006680:	c4 0c ff ff 	ldub  [ %l3 + -1 ], %g2
40006684:	84 00 a0 01 	inc  %g2
40006688:	c4 2f 00 00 	stb  %g2, [ %i4 ]
4000668c:	92 10 00 10 	mov  %l0, %o1
40006690:	40 00 07 e2 	call  40008618 <_Bfree>
40006694:	90 10 00 18 	mov  %i0, %o0
40006698:	80 a6 60 00 	cmp  %i1, 0
4000669c:	02 80 00 e3 	be  40006a28 <_dtoa_r+0x105c>
400066a0:	80 a6 e0 00 	cmp  %i3, 0
400066a4:	02 80 01 70 	be  40006c64 <_dtoa_r+0x1298>
400066a8:	80 a6 c0 19 	cmp  %i3, %i1
400066ac:	02 80 01 6e 	be  40006c64 <_dtoa_r+0x1298>
400066b0:	92 10 00 1b 	mov  %i3, %o1
400066b4:	90 10 00 18 	mov  %i0, %o0
400066b8:	40 00 07 d8 	call  40008618 <_Bfree>
400066bc:	b6 10 00 11 	mov  %l1, %i3
400066c0:	10 bf fe b9 	b  400061a4 <_dtoa_r+0x7d8>
400066c4:	a2 10 00 13 	mov  %l3, %l1
400066c8:	91 a0 00 2a 	fmovs  %f10, %f8
400066cc:	93 a0 00 2b 	fmovs  %f11, %f9
400066d0:	10 bf fd 8e 	b  40005d08 <_dtoa_r+0x33c>
400066d4:	84 10 20 02 	mov  2, %g2
400066d8:	aa 10 20 01 	mov  1, %l5
400066dc:	10 bf fe d1 	b  40006220 <_dtoa_r+0x854>
400066e0:	b8 10 20 01 	mov  1, %i4
400066e4:	07 10 00 3b 	sethi  %hi(0x4000ec00), %g3
400066e8:	a1 a3 09 50 	fmuld  %f12, %f16, %f16
400066ec:	84 04 40 09 	add  %l1, %o1, %g2
400066f0:	80 a2 60 01 	cmp  %o1, 1
400066f4:	02 80 01 4c 	be  40006c24 <_dtoa_r+0x1258>
400066f8:	dd 18 e1 f8 	ldd  [ %g3 + 0x1f8 ], %f14
400066fc:	91 a2 09 4e 	fmuld  %f8, %f14, %f8
40006700:	96 02 e0 01 	inc  %o3
40006704:	99 a0 1a 48 	fdtoi  %f8, %f12
40006708:	d9 27 bf e0 	st  %f12, [ %fp + -32 ]
4000670c:	c2 07 bf e0 	ld  [ %fp + -32 ], %g1
40006710:	82 00 60 30 	add  %g1, 0x30, %g1
40006714:	c2 2a ff ff 	stb  %g1, [ %o3 + -1 ]
40006718:	99 a0 19 0c 	fitod  %f12, %f12
4000671c:	80 a2 c0 02 	cmp  %o3, %g2
40006720:	12 bf ff f7 	bne  400066fc <_dtoa_r+0xd30>
40006724:	91 a2 08 cc 	fsubd  %f8, %f12, %f8
40006728:	07 10 00 3b 	sethi  %hi(0x4000ec00), %g3
4000672c:	d9 18 e1 88 	ldd  [ %g3 + 0x188 ], %f12	! 4000ed88 <_global_impure_ptr+0x84>
40006730:	9d a4 08 4c 	faddd  %f16, %f12, %f14
40006734:	81 ab 8a c8 	fcmped  %f14, %f8
40006738:	01 00 00 00 	nop 
4000673c:	29 80 00 f6 	fbl,a   40006b14 <_dtoa_r+0x1148>
40006740:	b6 10 00 11 	mov  %l1, %i3
40006744:	99 a3 08 d0 	fsubd  %f12, %f16, %f12
40006748:	81 ab 0a c8 	fcmped  %f12, %f8
4000674c:	01 00 00 00 	nop 
40006750:	1d bf fe 1a 	fbule  40005fb8 <_dtoa_r+0x5ec>
40006754:	01 00 00 00 	nop 
40006758:	86 10 00 02 	mov  %g2, %g3
4000675c:	84 00 bf ff 	add  %g2, -1, %g2
40006760:	c2 48 80 00 	ldsb  [ %g2 ], %g1
40006764:	80 a0 60 30 	cmp  %g1, 0x30
40006768:	22 bf ff fd 	be,a   4000675c <_dtoa_r+0xd90>
4000676c:	86 10 00 02 	mov  %g2, %g3
40006770:	b6 10 00 11 	mov  %l1, %i3
40006774:	a8 03 e0 01 	add  %o7, 1, %l4
40006778:	10 bf fe 8e 	b  400061b0 <_dtoa_r+0x7e4>
4000677c:	a2 10 00 03 	mov  %g3, %l1
40006780:	10 bf fe 3a 	b  40006068 <_dtoa_r+0x69c>
40006784:	82 10 00 17 	mov  %l7, %g1
40006788:	96 10 20 00 	clr  %o3
4000678c:	94 10 20 05 	mov  5, %o2
40006790:	40 00 07 ba 	call  40008678 <__multadd>
40006794:	90 10 00 18 	mov  %i0, %o0
40006798:	a0 10 00 08 	mov  %o0, %l0
4000679c:	90 10 00 1a 	mov  %i2, %o0
400067a0:	40 00 0a 31 	call  40009064 <__mcmp>
400067a4:	92 10 00 10 	mov  %l0, %o1
400067a8:	80 a2 20 00 	cmp  %o0, 0
400067ac:	24 bf fe 77 	ble,a   40006188 <_dtoa_r+0x7bc>
400067b0:	a8 38 00 1c 	xnor  %g0, %i4, %l4
400067b4:	b6 10 00 11 	mov  %l1, %i3
400067b8:	82 10 20 31 	mov  0x31, %g1
400067bc:	a8 05 20 01 	inc  %l4
400067c0:	c2 2c 40 00 	stb  %g1, [ %l1 ]
400067c4:	10 bf fe 72 	b  4000618c <_dtoa_r+0x7c0>
400067c8:	a2 04 60 01 	inc  %l1
400067cc:	93 a0 00 2b 	fmovs  %f11, %f9
400067d0:	10 bf fd 5d 	b  40005d44 <_dtoa_r+0x378>
400067d4:	84 10 20 02 	mov  2, %g2
400067d8:	c2 07 bf ec 	ld  [ %fp + -20 ], %g1
400067dc:	80 a0 60 00 	cmp  %g1, 0
400067e0:	32 bf ff 5b 	bne,a   4000654c <_dtoa_r+0xb80>
400067e4:	c2 04 20 10 	ld  [ %l0 + 0x10 ], %g1
400067e8:	c2 07 bf e8 	ld  [ %fp + -24 ], %g1
400067ec:	05 3f fc 00 	sethi  %hi(0xfff00000), %g2
400067f0:	80 a8 40 02 	andncc  %g1, %g2, %g0
400067f4:	12 bf ff 55 	bne  40006548 <_dtoa_r+0xb7c>
400067f8:	05 1f fc 00 	sethi  %hi(0x7ff00000), %g2
400067fc:	80 88 40 02 	btst  %g1, %g2
40006800:	02 bf fe 31 	be  400060c4 <_dtoa_r+0x6f8>
40006804:	c0 27 bf e0 	clr  [ %fp + -32 ]
40006808:	82 10 20 01 	mov  1, %g1
4000680c:	a6 04 e0 01 	inc  %l3
40006810:	ae 05 e0 01 	inc  %l7
40006814:	10 bf fe 2c 	b  400060c4 <_dtoa_r+0x6f8>
40006818:	c2 27 bf e0 	st  %g1, [ %fp + -32 ]
4000681c:	a0 10 20 00 	clr  %l0
40006820:	10 bf fe 59 	b  40006184 <_dtoa_r+0x7b8>
40006824:	b2 10 20 00 	clr  %i1
40006828:	c4 27 bf e0 	st  %g2, [ %fp + -32 ]
4000682c:	92 10 00 19 	mov  %i1, %o1
40006830:	40 00 09 39 	call  40008d14 <__pow5mult>
40006834:	90 10 00 18 	mov  %i0, %o0
40006838:	94 10 00 1a 	mov  %i2, %o2
4000683c:	b2 10 00 08 	mov  %o0, %i1
40006840:	90 10 00 18 	mov  %i0, %o0
40006844:	40 00 08 9c 	call  40008ab4 <__multiply>
40006848:	92 10 00 19 	mov  %i1, %o1
4000684c:	92 10 00 1a 	mov  %i2, %o1
40006850:	b4 10 00 08 	mov  %o0, %i2
40006854:	40 00 07 71 	call  40008618 <_Bfree>
40006858:	90 10 00 18 	mov  %i0, %o0
4000685c:	10 bf fe 0e 	b  40006094 <_dtoa_r+0x6c8>
40006860:	c4 07 bf e0 	ld  [ %fp + -32 ], %g2
40006864:	40 00 09 2c 	call  40008d14 <__pow5mult>
40006868:	90 10 00 18 	mov  %i0, %o0
4000686c:	10 bf fe 0d 	b  400060a0 <_dtoa_r+0x6d4>
40006870:	b4 10 00 08 	mov  %o0, %i2
40006874:	84 10 20 01 	mov  1, %g2
40006878:	90 10 00 18 	mov  %i0, %o0
4000687c:	40 00 07 67 	call  40008618 <_Bfree>
40006880:	c4 27 bf e8 	st  %g2, [ %fp + -24 ]
40006884:	10 bf fe d0 	b  400063c4 <_dtoa_r+0x9f8>
40006888:	c4 07 bf e8 	ld  [ %fp + -24 ], %g2
4000688c:	40 00 07 7b 	call  40008678 <__multadd>
40006890:	ac 10 00 13 	mov  %l3, %l6
40006894:	b2 10 00 08 	mov  %o0, %i1
40006898:	10 bf fe ad 	b  4000634c <_dtoa_r+0x980>
4000689c:	a4 10 00 08 	mov  %o0, %l2
400068a0:	82 10 20 01 	mov  1, %g1
400068a4:	10 bf fc ed 	b  40005c58 <_dtoa_r+0x28c>
400068a8:	c2 27 bf f0 	st  %g1, [ %fp + -16 ]
400068ac:	c2 07 bf ec 	ld  [ %fp + -20 ], %g1
400068b0:	80 a0 60 00 	cmp  %g1, 0
400068b4:	12 bf fe 05 	bne  400060c8 <_dtoa_r+0x6fc>
400068b8:	80 a5 a0 00 	cmp  %l6, 0
400068bc:	c2 07 bf e8 	ld  [ %fp + -24 ], %g1
400068c0:	05 3f fc 00 	sethi  %hi(0xfff00000), %g2
400068c4:	80 a8 40 02 	andncc  %g1, %g2, %g0
400068c8:	12 bf fe 00 	bne  400060c8 <_dtoa_r+0x6fc>
400068cc:	80 a5 a0 00 	cmp  %l6, 0
400068d0:	10 bf ff cb 	b  400067fc <_dtoa_r+0xe30>
400068d4:	05 1f fc 00 	sethi  %hi(0x7ff00000), %g2
400068d8:	22 bf fd a0 	be,a   40005f58 <_dtoa_r+0x58c>
400068dc:	c4 27 bf e0 	st  %g2, [ %fp + -32 ]
400068e0:	d2 07 bf d4 	ld  [ %fp + -44 ], %o1
400068e4:	80 a2 60 00 	cmp  %o1, 0
400068e8:	04 bf fd b4 	ble  40005fb8 <_dtoa_r+0x5ec>
400068ec:	82 00 a0 01 	add  %g2, 1, %g1
400068f0:	c2 27 bf e0 	st  %g1, [ %fp + -32 ]
400068f4:	03 10 00 3b 	sethi  %hi(0x4000ec00), %g1
400068f8:	dd 18 61 f8 	ldd  [ %g1 + 0x1f8 ], %f14	! 4000edf8 <blanks.1+0x58>
400068fc:	03 10 00 3b 	sethi  %hi(0x4000ec00), %g1
40006900:	d9 07 bf e0 	ld  [ %fp + -32 ], %f12
40006904:	91 a2 09 4e 	fmuld  %f8, %f14, %f8
40006908:	99 a0 19 0c 	fitod  %f12, %f12
4000690c:	dd 18 62 00 	ldd  [ %g1 + 0x200 ], %f14
40006910:	99 a3 09 48 	fmuld  %f12, %f8, %f12
40006914:	03 3f 30 00 	sethi  %hi(0xfcc00000), %g1
40006918:	99 a3 08 4e 	faddd  %f12, %f14, %f12
4000691c:	9e 05 3f ff 	add  %l4, -1, %o7
40006920:	d9 3f bf e0 	std  %f12, [ %fp + -32 ]
40006924:	d4 1f bf e0 	ldd  [ %fp + -32 ], %o2
40006928:	86 10 00 0b 	mov  %o3, %g3
4000692c:	10 bf fd 20 	b  40005dac <_dtoa_r+0x3e0>
40006930:	84 02 80 01 	add  %o2, %g1, %g2
40006934:	22 80 00 53 	be,a   40006a80 <_dtoa_r+0x10b4>
40006938:	c4 07 bf f8 	ld  [ %fp + -8 ], %g2
4000693c:	82 00 64 33 	add  %g1, 0x433, %g1
40006940:	a4 10 00 13 	mov  %l3, %l2
40006944:	ae 05 c0 01 	add  %l7, %g1, %l7
40006948:	84 10 00 10 	mov  %l0, %g2
4000694c:	10 bf fd ba 	b  40006034 <_dtoa_r+0x668>
40006950:	a6 04 c0 01 	add  %l3, %g1, %l3
40006954:	92 10 00 1a 	mov  %i2, %o1
40006958:	94 10 00 10 	mov  %l0, %o2
4000695c:	40 00 08 ee 	call  40008d14 <__pow5mult>
40006960:	90 10 00 18 	mov  %i0, %o0
40006964:	10 bf fd cf 	b  400060a0 <_dtoa_r+0x6d4>
40006968:	b4 10 00 08 	mov  %o0, %i2
4000696c:	a0 10 20 00 	clr  %l0
40006970:	10 bf ff 91 	b  400067b4 <_dtoa_r+0xde8>
40006974:	b2 10 20 00 	clr  %i1
40006978:	05 10 00 3b 	sethi  %hi(0x4000ec00), %g2
4000697c:	aa 10 3f ff 	mov  -1, %l5
40006980:	84 10 a2 d0 	or  %g2, 0x2d0, %g2
40006984:	dd 18 80 01 	ldd  [ %g2 + %g1 ], %f14
40006988:	99 a2 89 ce 	fdivd  %f10, %f14, %f12
4000698c:	99 a0 1a 4c 	fdtoi  %f12, %f12
40006990:	d9 27 bf f0 	st  %f12, [ %fp + -16 ]
40006994:	c2 07 bf f0 	ld  [ %fp + -16 ], %g1
40006998:	82 00 60 30 	add  %g1, 0x30, %g1
4000699c:	c2 2c 40 00 	stb  %g1, [ %l1 ]
400069a0:	91 a0 19 0c 	fitod  %f12, %f8
400069a4:	84 04 60 01 	add  %l1, 1, %g2
400069a8:	91 a2 09 4e 	fmuld  %f8, %f14, %f8
400069ac:	86 10 20 01 	mov  1, %g3
400069b0:	80 a5 60 01 	cmp  %l5, 1
400069b4:	02 80 00 6b 	be  40006b60 <_dtoa_r+0x1194>
400069b8:	95 a2 88 c8 	fsubd  %f10, %f8, %f10
400069bc:	03 10 00 3b 	sethi  %hi(0x4000ec00), %g1
400069c0:	c0 27 bf f0 	clr  [ %fp + -16 ]
400069c4:	c0 27 bf f4 	clr  [ %fp + -12 ]
400069c8:	e5 18 61 f8 	ldd  [ %g1 + 0x1f8 ], %f18
400069cc:	10 80 00 0e 	b  40006a04 <_dtoa_r+0x1038>
400069d0:	e1 1f bf f0 	ldd  [ %fp + -16 ], %f16
400069d4:	84 00 a0 01 	inc  %g2
400069d8:	99 a0 1a 4c 	fdtoi  %f12, %f12
400069dc:	d9 27 bf f0 	st  %f12, [ %fp + -16 ]
400069e0:	c2 07 bf f0 	ld  [ %fp + -16 ], %g1
400069e4:	82 00 60 30 	add  %g1, 0x30, %g1
400069e8:	c2 28 bf ff 	stb  %g1, [ %g2 + -1 ]
400069ec:	86 00 e0 01 	inc  %g3
400069f0:	91 a0 19 0c 	fitod  %f12, %f8
400069f4:	80 a0 c0 15 	cmp  %g3, %l5
400069f8:	91 a2 09 4e 	fmuld  %f8, %f14, %f8
400069fc:	02 80 00 59 	be  40006b60 <_dtoa_r+0x1194>
40006a00:	95 a2 88 c8 	fsubd  %f10, %f8, %f10
40006a04:	95 a2 89 52 	fmuld  %f10, %f18, %f10
40006a08:	81 aa 8a 50 	fcmpd  %f10, %f16
40006a0c:	01 00 00 00 	nop 
40006a10:	23 bf ff f1 	fbne,a   400069d4 <_dtoa_r+0x1008>
40006a14:	99 a2 89 ce 	fdivd  %f10, %f14, %f12
40006a18:	b6 10 00 11 	mov  %l1, %i3
40006a1c:	a8 05 20 01 	inc  %l4
40006a20:	10 bf fd e4 	b  400061b0 <_dtoa_r+0x7e4>
40006a24:	a2 10 00 02 	mov  %g2, %l1
40006a28:	b6 10 00 11 	mov  %l1, %i3
40006a2c:	10 bf fd e1 	b  400061b0 <_dtoa_r+0x7e4>
40006a30:	a2 10 00 13 	mov  %l3, %l1
40006a34:	12 80 00 06 	bne  40006a4c <_dtoa_r+0x1080>
40006a38:	a6 10 00 1c 	mov  %i4, %l3
40006a3c:	80 8d e0 01 	btst  1, %l7
40006a40:	32 bf ff 0d 	bne,a   40006674 <_dtoa_r+0xca8>
40006a44:	b8 07 3f ff 	add  %i4, -1, %i4
40006a48:	a6 10 00 1c 	mov  %i4, %l3
40006a4c:	b8 07 3f ff 	add  %i4, -1, %i4
40006a50:	c2 4f 00 00 	ldsb  [ %i4 ], %g1
40006a54:	80 a0 60 30 	cmp  %g1, 0x30
40006a58:	22 bf ff fd 	be,a   40006a4c <_dtoa_r+0x1080>
40006a5c:	a6 10 00 1c 	mov  %i4, %l3
40006a60:	10 bf ff 0c 	b  40006690 <_dtoa_r+0xcc4>
40006a64:	92 10 00 10 	mov  %l0, %o1
40006a68:	a8 05 20 01 	inc  %l4
40006a6c:	10 bf ff 08 	b  4000668c <_dtoa_r+0xcc0>
40006a70:	c2 2c 40 00 	stb  %g1, [ %l1 ]
40006a74:	a8 05 20 01 	inc  %l4
40006a78:	10 bf fd ce 	b  400061b0 <_dtoa_r+0x7e4>
40006a7c:	c2 28 c0 00 	stb  %g1, [ %g3 ]
40006a80:	a4 10 00 13 	mov  %l3, %l2
40006a84:	82 10 20 36 	mov  0x36, %g1
40006a88:	82 20 40 02 	sub  %g1, %g2, %g1
40006a8c:	84 10 00 10 	mov  %l0, %g2
40006a90:	ae 05 c0 01 	add  %l7, %g1, %l7
40006a94:	10 bf fd 68 	b  40006034 <_dtoa_r+0x668>
40006a98:	a6 04 c0 01 	add  %l3, %g1, %l3
40006a9c:	80 a0 a0 00 	cmp  %g2, 0
40006aa0:	04 80 00 0f 	ble  40006adc <_dtoa_r+0x1110>
40006aa4:	92 10 00 1a 	mov  %i2, %o1
40006aa8:	94 10 20 01 	mov  1, %o2
40006aac:	40 00 08 fd 	call  40008ea0 <__lshift>
40006ab0:	90 10 00 18 	mov  %i0, %o0
40006ab4:	92 10 00 10 	mov  %l0, %o1
40006ab8:	40 00 09 6b 	call  40009064 <__mcmp>
40006abc:	b4 10 00 08 	mov  %o0, %i2
40006ac0:	80 a2 20 00 	cmp  %o0, 0
40006ac4:	04 80 00 5a 	ble  40006c2c <_dtoa_r+0x1260>
40006ac8:	01 00 00 00 	nop 
40006acc:	80 a5 e0 39 	cmp  %l7, 0x39
40006ad0:	22 80 00 08 	be,a   40006af0 <_dtoa_r+0x1124>
40006ad4:	b6 10 00 19 	mov  %i1, %i3
40006ad8:	ae 05 60 31 	add  %l5, 0x31, %l7
40006adc:	b6 10 00 19 	mov  %i1, %i3
40006ae0:	ee 2d 80 00 	stb  %l7, [ %l6 ]
40006ae4:	10 bf fe ea 	b  4000668c <_dtoa_r+0xcc0>
40006ae8:	b2 10 00 12 	mov  %l2, %i1
40006aec:	b6 10 00 19 	mov  %i1, %i3
40006af0:	82 10 20 39 	mov  0x39, %g1
40006af4:	b8 10 00 13 	mov  %l3, %i4
40006af8:	c2 2d 80 00 	stb  %g1, [ %l6 ]
40006afc:	10 bf fe dc 	b  4000666c <_dtoa_r+0xca0>
40006b00:	b2 10 00 12 	mov  %l2, %i1
40006b04:	b6 10 00 11 	mov  %l1, %i3
40006b08:	a8 03 e0 01 	add  %o7, 1, %l4
40006b0c:	10 bf fd a9 	b  400061b0 <_dtoa_r+0x7e4>
40006b10:	a2 10 00 0b 	mov  %o3, %l1
40006b14:	a8 03 e0 01 	add  %o7, 1, %l4
40006b18:	10 bf fc e3 	b  40005ea4 <_dtoa_r+0x4d8>
40006b1c:	a2 10 00 02 	mov  %g2, %l1
40006b20:	d2 06 60 04 	ld  [ %i1 + 4 ], %o1
40006b24:	40 00 06 89 	call  40008548 <_Balloc>
40006b28:	90 10 00 18 	mov  %i0, %o0
40006b2c:	d4 06 60 10 	ld  [ %i1 + 0x10 ], %o2
40006b30:	b8 10 00 08 	mov  %o0, %i4
40006b34:	92 06 60 0c 	add  %i1, 0xc, %o1
40006b38:	94 02 a0 02 	add  %o2, 2, %o2
40006b3c:	90 02 20 0c 	add  %o0, 0xc, %o0
40006b40:	7f ff ed c2 	call  40002248 <memcpy>
40006b44:	95 2a a0 02 	sll  %o2, 2, %o2
40006b48:	94 10 20 01 	mov  1, %o2
40006b4c:	92 10 00 1c 	mov  %i4, %o1
40006b50:	40 00 08 d4 	call  40008ea0 <__lshift>
40006b54:	90 10 00 18 	mov  %i0, %o0
40006b58:	10 bf fd f6 	b  40006330 <_dtoa_r+0x964>
40006b5c:	a4 10 00 08 	mov  %o0, %l2
40006b60:	95 a2 88 4a 	faddd  %f10, %f10, %f10
40006b64:	81 aa 8a ce 	fcmped  %f10, %f14
40006b68:	01 00 00 00 	nop 
40006b6c:	0d 80 00 1a 	fbg  40006bd4 <_dtoa_r+0x1208>
40006b70:	a8 05 20 01 	inc  %l4
40006b74:	81 aa 8a 4e 	fcmpd  %f10, %f14
40006b78:	01 00 00 00 	nop 
40006b7c:	03 80 00 34 	fbne  40006c4c <_dtoa_r+0x1280>
40006b80:	b6 10 00 11 	mov  %l1, %i3
40006b84:	d9 27 bf f0 	st  %f12, [ %fp + -16 ]
40006b88:	c6 07 bf f0 	ld  [ %fp + -16 ], %g3
40006b8c:	80 88 e0 01 	btst  1, %g3
40006b90:	12 bf fc c5 	bne  40005ea4 <_dtoa_r+0x4d8>
40006b94:	a2 10 00 02 	mov  %g2, %l1
40006b98:	10 bf fd 87 	b  400061b4 <_dtoa_r+0x7e8>
40006b9c:	92 10 00 1a 	mov  %i2, %o1
40006ba0:	02 bf ff d3 	be  40006aec <_dtoa_r+0x1120>
40006ba4:	82 05 e0 01 	add  %l7, 1, %g1
40006ba8:	b6 10 00 19 	mov  %i1, %i3
40006bac:	c2 2d 80 00 	stb  %g1, [ %l6 ]
40006bb0:	10 bf fe b7 	b  4000668c <_dtoa_r+0xcc0>
40006bb4:	b2 10 00 12 	mov  %l2, %i1
40006bb8:	b6 10 00 19 	mov  %i1, %i3
40006bbc:	b8 10 00 13 	mov  %l3, %i4
40006bc0:	10 bf fe 9d 	b  40006634 <_dtoa_r+0xc68>
40006bc4:	b2 10 00 12 	mov  %l2, %i1
40006bc8:	a8 10 00 17 	mov  %l7, %l4
40006bcc:	10 bf fd 6b 	b  40006178 <_dtoa_r+0x7ac>
40006bd0:	ea 07 bf d4 	ld  [ %fp + -44 ], %l5
40006bd4:	b6 10 00 11 	mov  %l1, %i3
40006bd8:	10 bf fc b3 	b  40005ea4 <_dtoa_r+0x4d8>
40006bdc:	a2 10 00 02 	mov  %g2, %l1
40006be0:	02 bf ff c3 	be  40006aec <_dtoa_r+0x1120>
40006be4:	a6 05 a0 01 	add  %l6, 1, %l3
40006be8:	80 a7 20 00 	cmp  %i4, 0
40006bec:	34 bf ff bc 	bg,a   40006adc <_dtoa_r+0x1110>
40006bf0:	ae 05 60 31 	add  %l5, 0x31, %l7
40006bf4:	10 bf ff bb 	b  40006ae0 <_dtoa_r+0x1114>
40006bf8:	b6 10 00 19 	mov  %i1, %i3
40006bfc:	92 10 00 19 	mov  %i1, %o1
40006c00:	96 10 20 00 	clr  %o3
40006c04:	94 10 20 0a 	mov  0xa, %o2
40006c08:	40 00 06 9c 	call  40008678 <__multadd>
40006c0c:	90 10 00 18 	mov  %i0, %o0
40006c10:	80 a5 60 00 	cmp  %l5, 0
40006c14:	12 bf ff ed 	bne  40006bc8 <_dtoa_r+0x11fc>
40006c18:	b2 10 00 08 	mov  %o0, %i1
40006c1c:	10 bf fd b9 	b  40006300 <_dtoa_r+0x934>
40006c20:	ea 07 bf d4 	ld  [ %fp + -44 ], %l5
40006c24:	10 bf fe c1 	b  40006728 <_dtoa_r+0xd5c>
40006c28:	84 10 00 0b 	mov  %o3, %g2
40006c2c:	12 bf ff ac 	bne  40006adc <_dtoa_r+0x1110>
40006c30:	80 8d e0 01 	btst  1, %l7
40006c34:	12 bf ff a7 	bne  40006ad0 <_dtoa_r+0x1104>
40006c38:	80 a5 e0 39 	cmp  %l7, 0x39
40006c3c:	10 bf ff a9 	b  40006ae0 <_dtoa_r+0x1114>
40006c40:	b6 10 00 19 	mov  %i1, %i3
40006c44:	10 bf fc 40 	b  40005d44 <_dtoa_r+0x378>
40006c48:	84 10 20 02 	mov  2, %g2
40006c4c:	10 bf fd 59 	b  400061b0 <_dtoa_r+0x7e4>
40006c50:	a2 10 00 02 	mov  %g2, %l1
40006c54:	02 bf fd 2c 	be  40006104 <_dtoa_r+0x738>
40006c58:	84 10 20 3c 	mov  0x3c, %g2
40006c5c:	10 bf fd 9e 	b  400062d4 <_dtoa_r+0x908>
40006c60:	82 20 80 01 	sub  %g2, %g1, %g1
40006c64:	b6 10 00 11 	mov  %l1, %i3
40006c68:	10 bf fd 4f 	b  400061a4 <_dtoa_r+0x7d8>
40006c6c:	a2 10 00 13 	mov  %l3, %l1
40006c70:	10 bf fc 0e 	b  40005ca8 <_dtoa_r+0x2dc>
40006c74:	92 10 20 00 	clr  %o1
40006c78:	d5 3f bf f0 	std  %f10, [ %fp + -16 ]
40006c7c:	92 10 20 00 	clr  %o1
40006c80:	40 00 06 32 	call  40008548 <_Balloc>
40006c84:	90 10 00 18 	mov  %i0, %o0
40006c88:	d0 24 40 00 	st  %o0, [ %l1 ]
40006c8c:	c4 06 20 24 	ld  [ %i0 + 0x24 ], %g2
40006c90:	c2 07 bf fc 	ld  [ %fp + -4 ], %g1
40006c94:	80 a0 60 00 	cmp  %g1, 0
40006c98:	06 80 00 0a 	bl  40006cc0 <_dtoa_r+0x12f4>
40006c9c:	e2 00 80 00 	ld  [ %g2 ], %l1
40006ca0:	84 10 20 01 	mov  1, %g2
40006ca4:	80 a5 20 0e 	cmp  %l4, 0xe
40006ca8:	04 80 00 03 	ble  40006cb4 <_dtoa_r+0x12e8>
40006cac:	d5 1f bf f0 	ldd  [ %fp + -16 ], %f10
40006cb0:	84 10 20 00 	clr  %g2
40006cb4:	80 88 a0 ff 	btst  0xff, %g2
40006cb8:	32 bf ff 30 	bne,a   40006978 <_dtoa_r+0xfac>
40006cbc:	83 2d 20 03 	sll  %l4, 3, %g1
40006cc0:	84 10 3f ff 	mov  -1, %g2
40006cc4:	b8 10 20 00 	clr  %i4
40006cc8:	c4 27 bf d4 	st  %g2, [ %fp + -44 ]
40006ccc:	aa 10 3f ff 	mov  -1, %l5
40006cd0:	84 10 20 01 	mov  1, %g2
40006cd4:	10 bf fc c7 	b  40005ff0 <_dtoa_r+0x624>
40006cd8:	c4 27 bf f0 	st  %g2, [ %fp + -16 ]

40006cdc <__sflush_r>:
40006cdc:	9d e3 bf a0 	save  %sp, -96, %sp
40006ce0:	c2 16 60 0c 	lduh  [ %i1 + 0xc ], %g1
40006ce4:	80 88 60 08 	btst  8, %g1
40006ce8:	32 80 00 4c 	bne,a   40006e18 <__sflush_r+0x13c>
40006cec:	f8 06 60 10 	ld  [ %i1 + 0x10 ], %i4
40006cf0:	82 10 68 00 	or  %g1, 0x800, %g1
40006cf4:	c2 36 60 0c 	sth  %g1, [ %i1 + 0xc ]
40006cf8:	c4 06 60 04 	ld  [ %i1 + 4 ], %g2
40006cfc:	80 a0 a0 00 	cmp  %g2, 0
40006d00:	24 80 00 66 	ble,a   40006e98 <__sflush_r+0x1bc>
40006d04:	c4 06 60 40 	ld  [ %i1 + 0x40 ], %g2
40006d08:	c4 06 60 2c 	ld  [ %i1 + 0x2c ], %g2
40006d0c:	80 a0 a0 00 	cmp  %g2, 0
40006d10:	02 80 00 3f 	be  40006e0c <__sflush_r+0x130>
40006d14:	09 00 00 04 	sethi  %hi(0x1000), %g4
40006d18:	fa 06 00 00 	ld  [ %i0 ], %i5
40006d1c:	c0 26 00 00 	clr  [ %i0 ]
40006d20:	86 10 00 01 	mov  %g1, %g3
40006d24:	80 88 40 04 	btst  %g1, %g4
40006d28:	12 80 00 61 	bne  40006eac <__sflush_r+0x1d0>
40006d2c:	d2 06 60 20 	ld  [ %i1 + 0x20 ], %o1
40006d30:	94 10 20 00 	clr  %o2
40006d34:	96 10 20 01 	mov  1, %o3
40006d38:	9f c0 80 00 	call  %g2
40006d3c:	90 10 00 18 	mov  %i0, %o0
40006d40:	80 a2 3f ff 	cmp  %o0, -1
40006d44:	02 80 00 67 	be  40006ee0 <__sflush_r+0x204>
40006d48:	94 10 00 08 	mov  %o0, %o2
40006d4c:	c6 16 60 0c 	lduh  [ %i1 + 0xc ], %g3
40006d50:	c4 06 60 2c 	ld  [ %i1 + 0x2c ], %g2
40006d54:	d2 06 60 20 	ld  [ %i1 + 0x20 ], %o1
40006d58:	80 88 e0 04 	btst  4, %g3
40006d5c:	02 80 00 0a 	be  40006d84 <__sflush_r+0xa8>
40006d60:	96 10 20 00 	clr  %o3
40006d64:	c6 06 60 04 	ld  [ %i1 + 4 ], %g3
40006d68:	c2 06 60 34 	ld  [ %i1 + 0x34 ], %g1
40006d6c:	80 a0 60 00 	cmp  %g1, 0
40006d70:	02 80 00 05 	be  40006d84 <__sflush_r+0xa8>
40006d74:	94 22 80 03 	sub  %o2, %g3, %o2
40006d78:	c2 06 60 40 	ld  [ %i1 + 0x40 ], %g1
40006d7c:	94 22 80 01 	sub  %o2, %g1, %o2
40006d80:	96 10 20 00 	clr  %o3
40006d84:	9f c0 80 00 	call  %g2
40006d88:	90 10 00 18 	mov  %i0, %o0
40006d8c:	80 a2 3f ff 	cmp  %o0, -1
40006d90:	12 80 00 49 	bne  40006eb4 <__sflush_r+0x1d8>
40006d94:	94 10 00 08 	mov  %o0, %o2
40006d98:	c6 06 00 00 	ld  [ %i0 ], %g3
40006d9c:	80 a0 e0 1d 	cmp  %g3, 0x1d
40006da0:	18 80 00 3a 	bgu  40006e88 <__sflush_r+0x1ac>
40006da4:	c2 16 60 0c 	lduh  [ %i1 + 0xc ], %g1
40006da8:	05 08 10 00 	sethi  %hi(0x20400000), %g2
40006dac:	84 10 a0 01 	or  %g2, 1, %g2	! 20400001 <__data_size+0x203ff9f1>
40006db0:	85 30 80 03 	srl  %g2, %g3, %g2
40006db4:	80 88 a0 01 	btst  1, %g2
40006db8:	22 80 00 35 	be,a   40006e8c <__sflush_r+0x1b0>
40006dbc:	82 10 60 40 	or  %g1, 0x40, %g1
40006dc0:	82 08 77 ff 	and  %g1, -2049, %g1
40006dc4:	c4 06 60 10 	ld  [ %i1 + 0x10 ], %g2
40006dc8:	c2 36 60 0c 	sth  %g1, [ %i1 + 0xc ]
40006dcc:	c4 26 40 00 	st  %g2, [ %i1 ]
40006dd0:	05 00 00 04 	sethi  %hi(0x1000), %g2
40006dd4:	80 88 40 02 	btst  %g1, %g2
40006dd8:	12 80 00 4f 	bne  40006f14 <__sflush_r+0x238>
40006ddc:	c0 26 60 04 	clr  [ %i1 + 4 ]
40006de0:	fa 26 00 00 	st  %i5, [ %i0 ]
40006de4:	d2 06 60 34 	ld  [ %i1 + 0x34 ], %o1
40006de8:	80 a2 60 00 	cmp  %o1, 0
40006dec:	02 80 00 08 	be  40006e0c <__sflush_r+0x130>
40006df0:	82 06 60 44 	add  %i1, 0x44, %g1
40006df4:	80 a2 40 01 	cmp  %o1, %g1
40006df8:	22 80 00 05 	be,a   40006e0c <__sflush_r+0x130>
40006dfc:	c0 26 60 34 	clr  [ %i1 + 0x34 ]
40006e00:	40 00 01 b9 	call  400074e4 <_free_r>
40006e04:	90 10 00 18 	mov  %i0, %o0
40006e08:	c0 26 60 34 	clr  [ %i1 + 0x34 ]
40006e0c:	94 10 20 00 	clr  %o2
40006e10:	81 c7 e0 08 	ret 
40006e14:	91 e8 00 0a 	restore  %g0, %o2, %o0
40006e18:	80 a7 20 00 	cmp  %i4, 0
40006e1c:	02 bf ff fc 	be  40006e0c <__sflush_r+0x130>
40006e20:	80 88 60 03 	btst  3, %g1
40006e24:	fa 06 40 00 	ld  [ %i1 ], %i5
40006e28:	f8 26 40 00 	st  %i4, [ %i1 ]
40006e2c:	ba 27 40 1c 	sub  %i5, %i4, %i5
40006e30:	12 80 00 03 	bne  40006e3c <__sflush_r+0x160>
40006e34:	84 10 20 00 	clr  %g2
40006e38:	c4 06 60 14 	ld  [ %i1 + 0x14 ], %g2
40006e3c:	80 a7 60 00 	cmp  %i5, 0
40006e40:	14 80 00 07 	bg  40006e5c <__sflush_r+0x180>
40006e44:	c4 26 60 08 	st  %g2, [ %i1 + 8 ]
40006e48:	10 bf ff f2 	b  40006e10 <__sflush_r+0x134>
40006e4c:	94 10 20 00 	clr  %o2
40006e50:	80 a7 60 00 	cmp  %i5, 0
40006e54:	04 bf ff ee 	ble  40006e0c <__sflush_r+0x130>
40006e58:	b8 07 00 08 	add  %i4, %o0, %i4
40006e5c:	96 10 00 1d 	mov  %i5, %o3
40006e60:	94 10 00 1c 	mov  %i4, %o2
40006e64:	c2 06 60 28 	ld  [ %i1 + 0x28 ], %g1
40006e68:	d2 06 60 20 	ld  [ %i1 + 0x20 ], %o1
40006e6c:	9f c0 40 00 	call  %g1
40006e70:	90 10 00 18 	mov  %i0, %o0
40006e74:	80 a2 20 00 	cmp  %o0, 0
40006e78:	34 bf ff f6 	bg,a   40006e50 <__sflush_r+0x174>
40006e7c:	ba 27 40 08 	sub  %i5, %o0, %i5
40006e80:	c2 16 60 0c 	lduh  [ %i1 + 0xc ], %g1
40006e84:	94 10 3f ff 	mov  -1, %o2
40006e88:	82 10 60 40 	or  %g1, 0x40, %g1
40006e8c:	c2 36 60 0c 	sth  %g1, [ %i1 + 0xc ]
40006e90:	81 c7 e0 08 	ret 
40006e94:	91 e8 00 0a 	restore  %g0, %o2, %o0
40006e98:	80 a0 a0 00 	cmp  %g2, 0
40006e9c:	34 bf ff 9c 	bg,a   40006d0c <__sflush_r+0x30>
40006ea0:	c4 06 60 2c 	ld  [ %i1 + 0x2c ], %g2
40006ea4:	10 bf ff db 	b  40006e10 <__sflush_r+0x134>
40006ea8:	94 10 20 00 	clr  %o2
40006eac:	10 bf ff ab 	b  40006d58 <__sflush_r+0x7c>
40006eb0:	d4 06 60 54 	ld  [ %i1 + 0x54 ], %o2
40006eb4:	c2 16 60 0c 	lduh  [ %i1 + 0xc ], %g1
40006eb8:	c4 06 60 10 	ld  [ %i1 + 0x10 ], %g2
40006ebc:	82 08 77 ff 	and  %g1, -2049, %g1
40006ec0:	c4 26 40 00 	st  %g2, [ %i1 ]
40006ec4:	c0 26 60 04 	clr  [ %i1 + 4 ]
40006ec8:	05 00 00 04 	sethi  %hi(0x1000), %g2
40006ecc:	80 88 40 02 	btst  %g1, %g2
40006ed0:	02 bf ff c4 	be  40006de0 <__sflush_r+0x104>
40006ed4:	c2 36 60 0c 	sth  %g1, [ %i1 + 0xc ]
40006ed8:	10 bf ff c2 	b  40006de0 <__sflush_r+0x104>
40006edc:	d4 26 60 54 	st  %o2, [ %i1 + 0x54 ]
40006ee0:	c2 06 00 00 	ld  [ %i0 ], %g1
40006ee4:	80 a0 60 00 	cmp  %g1, 0
40006ee8:	22 bf ff 9a 	be,a   40006d50 <__sflush_r+0x74>
40006eec:	c6 16 60 0c 	lduh  [ %i1 + 0xc ], %g3
40006ef0:	80 a0 60 1d 	cmp  %g1, 0x1d
40006ef4:	02 80 00 0d 	be  40006f28 <__sflush_r+0x24c>
40006ef8:	80 a0 60 16 	cmp  %g1, 0x16
40006efc:	22 80 00 0c 	be,a   40006f2c <__sflush_r+0x250>
40006f00:	fa 26 00 00 	st  %i5, [ %i0 ]
40006f04:	c2 16 60 0c 	lduh  [ %i1 + 0xc ], %g1
40006f08:	82 10 60 40 	or  %g1, 0x40, %g1
40006f0c:	10 bf ff c1 	b  40006e10 <__sflush_r+0x134>
40006f10:	c2 36 60 0c 	sth  %g1, [ %i1 + 0xc ]
40006f14:	80 a0 e0 00 	cmp  %g3, 0
40006f18:	22 bf ff b2 	be,a   40006de0 <__sflush_r+0x104>
40006f1c:	d4 26 60 54 	st  %o2, [ %i1 + 0x54 ]
40006f20:	10 bf ff b1 	b  40006de4 <__sflush_r+0x108>
40006f24:	fa 26 00 00 	st  %i5, [ %i0 ]
40006f28:	fa 26 00 00 	st  %i5, [ %i0 ]
40006f2c:	10 bf ff b9 	b  40006e10 <__sflush_r+0x134>
40006f30:	94 10 20 00 	clr  %o2

40006f34 <_fflush_r>:
40006f34:	9d e3 bf a0 	save  %sp, -96, %sp
40006f38:	c2 06 60 10 	ld  [ %i1 + 0x10 ], %g1
40006f3c:	80 a0 60 00 	cmp  %g1, 0
40006f40:	02 80 00 1b 	be  40006fac <_fflush_r+0x78>
40006f44:	80 a6 20 00 	cmp  %i0, 0
40006f48:	02 80 00 07 	be  40006f64 <_fflush_r+0x30>
40006f4c:	03 10 00 3b 	sethi  %hi(0x4000ec00), %g1
40006f50:	c2 06 20 18 	ld  [ %i0 + 0x18 ], %g1
40006f54:	80 a0 60 00 	cmp  %g1, 0
40006f58:	02 80 00 19 	be  40006fbc <_fflush_r+0x88>
40006f5c:	01 00 00 00 	nop 
40006f60:	03 10 00 3b 	sethi  %hi(0x4000ec00), %g1
40006f64:	82 10 62 50 	or  %g1, 0x250, %g1	! 4000ee50 <__sf_fake_stdin>
40006f68:	80 a6 40 01 	cmp  %i1, %g1
40006f6c:	02 80 00 12 	be  40006fb4 <_fflush_r+0x80>
40006f70:	03 10 00 3b 	sethi  %hi(0x4000ec00), %g1
40006f74:	82 10 62 30 	or  %g1, 0x230, %g1	! 4000ee30 <__sf_fake_stdout>
40006f78:	80 a6 40 01 	cmp  %i1, %g1
40006f7c:	02 80 00 14 	be  40006fcc <_fflush_r+0x98>
40006f80:	03 10 00 3b 	sethi  %hi(0x4000ec00), %g1
40006f84:	82 10 62 10 	or  %g1, 0x210, %g1	! 4000ee10 <__sf_fake_stderr>
40006f88:	80 a6 40 01 	cmp  %i1, %g1
40006f8c:	22 80 00 02 	be,a   40006f94 <_fflush_r+0x60>
40006f90:	f2 06 20 0c 	ld  [ %i0 + 0xc ], %i1
40006f94:	c2 56 60 0c 	ldsh  [ %i1 + 0xc ], %g1
40006f98:	80 a0 60 00 	cmp  %g1, 0
40006f9c:	02 80 00 04 	be  40006fac <_fflush_r+0x78>
40006fa0:	01 00 00 00 	nop 
40006fa4:	7f ff ff 4e 	call  40006cdc <__sflush_r>
40006fa8:	81 e8 00 00 	restore 
40006fac:	81 c7 e0 08 	ret 
40006fb0:	91 e8 20 00 	restore  %g0, 0, %o0
40006fb4:	10 bf ff f8 	b  40006f94 <_fflush_r+0x60>
40006fb8:	f2 06 20 04 	ld  [ %i0 + 4 ], %i1
40006fbc:	40 00 01 05 	call  400073d0 <__sinit>
40006fc0:	90 10 00 18 	mov  %i0, %o0
40006fc4:	10 bf ff e8 	b  40006f64 <_fflush_r+0x30>
40006fc8:	03 10 00 3b 	sethi  %hi(0x4000ec00), %g1
40006fcc:	10 bf ff f2 	b  40006f94 <_fflush_r+0x60>
40006fd0:	f2 06 20 08 	ld  [ %i0 + 8 ], %i1

40006fd4 <fflush>:
40006fd4:	9d e3 bf a0 	save  %sp, -96, %sp
40006fd8:	80 a6 20 00 	cmp  %i0, 0
40006fdc:	02 80 00 30 	be  4000709c <fflush+0xc8>
40006fe0:	03 10 00 3b 	sethi  %hi(0x4000ec00), %g1
40006fe4:	c2 06 20 10 	ld  [ %i0 + 0x10 ], %g1
40006fe8:	80 a0 60 00 	cmp  %g1, 0
40006fec:	02 80 00 21 	be  40007070 <fflush+0x9c>
40006ff0:	03 10 00 3c 	sethi  %hi(0x4000f000), %g1
40006ff4:	fa 00 63 8c 	ld  [ %g1 + 0x38c ], %i5	! 4000f38c <_impure_ptr>
40006ff8:	80 a7 60 00 	cmp  %i5, 0
40006ffc:	02 80 00 06 	be  40007014 <fflush+0x40>
40007000:	03 10 00 3b 	sethi  %hi(0x4000ec00), %g1
40007004:	c2 07 60 18 	ld  [ %i5 + 0x18 ], %g1
40007008:	80 a0 60 00 	cmp  %g1, 0
4000700c:	02 80 00 1b 	be  40007078 <fflush+0xa4>
40007010:	03 10 00 3b 	sethi  %hi(0x4000ec00), %g1
40007014:	82 10 62 50 	or  %g1, 0x250, %g1	! 4000ee50 <__sf_fake_stdin>
40007018:	80 a6 00 01 	cmp  %i0, %g1
4000701c:	22 80 00 11 	be,a   40007060 <fflush+0x8c>
40007020:	f0 07 60 04 	ld  [ %i5 + 4 ], %i0
40007024:	03 10 00 3b 	sethi  %hi(0x4000ec00), %g1
40007028:	82 10 62 30 	or  %g1, 0x230, %g1	! 4000ee30 <__sf_fake_stdout>
4000702c:	80 a6 00 01 	cmp  %i0, %g1
40007030:	02 80 00 1f 	be  400070ac <fflush+0xd8>
40007034:	03 10 00 3b 	sethi  %hi(0x4000ec00), %g1
40007038:	82 10 62 10 	or  %g1, 0x210, %g1	! 4000ee10 <__sf_fake_stderr>
4000703c:	80 a6 00 01 	cmp  %i0, %g1
40007040:	22 80 00 02 	be,a   40007048 <fflush+0x74>
40007044:	f0 07 60 0c 	ld  [ %i5 + 0xc ], %i0
40007048:	c2 56 20 0c 	ldsh  [ %i0 + 0xc ], %g1
4000704c:	80 a0 60 00 	cmp  %g1, 0
40007050:	02 80 00 08 	be  40007070 <fflush+0x9c>
40007054:	b2 10 00 18 	mov  %i0, %i1
40007058:	7f ff ff 21 	call  40006cdc <__sflush_r>
4000705c:	91 e8 00 1d 	restore  %g0, %i5, %o0
40007060:	c2 56 20 0c 	ldsh  [ %i0 + 0xc ], %g1
40007064:	80 a0 60 00 	cmp  %g1, 0
40007068:	12 bf ff fc 	bne  40007058 <fflush+0x84>
4000706c:	b2 10 00 18 	mov  %i0, %i1
40007070:	81 c7 e0 08 	ret 
40007074:	91 e8 20 00 	restore  %g0, 0, %o0
40007078:	40 00 00 d6 	call  400073d0 <__sinit>
4000707c:	90 10 00 1d 	mov  %i5, %o0
40007080:	03 10 00 3b 	sethi  %hi(0x4000ec00), %g1
40007084:	82 10 62 50 	or  %g1, 0x250, %g1	! 4000ee50 <__sf_fake_stdin>
40007088:	80 a6 00 01 	cmp  %i0, %g1
4000708c:	12 bf ff e7 	bne  40007028 <fflush+0x54>
40007090:	03 10 00 3b 	sethi  %hi(0x4000ec00), %g1
40007094:	10 bf ff f3 	b  40007060 <fflush+0x8c>
40007098:	f0 07 60 04 	ld  [ %i5 + 4 ], %i0
4000709c:	33 10 00 1b 	sethi  %hi(0x40006c00), %i1
400070a0:	f0 00 61 04 	ld  [ %g1 + 0x104 ], %i0
400070a4:	40 00 01 ef 	call  40007860 <_fwalk_reent>
400070a8:	93 ee 63 34 	restore  %i1, 0x334, %o1
400070ac:	10 bf ff e7 	b  40007048 <fflush+0x74>
400070b0:	f0 07 60 08 	ld  [ %i5 + 8 ], %i0

400070b4 <_cleanup_r>:
400070b4:	13 10 00 30 	sethi  %hi(0x4000c000), %o1
400070b8:	92 12 60 0c 	or  %o1, 0xc, %o1	! 4000c00c <_fclose_r>
400070bc:	82 13 c0 00 	mov  %o7, %g1
400070c0:	40 00 01 e8 	call  40007860 <_fwalk_reent>
400070c4:	9e 10 40 00 	mov  %g1, %o7

400070c8 <__sfmoreglue>:
400070c8:	9d e3 bf a0 	save  %sp, -96, %sp
400070cc:	94 06 7f ff 	add  %i1, -1, %o2
400070d0:	90 10 00 18 	mov  %i0, %o0
400070d4:	bb 2a a0 01 	sll  %o2, 1, %i5
400070d8:	ba 07 40 0a 	add  %i5, %o2, %i5
400070dc:	bb 2f 60 03 	sll  %i5, 3, %i5
400070e0:	ba 07 40 0a 	add  %i5, %o2, %i5
400070e4:	bb 2f 60 02 	sll  %i5, 2, %i5
400070e8:	40 00 02 98 	call  40007b48 <_malloc_r>
400070ec:	92 07 60 70 	add  %i5, 0x70, %o1
400070f0:	b0 92 20 00 	orcc  %o0, 0, %i0
400070f4:	02 80 00 08 	be  40007114 <__sfmoreglue+0x4c>
400070f8:	90 06 20 0c 	add  %i0, 0xc, %o0
400070fc:	c0 26 00 00 	clr  [ %i0 ]
40007100:	f2 26 20 04 	st  %i1, [ %i0 + 4 ]
40007104:	d0 26 20 08 	st  %o0, [ %i0 + 8 ]
40007108:	94 07 60 64 	add  %i5, 0x64, %o2
4000710c:	40 00 04 c2 	call  40008414 <memset>
40007110:	92 10 20 00 	clr  %o1
40007114:	81 c7 e0 08 	ret 
40007118:	81 e8 00 00 	restore 

4000711c <__sfp>:
4000711c:	9d e3 bf a0 	save  %sp, -96, %sp
40007120:	03 10 00 3b 	sethi  %hi(0x4000ec00), %g1
40007124:	f8 00 61 04 	ld  [ %g1 + 0x104 ], %i4	! 4000ed04 <_global_impure_ptr>
40007128:	c2 07 20 18 	ld  [ %i4 + 0x18 ], %g1
4000712c:	80 a0 60 00 	cmp  %g1, 0
40007130:	02 80 00 2b 	be  400071dc <__sfp+0xc0>
40007134:	01 00 00 00 	nop 
40007138:	b8 07 20 48 	add  %i4, 0x48, %i4
4000713c:	b6 10 20 04 	mov  4, %i3
40007140:	c2 07 20 04 	ld  [ %i4 + 4 ], %g1
40007144:	82 80 7f ff 	addcc  %g1, -1, %g1
40007148:	1c 80 00 07 	bpos  40007164 <__sfp+0x48>
4000714c:	fa 07 20 08 	ld  [ %i4 + 8 ], %i5
40007150:	10 80 00 1e 	b  400071c8 <__sfp+0xac>
40007154:	fa 07 00 00 	ld  [ %i4 ], %i5
40007158:	80 a0 7f ff 	cmp  %g1, -1
4000715c:	02 80 00 1a 	be  400071c4 <__sfp+0xa8>
40007160:	ba 07 60 64 	add  %i5, 0x64, %i5
40007164:	c4 57 60 0c 	ldsh  [ %i5 + 0xc ], %g2
40007168:	80 a0 a0 00 	cmp  %g2, 0
4000716c:	12 bf ff fb 	bne  40007158 <__sfp+0x3c>
40007170:	82 00 7f ff 	add  %g1, -1, %g1
40007174:	03 00 00 7f 	sethi  %hi(0x1fc00), %g1
40007178:	82 10 63 ff 	or  %g1, 0x3ff, %g1	! 1ffff <__data_size+0x1f9ef>
4000717c:	c0 27 60 60 	clr  [ %i5 + 0x60 ]
40007180:	c0 27 40 00 	clr  [ %i5 ]
40007184:	c0 27 60 04 	clr  [ %i5 + 4 ]
40007188:	c0 27 60 08 	clr  [ %i5 + 8 ]
4000718c:	c0 27 60 10 	clr  [ %i5 + 0x10 ]
40007190:	c0 27 60 14 	clr  [ %i5 + 0x14 ]
40007194:	c2 27 60 0c 	st  %g1, [ %i5 + 0xc ]
40007198:	c0 27 60 18 	clr  [ %i5 + 0x18 ]
4000719c:	94 10 20 08 	mov  8, %o2
400071a0:	92 10 20 00 	clr  %o1
400071a4:	40 00 04 9c 	call  40008414 <memset>
400071a8:	90 07 60 58 	add  %i5, 0x58, %o0
400071ac:	c0 27 60 34 	clr  [ %i5 + 0x34 ]
400071b0:	c0 27 60 38 	clr  [ %i5 + 0x38 ]
400071b4:	c0 27 60 48 	clr  [ %i5 + 0x48 ]
400071b8:	c0 27 60 4c 	clr  [ %i5 + 0x4c ]
400071bc:	81 c7 e0 08 	ret 
400071c0:	91 e8 00 1d 	restore  %g0, %i5, %o0
400071c4:	fa 07 00 00 	ld  [ %i4 ], %i5
400071c8:	80 a7 60 00 	cmp  %i5, 0
400071cc:	02 80 00 08 	be  400071ec <__sfp+0xd0>
400071d0:	92 10 21 9c 	mov  0x19c, %o1
400071d4:	10 bf ff db 	b  40007140 <__sfp+0x24>
400071d8:	b8 10 00 1d 	mov  %i5, %i4
400071dc:	40 00 00 16 	call  40007234 <__sinit.part.0>
400071e0:	90 10 00 1c 	mov  %i4, %o0
400071e4:	10 bf ff d6 	b  4000713c <__sfp+0x20>
400071e8:	b8 07 20 48 	add  %i4, 0x48, %i4
400071ec:	40 00 02 57 	call  40007b48 <_malloc_r>
400071f0:	90 10 00 18 	mov  %i0, %o0
400071f4:	ba 92 20 00 	orcc  %o0, 0, %i5
400071f8:	02 80 00 0b 	be  40007224 <__sfp+0x108>
400071fc:	90 07 60 0c 	add  %i5, 0xc, %o0
40007200:	c0 27 40 00 	clr  [ %i5 ]
40007204:	f6 27 60 04 	st  %i3, [ %i5 + 4 ]
40007208:	d0 27 60 08 	st  %o0, [ %i5 + 8 ]
4000720c:	94 10 21 90 	mov  0x190, %o2
40007210:	40 00 04 81 	call  40008414 <memset>
40007214:	92 10 20 00 	clr  %o1
40007218:	fa 27 00 00 	st  %i5, [ %i4 ]
4000721c:	10 bf ff c9 	b  40007140 <__sfp+0x24>
40007220:	b8 10 00 1d 	mov  %i5, %i4
40007224:	c0 27 00 00 	clr  [ %i4 ]
40007228:	82 10 20 0c 	mov  0xc, %g1
4000722c:	10 bf ff e4 	b  400071bc <__sfp+0xa0>
40007230:	c2 26 00 00 	st  %g1, [ %i0 ]

40007234 <__sinit.part.0>:
40007234:	9d e3 bf a0 	save  %sp, -96, %sp
40007238:	03 10 00 1c 	sethi  %hi(0x40007000), %g1
4000723c:	c0 26 20 48 	clr  [ %i0 + 0x48 ]
40007240:	82 10 60 b4 	or  %g1, 0xb4, %g1
40007244:	c0 26 20 4c 	clr  [ %i0 + 0x4c ]
40007248:	c2 26 20 28 	st  %g1, [ %i0 + 0x28 ]
4000724c:	03 10 00 3b 	sethi  %hi(0x4000ec00), %g1
40007250:	c2 00 61 04 	ld  [ %g1 + 0x104 ], %g1	! 4000ed04 <_global_impure_ptr>
40007254:	80 a6 00 01 	cmp  %i0, %g1
40007258:	02 80 00 54 	be  400073a8 <__sinit.part.0+0x174>
4000725c:	c0 26 20 50 	clr  [ %i0 + 0x50 ]
40007260:	7f ff ff af 	call  4000711c <__sfp>
40007264:	90 10 00 18 	mov  %i0, %o0
40007268:	82 10 00 08 	mov  %o0, %g1
4000726c:	90 10 00 18 	mov  %i0, %o0
40007270:	7f ff ff ab 	call  4000711c <__sfp>
40007274:	c2 26 20 04 	st  %g1, [ %i0 + 4 ]
40007278:	82 10 00 08 	mov  %o0, %g1
4000727c:	90 10 00 18 	mov  %i0, %o0
40007280:	7f ff ff a7 	call  4000711c <__sfp>
40007284:	c2 26 20 08 	st  %g1, [ %i0 + 8 ]
40007288:	03 00 01 00 	sethi  %hi(0x40000), %g1
4000728c:	d0 26 20 0c 	st  %o0, [ %i0 + 0xc ]
40007290:	fa 06 20 04 	ld  [ %i0 + 4 ], %i5
40007294:	94 10 20 08 	mov  8, %o2
40007298:	c2 27 60 0c 	st  %g1, [ %i5 + 0xc ]
4000729c:	92 10 20 00 	clr  %o1
400072a0:	c0 27 60 60 	clr  [ %i5 + 0x60 ]
400072a4:	c0 27 40 00 	clr  [ %i5 ]
400072a8:	c0 27 60 04 	clr  [ %i5 + 4 ]
400072ac:	c0 27 60 08 	clr  [ %i5 + 8 ]
400072b0:	c0 27 60 10 	clr  [ %i5 + 0x10 ]
400072b4:	c0 27 60 14 	clr  [ %i5 + 0x14 ]
400072b8:	c0 27 60 18 	clr  [ %i5 + 0x18 ]
400072bc:	40 00 04 56 	call  40008414 <memset>
400072c0:	90 07 60 58 	add  %i5, 0x58, %o0
400072c4:	03 00 02 40 	sethi  %hi(0x90000), %g1
400072c8:	82 10 60 01 	or  %g1, 1, %g1	! 90001 <__data_size+0x8f9f1>
400072cc:	fa 27 60 20 	st  %i5, [ %i5 + 0x20 ]
400072d0:	94 10 20 08 	mov  8, %o2
400072d4:	92 10 20 00 	clr  %o1
400072d8:	33 10 00 27 	sethi  %hi(0x40009c00), %i1
400072dc:	35 10 00 27 	sethi  %hi(0x40009c00), %i2
400072e0:	b2 16 61 18 	or  %i1, 0x118, %i1
400072e4:	b4 16 a1 6c 	or  %i2, 0x16c, %i2
400072e8:	f2 27 60 24 	st  %i1, [ %i5 + 0x24 ]
400072ec:	f4 27 60 28 	st  %i2, [ %i5 + 0x28 ]
400072f0:	37 10 00 27 	sethi  %hi(0x40009c00), %i3
400072f4:	39 10 00 27 	sethi  %hi(0x40009c00), %i4
400072f8:	b6 16 e1 c8 	or  %i3, 0x1c8, %i3
400072fc:	b8 17 22 1c 	or  %i4, 0x21c, %i4
40007300:	f6 27 60 2c 	st  %i3, [ %i5 + 0x2c ]
40007304:	f8 27 60 30 	st  %i4, [ %i5 + 0x30 ]
40007308:	fa 06 20 08 	ld  [ %i0 + 8 ], %i5
4000730c:	c2 27 60 0c 	st  %g1, [ %i5 + 0xc ]
40007310:	c0 27 60 60 	clr  [ %i5 + 0x60 ]
40007314:	c0 27 40 00 	clr  [ %i5 ]
40007318:	c0 27 60 04 	clr  [ %i5 + 4 ]
4000731c:	c0 27 60 08 	clr  [ %i5 + 8 ]
40007320:	c0 27 60 10 	clr  [ %i5 + 0x10 ]
40007324:	c0 27 60 14 	clr  [ %i5 + 0x14 ]
40007328:	c0 27 60 18 	clr  [ %i5 + 0x18 ]
4000732c:	40 00 04 3a 	call  40008414 <memset>
40007330:	90 07 60 58 	add  %i5, 0x58, %o0
40007334:	03 00 04 80 	sethi  %hi(0x120000), %g1
40007338:	82 10 60 02 	or  %g1, 2, %g1	! 120002 <__data_size+0x11f9f2>
4000733c:	fa 27 60 20 	st  %i5, [ %i5 + 0x20 ]
40007340:	f2 27 60 24 	st  %i1, [ %i5 + 0x24 ]
40007344:	f4 27 60 28 	st  %i2, [ %i5 + 0x28 ]
40007348:	f6 27 60 2c 	st  %i3, [ %i5 + 0x2c ]
4000734c:	f8 27 60 30 	st  %i4, [ %i5 + 0x30 ]
40007350:	94 10 20 08 	mov  8, %o2
40007354:	fa 06 20 0c 	ld  [ %i0 + 0xc ], %i5
40007358:	92 10 20 00 	clr  %o1
4000735c:	c2 27 60 0c 	st  %g1, [ %i5 + 0xc ]
40007360:	c0 27 60 60 	clr  [ %i5 + 0x60 ]
40007364:	c0 27 40 00 	clr  [ %i5 ]
40007368:	c0 27 60 04 	clr  [ %i5 + 4 ]
4000736c:	c0 27 60 08 	clr  [ %i5 + 8 ]
40007370:	c0 27 60 10 	clr  [ %i5 + 0x10 ]
40007374:	c0 27 60 14 	clr  [ %i5 + 0x14 ]
40007378:	c0 27 60 18 	clr  [ %i5 + 0x18 ]
4000737c:	40 00 04 26 	call  40008414 <memset>
40007380:	90 07 60 58 	add  %i5, 0x58, %o0
40007384:	fa 27 60 20 	st  %i5, [ %i5 + 0x20 ]
40007388:	f2 27 60 24 	st  %i1, [ %i5 + 0x24 ]
4000738c:	f4 27 60 28 	st  %i2, [ %i5 + 0x28 ]
40007390:	f6 27 60 2c 	st  %i3, [ %i5 + 0x2c ]
40007394:	f8 27 60 30 	st  %i4, [ %i5 + 0x30 ]
40007398:	82 10 20 01 	mov  1, %g1
4000739c:	c2 26 20 18 	st  %g1, [ %i0 + 0x18 ]
400073a0:	81 c7 e0 08 	ret 
400073a4:	81 e8 00 00 	restore 
400073a8:	82 10 20 01 	mov  1, %g1
400073ac:	10 bf ff ad 	b  40007260 <__sinit.part.0+0x2c>
400073b0:	c2 26 20 18 	st  %g1, [ %i0 + 0x18 ]

400073b4 <_cleanup>:
400073b4:	03 10 00 3b 	sethi  %hi(0x4000ec00), %g1
400073b8:	13 10 00 30 	sethi  %hi(0x4000c000), %o1
400073bc:	d0 00 61 04 	ld  [ %g1 + 0x104 ], %o0
400073c0:	92 12 60 0c 	or  %o1, 0xc, %o1
400073c4:	82 13 c0 00 	mov  %o7, %g1
400073c8:	40 00 01 26 	call  40007860 <_fwalk_reent>
400073cc:	9e 10 40 00 	mov  %g1, %o7

400073d0 <__sinit>:
400073d0:	c2 02 20 18 	ld  [ %o0 + 0x18 ], %g1
400073d4:	80 a0 60 00 	cmp  %g1, 0
400073d8:	12 80 00 05 	bne  400073ec <__sinit+0x1c>
400073dc:	01 00 00 00 	nop 
400073e0:	82 13 c0 00 	mov  %o7, %g1
400073e4:	7f ff ff 94 	call  40007234 <__sinit.part.0>
400073e8:	9e 10 40 00 	mov  %g1, %o7
400073ec:	81 c3 e0 08 	retl 
400073f0:	01 00 00 00 	nop 

400073f4 <_malloc_trim_r>:
400073f4:	9d e3 bf a0 	save  %sp, -96, %sp
400073f8:	40 00 04 50 	call  40008538 <__malloc_lock>
400073fc:	90 10 00 18 	mov  %i0, %o0
40007400:	37 10 00 3c 	sethi  %hi(0x4000f000), %i3
40007404:	b6 16 e3 f8 	or  %i3, 0x3f8, %i3	! 4000f3f8 <__malloc_av_>
40007408:	c2 06 e0 08 	ld  [ %i3 + 8 ], %g1
4000740c:	f8 00 60 04 	ld  [ %g1 + 4 ], %i4
40007410:	b8 0f 3f fc 	and  %i4, -4, %i4
40007414:	ba 27 00 19 	sub  %i4, %i1, %i5
40007418:	ba 07 6f ef 	add  %i5, 0xfef, %i5
4000741c:	ba 0f 70 00 	and  %i5, -4096, %i5
40007420:	ba 07 70 00 	add  %i5, -4096, %i5
40007424:	80 a7 6f ff 	cmp  %i5, 0xfff
40007428:	04 80 00 09 	ble  4000744c <_malloc_trim_r+0x58>
4000742c:	92 10 20 00 	clr  %o1
40007430:	40 00 0a 2a 	call  40009cd8 <_sbrk_r>
40007434:	90 10 00 18 	mov  %i0, %o0
40007438:	c2 06 e0 08 	ld  [ %i3 + 8 ], %g1
4000743c:	82 00 40 1c 	add  %g1, %i4, %g1
40007440:	80 a2 00 01 	cmp  %o0, %g1
40007444:	02 80 00 07 	be  40007460 <_malloc_trim_r+0x6c>
40007448:	92 20 00 1d 	neg  %i5, %o1
4000744c:	90 10 00 18 	mov  %i0, %o0
40007450:	40 00 04 3c 	call  40008540 <__malloc_unlock>
40007454:	b0 10 20 00 	clr  %i0
40007458:	81 c7 e0 08 	ret 
4000745c:	81 e8 00 00 	restore 
40007460:	40 00 0a 1e 	call  40009cd8 <_sbrk_r>
40007464:	90 10 00 18 	mov  %i0, %o0
40007468:	80 a2 3f ff 	cmp  %o0, -1
4000746c:	02 80 00 0e 	be  400074a4 <_malloc_trim_r+0xb0>
40007470:	05 10 00 3e 	sethi  %hi(0x4000f800), %g2
40007474:	c6 06 e0 08 	ld  [ %i3 + 8 ], %g3
40007478:	c2 00 a2 e0 	ld  [ %g2 + 0x2e0 ], %g1
4000747c:	90 10 00 18 	mov  %i0, %o0
40007480:	b8 27 00 1d 	sub  %i4, %i5, %i4
40007484:	b0 10 20 01 	mov  1, %i0
40007488:	ba 20 40 1d 	sub  %g1, %i5, %i5
4000748c:	b8 17 20 01 	or  %i4, 1, %i4
40007490:	fa 20 a2 e0 	st  %i5, [ %g2 + 0x2e0 ]
40007494:	40 00 04 2b 	call  40008540 <__malloc_unlock>
40007498:	f8 20 e0 04 	st  %i4, [ %g3 + 4 ]
4000749c:	81 c7 e0 08 	ret 
400074a0:	81 e8 00 00 	restore 
400074a4:	92 10 20 00 	clr  %o1
400074a8:	40 00 0a 0c 	call  40009cd8 <_sbrk_r>
400074ac:	90 10 00 18 	mov  %i0, %o0
400074b0:	c4 06 e0 08 	ld  [ %i3 + 8 ], %g2
400074b4:	82 22 00 02 	sub  %o0, %g2, %g1
400074b8:	80 a0 60 0f 	cmp  %g1, 0xf
400074bc:	24 bf ff e5 	ble,a   40007450 <_malloc_trim_r+0x5c>
400074c0:	90 10 00 18 	mov  %i0, %o0
400074c4:	82 10 60 01 	or  %g1, 1, %g1
400074c8:	07 10 00 3c 	sethi  %hi(0x4000f000), %g3
400074cc:	c2 20 a0 04 	st  %g1, [ %g2 + 4 ]
400074d0:	c6 00 e3 f0 	ld  [ %g3 + 0x3f0 ], %g3
400074d4:	03 10 00 3e 	sethi  %hi(0x4000f800), %g1
400074d8:	90 22 00 03 	sub  %o0, %g3, %o0
400074dc:	10 bf ff dc 	b  4000744c <_malloc_trim_r+0x58>
400074e0:	d0 20 62 e0 	st  %o0, [ %g1 + 0x2e0 ]

400074e4 <_free_r>:
400074e4:	9d e3 bf a0 	save  %sp, -96, %sp
400074e8:	80 a6 60 00 	cmp  %i1, 0
400074ec:	02 80 00 48 	be  4000760c <_free_r+0x128>
400074f0:	01 00 00 00 	nop 
400074f4:	40 00 04 11 	call  40008538 <__malloc_lock>
400074f8:	90 10 00 18 	mov  %i0, %o0
400074fc:	84 06 7f f8 	add  %i1, -8, %g2
40007500:	f8 06 7f fc 	ld  [ %i1 + -4 ], %i4
40007504:	09 10 00 3c 	sethi  %hi(0x4000f000), %g4
40007508:	82 0f 3f fe 	and  %i4, -2, %g1
4000750c:	88 11 23 f8 	or  %g4, 0x3f8, %g4
40007510:	ba 00 80 01 	add  %g2, %g1, %i5
40007514:	f6 01 20 08 	ld  [ %g4 + 8 ], %i3
40007518:	c6 07 60 04 	ld  [ %i5 + 4 ], %g3
4000751c:	80 a6 c0 1d 	cmp  %i3, %i5
40007520:	02 80 00 6b 	be  400076cc <_free_r+0x1e8>
40007524:	86 08 ff fc 	and  %g3, -4, %g3
40007528:	c6 27 60 04 	st  %g3, [ %i5 + 4 ]
4000752c:	80 8f 20 01 	btst  1, %i4
40007530:	12 80 00 27 	bne  400075cc <_free_r+0xe8>
40007534:	b6 07 40 03 	add  %i5, %g3, %i3
40007538:	f2 06 7f f8 	ld  [ %i1 + -8 ], %i1
4000753c:	f8 06 e0 04 	ld  [ %i3 + 4 ], %i4
40007540:	84 20 80 19 	sub  %g2, %i1, %g2
40007544:	b4 01 20 08 	add  %g4, 8, %i2
40007548:	f6 00 a0 08 	ld  [ %g2 + 8 ], %i3
4000754c:	82 00 40 19 	add  %g1, %i1, %g1
40007550:	80 a6 c0 1a 	cmp  %i3, %i2
40007554:	02 80 00 51 	be  40007698 <_free_r+0x1b4>
40007558:	b8 0f 20 01 	and  %i4, 1, %i4
4000755c:	f2 00 a0 0c 	ld  [ %g2 + 0xc ], %i1
40007560:	f2 26 e0 0c 	st  %i1, [ %i3 + 0xc ]
40007564:	80 a7 20 00 	cmp  %i4, 0
40007568:	02 80 00 7b 	be  40007754 <_free_r+0x270>
4000756c:	f6 26 60 08 	st  %i3, [ %i1 + 8 ]
40007570:	86 10 60 01 	or  %g1, 1, %g3
40007574:	c6 20 a0 04 	st  %g3, [ %g2 + 4 ]
40007578:	c2 27 40 00 	st  %g1, [ %i5 ]
4000757c:	80 a0 61 ff 	cmp  %g1, 0x1ff
40007580:	18 80 00 2a 	bgu  40007628 <_free_r+0x144>
40007584:	80 a0 69 ff 	cmp  %g1, 0x9ff
40007588:	fa 01 20 04 	ld  [ %g4 + 4 ], %i5
4000758c:	b9 30 60 05 	srl  %g1, 5, %i4
40007590:	86 10 20 01 	mov  1, %g3
40007594:	87 28 c0 1c 	sll  %g3, %i4, %g3
40007598:	86 10 c0 1d 	or  %g3, %i5, %g3
4000759c:	82 08 7f f8 	and  %g1, -8, %g1
400075a0:	82 00 60 08 	add  %g1, 8, %g1
400075a4:	fa 01 00 01 	ld  [ %g4 + %g1 ], %i5
400075a8:	c6 21 20 04 	st  %g3, [ %g4 + 4 ]
400075ac:	fa 20 a0 08 	st  %i5, [ %g2 + 8 ]
400075b0:	86 01 00 01 	add  %g4, %g1, %g3
400075b4:	86 00 ff f8 	add  %g3, -8, %g3
400075b8:	c6 20 a0 0c 	st  %g3, [ %g2 + 0xc ]
400075bc:	c4 21 00 01 	st  %g2, [ %g4 + %g1 ]
400075c0:	c4 27 60 0c 	st  %g2, [ %i5 + 0xc ]
400075c4:	40 00 03 df 	call  40008540 <__malloc_unlock>
400075c8:	81 e8 00 00 	restore 
400075cc:	f8 06 e0 04 	ld  [ %i3 + 4 ], %i4
400075d0:	80 8f 20 01 	btst  1, %i4
400075d4:	32 80 00 10 	bne,a   40007614 <_free_r+0x130>
400075d8:	86 10 60 01 	or  %g1, 1, %g3
400075dc:	82 00 40 03 	add  %g1, %g3, %g1
400075e0:	b4 01 20 08 	add  %g4, 8, %i2
400075e4:	c6 07 60 08 	ld  [ %i5 + 8 ], %g3
400075e8:	80 a0 c0 1a 	cmp  %g3, %i2
400075ec:	02 80 00 5f 	be  40007768 <_free_r+0x284>
400075f0:	b8 10 60 01 	or  %g1, 1, %i4
400075f4:	fa 07 60 0c 	ld  [ %i5 + 0xc ], %i5
400075f8:	fa 20 e0 0c 	st  %i5, [ %g3 + 0xc ]
400075fc:	c6 27 60 08 	st  %g3, [ %i5 + 8 ]
40007600:	f8 20 a0 04 	st  %i4, [ %g2 + 4 ]
40007604:	10 bf ff de 	b  4000757c <_free_r+0x98>
40007608:	c2 20 80 01 	st  %g1, [ %g2 + %g1 ]
4000760c:	81 c7 e0 08 	ret 
40007610:	81 e8 00 00 	restore 
40007614:	c6 26 7f fc 	st  %g3, [ %i1 + -4 ]
40007618:	80 a0 61 ff 	cmp  %g1, 0x1ff
4000761c:	08 bf ff db 	bleu  40007588 <_free_r+0xa4>
40007620:	c2 27 40 00 	st  %g1, [ %i5 ]
40007624:	80 a0 69 ff 	cmp  %g1, 0x9ff
40007628:	18 80 00 40 	bgu  40007728 <_free_r+0x244>
4000762c:	87 30 60 09 	srl  %g1, 9, %g3
40007630:	87 30 60 06 	srl  %g1, 6, %g3
40007634:	ba 00 e0 39 	add  %g3, 0x39, %i5
40007638:	b8 00 e0 38 	add  %g3, 0x38, %i4
4000763c:	87 2f 60 03 	sll  %i5, 3, %g3
40007640:	ba 01 00 03 	add  %g4, %g3, %i5
40007644:	c6 01 00 03 	ld  [ %g4 + %g3 ], %g3
40007648:	ba 07 7f f8 	add  %i5, -8, %i5
4000764c:	80 a7 40 03 	cmp  %i5, %g3
40007650:	22 80 00 4e 	be,a   40007788 <_free_r+0x2a4>
40007654:	f6 01 20 04 	ld  [ %g4 + 4 ], %i3
40007658:	c8 00 e0 04 	ld  [ %g3 + 4 ], %g4
4000765c:	88 09 3f fc 	and  %g4, -4, %g4
40007660:	80 a1 00 01 	cmp  %g4, %g1
40007664:	28 80 00 07 	bleu,a   40007680 <_free_r+0x19c>
40007668:	fa 00 e0 0c 	ld  [ %g3 + 0xc ], %i5
4000766c:	c6 00 e0 08 	ld  [ %g3 + 8 ], %g3
40007670:	80 a7 40 03 	cmp  %i5, %g3
40007674:	32 bf ff fa 	bne,a   4000765c <_free_r+0x178>
40007678:	c8 00 e0 04 	ld  [ %g3 + 4 ], %g4
4000767c:	fa 00 e0 0c 	ld  [ %g3 + 0xc ], %i5
40007680:	fa 20 a0 0c 	st  %i5, [ %g2 + 0xc ]
40007684:	c6 20 a0 08 	st  %g3, [ %g2 + 8 ]
40007688:	c4 27 60 08 	st  %g2, [ %i5 + 8 ]
4000768c:	c4 20 e0 0c 	st  %g2, [ %g3 + 0xc ]
40007690:	40 00 03 ac 	call  40008540 <__malloc_unlock>
40007694:	81 e8 00 00 	restore 
40007698:	80 a7 20 00 	cmp  %i4, 0
4000769c:	32 80 00 51 	bne,a   400077e0 <_free_r+0x2fc>
400076a0:	86 10 60 01 	or  %g1, 1, %g3
400076a4:	c8 07 60 0c 	ld  [ %i5 + 0xc ], %g4
400076a8:	fa 07 60 08 	ld  [ %i5 + 8 ], %i5
400076ac:	c8 27 60 0c 	st  %g4, [ %i5 + 0xc ]
400076b0:	fa 21 20 08 	st  %i5, [ %g4 + 8 ]
400076b4:	82 00 c0 01 	add  %g3, %g1, %g1
400076b8:	86 10 60 01 	or  %g1, 1, %g3
400076bc:	c6 20 a0 04 	st  %g3, [ %g2 + 4 ]
400076c0:	c2 20 80 01 	st  %g1, [ %g2 + %g1 ]
400076c4:	40 00 03 9f 	call  40008540 <__malloc_unlock>
400076c8:	81 e8 00 00 	restore 
400076cc:	80 8f 20 01 	btst  1, %i4
400076d0:	12 80 00 09 	bne  400076f4 <_free_r+0x210>
400076d4:	82 00 40 03 	add  %g1, %g3, %g1
400076d8:	f8 06 7f f8 	ld  [ %i1 + -8 ], %i4
400076dc:	84 20 80 1c 	sub  %g2, %i4, %g2
400076e0:	c6 00 a0 0c 	ld  [ %g2 + 0xc ], %g3
400076e4:	fa 00 a0 08 	ld  [ %g2 + 8 ], %i5
400076e8:	c6 27 60 0c 	st  %g3, [ %i5 + 0xc ]
400076ec:	82 00 40 1c 	add  %g1, %i4, %g1
400076f0:	fa 20 e0 08 	st  %i5, [ %g3 + 8 ]
400076f4:	86 10 60 01 	or  %g1, 1, %g3
400076f8:	c6 20 a0 04 	st  %g3, [ %g2 + 4 ]
400076fc:	c4 21 20 08 	st  %g2, [ %g4 + 8 ]
40007700:	05 10 00 3c 	sethi  %hi(0x4000f000), %g2
40007704:	c4 00 a3 f4 	ld  [ %g2 + 0x3f4 ], %g2	! 4000f3f4 <__malloc_trim_threshold>
40007708:	80 a0 80 01 	cmp  %g2, %g1
4000770c:	18 bf ff ae 	bgu  400075c4 <_free_r+0xe0>
40007710:	03 10 00 3e 	sethi  %hi(0x4000f800), %g1
40007714:	90 10 00 18 	mov  %i0, %o0
40007718:	7f ff ff 37 	call  400073f4 <_malloc_trim_r>
4000771c:	d2 00 63 10 	ld  [ %g1 + 0x310 ], %o1
40007720:	40 00 03 88 	call  40008540 <__malloc_unlock>
40007724:	81 e8 00 00 	restore 
40007728:	80 a0 e0 14 	cmp  %g3, 0x14
4000772c:	08 80 00 0c 	bleu  4000775c <_free_r+0x278>
40007730:	ba 00 e0 5c 	add  %g3, 0x5c, %i5
40007734:	80 a0 e0 54 	cmp  %g3, 0x54
40007738:	18 80 00 1a 	bgu  400077a0 <_free_r+0x2bc>
4000773c:	80 a0 e1 54 	cmp  %g3, 0x154
40007740:	87 30 60 0c 	srl  %g1, 0xc, %g3
40007744:	ba 00 e0 6f 	add  %g3, 0x6f, %i5
40007748:	b8 00 e0 6e 	add  %g3, 0x6e, %i4
4000774c:	10 bf ff bd 	b  40007640 <_free_r+0x15c>
40007750:	87 2f 60 03 	sll  %i5, 3, %g3
40007754:	10 bf ff a4 	b  400075e4 <_free_r+0x100>
40007758:	82 00 40 03 	add  %g1, %g3, %g1
4000775c:	b8 00 e0 5b 	add  %g3, 0x5b, %i4
40007760:	10 bf ff b8 	b  40007640 <_free_r+0x15c>
40007764:	87 2f 60 03 	sll  %i5, 3, %g3
40007768:	c4 21 20 14 	st  %g2, [ %g4 + 0x14 ]
4000776c:	c4 21 20 10 	st  %g2, [ %g4 + 0x10 ]
40007770:	f4 20 a0 0c 	st  %i2, [ %g2 + 0xc ]
40007774:	f4 20 a0 08 	st  %i2, [ %g2 + 8 ]
40007778:	f8 20 a0 04 	st  %i4, [ %g2 + 4 ]
4000777c:	c2 20 80 01 	st  %g1, [ %g2 + %g1 ]
40007780:	40 00 03 70 	call  40008540 <__malloc_unlock>
40007784:	81 e8 00 00 	restore 
40007788:	b9 3f 20 02 	sra  %i4, 2, %i4
4000778c:	82 10 20 01 	mov  1, %g1
40007790:	b9 28 40 1c 	sll  %g1, %i4, %i4
40007794:	b8 17 00 1b 	or  %i4, %i3, %i4
40007798:	10 bf ff ba 	b  40007680 <_free_r+0x19c>
4000779c:	f8 21 20 04 	st  %i4, [ %g4 + 4 ]
400077a0:	18 80 00 07 	bgu  400077bc <_free_r+0x2d8>
400077a4:	80 a0 e5 54 	cmp  %g3, 0x554
400077a8:	87 30 60 0f 	srl  %g1, 0xf, %g3
400077ac:	ba 00 e0 78 	add  %g3, 0x78, %i5
400077b0:	b8 00 e0 77 	add  %g3, 0x77, %i4
400077b4:	10 bf ff a3 	b  40007640 <_free_r+0x15c>
400077b8:	87 2f 60 03 	sll  %i5, 3, %g3
400077bc:	38 80 00 07 	bgu,a   400077d8 <_free_r+0x2f4>
400077c0:	86 10 23 f8 	mov  0x3f8, %g3
400077c4:	87 30 60 12 	srl  %g1, 0x12, %g3
400077c8:	ba 00 e0 7d 	add  %g3, 0x7d, %i5
400077cc:	b8 00 e0 7c 	add  %g3, 0x7c, %i4
400077d0:	10 bf ff 9c 	b  40007640 <_free_r+0x15c>
400077d4:	87 2f 60 03 	sll  %i5, 3, %g3
400077d8:	10 bf ff 9a 	b  40007640 <_free_r+0x15c>
400077dc:	b8 10 20 7e 	mov  0x7e, %i4
400077e0:	c6 20 a0 04 	st  %g3, [ %g2 + 4 ]
400077e4:	c2 27 40 00 	st  %g1, [ %i5 ]
400077e8:	40 00 03 56 	call  40008540 <__malloc_unlock>
400077ec:	81 e8 00 00 	restore 

400077f0 <_fwalk>:
400077f0:	9d e3 bf a0 	save  %sp, -96, %sp
400077f4:	b6 06 20 48 	add  %i0, 0x48, %i3
400077f8:	b0 10 20 00 	clr  %i0
400077fc:	f8 06 e0 04 	ld  [ %i3 + 4 ], %i4
40007800:	b8 87 3f ff 	addcc  %i4, -1, %i4
40007804:	0c 80 00 11 	bneg  40007848 <_fwalk+0x58>
40007808:	fa 06 e0 08 	ld  [ %i3 + 8 ], %i5
4000780c:	c2 17 60 0c 	lduh  [ %i5 + 0xc ], %g1
40007810:	80 a0 60 01 	cmp  %g1, 1
40007814:	28 80 00 0a 	bleu,a   4000783c <_fwalk+0x4c>
40007818:	b8 07 3f ff 	add  %i4, -1, %i4
4000781c:	c2 57 60 0e 	ldsh  [ %i5 + 0xe ], %g1
40007820:	80 a0 7f ff 	cmp  %g1, -1
40007824:	22 80 00 06 	be,a   4000783c <_fwalk+0x4c>
40007828:	b8 07 3f ff 	add  %i4, -1, %i4
4000782c:	9f c6 40 00 	call  %i1
40007830:	90 10 00 1d 	mov  %i5, %o0
40007834:	b0 16 00 08 	or  %i0, %o0, %i0
40007838:	b8 07 3f ff 	add  %i4, -1, %i4
4000783c:	80 a7 3f ff 	cmp  %i4, -1
40007840:	12 bf ff f3 	bne  4000780c <_fwalk+0x1c>
40007844:	ba 07 60 64 	add  %i5, 0x64, %i5
40007848:	f6 06 c0 00 	ld  [ %i3 ], %i3
4000784c:	80 a6 e0 00 	cmp  %i3, 0
40007850:	32 bf ff ec 	bne,a   40007800 <_fwalk+0x10>
40007854:	f8 06 e0 04 	ld  [ %i3 + 4 ], %i4
40007858:	81 c7 e0 08 	ret 
4000785c:	81 e8 00 00 	restore 

40007860 <_fwalk_reent>:
40007860:	9d e3 bf a0 	save  %sp, -96, %sp
40007864:	b6 10 20 00 	clr  %i3
40007868:	b4 06 20 48 	add  %i0, 0x48, %i2
4000786c:	f8 06 a0 04 	ld  [ %i2 + 4 ], %i4
40007870:	b8 87 3f ff 	addcc  %i4, -1, %i4
40007874:	0c 80 00 11 	bneg  400078b8 <_fwalk_reent+0x58>
40007878:	fa 06 a0 08 	ld  [ %i2 + 8 ], %i5
4000787c:	c2 17 60 0c 	lduh  [ %i5 + 0xc ], %g1
40007880:	80 a0 60 01 	cmp  %g1, 1
40007884:	28 80 00 0a 	bleu,a   400078ac <_fwalk_reent+0x4c>
40007888:	b8 07 3f ff 	add  %i4, -1, %i4
4000788c:	c2 57 60 0e 	ldsh  [ %i5 + 0xe ], %g1
40007890:	80 a0 7f ff 	cmp  %g1, -1
40007894:	02 80 00 05 	be  400078a8 <_fwalk_reent+0x48>
40007898:	92 10 00 1d 	mov  %i5, %o1
4000789c:	9f c6 40 00 	call  %i1
400078a0:	90 10 00 18 	mov  %i0, %o0
400078a4:	b6 16 c0 08 	or  %i3, %o0, %i3
400078a8:	b8 07 3f ff 	add  %i4, -1, %i4
400078ac:	80 a7 3f ff 	cmp  %i4, -1
400078b0:	12 bf ff f3 	bne  4000787c <_fwalk_reent+0x1c>
400078b4:	ba 07 60 64 	add  %i5, 0x64, %i5
400078b8:	f4 06 80 00 	ld  [ %i2 ], %i2
400078bc:	80 a6 a0 00 	cmp  %i2, 0
400078c0:	32 bf ff ec 	bne,a   40007870 <_fwalk_reent+0x10>
400078c4:	f8 06 a0 04 	ld  [ %i2 + 4 ], %i4
400078c8:	81 c7 e0 08 	ret 
400078cc:	91 e8 00 1b 	restore  %g0, %i3, %o0

400078d0 <__localeconv_l>:
400078d0:	81 c3 e0 08 	retl 
400078d4:	90 02 20 f0 	add  %o0, 0xf0, %o0

400078d8 <_localeconv_r>:
400078d8:	03 10 00 3c 	sethi  %hi(0x4000f000), %g1
400078dc:	c2 00 63 8c 	ld  [ %g1 + 0x38c ], %g1	! 4000f38c <_impure_ptr>
400078e0:	d0 00 60 20 	ld  [ %g1 + 0x20 ], %o0
400078e4:	80 a2 20 00 	cmp  %o0, 0
400078e8:	22 80 00 04 	be,a   400078f8 <_localeconv_r+0x20>
400078ec:	11 10 00 3e 	sethi  %hi(0x4000f800), %o0
400078f0:	81 c3 e0 08 	retl 
400078f4:	90 02 20 f0 	add  %o0, 0xf0, %o0	! 4000f8f0 <__global_locale+0xf0>
400078f8:	90 12 20 00 	mov  %o0, %o0
400078fc:	81 c3 e0 08 	retl 
40007900:	90 02 20 f0 	add  %o0, 0xf0, %o0

40007904 <localeconv>:
40007904:	03 10 00 3c 	sethi  %hi(0x4000f000), %g1
40007908:	c2 00 63 8c 	ld  [ %g1 + 0x38c ], %g1	! 4000f38c <_impure_ptr>
4000790c:	d0 00 60 20 	ld  [ %g1 + 0x20 ], %o0
40007910:	80 a2 20 00 	cmp  %o0, 0
40007914:	22 80 00 04 	be,a   40007924 <localeconv+0x20>
40007918:	11 10 00 3e 	sethi  %hi(0x4000f800), %o0
4000791c:	81 c3 e0 08 	retl 
40007920:	90 02 20 f0 	add  %o0, 0xf0, %o0	! 4000f8f0 <__global_locale+0xf0>
40007924:	90 12 20 00 	mov  %o0, %o0
40007928:	81 c3 e0 08 	retl 
4000792c:	90 02 20 f0 	add  %o0, 0xf0, %o0

40007930 <__smakebuf_r>:
40007930:	9d e3 bf 60 	save  %sp, -160, %sp
40007934:	c2 16 60 0c 	lduh  [ %i1 + 0xc ], %g1
40007938:	80 88 60 02 	btst  2, %g1
4000793c:	22 80 00 09 	be,a   40007960 <__smakebuf_r+0x30>
40007940:	d2 56 60 0e 	ldsh  [ %i1 + 0xe ], %o1
40007944:	82 06 60 47 	add  %i1, 0x47, %g1
40007948:	c2 26 40 00 	st  %g1, [ %i1 ]
4000794c:	c2 26 60 10 	st  %g1, [ %i1 + 0x10 ]
40007950:	82 10 20 01 	mov  1, %g1
40007954:	c2 26 60 14 	st  %g1, [ %i1 + 0x14 ]
40007958:	81 c7 e0 08 	ret 
4000795c:	81 e8 00 00 	restore 
40007960:	80 a2 60 00 	cmp  %o1, 0
40007964:	06 80 00 25 	bl  400079f8 <__smakebuf_r+0xc8>
40007968:	94 07 bf c0 	add  %fp, -64, %o2
4000796c:	40 00 12 c2 	call  4000c474 <_fstat_r>
40007970:	90 10 00 18 	mov  %i0, %o0
40007974:	80 a2 20 00 	cmp  %o0, 0
40007978:	06 80 00 1f 	bl  400079f4 <__smakebuf_r+0xc4>
4000797c:	05 00 00 3c 	sethi  %hi(0xf000), %g2
40007980:	c2 17 bf c8 	lduh  [ %fp + -56 ], %g1
40007984:	ba 10 28 00 	mov  0x800, %i5
40007988:	82 08 40 02 	and  %g1, %g2, %g1
4000798c:	b6 10 24 00 	mov  0x400, %i3
40007990:	05 00 00 08 	sethi  %hi(0x2000), %g2
40007994:	92 10 24 00 	mov  0x400, %o1
40007998:	82 18 40 02 	xor  %g1, %g2, %g1
4000799c:	80 a0 00 01 	cmp  %g0, %g1
400079a0:	b8 60 3f ff 	subx  %g0, -1, %i4
400079a4:	40 00 00 69 	call  40007b48 <_malloc_r>
400079a8:	90 10 00 18 	mov  %i0, %o0
400079ac:	80 a2 20 00 	cmp  %o0, 0
400079b0:	22 80 00 1d 	be,a   40007a24 <__smakebuf_r+0xf4>
400079b4:	c2 16 60 0c 	lduh  [ %i1 + 0xc ], %g1
400079b8:	03 10 00 1c 	sethi  %hi(0x40007000), %g1
400079bc:	82 10 60 b4 	or  %g1, 0xb4, %g1	! 400070b4 <_cleanup_r>
400079c0:	c2 26 20 28 	st  %g1, [ %i0 + 0x28 ]
400079c4:	d0 26 40 00 	st  %o0, [ %i1 ]
400079c8:	c2 16 60 0c 	lduh  [ %i1 + 0xc ], %g1
400079cc:	d0 26 60 10 	st  %o0, [ %i1 + 0x10 ]
400079d0:	82 10 60 80 	or  %g1, 0x80, %g1
400079d4:	f6 26 60 14 	st  %i3, [ %i1 + 0x14 ]
400079d8:	80 a7 20 00 	cmp  %i4, 0
400079dc:	12 80 00 22 	bne  40007a64 <__smakebuf_r+0x134>
400079e0:	c2 36 60 0c 	sth  %g1, [ %i1 + 0xc ]
400079e4:	82 17 40 01 	or  %i5, %g1, %g1
400079e8:	c2 36 60 0c 	sth  %g1, [ %i1 + 0xc ]
400079ec:	81 c7 e0 08 	ret 
400079f0:	81 e8 00 00 	restore 
400079f4:	c2 16 60 0c 	lduh  [ %i1 + 0xc ], %g1
400079f8:	80 88 60 80 	btst  0x80, %g1
400079fc:	02 80 00 16 	be  40007a54 <__smakebuf_r+0x124>
40007a00:	ba 10 20 00 	clr  %i5
40007a04:	92 10 20 40 	mov  0x40, %o1
40007a08:	90 10 00 18 	mov  %i0, %o0
40007a0c:	40 00 00 4f 	call  40007b48 <_malloc_r>
40007a10:	b6 10 20 40 	mov  0x40, %i3
40007a14:	80 a2 20 00 	cmp  %o0, 0
40007a18:	12 bf ff e8 	bne  400079b8 <__smakebuf_r+0x88>
40007a1c:	b8 10 20 00 	clr  %i4
40007a20:	c2 16 60 0c 	lduh  [ %i1 + 0xc ], %g1
40007a24:	80 88 62 00 	btst  0x200, %g1
40007a28:	12 bf ff cc 	bne  40007958 <__smakebuf_r+0x28>
40007a2c:	82 08 7f fc 	and  %g1, -4, %g1
40007a30:	82 10 60 02 	or  %g1, 2, %g1
40007a34:	84 06 60 47 	add  %i1, 0x47, %g2
40007a38:	c2 36 60 0c 	sth  %g1, [ %i1 + 0xc ]
40007a3c:	c4 26 40 00 	st  %g2, [ %i1 ]
40007a40:	82 10 20 01 	mov  1, %g1
40007a44:	c4 26 60 10 	st  %g2, [ %i1 + 0x10 ]
40007a48:	c2 26 60 14 	st  %g1, [ %i1 + 0x14 ]
40007a4c:	81 c7 e0 08 	ret 
40007a50:	81 e8 00 00 	restore 
40007a54:	b6 10 24 00 	mov  0x400, %i3
40007a58:	b8 10 20 00 	clr  %i4
40007a5c:	10 bf ff d2 	b  400079a4 <__smakebuf_r+0x74>
40007a60:	92 10 24 00 	mov  0x400, %o1
40007a64:	d2 56 60 0e 	ldsh  [ %i1 + 0xe ], %o1
40007a68:	40 00 13 d0 	call  4000c9a8 <_isatty_r>
40007a6c:	90 10 00 18 	mov  %i0, %o0
40007a70:	80 a2 20 00 	cmp  %o0, 0
40007a74:	02 bf ff dc 	be  400079e4 <__smakebuf_r+0xb4>
40007a78:	c2 16 60 0c 	lduh  [ %i1 + 0xc ], %g1
40007a7c:	82 08 7f fc 	and  %g1, -4, %g1
40007a80:	82 10 60 01 	or  %g1, 1, %g1
40007a84:	82 17 40 01 	or  %i5, %g1, %g1
40007a88:	c2 36 60 0c 	sth  %g1, [ %i1 + 0xc ]
40007a8c:	81 c7 e0 08 	ret 
40007a90:	81 e8 00 00 	restore 

40007a94 <__swhatbuf_r>:
40007a94:	9d e3 bf 60 	save  %sp, -160, %sp
40007a98:	d2 56 60 0e 	ldsh  [ %i1 + 0xe ], %o1
40007a9c:	80 a2 60 00 	cmp  %o1, 0
40007aa0:	06 80 00 12 	bl  40007ae8 <__swhatbuf_r+0x54>
40007aa4:	94 07 bf c0 	add  %fp, -64, %o2
40007aa8:	40 00 12 73 	call  4000c474 <_fstat_r>
40007aac:	90 10 00 18 	mov  %i0, %o0
40007ab0:	80 a2 20 00 	cmp  %o0, 0
40007ab4:	06 80 00 0d 	bl  40007ae8 <__swhatbuf_r+0x54>
40007ab8:	05 00 00 3c 	sethi  %hi(0xf000), %g2
40007abc:	c2 17 bf c8 	lduh  [ %fp + -56 ], %g1
40007ac0:	82 08 40 02 	and  %g1, %g2, %g1
40007ac4:	05 00 00 08 	sethi  %hi(0x2000), %g2
40007ac8:	82 18 40 02 	xor  %g1, %g2, %g1
40007acc:	80 a0 00 01 	cmp  %g0, %g1
40007ad0:	82 60 3f ff 	subx  %g0, -1, %g1
40007ad4:	c2 26 c0 00 	st  %g1, [ %i3 ]
40007ad8:	82 10 24 00 	mov  0x400, %g1
40007adc:	c2 26 80 00 	st  %g1, [ %i2 ]
40007ae0:	81 c7 e0 08 	ret 
40007ae4:	91 e8 28 00 	restore  %g0, 0x800, %o0
40007ae8:	c2 16 60 0c 	lduh  [ %i1 + 0xc ], %g1
40007aec:	80 88 60 80 	btst  0x80, %g1
40007af0:	02 80 00 06 	be  40007b08 <__swhatbuf_r+0x74>
40007af4:	c0 26 c0 00 	clr  [ %i3 ]
40007af8:	82 10 20 40 	mov  0x40, %g1
40007afc:	c2 26 80 00 	st  %g1, [ %i2 ]
40007b00:	81 c7 e0 08 	ret 
40007b04:	91 e8 20 00 	restore  %g0, 0, %o0
40007b08:	82 10 24 00 	mov  0x400, %g1
40007b0c:	c2 26 80 00 	st  %g1, [ %i2 ]
40007b10:	81 c7 e0 08 	ret 
40007b14:	91 e8 20 00 	restore  %g0, 0, %o0

40007b18 <malloc>:
40007b18:	92 10 00 08 	mov  %o0, %o1
40007b1c:	03 10 00 3c 	sethi  %hi(0x4000f000), %g1
40007b20:	d0 00 63 8c 	ld  [ %g1 + 0x38c ], %o0	! 4000f38c <_impure_ptr>
40007b24:	82 13 c0 00 	mov  %o7, %g1
40007b28:	40 00 00 08 	call  40007b48 <_malloc_r>
40007b2c:	9e 10 40 00 	mov  %g1, %o7

40007b30 <free>:
40007b30:	92 10 00 08 	mov  %o0, %o1
40007b34:	03 10 00 3c 	sethi  %hi(0x4000f000), %g1
40007b38:	d0 00 63 8c 	ld  [ %g1 + 0x38c ], %o0	! 4000f38c <_impure_ptr>
40007b3c:	82 13 c0 00 	mov  %o7, %g1
40007b40:	7f ff fe 69 	call  400074e4 <_free_r>
40007b44:	9e 10 40 00 	mov  %g1, %o7

40007b48 <_malloc_r>:
40007b48:	9d e3 bf a0 	save  %sp, -96, %sp
40007b4c:	82 06 60 0b 	add  %i1, 0xb, %g1
40007b50:	80 a0 60 16 	cmp  %g1, 0x16
40007b54:	18 80 00 21 	bgu  40007bd8 <_malloc_r+0x90>
40007b58:	80 a0 60 00 	cmp  %g1, 0
40007b5c:	80 a6 60 10 	cmp  %i1, 0x10
40007b60:	18 80 00 ca 	bgu  40007e88 <_malloc_r+0x340>
40007b64:	82 10 20 0c 	mov  0xc, %g1
40007b68:	40 00 02 74 	call  40008538 <__malloc_lock>
40007b6c:	90 10 00 18 	mov  %i0, %o0
40007b70:	b8 10 20 10 	mov  0x10, %i4
40007b74:	82 10 20 18 	mov  0x18, %g1
40007b78:	88 10 20 02 	mov  2, %g4
40007b7c:	37 10 00 3c 	sethi  %hi(0x4000f000), %i3
40007b80:	b6 16 e3 f8 	or  %i3, 0x3f8, %i3	! 4000f3f8 <__malloc_av_>
40007b84:	82 06 c0 01 	add  %i3, %g1, %g1
40007b88:	fa 00 60 04 	ld  [ %g1 + 4 ], %i5
40007b8c:	84 00 7f f8 	add  %g1, -8, %g2
40007b90:	80 a7 40 02 	cmp  %i5, %g2
40007b94:	22 80 00 c1 	be,a   40007e98 <_malloc_r+0x350>
40007b98:	fa 00 60 0c 	ld  [ %g1 + 0xc ], %i5
40007b9c:	c2 07 60 04 	ld  [ %i5 + 4 ], %g1
40007ba0:	c4 07 60 0c 	ld  [ %i5 + 0xc ], %g2
40007ba4:	c6 07 60 08 	ld  [ %i5 + 8 ], %g3
40007ba8:	c4 20 e0 0c 	st  %g2, [ %g3 + 0xc ]
40007bac:	c6 20 a0 08 	st  %g3, [ %g2 + 8 ]
40007bb0:	82 08 7f fc 	and  %g1, -4, %g1
40007bb4:	82 07 40 01 	add  %i5, %g1, %g1
40007bb8:	c4 00 60 04 	ld  [ %g1 + 4 ], %g2
40007bbc:	84 10 a0 01 	or  %g2, 1, %g2
40007bc0:	90 10 00 18 	mov  %i0, %o0
40007bc4:	c4 20 60 04 	st  %g2, [ %g1 + 4 ]
40007bc8:	40 00 02 5e 	call  40008540 <__malloc_unlock>
40007bcc:	ba 07 60 08 	add  %i5, 8, %i5
40007bd0:	81 c7 e0 08 	ret 
40007bd4:	91 e8 00 1d 	restore  %g0, %i5, %o0
40007bd8:	06 80 00 ab 	bl  40007e84 <_malloc_r+0x33c>
40007bdc:	b8 08 7f f8 	and  %g1, -8, %i4
40007be0:	80 a7 00 19 	cmp  %i4, %i1
40007be4:	0a 80 00 a9 	bcs  40007e88 <_malloc_r+0x340>
40007be8:	82 10 20 0c 	mov  0xc, %g1
40007bec:	40 00 02 53 	call  40008538 <__malloc_lock>
40007bf0:	90 10 00 18 	mov  %i0, %o0
40007bf4:	80 a7 21 f7 	cmp  %i4, 0x1f7
40007bf8:	08 80 01 4d 	bleu  4000812c <_malloc_r+0x5e4>
40007bfc:	89 37 20 03 	srl  %i4, 3, %g4
40007c00:	83 37 20 09 	srl  %i4, 9, %g1
40007c04:	80 a0 60 00 	cmp  %g1, 0
40007c08:	22 80 00 ed 	be,a   40007fbc <_malloc_r+0x474>
40007c0c:	82 10 22 00 	mov  0x200, %g1
40007c10:	80 a0 60 04 	cmp  %g1, 4
40007c14:	18 80 01 21 	bgu  40008098 <_malloc_r+0x550>
40007c18:	80 a0 60 14 	cmp  %g1, 0x14
40007c1c:	83 37 20 06 	srl  %i4, 6, %g1
40007c20:	88 00 60 39 	add  %g1, 0x39, %g4
40007c24:	b4 00 60 38 	add  %g1, 0x38, %i2
40007c28:	83 29 20 03 	sll  %g4, 3, %g1
40007c2c:	37 10 00 3c 	sethi  %hi(0x4000f000), %i3
40007c30:	b6 16 e3 f8 	or  %i3, 0x3f8, %i3	! 4000f3f8 <__malloc_av_>
40007c34:	82 06 c0 01 	add  %i3, %g1, %g1
40007c38:	86 00 7f f8 	add  %g1, -8, %g3
40007c3c:	fa 00 60 04 	ld  [ %g1 + 4 ], %i5
40007c40:	80 a0 c0 1d 	cmp  %g3, %i5
40007c44:	32 80 00 0b 	bne,a   40007c70 <_malloc_r+0x128>
40007c48:	c2 07 60 04 	ld  [ %i5 + 4 ], %g1
40007c4c:	10 80 00 97 	b  40007ea8 <_malloc_r+0x360>
40007c50:	fa 06 e0 10 	ld  [ %i3 + 0x10 ], %i5
40007c54:	36 80 00 dd 	bge,a   40007fc8 <_malloc_r+0x480>
40007c58:	c4 07 60 0c 	ld  [ %i5 + 0xc ], %g2
40007c5c:	fa 07 60 0c 	ld  [ %i5 + 0xc ], %i5
40007c60:	80 a0 c0 1d 	cmp  %g3, %i5
40007c64:	22 80 00 91 	be,a   40007ea8 <_malloc_r+0x360>
40007c68:	fa 06 e0 10 	ld  [ %i3 + 0x10 ], %i5
40007c6c:	c2 07 60 04 	ld  [ %i5 + 4 ], %g1
40007c70:	82 08 7f fc 	and  %g1, -4, %g1
40007c74:	84 20 40 1c 	sub  %g1, %i4, %g2
40007c78:	80 a0 a0 0f 	cmp  %g2, 0xf
40007c7c:	04 bf ff f6 	ble  40007c54 <_malloc_r+0x10c>
40007c80:	80 a0 a0 00 	cmp  %g2, 0
40007c84:	fa 06 e0 10 	ld  [ %i3 + 0x10 ], %i5
40007c88:	9e 06 e0 08 	add  %i3, 8, %o7
40007c8c:	80 a7 40 0f 	cmp  %i5, %o7
40007c90:	12 80 00 8a 	bne  40007eb8 <_malloc_r+0x370>
40007c94:	88 10 00 1a 	mov  %i2, %g4
40007c98:	c6 06 e0 04 	ld  [ %i3 + 4 ], %g3
40007c9c:	83 39 20 02 	sra  %g4, 2, %g1
40007ca0:	b4 10 20 01 	mov  1, %i2
40007ca4:	b5 2e 80 01 	sll  %i2, %g1, %i2
40007ca8:	80 a6 80 03 	cmp  %i2, %g3
40007cac:	08 80 00 a5 	bleu  40007f40 <_malloc_r+0x3f8>
40007cb0:	80 8e 80 03 	btst  %i2, %g3
40007cb4:	fa 06 e0 08 	ld  [ %i3 + 8 ], %i5
40007cb8:	c2 07 60 04 	ld  [ %i5 + 4 ], %g1
40007cbc:	b2 08 7f fc 	and  %g1, -4, %i1
40007cc0:	84 26 40 1c 	sub  %i1, %i4, %g2
40007cc4:	80 a0 a0 0f 	cmp  %g2, 0xf
40007cc8:	04 80 00 03 	ble  40007cd4 <_malloc_r+0x18c>
40007ccc:	86 10 20 01 	mov  1, %g3
40007cd0:	86 10 20 00 	clr  %g3
40007cd4:	80 88 e0 ff 	btst  0xff, %g3
40007cd8:	12 80 00 04 	bne  40007ce8 <_malloc_r+0x1a0>
40007cdc:	80 a6 40 1c 	cmp  %i1, %i4
40007ce0:	1a 80 00 c5 	bcc  40007ff4 <_malloc_r+0x4ac>
40007ce4:	82 17 20 01 	or  %i4, 1, %g1
40007ce8:	03 10 00 3e 	sethi  %hi(0x4000f800), %g1
40007cec:	27 10 00 3c 	sethi  %hi(0x4000f000), %l3
40007cf0:	f4 00 63 10 	ld  [ %g1 + 0x310 ], %i2
40007cf4:	a2 07 40 19 	add  %i5, %i1, %l1
40007cf8:	c2 04 e3 f0 	ld  [ %l3 + 0x3f0 ], %g1
40007cfc:	80 a0 7f ff 	cmp  %g1, -1
40007d00:	02 80 01 47 	be  4000821c <_malloc_r+0x6d4>
40007d04:	b4 07 00 1a 	add  %i4, %i2, %i2
40007d08:	13 00 00 04 	sethi  %hi(0x1000), %o1
40007d0c:	92 12 60 0f 	or  %o1, 0xf, %o1	! 100f <__data_size+0x9ff>
40007d10:	b4 06 80 09 	add  %i2, %o1, %i2
40007d14:	b4 0e b0 00 	and  %i2, -4096, %i2
40007d18:	92 10 00 1a 	mov  %i2, %o1
40007d1c:	40 00 07 ef 	call  40009cd8 <_sbrk_r>
40007d20:	90 10 00 18 	mov  %i0, %o0
40007d24:	80 a2 3f ff 	cmp  %o0, -1
40007d28:	02 80 01 30 	be  400081e8 <_malloc_r+0x6a0>
40007d2c:	a0 10 00 08 	mov  %o0, %l0
40007d30:	80 a7 40 1b 	cmp  %i5, %i3
40007d34:	02 80 00 04 	be  40007d44 <_malloc_r+0x1fc>
40007d38:	80 a2 00 11 	cmp  %o0, %l1
40007d3c:	2a 80 01 2c 	bcs,a   400081ec <_malloc_r+0x6a4>
40007d40:	fa 06 e0 08 	ld  [ %i3 + 8 ], %i5
40007d44:	25 10 00 3e 	sethi  %hi(0x4000f800), %l2
40007d48:	d2 04 a2 e0 	ld  [ %l2 + 0x2e0 ], %o1	! 4000fae0 <__malloc_current_mallinfo>
40007d4c:	92 06 80 09 	add  %i2, %o1, %o1
40007d50:	80 a4 40 10 	cmp  %l1, %l0
40007d54:	02 80 01 28 	be  400081f4 <_malloc_r+0x6ac>
40007d58:	d2 24 a2 e0 	st  %o1, [ %l2 + 0x2e0 ]
40007d5c:	c2 04 e3 f0 	ld  [ %l3 + 0x3f0 ], %g1
40007d60:	80 a0 7f ff 	cmp  %g1, -1
40007d64:	02 80 01 2c 	be  40008214 <_malloc_r+0x6cc>
40007d68:	a2 24 00 11 	sub  %l0, %l1, %l1
40007d6c:	92 04 40 09 	add  %l1, %o1, %o1
40007d70:	d2 24 a2 e0 	st  %o1, [ %l2 + 0x2e0 ]
40007d74:	82 8c 20 07 	andcc  %l0, 7, %g1
40007d78:	02 80 00 06 	be  40007d90 <_malloc_r+0x248>
40007d7c:	13 00 00 04 	sethi  %hi(0x1000), %o1
40007d80:	a0 24 00 01 	sub  %l0, %g1, %l0
40007d84:	92 12 60 08 	or  %o1, 8, %o1
40007d88:	a0 04 20 08 	add  %l0, 8, %l0
40007d8c:	92 22 40 01 	sub  %o1, %g1, %o1
40007d90:	b4 04 00 1a 	add  %l0, %i2, %i2
40007d94:	90 10 00 18 	mov  %i0, %o0
40007d98:	b4 0e af ff 	and  %i2, 0xfff, %i2
40007d9c:	b4 22 40 1a 	sub  %o1, %i2, %i2
40007da0:	40 00 07 ce 	call  40009cd8 <_sbrk_r>
40007da4:	92 10 00 1a 	mov  %i2, %o1
40007da8:	80 a2 3f ff 	cmp  %o0, -1
40007dac:	02 80 01 32 	be  40008274 <_malloc_r+0x72c>
40007db0:	82 10 20 01 	mov  1, %g1
40007db4:	82 22 00 10 	sub  %o0, %l0, %g1
40007db8:	82 00 40 1a 	add  %g1, %i2, %g1
40007dbc:	82 10 60 01 	or  %g1, 1, %g1
40007dc0:	e0 26 e0 08 	st  %l0, [ %i3 + 8 ]
40007dc4:	d2 04 a2 e0 	ld  [ %l2 + 0x2e0 ], %o1
40007dc8:	c2 24 20 04 	st  %g1, [ %l0 + 4 ]
40007dcc:	92 06 80 09 	add  %i2, %o1, %o1
40007dd0:	80 a7 40 1b 	cmp  %i5, %i3
40007dd4:	02 80 01 2a 	be  4000827c <_malloc_r+0x734>
40007dd8:	d2 24 a2 e0 	st  %o1, [ %l2 + 0x2e0 ]
40007ddc:	80 a6 60 0f 	cmp  %i1, 0xf
40007de0:	08 80 01 29 	bleu  40008284 <_malloc_r+0x73c>
40007de4:	82 06 7f f4 	add  %i1, -12, %g1
40007de8:	c4 07 60 04 	ld  [ %i5 + 4 ], %g2
40007dec:	84 08 a0 01 	and  %g2, 1, %g2
40007df0:	82 08 7f f8 	and  %g1, -8, %g1
40007df4:	84 10 80 01 	or  %g2, %g1, %g2
40007df8:	c4 27 60 04 	st  %g2, [ %i5 + 4 ]
40007dfc:	86 10 20 05 	mov  5, %g3
40007e00:	84 07 40 01 	add  %i5, %g1, %g2
40007e04:	c6 20 a0 04 	st  %g3, [ %g2 + 4 ]
40007e08:	80 a0 60 0f 	cmp  %g1, 0xf
40007e0c:	18 80 01 2f 	bgu  400082c8 <_malloc_r+0x780>
40007e10:	c6 20 a0 08 	st  %g3, [ %g2 + 8 ]
40007e14:	c2 04 20 04 	ld  [ %l0 + 4 ], %g1
40007e18:	ba 10 00 10 	mov  %l0, %i5
40007e1c:	05 10 00 3e 	sethi  %hi(0x4000f800), %g2
40007e20:	c6 00 a3 0c 	ld  [ %g2 + 0x30c ], %g3	! 4000fb0c <__malloc_max_sbrked_mem>
40007e24:	80 a0 c0 09 	cmp  %g3, %o1
40007e28:	2a 80 00 02 	bcs,a   40007e30 <_malloc_r+0x2e8>
40007e2c:	d2 20 a3 0c 	st  %o1, [ %g2 + 0x30c ]
40007e30:	05 10 00 3e 	sethi  %hi(0x4000f800), %g2
40007e34:	c6 00 a3 08 	ld  [ %g2 + 0x308 ], %g3	! 4000fb08 <__malloc_max_total_mem>
40007e38:	80 a0 c0 09 	cmp  %g3, %o1
40007e3c:	2a 80 00 02 	bcs,a   40007e44 <_malloc_r+0x2fc>
40007e40:	d2 20 a3 08 	st  %o1, [ %g2 + 0x308 ]
40007e44:	82 08 7f fc 	and  %g1, -4, %g1
40007e48:	80 a0 40 1c 	cmp  %g1, %i4
40007e4c:	0a 80 00 09 	bcs  40007e70 <_malloc_r+0x328>
40007e50:	84 20 40 1c 	sub  %g1, %i4, %g2
40007e54:	80 a0 a0 0f 	cmp  %g2, 0xf
40007e58:	04 80 00 03 	ble  40007e64 <_malloc_r+0x31c>
40007e5c:	82 10 20 01 	mov  1, %g1
40007e60:	82 10 20 00 	clr  %g1
40007e64:	80 88 60 ff 	btst  0xff, %g1
40007e68:	02 80 00 63 	be  40007ff4 <_malloc_r+0x4ac>
40007e6c:	82 17 20 01 	or  %i4, 1, %g1
40007e70:	90 10 00 18 	mov  %i0, %o0
40007e74:	40 00 01 b3 	call  40008540 <__malloc_unlock>
40007e78:	ba 10 20 00 	clr  %i5
40007e7c:	81 c7 e0 08 	ret 
40007e80:	91 e8 00 1d 	restore  %g0, %i5, %o0
40007e84:	82 10 20 0c 	mov  0xc, %g1
40007e88:	ba 10 20 00 	clr  %i5
40007e8c:	c2 26 00 00 	st  %g1, [ %i0 ]
40007e90:	81 c7 e0 08 	ret 
40007e94:	91 e8 00 1d 	restore  %g0, %i5, %o0
40007e98:	80 a0 40 1d 	cmp  %g1, %i5
40007e9c:	12 bf ff 40 	bne  40007b9c <_malloc_r+0x54>
40007ea0:	88 01 20 02 	add  %g4, 2, %g4
40007ea4:	fa 06 e0 10 	ld  [ %i3 + 0x10 ], %i5
40007ea8:	9e 06 e0 08 	add  %i3, 8, %o7
40007eac:	80 a7 40 0f 	cmp  %i5, %o7
40007eb0:	22 bf ff 7b 	be,a   40007c9c <_malloc_r+0x154>
40007eb4:	c6 06 e0 04 	ld  [ %i3 + 4 ], %g3
40007eb8:	c2 07 60 04 	ld  [ %i5 + 4 ], %g1
40007ebc:	82 08 7f fc 	and  %g1, -4, %g1
40007ec0:	84 20 40 1c 	sub  %g1, %i4, %g2
40007ec4:	80 a0 a0 0f 	cmp  %g2, 0xf
40007ec8:	14 80 00 9b 	bg  40008134 <_malloc_r+0x5ec>
40007ecc:	80 a0 a0 00 	cmp  %g2, 0
40007ed0:	de 26 e0 14 	st  %o7, [ %i3 + 0x14 ]
40007ed4:	16 80 00 40 	bge  40007fd4 <_malloc_r+0x48c>
40007ed8:	de 26 e0 10 	st  %o7, [ %i3 + 0x10 ]
40007edc:	80 a0 61 ff 	cmp  %g1, 0x1ff
40007ee0:	18 80 00 50 	bgu  40008020 <_malloc_r+0x4d8>
40007ee4:	80 a0 69 ff 	cmp  %g1, 0x9ff
40007ee8:	c4 06 e0 04 	ld  [ %i3 + 4 ], %g2
40007eec:	b5 30 60 05 	srl  %g1, 5, %i2
40007ef0:	86 10 20 01 	mov  1, %g3
40007ef4:	82 08 7f f8 	and  %g1, -8, %g1
40007ef8:	87 28 c0 1a 	sll  %g3, %i2, %g3
40007efc:	82 00 60 08 	add  %g1, 8, %g1
40007f00:	86 10 c0 02 	or  %g3, %g2, %g3
40007f04:	f4 06 c0 01 	ld  [ %i3 + %g1 ], %i2
40007f08:	84 06 c0 01 	add  %i3, %g1, %g2
40007f0c:	f4 27 60 08 	st  %i2, [ %i5 + 8 ]
40007f10:	c6 26 e0 04 	st  %g3, [ %i3 + 4 ]
40007f14:	84 00 bf f8 	add  %g2, -8, %g2
40007f18:	c4 27 60 0c 	st  %g2, [ %i5 + 0xc ]
40007f1c:	fa 26 c0 01 	st  %i5, [ %i3 + %g1 ]
40007f20:	fa 26 a0 0c 	st  %i5, [ %i2 + 0xc ]
40007f24:	83 39 20 02 	sra  %g4, 2, %g1
40007f28:	b4 10 20 01 	mov  1, %i2
40007f2c:	b5 2e 80 01 	sll  %i2, %g1, %i2
40007f30:	80 a6 80 03 	cmp  %i2, %g3
40007f34:	38 bf ff 61 	bgu,a   40007cb8 <_malloc_r+0x170>
40007f38:	fa 06 e0 08 	ld  [ %i3 + 8 ], %i5
40007f3c:	80 8e 80 03 	btst  %i2, %g3
40007f40:	12 80 00 08 	bne  40007f60 <_malloc_r+0x418>
40007f44:	9b 29 20 03 	sll  %g4, 3, %o5
40007f48:	88 09 3f fc 	and  %g4, -4, %g4
40007f4c:	b5 2e a0 01 	sll  %i2, 1, %i2
40007f50:	80 8e 80 03 	btst  %i2, %g3
40007f54:	02 bf ff fe 	be  40007f4c <_malloc_r+0x404>
40007f58:	88 01 20 04 	add  %g4, 4, %g4
40007f5c:	9b 29 20 03 	sll  %g4, 3, %o5
40007f60:	98 10 00 04 	mov  %g4, %o4
40007f64:	9a 06 c0 0d 	add  %i3, %o5, %o5
40007f68:	b2 10 00 0d 	mov  %o5, %i1
40007f6c:	10 80 00 0b 	b  40007f98 <_malloc_r+0x450>
40007f70:	c2 06 60 0c 	ld  [ %i1 + 0xc ], %g1
40007f74:	ba 10 00 01 	mov  %g1, %i5
40007f78:	84 08 bf fc 	and  %g2, -4, %g2
40007f7c:	86 20 80 1c 	sub  %g2, %i4, %g3
40007f80:	80 a0 e0 0f 	cmp  %g3, 0xf
40007f84:	14 80 00 4f 	bg  400080c0 <_malloc_r+0x578>
40007f88:	c2 00 60 0c 	ld  [ %g1 + 0xc ], %g1
40007f8c:	80 a0 e0 00 	cmp  %g3, 0
40007f90:	36 80 00 5d 	bge,a   40008104 <_malloc_r+0x5bc>
40007f94:	84 07 40 02 	add  %i5, %g2, %g2
40007f98:	80 a6 40 01 	cmp  %i1, %g1
40007f9c:	32 bf ff f6 	bne,a   40007f74 <_malloc_r+0x42c>
40007fa0:	c4 00 60 04 	ld  [ %g1 + 4 ], %g2
40007fa4:	98 03 20 01 	inc  %o4
40007fa8:	80 8b 20 03 	btst  3, %o4
40007fac:	12 bf ff f0 	bne  40007f6c <_malloc_r+0x424>
40007fb0:	b2 06 60 08 	add  %i1, 8, %i1
40007fb4:	10 80 00 7b 	b  400081a0 <_malloc_r+0x658>
40007fb8:	80 89 20 03 	btst  3, %g4
40007fbc:	88 10 20 40 	mov  0x40, %g4
40007fc0:	10 bf ff 1b 	b  40007c2c <_malloc_r+0xe4>
40007fc4:	b4 10 20 3f 	mov  0x3f, %i2
40007fc8:	c6 07 60 08 	ld  [ %i5 + 8 ], %g3
40007fcc:	c4 20 e0 0c 	st  %g2, [ %g3 + 0xc ]
40007fd0:	c6 20 a0 08 	st  %g3, [ %g2 + 8 ]
40007fd4:	82 07 40 01 	add  %i5, %g1, %g1
40007fd8:	c4 00 60 04 	ld  [ %g1 + 4 ], %g2
40007fdc:	84 10 a0 01 	or  %g2, 1, %g2
40007fe0:	90 10 00 18 	mov  %i0, %o0
40007fe4:	c4 20 60 04 	st  %g2, [ %g1 + 4 ]
40007fe8:	40 00 01 56 	call  40008540 <__malloc_unlock>
40007fec:	ba 07 60 08 	add  %i5, 8, %i5
40007ff0:	30 bf fe f8 	b,a   40007bd0 <_malloc_r+0x88>
40007ff4:	c2 27 60 04 	st  %g1, [ %i5 + 4 ]
40007ff8:	b8 07 40 1c 	add  %i5, %i4, %i4
40007ffc:	84 10 a0 01 	or  %g2, 1, %g2
40008000:	f8 26 e0 08 	st  %i4, [ %i3 + 8 ]
40008004:	90 10 00 18 	mov  %i0, %o0
40008008:	c4 27 20 04 	st  %g2, [ %i4 + 4 ]
4000800c:	40 00 01 4d 	call  40008540 <__malloc_unlock>
40008010:	ba 07 60 08 	add  %i5, 8, %i5
40008014:	b0 10 00 1d 	mov  %i5, %i0
40008018:	81 c7 e0 08 	ret 
4000801c:	81 e8 00 00 	restore 
40008020:	08 80 00 53 	bleu  4000816c <_malloc_r+0x624>
40008024:	85 30 60 09 	srl  %g1, 9, %g2
40008028:	80 a0 a0 14 	cmp  %g2, 0x14
4000802c:	18 80 00 84 	bgu  4000823c <_malloc_r+0x6f4>
40008030:	80 a0 a0 54 	cmp  %g2, 0x54
40008034:	b4 00 a0 5c 	add  %g2, 0x5c, %i2
40008038:	86 00 a0 5b 	add  %g2, 0x5b, %g3
4000803c:	85 2e a0 03 	sll  %i2, 3, %g2
40008040:	b4 06 c0 02 	add  %i3, %g2, %i2
40008044:	c4 06 c0 02 	ld  [ %i3 + %g2 ], %g2
40008048:	b4 06 bf f8 	add  %i2, -8, %i2
4000804c:	80 a6 80 02 	cmp  %i2, %g2
40008050:	22 80 00 75 	be,a   40008224 <_malloc_r+0x6dc>
40008054:	f2 06 e0 04 	ld  [ %i3 + 4 ], %i1
40008058:	c6 00 a0 04 	ld  [ %g2 + 4 ], %g3
4000805c:	86 08 ff fc 	and  %g3, -4, %g3
40008060:	80 a0 c0 01 	cmp  %g3, %g1
40008064:	28 80 00 07 	bleu,a   40008080 <_malloc_r+0x538>
40008068:	f4 00 a0 0c 	ld  [ %g2 + 0xc ], %i2
4000806c:	c4 00 a0 08 	ld  [ %g2 + 8 ], %g2
40008070:	80 a6 80 02 	cmp  %i2, %g2
40008074:	32 bf ff fa 	bne,a   4000805c <_malloc_r+0x514>
40008078:	c6 00 a0 04 	ld  [ %g2 + 4 ], %g3
4000807c:	f4 00 a0 0c 	ld  [ %g2 + 0xc ], %i2
40008080:	c6 06 e0 04 	ld  [ %i3 + 4 ], %g3
40008084:	f4 27 60 0c 	st  %i2, [ %i5 + 0xc ]
40008088:	c4 27 60 08 	st  %g2, [ %i5 + 8 ]
4000808c:	fa 26 a0 08 	st  %i5, [ %i2 + 8 ]
40008090:	10 bf ff a5 	b  40007f24 <_malloc_r+0x3dc>
40008094:	fa 20 a0 0c 	st  %i5, [ %g2 + 0xc ]
40008098:	08 80 00 3a 	bleu  40008180 <_malloc_r+0x638>
4000809c:	88 00 60 5c 	add  %g1, 0x5c, %g4
400080a0:	80 a0 60 54 	cmp  %g1, 0x54
400080a4:	18 80 00 6d 	bgu  40008258 <_malloc_r+0x710>
400080a8:	80 a0 61 54 	cmp  %g1, 0x154
400080ac:	83 37 20 0c 	srl  %i4, 0xc, %g1
400080b0:	88 00 60 6f 	add  %g1, 0x6f, %g4
400080b4:	b4 00 60 6e 	add  %g1, 0x6e, %i2
400080b8:	10 bf fe dd 	b  40007c2c <_malloc_r+0xe4>
400080bc:	83 29 20 03 	sll  %g4, 3, %g1
400080c0:	88 17 20 01 	or  %i4, 1, %g4
400080c4:	c8 27 60 04 	st  %g4, [ %i5 + 4 ]
400080c8:	c8 07 60 08 	ld  [ %i5 + 8 ], %g4
400080cc:	c2 21 20 0c 	st  %g1, [ %g4 + 0xc ]
400080d0:	c8 20 60 08 	st  %g4, [ %g1 + 8 ]
400080d4:	b8 07 40 1c 	add  %i5, %i4, %i4
400080d8:	f8 26 e0 14 	st  %i4, [ %i3 + 0x14 ]
400080dc:	f8 26 e0 10 	st  %i4, [ %i3 + 0x10 ]
400080e0:	de 27 20 0c 	st  %o7, [ %i4 + 0xc ]
400080e4:	de 27 20 08 	st  %o7, [ %i4 + 8 ]
400080e8:	82 10 e0 01 	or  %g3, 1, %g1
400080ec:	c2 27 20 04 	st  %g1, [ %i4 + 4 ]
400080f0:	c6 27 40 02 	st  %g3, [ %i5 + %g2 ]
400080f4:	90 10 00 18 	mov  %i0, %o0
400080f8:	40 00 01 12 	call  40008540 <__malloc_unlock>
400080fc:	ba 07 60 08 	add  %i5, 8, %i5
40008100:	30 bf ff 64 	b,a   40007e90 <_malloc_r+0x348>
40008104:	c6 00 a0 04 	ld  [ %g2 + 4 ], %g3
40008108:	86 10 e0 01 	or  %g3, 1, %g3
4000810c:	c6 20 a0 04 	st  %g3, [ %g2 + 4 ]
40008110:	c4 07 60 08 	ld  [ %i5 + 8 ], %g2
40008114:	c2 20 a0 0c 	st  %g1, [ %g2 + 0xc ]
40008118:	c4 20 60 08 	st  %g2, [ %g1 + 8 ]
4000811c:	90 10 00 18 	mov  %i0, %o0
40008120:	40 00 01 08 	call  40008540 <__malloc_unlock>
40008124:	ba 07 60 08 	add  %i5, 8, %i5
40008128:	30 bf ff 5a 	b,a   40007e90 <_malloc_r+0x348>
4000812c:	10 bf fe 94 	b  40007b7c <_malloc_r+0x34>
40008130:	82 07 20 08 	add  %i4, 8, %g1
40008134:	86 17 20 01 	or  %i4, 1, %g3
40008138:	c6 27 60 04 	st  %g3, [ %i5 + 4 ]
4000813c:	b8 07 40 1c 	add  %i5, %i4, %i4
40008140:	f8 26 e0 14 	st  %i4, [ %i3 + 0x14 ]
40008144:	f8 26 e0 10 	st  %i4, [ %i3 + 0x10 ]
40008148:	de 27 20 0c 	st  %o7, [ %i4 + 0xc ]
4000814c:	de 27 20 08 	st  %o7, [ %i4 + 8 ]
40008150:	86 10 a0 01 	or  %g2, 1, %g3
40008154:	c6 27 20 04 	st  %g3, [ %i4 + 4 ]
40008158:	c4 27 40 01 	st  %g2, [ %i5 + %g1 ]
4000815c:	90 10 00 18 	mov  %i0, %o0
40008160:	40 00 00 f8 	call  40008540 <__malloc_unlock>
40008164:	ba 07 60 08 	add  %i5, 8, %i5
40008168:	30 bf ff 4a 	b,a   40007e90 <_malloc_r+0x348>
4000816c:	85 30 60 06 	srl  %g1, 6, %g2
40008170:	b4 00 a0 39 	add  %g2, 0x39, %i2
40008174:	86 00 a0 38 	add  %g2, 0x38, %g3
40008178:	10 bf ff b2 	b  40008040 <_malloc_r+0x4f8>
4000817c:	85 2e a0 03 	sll  %i2, 3, %g2
40008180:	b4 00 60 5b 	add  %g1, 0x5b, %i2
40008184:	10 bf fe aa 	b  40007c2c <_malloc_r+0xe4>
40008188:	83 29 20 03 	sll  %g4, 3, %g1
4000818c:	c2 03 60 08 	ld  [ %o5 + 8 ], %g1
40008190:	80 a0 40 0d 	cmp  %g1, %o5
40008194:	12 80 00 60 	bne  40008314 <_malloc_r+0x7cc>
40008198:	88 01 3f ff 	add  %g4, -1, %g4
4000819c:	80 89 20 03 	btst  3, %g4
400081a0:	32 bf ff fb 	bne,a   4000818c <_malloc_r+0x644>
400081a4:	9a 03 7f f8 	add  %o5, -8, %o5
400081a8:	c2 06 e0 04 	ld  [ %i3 + 4 ], %g1
400081ac:	82 28 40 1a 	andn  %g1, %i2, %g1
400081b0:	c2 26 e0 04 	st  %g1, [ %i3 + 4 ]
400081b4:	b4 86 80 1a 	addcc  %i2, %i2, %i2
400081b8:	02 bf fe bf 	be  40007cb4 <_malloc_r+0x16c>
400081bc:	80 a0 40 1a 	cmp  %g1, %i2
400081c0:	1a 80 00 06 	bcc  400081d8 <_malloc_r+0x690>
400081c4:	80 8e 80 01 	btst  %i2, %g1
400081c8:	10 bf fe bc 	b  40007cb8 <_malloc_r+0x170>
400081cc:	fa 06 e0 08 	ld  [ %i3 + 8 ], %i5
400081d0:	98 03 20 04 	add  %o4, 4, %o4
400081d4:	80 8e 80 01 	btst  %i2, %g1
400081d8:	22 bf ff fe 	be,a   400081d0 <_malloc_r+0x688>
400081dc:	b5 2e a0 01 	sll  %i2, 1, %i2
400081e0:	10 bf ff 5f 	b  40007f5c <_malloc_r+0x414>
400081e4:	88 10 00 0c 	mov  %o4, %g4
400081e8:	fa 06 e0 08 	ld  [ %i3 + 8 ], %i5
400081ec:	10 bf ff 16 	b  40007e44 <_malloc_r+0x2fc>
400081f0:	c2 07 60 04 	ld  [ %i5 + 4 ], %g1
400081f4:	80 8c 6f ff 	btst  0xfff, %l1
400081f8:	32 bf fe da 	bne,a   40007d60 <_malloc_r+0x218>
400081fc:	c2 04 e3 f0 	ld  [ %l3 + 0x3f0 ], %g1
40008200:	fa 06 e0 08 	ld  [ %i3 + 8 ], %i5
40008204:	82 06 40 1a 	add  %i1, %i2, %g1
40008208:	82 10 60 01 	or  %g1, 1, %g1
4000820c:	10 bf ff 04 	b  40007e1c <_malloc_r+0x2d4>
40008210:	c2 27 60 04 	st  %g1, [ %i5 + 4 ]
40008214:	10 bf fe d8 	b  40007d74 <_malloc_r+0x22c>
40008218:	e0 24 e3 f0 	st  %l0, [ %l3 + 0x3f0 ]
4000821c:	10 bf fe bf 	b  40007d18 <_malloc_r+0x1d0>
40008220:	b4 06 a0 10 	add  %i2, 0x10, %i2
40008224:	83 38 e0 02 	sra  %g3, 2, %g1
40008228:	86 10 20 01 	mov  1, %g3
4000822c:	87 28 c0 01 	sll  %g3, %g1, %g3
40008230:	86 10 c0 19 	or  %g3, %i1, %g3
40008234:	10 bf ff 94 	b  40008084 <_malloc_r+0x53c>
40008238:	c6 26 e0 04 	st  %g3, [ %i3 + 4 ]
4000823c:	18 80 00 15 	bgu  40008290 <_malloc_r+0x748>
40008240:	80 a0 a1 54 	cmp  %g2, 0x154
40008244:	85 30 60 0c 	srl  %g1, 0xc, %g2
40008248:	b4 00 a0 6f 	add  %g2, 0x6f, %i2
4000824c:	86 00 a0 6e 	add  %g2, 0x6e, %g3
40008250:	10 bf ff 7c 	b  40008040 <_malloc_r+0x4f8>
40008254:	85 2e a0 03 	sll  %i2, 3, %g2
40008258:	18 80 00 15 	bgu  400082ac <_malloc_r+0x764>
4000825c:	80 a0 65 54 	cmp  %g1, 0x554
40008260:	83 37 20 0f 	srl  %i4, 0xf, %g1
40008264:	88 00 60 78 	add  %g1, 0x78, %g4
40008268:	b4 00 60 77 	add  %g1, 0x77, %i2
4000826c:	10 bf fe 70 	b  40007c2c <_malloc_r+0xe4>
40008270:	83 29 20 03 	sll  %g4, 3, %g1
40008274:	10 bf fe d3 	b  40007dc0 <_malloc_r+0x278>
40008278:	b4 10 20 00 	clr  %i2
4000827c:	10 bf fe e8 	b  40007e1c <_malloc_r+0x2d4>
40008280:	ba 10 00 10 	mov  %l0, %i5
40008284:	82 10 20 01 	mov  1, %g1
40008288:	10 bf fe fa 	b  40007e70 <_malloc_r+0x328>
4000828c:	c2 24 20 04 	st  %g1, [ %l0 + 4 ]
40008290:	18 80 00 15 	bgu  400082e4 <_malloc_r+0x79c>
40008294:	80 a0 a5 54 	cmp  %g2, 0x554
40008298:	85 30 60 0f 	srl  %g1, 0xf, %g2
4000829c:	b4 00 a0 78 	add  %g2, 0x78, %i2
400082a0:	86 00 a0 77 	add  %g2, 0x77, %g3
400082a4:	10 bf ff 67 	b  40008040 <_malloc_r+0x4f8>
400082a8:	85 2e a0 03 	sll  %i2, 3, %g2
400082ac:	38 80 00 15 	bgu,a   40008300 <_malloc_r+0x7b8>
400082b0:	82 10 23 f8 	mov  0x3f8, %g1
400082b4:	83 37 20 12 	srl  %i4, 0x12, %g1
400082b8:	88 00 60 7d 	add  %g1, 0x7d, %g4
400082bc:	b4 00 60 7c 	add  %g1, 0x7c, %i2
400082c0:	10 bf fe 5b 	b  40007c2c <_malloc_r+0xe4>
400082c4:	83 29 20 03 	sll  %g4, 3, %g1
400082c8:	92 07 60 08 	add  %i5, 8, %o1
400082cc:	7f ff fc 86 	call  400074e4 <_free_r>
400082d0:	90 10 00 18 	mov  %i0, %o0
400082d4:	d2 04 a2 e0 	ld  [ %l2 + 0x2e0 ], %o1
400082d8:	fa 06 e0 08 	ld  [ %i3 + 8 ], %i5
400082dc:	10 bf fe d0 	b  40007e1c <_malloc_r+0x2d4>
400082e0:	c2 07 60 04 	ld  [ %i5 + 4 ], %g1
400082e4:	38 80 00 0a 	bgu,a   4000830c <_malloc_r+0x7c4>
400082e8:	84 10 23 f8 	mov  0x3f8, %g2
400082ec:	85 30 60 12 	srl  %g1, 0x12, %g2
400082f0:	b4 00 a0 7d 	add  %g2, 0x7d, %i2
400082f4:	86 00 a0 7c 	add  %g2, 0x7c, %g3
400082f8:	10 bf ff 52 	b  40008040 <_malloc_r+0x4f8>
400082fc:	85 2e a0 03 	sll  %i2, 3, %g2
40008300:	88 10 20 7f 	mov  0x7f, %g4
40008304:	10 bf fe 4a 	b  40007c2c <_malloc_r+0xe4>
40008308:	b4 10 20 7e 	mov  0x7e, %i2
4000830c:	10 bf ff 4d 	b  40008040 <_malloc_r+0x4f8>
40008310:	86 10 20 7e 	mov  0x7e, %g3
40008314:	10 bf ff a8 	b  400081b4 <_malloc_r+0x66c>
40008318:	c2 06 e0 04 	ld  [ %i3 + 4 ], %g1

4000831c <memchr>:
4000831c:	80 8a 20 03 	btst  3, %o0
40008320:	02 80 00 14 	be  40008370 <memchr+0x54>
40008324:	88 10 00 09 	mov  %o1, %g4
40008328:	80 a2 a0 00 	cmp  %o2, 0
4000832c:	02 80 00 18 	be  4000838c <memchr+0x70>
40008330:	82 02 bf ff 	add  %o2, -1, %g1
40008334:	10 80 00 09 	b  40008358 <memchr+0x3c>
40008338:	86 0a 60 ff 	and  %o1, 0xff, %g3
4000833c:	80 8a 20 03 	btst  3, %o0
40008340:	02 80 00 0e 	be  40008378 <memchr+0x5c>
40008344:	80 a0 60 03 	cmp  %g1, 3
40008348:	82 00 7f ff 	add  %g1, -1, %g1
4000834c:	80 a0 7f ff 	cmp  %g1, -1
40008350:	02 80 00 0f 	be  4000838c <memchr+0x70>
40008354:	01 00 00 00 	nop 
40008358:	c4 0a 00 00 	ldub  [ %o0 ], %g2
4000835c:	80 a0 80 03 	cmp  %g2, %g3
40008360:	32 bf ff f7 	bne,a   4000833c <memchr+0x20>
40008364:	90 02 20 01 	inc  %o0
40008368:	81 c3 e0 08 	retl 
4000836c:	01 00 00 00 	nop 
40008370:	82 10 00 0a 	mov  %o2, %g1
40008374:	80 a0 60 03 	cmp  %g1, 3
40008378:	38 80 00 12 	bgu,a   400083c0 <memchr+0xa4>
4000837c:	92 0a 60 ff 	and  %o1, 0xff, %o1
40008380:	80 a0 60 00 	cmp  %g1, 0
40008384:	12 80 00 04 	bne  40008394 <memchr+0x78>
40008388:	82 02 00 01 	add  %o0, %g1, %g1
4000838c:	81 c3 e0 08 	retl 
40008390:	90 10 20 00 	clr  %o0
40008394:	10 80 00 05 	b  400083a8 <memchr+0x8c>
40008398:	86 09 20 ff 	and  %g4, 0xff, %g3
4000839c:	80 a2 00 01 	cmp  %o0, %g1
400083a0:	02 bf ff fb 	be  4000838c <memchr+0x70>
400083a4:	01 00 00 00 	nop 
400083a8:	c4 0a 00 00 	ldub  [ %o0 ], %g2
400083ac:	80 a0 80 03 	cmp  %g2, %g3
400083b0:	32 bf ff fb 	bne,a   4000839c <memchr+0x80>
400083b4:	90 02 20 01 	inc  %o0
400083b8:	81 c3 e0 08 	retl 
400083bc:	01 00 00 00 	nop 
400083c0:	19 3f bf bf 	sethi  %hi(0xfefefc00), %o4
400083c4:	85 2a 60 08 	sll  %o1, 8, %g2
400083c8:	1b 20 20 20 	sethi  %hi(0x80808000), %o5
400083cc:	84 10 80 09 	or  %g2, %o1, %g2
400083d0:	98 13 22 ff 	or  %o4, 0x2ff, %o4
400083d4:	93 28 a0 10 	sll  %g2, 0x10, %o1
400083d8:	9a 13 60 80 	or  %o5, 0x80, %o5
400083dc:	92 12 40 02 	or  %o1, %g2, %o1
400083e0:	c4 02 00 00 	ld  [ %o0 ], %g2
400083e4:	84 1a 40 02 	xor  %o1, %g2, %g2
400083e8:	86 00 80 0c 	add  %g2, %o4, %g3
400083ec:	84 28 c0 02 	andn  %g3, %g2, %g2
400083f0:	80 88 80 0d 	btst  %g2, %o5
400083f4:	32 bf ff e8 	bne,a   40008394 <memchr+0x78>
400083f8:	82 02 00 01 	add  %o0, %g1, %g1
400083fc:	82 00 7f fc 	add  %g1, -4, %g1
40008400:	80 a0 60 03 	cmp  %g1, 3
40008404:	18 bf ff f7 	bgu  400083e0 <memchr+0xc4>
40008408:	90 02 20 04 	add  %o0, 4, %o0
4000840c:	10 bf ff de 	b  40008384 <memchr+0x68>
40008410:	80 a0 60 00 	cmp  %g1, 0

40008414 <memset>:
40008414:	80 8a 20 03 	btst  3, %o0
40008418:	02 80 00 41 	be  4000851c <memset+0x108>
4000841c:	80 a2 a0 00 	cmp  %o2, 0
40008420:	84 02 bf ff 	add  %o2, -1, %g2
40008424:	86 10 00 09 	mov  %o1, %g3
40008428:	12 80 00 06 	bne  40008440 <memset+0x2c>
4000842c:	82 10 00 08 	mov  %o0, %g1
40008430:	30 80 00 3e 	b,a   40008528 <memset+0x114>
40008434:	80 a0 bf ff 	cmp  %g2, -1
40008438:	02 80 00 3c 	be  40008528 <memset+0x114>
4000843c:	01 00 00 00 	nop 
40008440:	c6 28 40 00 	stb  %g3, [ %g1 ]
40008444:	82 00 60 01 	inc  %g1
40008448:	80 88 60 03 	btst  3, %g1
4000844c:	32 bf ff fa 	bne,a   40008434 <memset+0x20>
40008450:	84 00 bf ff 	add  %g2, -1, %g2
40008454:	80 a0 a0 03 	cmp  %g2, 3
40008458:	08 80 00 28 	bleu  400084f8 <memset+0xe4>
4000845c:	80 a0 a0 00 	cmp  %g2, 0
40008460:	88 0a 60 ff 	and  %o1, 0xff, %g4
40008464:	87 29 20 08 	sll  %g4, 8, %g3
40008468:	80 a0 a0 0f 	cmp  %g2, 0xf
4000846c:	88 10 c0 04 	or  %g3, %g4, %g4
40008470:	87 29 20 10 	sll  %g4, 0x10, %g3
40008474:	08 80 00 2f 	bleu  40008530 <memset+0x11c>
40008478:	86 10 c0 04 	or  %g3, %g4, %g3
4000847c:	88 00 bf f0 	add  %g2, -16, %g4
40008480:	88 09 3f f0 	and  %g4, -16, %g4
40008484:	88 01 20 10 	add  %g4, 0x10, %g4
40008488:	88 00 40 04 	add  %g1, %g4, %g4
4000848c:	c6 20 40 00 	st  %g3, [ %g1 ]
40008490:	c6 20 60 04 	st  %g3, [ %g1 + 4 ]
40008494:	c6 20 60 08 	st  %g3, [ %g1 + 8 ]
40008498:	c6 20 60 0c 	st  %g3, [ %g1 + 0xc ]
4000849c:	82 00 60 10 	add  %g1, 0x10, %g1
400084a0:	80 a1 00 01 	cmp  %g4, %g1
400084a4:	32 bf ff fb 	bne,a   40008490 <memset+0x7c>
400084a8:	c6 20 40 00 	st  %g3, [ %g1 ]
400084ac:	9a 08 a0 0c 	and  %g2, 0xc, %o5
400084b0:	88 08 a0 0f 	and  %g2, 0xf, %g4
400084b4:	80 a3 60 00 	cmp  %o5, 0
400084b8:	02 80 00 0f 	be  400084f4 <memset+0xe0>
400084bc:	84 10 00 04 	mov  %g4, %g2
400084c0:	84 01 3f fc 	add  %g4, -4, %g2
400084c4:	80 a0 a0 03 	cmp  %g2, 3
400084c8:	08 80 00 07 	bleu  400084e4 <memset+0xd0>
400084cc:	c6 20 40 00 	st  %g3, [ %g1 ]
400084d0:	9a 01 3f f8 	add  %g4, -8, %o5
400084d4:	80 a3 60 03 	cmp  %o5, 3
400084d8:	08 80 00 03 	bleu  400084e4 <memset+0xd0>
400084dc:	c6 20 60 04 	st  %g3, [ %g1 + 4 ]
400084e0:	c6 20 60 08 	st  %g3, [ %g1 + 8 ]
400084e4:	86 08 bf fc 	and  %g2, -4, %g3
400084e8:	84 09 20 03 	and  %g4, 3, %g2
400084ec:	86 00 e0 04 	add  %g3, 4, %g3
400084f0:	82 00 40 03 	add  %g1, %g3, %g1
400084f4:	80 a0 a0 00 	cmp  %g2, 0
400084f8:	02 80 00 0c 	be  40008528 <memset+0x114>
400084fc:	80 a0 a0 01 	cmp  %g2, 1
40008500:	02 80 00 0a 	be  40008528 <memset+0x114>
40008504:	d2 28 40 00 	stb  %o1, [ %g1 ]
40008508:	80 a0 a0 02 	cmp  %g2, 2
4000850c:	02 80 00 07 	be  40008528 <memset+0x114>
40008510:	d2 28 60 01 	stb  %o1, [ %g1 + 1 ]
40008514:	81 c3 e0 08 	retl 
40008518:	d2 28 60 02 	stb  %o1, [ %g1 + 2 ]
4000851c:	82 10 00 08 	mov  %o0, %g1
40008520:	10 bf ff cd 	b  40008454 <memset+0x40>
40008524:	84 10 00 0a 	mov  %o2, %g2
40008528:	81 c3 e0 08 	retl 
4000852c:	01 00 00 00 	nop 
40008530:	10 bf ff e4 	b  400084c0 <memset+0xac>
40008534:	88 10 00 02 	mov  %g2, %g4

40008538 <__malloc_lock>:
40008538:	81 c3 e0 08 	retl 
4000853c:	01 00 00 00 	nop 

40008540 <__malloc_unlock>:
40008540:	81 c3 e0 08 	retl 
40008544:	01 00 00 00 	nop 

40008548 <_Balloc>:
40008548:	9d e3 bf a0 	save  %sp, -96, %sp
4000854c:	fa 06 20 24 	ld  [ %i0 + 0x24 ], %i5
40008550:	80 a7 60 00 	cmp  %i5, 0
40008554:	02 80 00 11 	be  40008598 <_Balloc+0x50>
40008558:	01 00 00 00 	nop 
4000855c:	c2 07 60 0c 	ld  [ %i5 + 0xc ], %g1
40008560:	80 a0 60 00 	cmp  %g1, 0
40008564:	02 80 00 16 	be  400085bc <_Balloc+0x74>
40008568:	94 10 20 21 	mov  0x21, %o2
4000856c:	85 2e 60 02 	sll  %i1, 2, %g2
40008570:	d0 00 40 02 	ld  [ %g1 + %g2 ], %o0
40008574:	80 a2 20 00 	cmp  %o0, 0
40008578:	02 80 00 1c 	be  400085e8 <_Balloc+0xa0>
4000857c:	92 10 20 01 	mov  1, %o1
40008580:	c6 02 00 00 	ld  [ %o0 ], %g3
40008584:	c6 20 40 02 	st  %g3, [ %g1 + %g2 ]
40008588:	c0 22 20 10 	clr  [ %o0 + 0x10 ]
4000858c:	c0 22 20 0c 	clr  [ %o0 + 0xc ]
40008590:	81 c7 e0 08 	ret 
40008594:	91 e8 00 08 	restore  %g0, %o0, %o0
40008598:	7f ff fd 60 	call  40007b18 <malloc>
4000859c:	90 10 20 10 	mov  0x10, %o0
400085a0:	d0 26 20 24 	st  %o0, [ %i0 + 0x24 ]
400085a4:	ba 10 00 08 	mov  %o0, %i5
400085a8:	c0 22 20 04 	clr  [ %o0 + 4 ]
400085ac:	c0 22 20 08 	clr  [ %o0 + 8 ]
400085b0:	c0 22 00 00 	clr  [ %o0 ]
400085b4:	c0 22 20 0c 	clr  [ %o0 + 0xc ]
400085b8:	94 10 20 21 	mov  0x21, %o2
400085bc:	92 10 20 04 	mov  4, %o1
400085c0:	40 00 0e 5a 	call  4000bf28 <_calloc_r>
400085c4:	90 10 00 18 	mov  %i0, %o0
400085c8:	d0 27 60 0c 	st  %o0, [ %i5 + 0xc ]
400085cc:	c2 06 20 24 	ld  [ %i0 + 0x24 ], %g1
400085d0:	c2 00 60 0c 	ld  [ %g1 + 0xc ], %g1
400085d4:	80 a0 60 00 	cmp  %g1, 0
400085d8:	12 bf ff e6 	bne  40008570 <_Balloc+0x28>
400085dc:	85 2e 60 02 	sll  %i1, 2, %g2
400085e0:	10 bf ff ec 	b  40008590 <_Balloc+0x48>
400085e4:	90 10 20 00 	clr  %o0
400085e8:	ba 10 20 01 	mov  1, %i5
400085ec:	90 10 00 18 	mov  %i0, %o0
400085f0:	bb 2f 40 19 	sll  %i5, %i1, %i5
400085f4:	94 07 60 05 	add  %i5, 5, %o2
400085f8:	40 00 0e 4c 	call  4000bf28 <_calloc_r>
400085fc:	95 2a a0 02 	sll  %o2, 2, %o2
40008600:	80 a2 20 00 	cmp  %o0, 0
40008604:	22 bf ff e3 	be,a   40008590 <_Balloc+0x48>
40008608:	90 10 20 00 	clr  %o0
4000860c:	f2 22 20 04 	st  %i1, [ %o0 + 4 ]
40008610:	10 bf ff de 	b  40008588 <_Balloc+0x40>
40008614:	fa 22 20 08 	st  %i5, [ %o0 + 8 ]

40008618 <_Bfree>:
40008618:	9d e3 bf a0 	save  %sp, -96, %sp
4000861c:	d0 06 20 24 	ld  [ %i0 + 0x24 ], %o0
40008620:	80 a2 20 00 	cmp  %o0, 0
40008624:	02 80 00 0d 	be  40008658 <_Bfree+0x40>
40008628:	01 00 00 00 	nop 
4000862c:	80 a6 60 00 	cmp  %i1, 0
40008630:	02 80 00 08 	be  40008650 <_Bfree+0x38>
40008634:	01 00 00 00 	nop 
40008638:	c4 02 20 0c 	ld  [ %o0 + 0xc ], %g2
4000863c:	c2 06 60 04 	ld  [ %i1 + 4 ], %g1
40008640:	83 28 60 02 	sll  %g1, 2, %g1
40008644:	c6 00 80 01 	ld  [ %g2 + %g1 ], %g3
40008648:	c6 26 40 00 	st  %g3, [ %i1 ]
4000864c:	f2 20 80 01 	st  %i1, [ %g2 + %g1 ]
40008650:	81 c7 e0 08 	ret 
40008654:	81 e8 00 00 	restore 
40008658:	7f ff fd 30 	call  40007b18 <malloc>
4000865c:	90 10 20 10 	mov  0x10, %o0
40008660:	d0 26 20 24 	st  %o0, [ %i0 + 0x24 ]
40008664:	c0 22 20 04 	clr  [ %o0 + 4 ]
40008668:	c0 22 20 08 	clr  [ %o0 + 8 ]
4000866c:	c0 22 00 00 	clr  [ %o0 ]
40008670:	10 bf ff ef 	b  4000862c <_Bfree+0x14>
40008674:	c0 22 20 0c 	clr  [ %o0 + 0xc ]

40008678 <__multadd>:
40008678:	9d e3 bf a0 	save  %sp, -96, %sp
4000867c:	25 00 00 3f 	sethi  %hi(0xfc00), %l2
40008680:	e0 06 60 10 	ld  [ %i1 + 0x10 ], %l0
40008684:	ba 06 60 14 	add  %i1, 0x14, %i5
40008688:	b8 10 20 00 	clr  %i4
4000868c:	a4 14 a3 ff 	or  %l2, 0x3ff, %l2
40008690:	e2 07 40 00 	ld  [ %i5 ], %l1
40008694:	92 10 00 1a 	mov  %i2, %o1
40008698:	40 00 16 11 	call  4000dedc <.umul>
4000869c:	90 0c 40 12 	and  %l1, %l2, %o0
400086a0:	92 10 00 1a 	mov  %i2, %o1
400086a4:	b6 02 00 1b 	add  %o0, %i3, %i3
400086a8:	40 00 16 0d 	call  4000dedc <.umul>
400086ac:	91 34 60 10 	srl  %l1, 0x10, %o0
400086b0:	83 36 e0 10 	srl  %i3, 0x10, %g1
400086b4:	ba 07 60 04 	add  %i5, 4, %i5
400086b8:	90 02 00 01 	add  %o0, %g1, %o0
400086bc:	b6 0e c0 12 	and  %i3, %l2, %i3
400086c0:	83 2a 20 10 	sll  %o0, 0x10, %g1
400086c4:	b6 00 40 1b 	add  %g1, %i3, %i3
400086c8:	f6 27 7f fc 	st  %i3, [ %i5 + -4 ]
400086cc:	b8 07 20 01 	inc  %i4
400086d0:	80 a4 00 1c 	cmp  %l0, %i4
400086d4:	14 bf ff ef 	bg  40008690 <__multadd+0x18>
400086d8:	b7 32 20 10 	srl  %o0, 0x10, %i3
400086dc:	80 a6 e0 00 	cmp  %i3, 0
400086e0:	02 80 00 0c 	be  40008710 <__multadd+0x98>
400086e4:	01 00 00 00 	nop 
400086e8:	c2 06 60 08 	ld  [ %i1 + 8 ], %g1
400086ec:	80 a0 40 10 	cmp  %g1, %l0
400086f0:	24 80 00 0a 	ble,a   40008718 <__multadd+0xa0>
400086f4:	d2 06 60 04 	ld  [ %i1 + 4 ], %o1
400086f8:	82 04 20 04 	add  %l0, 4, %g1
400086fc:	83 28 60 02 	sll  %g1, 2, %g1
40008700:	82 06 40 01 	add  %i1, %g1, %g1
40008704:	f6 20 60 04 	st  %i3, [ %g1 + 4 ]
40008708:	a0 04 20 01 	inc  %l0
4000870c:	e0 26 60 10 	st  %l0, [ %i1 + 0x10 ]
40008710:	81 c7 e0 08 	ret 
40008714:	91 e8 00 19 	restore  %g0, %i1, %o0
40008718:	90 10 00 18 	mov  %i0, %o0
4000871c:	7f ff ff 8b 	call  40008548 <_Balloc>
40008720:	92 02 60 01 	inc  %o1
40008724:	d4 06 60 10 	ld  [ %i1 + 0x10 ], %o2
40008728:	b8 10 00 08 	mov  %o0, %i4
4000872c:	94 02 a0 02 	add  %o2, 2, %o2
40008730:	92 06 60 0c 	add  %i1, 0xc, %o1
40008734:	95 2a a0 02 	sll  %o2, 2, %o2
40008738:	7f ff e6 c4 	call  40002248 <memcpy>
4000873c:	90 02 20 0c 	add  %o0, 0xc, %o0
40008740:	fa 06 20 24 	ld  [ %i0 + 0x24 ], %i5
40008744:	80 a7 60 00 	cmp  %i5, 0
40008748:	02 80 00 0a 	be  40008770 <__multadd+0xf8>
4000874c:	01 00 00 00 	nop 
40008750:	fa 07 60 0c 	ld  [ %i5 + 0xc ], %i5
40008754:	c2 06 60 04 	ld  [ %i1 + 4 ], %g1
40008758:	83 28 60 02 	sll  %g1, 2, %g1
4000875c:	c4 07 40 01 	ld  [ %i5 + %g1 ], %g2
40008760:	c4 26 40 00 	st  %g2, [ %i1 ]
40008764:	f2 27 40 01 	st  %i1, [ %i5 + %g1 ]
40008768:	10 bf ff e4 	b  400086f8 <__multadd+0x80>
4000876c:	b2 10 00 1c 	mov  %i4, %i1
40008770:	7f ff fc ea 	call  40007b18 <malloc>
40008774:	90 10 20 10 	mov  0x10, %o0
40008778:	d0 26 20 24 	st  %o0, [ %i0 + 0x24 ]
4000877c:	c0 22 20 04 	clr  [ %o0 + 4 ]
40008780:	c0 22 20 08 	clr  [ %o0 + 8 ]
40008784:	c0 22 00 00 	clr  [ %o0 ]
40008788:	10 bf ff f3 	b  40008754 <__multadd+0xdc>
4000878c:	c0 22 20 0c 	clr  [ %o0 + 0xc ]

40008790 <__s2b>:
40008790:	9d e3 bf a0 	save  %sp, -96, %sp
40008794:	92 10 20 09 	mov  9, %o1
40008798:	40 00 16 0d 	call  4000dfcc <.div>
4000879c:	90 06 e0 08 	add  %i3, 8, %o0
400087a0:	80 a6 e0 09 	cmp  %i3, 9
400087a4:	04 80 00 2f 	ble  40008860 <__s2b+0xd0>
400087a8:	82 10 20 01 	mov  1, %g1
400087ac:	92 10 20 00 	clr  %o1
400087b0:	83 28 60 01 	sll  %g1, 1, %g1
400087b4:	80 a2 00 01 	cmp  %o0, %g1
400087b8:	14 bf ff fe 	bg  400087b0 <__s2b+0x20>
400087bc:	92 02 60 01 	inc  %o1
400087c0:	7f ff ff 62 	call  40008548 <_Balloc>
400087c4:	90 10 00 18 	mov  %i0, %o0
400087c8:	82 10 20 01 	mov  1, %g1
400087cc:	f8 22 20 14 	st  %i4, [ %o0 + 0x14 ]
400087d0:	c2 22 20 10 	st  %g1, [ %o0 + 0x10 ]
400087d4:	80 a6 a0 09 	cmp  %i2, 9
400087d8:	04 80 00 1f 	ble  40008854 <__s2b+0xc4>
400087dc:	92 10 00 08 	mov  %o0, %o1
400087e0:	b8 06 60 09 	add  %i1, 9, %i4
400087e4:	b2 06 40 1a 	add  %i1, %i2, %i1
400087e8:	ba 10 00 1c 	mov  %i4, %i5
400087ec:	d6 4f 40 00 	ldsb  [ %i5 ], %o3
400087f0:	94 10 20 0a 	mov  0xa, %o2
400087f4:	96 02 ff d0 	add  %o3, -48, %o3
400087f8:	7f ff ff a0 	call  40008678 <__multadd>
400087fc:	90 10 00 18 	mov  %i0, %o0
40008800:	ba 07 60 01 	inc  %i5
40008804:	80 a6 40 1d 	cmp  %i1, %i5
40008808:	12 bf ff f9 	bne  400087ec <__s2b+0x5c>
4000880c:	92 10 00 08 	mov  %o0, %o1
40008810:	b2 06 bf f8 	add  %i2, -8, %i1
40008814:	b2 07 00 19 	add  %i4, %i1, %i1
40008818:	80 a6 c0 1a 	cmp  %i3, %i2
4000881c:	04 80 00 0c 	ble  4000884c <__s2b+0xbc>
40008820:	b6 26 c0 1a 	sub  %i3, %i2, %i3
40008824:	b6 06 40 1b 	add  %i1, %i3, %i3
40008828:	d6 4e 40 00 	ldsb  [ %i1 ], %o3
4000882c:	94 10 20 0a 	mov  0xa, %o2
40008830:	96 02 ff d0 	add  %o3, -48, %o3
40008834:	7f ff ff 91 	call  40008678 <__multadd>
40008838:	90 10 00 18 	mov  %i0, %o0
4000883c:	b2 06 60 01 	inc  %i1
40008840:	80 a6 c0 19 	cmp  %i3, %i1
40008844:	12 bf ff f9 	bne  40008828 <__s2b+0x98>
40008848:	92 10 00 08 	mov  %o0, %o1
4000884c:	81 c7 e0 08 	ret 
40008850:	91 e8 00 09 	restore  %g0, %o1, %o0
40008854:	b2 06 60 0a 	add  %i1, 0xa, %i1
40008858:	10 bf ff f0 	b  40008818 <__s2b+0x88>
4000885c:	b4 10 20 09 	mov  9, %i2
40008860:	10 bf ff d8 	b  400087c0 <__s2b+0x30>
40008864:	92 10 20 00 	clr  %o1

40008868 <__hi0bits>:
40008868:	05 3f ff c0 	sethi  %hi(0xffff0000), %g2
4000886c:	80 8a 00 02 	btst  %o0, %g2
40008870:	12 80 00 1d 	bne  400088e4 <__hi0bits+0x7c>
40008874:	82 10 00 08 	mov  %o0, %g1
40008878:	83 2a 20 10 	sll  %o0, 0x10, %g1
4000887c:	86 10 20 18 	mov  0x18, %g3
40008880:	90 10 20 10 	mov  0x10, %o0
40008884:	05 3f c0 00 	sethi  %hi(0xff000000), %g2
40008888:	80 88 40 02 	btst  %g1, %g2
4000888c:	12 80 00 04 	bne  4000889c <__hi0bits+0x34>
40008890:	05 3c 00 00 	sethi  %hi(0xf0000000), %g2
40008894:	83 28 60 08 	sll  %g1, 8, %g1
40008898:	90 10 00 03 	mov  %g3, %o0
4000889c:	80 88 40 02 	btst  %g1, %g2
400088a0:	12 80 00 04 	bne  400088b0 <__hi0bits+0x48>
400088a4:	05 30 00 00 	sethi  %hi(0xc0000000), %g2
400088a8:	90 02 20 04 	add  %o0, 4, %o0
400088ac:	83 28 60 04 	sll  %g1, 4, %g1
400088b0:	80 88 40 02 	btst  %g1, %g2
400088b4:	12 80 00 05 	bne  400088c8 <__hi0bits+0x60>
400088b8:	80 a0 60 00 	cmp  %g1, 0
400088bc:	90 02 20 02 	add  %o0, 2, %o0
400088c0:	83 28 60 02 	sll  %g1, 2, %g1
400088c4:	80 a0 60 00 	cmp  %g1, 0
400088c8:	06 80 00 05 	bl  400088dc <__hi0bits+0x74>
400088cc:	05 10 00 00 	sethi  %hi(0x40000000), %g2
400088d0:	80 88 40 02 	btst  %g1, %g2
400088d4:	02 80 00 07 	be  400088f0 <__hi0bits+0x88>
400088d8:	90 02 20 01 	inc  %o0
400088dc:	81 c3 e0 08 	retl 
400088e0:	01 00 00 00 	nop 
400088e4:	86 10 20 08 	mov  8, %g3	! 8 <fpu_state_f2>
400088e8:	10 bf ff e7 	b  40008884 <__hi0bits+0x1c>
400088ec:	90 10 20 00 	clr  %o0
400088f0:	81 c3 e0 08 	retl 
400088f4:	90 10 20 20 	mov  0x20, %o0

400088f8 <__lo0bits>:
400088f8:	c2 02 00 00 	ld  [ %o0 ], %g1
400088fc:	80 88 60 07 	btst  7, %g1
40008900:	22 80 00 0c 	be,a   40008930 <__lo0bits+0x38>
40008904:	05 00 00 3f 	sethi  %hi(0xfc00), %g2
40008908:	80 88 60 01 	btst  1, %g1
4000890c:	12 80 00 07 	bne  40008928 <__lo0bits+0x30>
40008910:	84 10 20 00 	clr  %g2
40008914:	80 88 60 02 	btst  2, %g1
40008918:	02 80 00 2a 	be  400089c0 <__lo0bits+0xc8>
4000891c:	84 10 20 01 	mov  1, %g2
40008920:	83 30 60 01 	srl  %g1, 1, %g1
40008924:	c2 22 00 00 	st  %g1, [ %o0 ]
40008928:	81 c3 e0 08 	retl 
4000892c:	90 10 00 02 	mov  %g2, %o0
40008930:	84 10 a3 ff 	or  %g2, 0x3ff, %g2
40008934:	80 88 40 02 	btst  %g1, %g2
40008938:	22 80 00 1d 	be,a   400089ac <__lo0bits+0xb4>
4000893c:	83 30 60 10 	srl  %g1, 0x10, %g1
40008940:	86 10 20 08 	mov  8, %g3
40008944:	84 10 20 00 	clr  %g2
40008948:	80 88 60 ff 	btst  0xff, %g1
4000894c:	12 80 00 05 	bne  40008960 <__lo0bits+0x68>
40008950:	80 88 60 0f 	btst  0xf, %g1
40008954:	83 30 60 08 	srl  %g1, 8, %g1
40008958:	84 10 00 03 	mov  %g3, %g2
4000895c:	80 88 60 0f 	btst  0xf, %g1
40008960:	12 80 00 05 	bne  40008974 <__lo0bits+0x7c>
40008964:	80 88 60 03 	btst  3, %g1
40008968:	84 00 a0 04 	add  %g2, 4, %g2
4000896c:	83 30 60 04 	srl  %g1, 4, %g1
40008970:	80 88 60 03 	btst  3, %g1
40008974:	12 80 00 05 	bne  40008988 <__lo0bits+0x90>
40008978:	80 88 60 01 	btst  1, %g1
4000897c:	84 00 a0 02 	add  %g2, 2, %g2
40008980:	83 30 60 02 	srl  %g1, 2, %g1
40008984:	80 88 60 01 	btst  1, %g1
40008988:	32 80 00 07 	bne,a   400089a4 <__lo0bits+0xac>
4000898c:	c2 22 00 00 	st  %g1, [ %o0 ]
40008990:	83 30 60 01 	srl  %g1, 1, %g1
40008994:	80 a0 60 00 	cmp  %g1, 0
40008998:	02 80 00 08 	be  400089b8 <__lo0bits+0xc0>
4000899c:	84 00 a0 01 	inc  %g2
400089a0:	c2 22 00 00 	st  %g1, [ %o0 ]
400089a4:	81 c3 e0 08 	retl 
400089a8:	90 10 00 02 	mov  %g2, %o0
400089ac:	86 10 20 18 	mov  0x18, %g3
400089b0:	10 bf ff e6 	b  40008948 <__lo0bits+0x50>
400089b4:	84 10 20 10 	mov  0x10, %g2
400089b8:	10 bf ff dc 	b  40008928 <__lo0bits+0x30>
400089bc:	84 10 20 20 	mov  0x20, %g2
400089c0:	83 30 60 02 	srl  %g1, 2, %g1
400089c4:	84 10 20 02 	mov  2, %g2
400089c8:	c2 22 00 00 	st  %g1, [ %o0 ]
400089cc:	81 c3 e0 08 	retl 
400089d0:	90 10 00 02 	mov  %g2, %o0

400089d4 <__i2b>:
400089d4:	9d e3 bf a0 	save  %sp, -96, %sp
400089d8:	fa 06 20 24 	ld  [ %i0 + 0x24 ], %i5
400089dc:	80 a7 60 00 	cmp  %i5, 0
400089e0:	02 80 00 12 	be  40008a28 <__i2b+0x54>
400089e4:	01 00 00 00 	nop 
400089e8:	c2 07 60 0c 	ld  [ %i5 + 0xc ], %g1
400089ec:	80 a0 60 00 	cmp  %g1, 0
400089f0:	02 80 00 17 	be  40008a4c <__i2b+0x78>
400089f4:	94 10 20 21 	mov  0x21, %o2
400089f8:	d0 00 60 04 	ld  [ %g1 + 4 ], %o0
400089fc:	80 a2 20 00 	cmp  %o0, 0
40008a00:	02 80 00 1e 	be  40008a78 <__i2b+0xa4>
40008a04:	94 10 20 1c 	mov  0x1c, %o2
40008a08:	c4 02 00 00 	ld  [ %o0 ], %g2
40008a0c:	c4 20 60 04 	st  %g2, [ %g1 + 4 ]
40008a10:	c0 22 20 0c 	clr  [ %o0 + 0xc ]
40008a14:	82 10 20 01 	mov  1, %g1
40008a18:	f2 22 20 14 	st  %i1, [ %o0 + 0x14 ]
40008a1c:	c2 22 20 10 	st  %g1, [ %o0 + 0x10 ]
40008a20:	81 c7 e0 08 	ret 
40008a24:	91 e8 00 08 	restore  %g0, %o0, %o0
40008a28:	7f ff fc 3c 	call  40007b18 <malloc>
40008a2c:	90 10 20 10 	mov  0x10, %o0
40008a30:	d0 26 20 24 	st  %o0, [ %i0 + 0x24 ]
40008a34:	ba 10 00 08 	mov  %o0, %i5
40008a38:	c0 22 20 04 	clr  [ %o0 + 4 ]
40008a3c:	c0 22 20 08 	clr  [ %o0 + 8 ]
40008a40:	c0 22 00 00 	clr  [ %o0 ]
40008a44:	c0 22 20 0c 	clr  [ %o0 + 0xc ]
40008a48:	94 10 20 21 	mov  0x21, %o2
40008a4c:	92 10 20 04 	mov  4, %o1
40008a50:	40 00 0d 36 	call  4000bf28 <_calloc_r>
40008a54:	90 10 00 18 	mov  %i0, %o0
40008a58:	d0 27 60 0c 	st  %o0, [ %i5 + 0xc ]
40008a5c:	c2 06 20 24 	ld  [ %i0 + 0x24 ], %g1
40008a60:	c2 00 60 0c 	ld  [ %g1 + 0xc ], %g1
40008a64:	80 a0 60 00 	cmp  %g1, 0
40008a68:	32 bf ff e5 	bne,a   400089fc <__i2b+0x28>
40008a6c:	d0 00 60 04 	ld  [ %g1 + 4 ], %o0
40008a70:	c0 20 20 14 	clr  [ 0x14 ]
40008a74:	91 d0 20 05 	ta  5
40008a78:	92 10 20 01 	mov  1, %o1
40008a7c:	40 00 0d 2b 	call  4000bf28 <_calloc_r>
40008a80:	90 10 00 18 	mov  %i0, %o0
40008a84:	80 a2 20 00 	cmp  %o0, 0
40008a88:	02 bf ff fa 	be  40008a70 <__i2b+0x9c>
40008a8c:	82 10 20 01 	mov  1, %g1
40008a90:	c2 22 20 04 	st  %g1, [ %o0 + 4 ]
40008a94:	82 10 20 02 	mov  2, %g1
40008a98:	c0 22 20 0c 	clr  [ %o0 + 0xc ]
40008a9c:	c2 22 20 08 	st  %g1, [ %o0 + 8 ]
40008aa0:	f2 22 20 14 	st  %i1, [ %o0 + 0x14 ]
40008aa4:	82 10 20 01 	mov  1, %g1
40008aa8:	c2 22 20 10 	st  %g1, [ %o0 + 0x10 ]
40008aac:	81 c7 e0 08 	ret 
40008ab0:	91 e8 00 08 	restore  %g0, %o0, %o0

40008ab4 <__multiply>:
40008ab4:	9d e3 bf 90 	save  %sp, -112, %sp
40008ab8:	e6 06 60 10 	ld  [ %i1 + 0x10 ], %l3
40008abc:	f6 06 a0 10 	ld  [ %i2 + 0x10 ], %i3
40008ac0:	80 a4 c0 1b 	cmp  %l3, %i3
40008ac4:	06 80 00 09 	bl  40008ae8 <__multiply+0x34>
40008ac8:	a4 06 c0 13 	add  %i3, %l3, %l2
40008acc:	84 10 00 1b 	mov  %i3, %g2
40008ad0:	82 10 00 1a 	mov  %i2, %g1
40008ad4:	b6 10 00 13 	mov  %l3, %i3
40008ad8:	b4 10 00 19 	mov  %i1, %i2
40008adc:	a6 10 00 02 	mov  %g2, %l3
40008ae0:	b2 10 00 01 	mov  %g1, %i1
40008ae4:	a4 06 c0 13 	add  %i3, %l3, %l2
40008ae8:	c2 06 a0 08 	ld  [ %i2 + 8 ], %g1
40008aec:	80 a0 40 12 	cmp  %g1, %l2
40008af0:	16 80 00 03 	bge  40008afc <__multiply+0x48>
40008af4:	d2 06 a0 04 	ld  [ %i2 + 4 ], %o1
40008af8:	92 02 60 01 	inc  %o1
40008afc:	7f ff fe 93 	call  40008548 <_Balloc>
40008b00:	90 10 00 18 	mov  %i0, %o0
40008b04:	d0 27 bf f4 	st  %o0, [ %fp + -12 ]
40008b08:	a2 02 20 14 	add  %o0, 0x14, %l1
40008b0c:	a1 2c a0 02 	sll  %l2, 2, %l0
40008b10:	a0 04 40 10 	add  %l1, %l0, %l0
40008b14:	80 a4 40 10 	cmp  %l1, %l0
40008b18:	1a 80 00 07 	bcc  40008b34 <__multiply+0x80>
40008b1c:	82 10 00 11 	mov  %l1, %g1
40008b20:	c0 20 40 00 	clr  [ %g1 ]
40008b24:	82 00 60 04 	add  %g1, 4, %g1
40008b28:	80 a4 00 01 	cmp  %l0, %g1
40008b2c:	38 bf ff fe 	bgu,a   40008b24 <__multiply+0x70>
40008b30:	c0 20 40 00 	clr  [ %g1 ]
40008b34:	82 06 a0 14 	add  %i2, 0x14, %g1
40008b38:	c2 27 bf f8 	st  %g1, [ %fp + -8 ]
40008b3c:	b2 06 60 14 	add  %i1, 0x14, %i1
40008b40:	b7 2e e0 02 	sll  %i3, 2, %i3
40008b44:	a7 2c e0 02 	sll  %l3, 2, %l3
40008b48:	a6 06 40 13 	add  %i1, %l3, %l3
40008b4c:	80 a6 40 13 	cmp  %i1, %l3
40008b50:	1a 80 00 5b 	bcc  40008cbc <__multiply+0x208>
40008b54:	b6 00 40 1b 	add  %g1, %i3, %i3
40008b58:	84 10 20 04 	mov  4, %g2
40008b5c:	82 06 a0 15 	add  %i2, 0x15, %g1
40008b60:	80 a6 c0 01 	cmp  %i3, %g1
40008b64:	1a 80 00 66 	bcc  40008cfc <__multiply+0x248>
40008b68:	c4 27 bf fc 	st  %g2, [ %fp + -4 ]
40008b6c:	39 00 00 3f 	sethi  %hi(0xfc00), %i4
40008b70:	10 80 00 09 	b  40008b94 <__multiply+0xe0>
40008b74:	b8 17 23 ff 	or  %i4, 0x3ff, %i4	! ffff <__data_size+0xf9ef>
40008b78:	80 a6 a0 00 	cmp  %i2, 0
40008b7c:	32 80 00 2e 	bne,a   40008c34 <__multiply+0x180>
40008b80:	fa 04 40 00 	ld  [ %l1 ], %i5
40008b84:	b2 06 60 04 	add  %i1, 4, %i1
40008b88:	80 a4 c0 19 	cmp  %l3, %i1
40008b8c:	08 80 00 4c 	bleu  40008cbc <__multiply+0x208>
40008b90:	a2 04 60 04 	add  %l1, 4, %l1
40008b94:	f4 06 40 00 	ld  [ %i1 ], %i2
40008b98:	ac 8e 80 1c 	andcc  %i2, %i4, %l6
40008b9c:	02 bf ff f7 	be  40008b78 <__multiply+0xc4>
40008ba0:	b5 36 a0 10 	srl  %i2, 0x10, %i2
40008ba4:	b0 10 00 11 	mov  %l1, %i0
40008ba8:	ee 07 bf f8 	ld  [ %fp + -8 ], %l7
40008bac:	ba 10 20 00 	clr  %i5
40008bb0:	e8 05 c0 00 	ld  [ %l7 ], %l4
40008bb4:	92 10 00 16 	mov  %l6, %o1
40008bb8:	40 00 14 c9 	call  4000dedc <.umul>
40008bbc:	90 0d 00 1c 	and  %l4, %i4, %o0
40008bc0:	f4 06 00 00 	ld  [ %i0 ], %i2
40008bc4:	82 10 00 08 	mov  %o0, %g1
40008bc8:	88 0e 80 1c 	and  %i2, %i4, %g4
40008bcc:	82 00 40 04 	add  %g1, %g4, %g1
40008bd0:	92 10 00 16 	mov  %l6, %o1
40008bd4:	ba 00 40 1d 	add  %g1, %i5, %i5
40008bd8:	40 00 14 c1 	call  4000dedc <.umul>
40008bdc:	91 35 20 10 	srl  %l4, 0x10, %o0
40008be0:	83 37 60 10 	srl  %i5, 0x10, %g1
40008be4:	b0 06 20 04 	add  %i0, 4, %i0
40008be8:	b5 36 a0 10 	srl  %i2, 0x10, %i2
40008bec:	ba 0f 40 1c 	and  %i5, %i4, %i5
40008bf0:	90 02 00 1a 	add  %o0, %i2, %o0
40008bf4:	90 02 00 01 	add  %o0, %g1, %o0
40008bf8:	83 2a 20 10 	sll  %o0, 0x10, %g1
40008bfc:	ba 10 40 1d 	or  %g1, %i5, %i5
40008c00:	fa 26 3f fc 	st  %i5, [ %i0 + -4 ]
40008c04:	ae 05 e0 04 	add  %l7, 4, %l7
40008c08:	80 a6 c0 17 	cmp  %i3, %l7
40008c0c:	18 bf ff e9 	bgu  40008bb0 <__multiply+0xfc>
40008c10:	bb 32 20 10 	srl  %o0, 0x10, %i5
40008c14:	c2 07 bf fc 	ld  [ %fp + -4 ], %g1
40008c18:	fa 24 40 01 	st  %i5, [ %l1 + %g1 ]
40008c1c:	f4 06 40 00 	ld  [ %i1 ], %i2
40008c20:	b5 36 a0 10 	srl  %i2, 0x10, %i2
40008c24:	80 a6 a0 00 	cmp  %i2, 0
40008c28:	22 bf ff d8 	be,a   40008b88 <__multiply+0xd4>
40008c2c:	b2 06 60 04 	add  %i1, 4, %i1
40008c30:	fa 04 40 00 	ld  [ %l1 ], %i5
40008c34:	a8 10 00 11 	mov  %l1, %l4
40008c38:	aa 10 00 1d 	mov  %i5, %l5
40008c3c:	ee 07 bf f8 	ld  [ %fp + -8 ], %l7
40008c40:	b0 10 20 00 	clr  %i0
40008c44:	d0 05 c0 00 	ld  [ %l7 ], %o0
40008c48:	ad 35 60 10 	srl  %l5, 0x10, %l6
40008c4c:	92 10 00 1a 	mov  %i2, %o1
40008c50:	40 00 14 a3 	call  4000dedc <.umul>
40008c54:	90 0a 00 1c 	and  %o0, %i4, %o0
40008c58:	90 02 00 16 	add  %o0, %l6, %o0
40008c5c:	ac 02 00 18 	add  %o0, %i0, %l6
40008c60:	83 2d a0 10 	sll  %l6, 0x10, %g1
40008c64:	ae 05 e0 04 	add  %l7, 4, %l7
40008c68:	ba 0f 40 1c 	and  %i5, %i4, %i5
40008c6c:	92 10 00 1a 	mov  %i2, %o1
40008c70:	ba 10 40 1d 	or  %g1, %i5, %i5
40008c74:	fa 25 00 00 	st  %i5, [ %l4 ]
40008c78:	40 00 14 99 	call  4000dedc <.umul>
40008c7c:	d0 15 ff fc 	lduh  [ %l7 + -4 ], %o0
40008c80:	a8 05 20 04 	add  %l4, 4, %l4
40008c84:	ad 35 a0 10 	srl  %l6, 0x10, %l6
40008c88:	ea 05 00 00 	ld  [ %l4 ], %l5
40008c8c:	80 a6 c0 17 	cmp  %i3, %l7
40008c90:	ba 0d 40 1c 	and  %l5, %i4, %i5
40008c94:	ba 02 00 1d 	add  %o0, %i5, %i5
40008c98:	ba 07 40 16 	add  %i5, %l6, %i5
40008c9c:	18 bf ff ea 	bgu  40008c44 <__multiply+0x190>
40008ca0:	b1 37 60 10 	srl  %i5, 0x10, %i0
40008ca4:	c2 07 bf fc 	ld  [ %fp + -4 ], %g1
40008ca8:	fa 24 40 01 	st  %i5, [ %l1 + %g1 ]
40008cac:	b2 06 60 04 	add  %i1, 4, %i1
40008cb0:	80 a4 c0 19 	cmp  %l3, %i1
40008cb4:	18 bf ff b8 	bgu  40008b94 <__multiply+0xe0>
40008cb8:	a2 04 60 04 	add  %l1, 4, %l1
40008cbc:	80 a4 a0 00 	cmp  %l2, 0
40008cc0:	34 80 00 07 	bg,a   40008cdc <__multiply+0x228>
40008cc4:	a0 04 3f fc 	add  %l0, -4, %l0
40008cc8:	10 80 00 0a 	b  40008cf0 <__multiply+0x23c>
40008ccc:	c2 07 bf f4 	ld  [ %fp + -12 ], %g1
40008cd0:	02 80 00 08 	be  40008cf0 <__multiply+0x23c>
40008cd4:	c2 07 bf f4 	ld  [ %fp + -12 ], %g1
40008cd8:	a0 04 3f fc 	add  %l0, -4, %l0
40008cdc:	c2 04 00 00 	ld  [ %l0 ], %g1
40008ce0:	80 a0 60 00 	cmp  %g1, 0
40008ce4:	22 bf ff fb 	be,a   40008cd0 <__multiply+0x21c>
40008ce8:	a4 84 bf ff 	addcc  %l2, -1, %l2
40008cec:	c2 07 bf f4 	ld  [ %fp + -12 ], %g1
40008cf0:	e4 20 60 10 	st  %l2, [ %g1 + 0x10 ]
40008cf4:	81 c7 e0 08 	ret 
40008cf8:	91 e8 00 01 	restore  %g0, %g1, %o0
40008cfc:	aa 26 c0 1a 	sub  %i3, %i2, %l5
40008d00:	aa 05 7f eb 	add  %l5, -21, %l5
40008d04:	aa 0d 7f fc 	and  %l5, -4, %l5
40008d08:	82 05 60 04 	add  %l5, 4, %g1
40008d0c:	10 bf ff 98 	b  40008b6c <__multiply+0xb8>
40008d10:	c2 27 bf fc 	st  %g1, [ %fp + -4 ]

40008d14 <__pow5mult>:
40008d14:	9d e3 bf a0 	save  %sp, -96, %sp
40008d18:	82 8e a0 03 	andcc  %i2, 3, %g1
40008d1c:	32 80 00 44 	bne,a   40008e2c <__pow5mult+0x118>
40008d20:	82 00 7f ff 	add  %g1, -1, %g1
40008d24:	b5 3e a0 02 	sra  %i2, 2, %i2
40008d28:	80 a6 a0 00 	cmp  %i2, 0
40008d2c:	02 80 00 2e 	be  40008de4 <__pow5mult+0xd0>
40008d30:	b8 10 00 19 	mov  %i1, %i4
40008d34:	f8 06 20 24 	ld  [ %i0 + 0x24 ], %i4
40008d38:	80 a7 20 00 	cmp  %i4, 0
40008d3c:	02 80 00 46 	be  40008e54 <__pow5mult+0x140>
40008d40:	01 00 00 00 	nop 
40008d44:	fa 07 20 08 	ld  [ %i4 + 8 ], %i5
40008d48:	80 a7 60 00 	cmp  %i5, 0
40008d4c:	02 80 00 4b 	be  40008e78 <__pow5mult+0x164>
40008d50:	92 10 20 01 	mov  1, %o1
40008d54:	80 8e a0 01 	btst  1, %i2
40008d58:	12 80 00 0e 	bne  40008d90 <__pow5mult+0x7c>
40008d5c:	b8 10 00 19 	mov  %i1, %i4
40008d60:	b5 3e a0 01 	sra  %i2, 1, %i2
40008d64:	80 a6 a0 00 	cmp  %i2, 0
40008d68:	02 80 00 1f 	be  40008de4 <__pow5mult+0xd0>
40008d6c:	01 00 00 00 	nop 
40008d70:	d0 07 40 00 	ld  [ %i5 ], %o0
40008d74:	80 a2 20 00 	cmp  %o0, 0
40008d78:	02 80 00 1d 	be  40008dec <__pow5mult+0xd8>
40008d7c:	94 10 00 1d 	mov  %i5, %o2
40008d80:	ba 10 00 08 	mov  %o0, %i5
40008d84:	80 8e a0 01 	btst  1, %i2
40008d88:	22 bf ff f7 	be,a   40008d64 <__pow5mult+0x50>
40008d8c:	b5 3e a0 01 	sra  %i2, 1, %i2
40008d90:	94 10 00 1d 	mov  %i5, %o2
40008d94:	92 10 00 1c 	mov  %i4, %o1
40008d98:	7f ff ff 47 	call  40008ab4 <__multiply>
40008d9c:	90 10 00 18 	mov  %i0, %o0
40008da0:	c2 06 20 24 	ld  [ %i0 + 0x24 ], %g1
40008da4:	80 a0 60 00 	cmp  %g1, 0
40008da8:	02 80 00 18 	be  40008e08 <__pow5mult+0xf4>
40008dac:	b6 10 00 08 	mov  %o0, %i3
40008db0:	80 a7 20 00 	cmp  %i4, 0
40008db4:	22 bf ff eb 	be,a   40008d60 <__pow5mult+0x4c>
40008db8:	b8 10 00 1b 	mov  %i3, %i4
40008dbc:	c4 00 60 0c 	ld  [ %g1 + 0xc ], %g2
40008dc0:	c2 07 20 04 	ld  [ %i4 + 4 ], %g1
40008dc4:	83 28 60 02 	sll  %g1, 2, %g1
40008dc8:	c6 00 80 01 	ld  [ %g2 + %g1 ], %g3
40008dcc:	c6 27 00 00 	st  %g3, [ %i4 ]
40008dd0:	f8 20 80 01 	st  %i4, [ %g2 + %g1 ]
40008dd4:	b5 3e a0 01 	sra  %i2, 1, %i2
40008dd8:	80 a6 a0 00 	cmp  %i2, 0
40008ddc:	12 bf ff e5 	bne  40008d70 <__pow5mult+0x5c>
40008de0:	b8 10 00 1b 	mov  %i3, %i4
40008de4:	81 c7 e0 08 	ret 
40008de8:	91 e8 00 1c 	restore  %g0, %i4, %o0
40008dec:	92 10 00 1d 	mov  %i5, %o1
40008df0:	7f ff ff 31 	call  40008ab4 <__multiply>
40008df4:	90 10 00 18 	mov  %i0, %o0
40008df8:	d0 27 40 00 	st  %o0, [ %i5 ]
40008dfc:	c0 22 00 00 	clr  [ %o0 ]
40008e00:	10 bf ff e1 	b  40008d84 <__pow5mult+0x70>
40008e04:	ba 10 00 08 	mov  %o0, %i5
40008e08:	7f ff fb 44 	call  40007b18 <malloc>
40008e0c:	90 10 20 10 	mov  0x10, %o0
40008e10:	d0 26 20 24 	st  %o0, [ %i0 + 0x24 ]
40008e14:	82 10 00 08 	mov  %o0, %g1
40008e18:	c0 22 20 08 	clr  [ %o0 + 8 ]
40008e1c:	c0 22 00 00 	clr  [ %o0 ]
40008e20:	c0 22 20 0c 	clr  [ %o0 + 0xc ]
40008e24:	10 bf ff e3 	b  40008db0 <__pow5mult+0x9c>
40008e28:	c0 22 20 04 	clr  [ %o0 + 4 ]
40008e2c:	05 10 00 3b 	sethi  %hi(0x4000ec00), %g2
40008e30:	83 28 60 02 	sll  %g1, 2, %g1
40008e34:	84 10 a2 70 	or  %g2, 0x270, %g2
40008e38:	92 10 00 19 	mov  %i1, %o1
40008e3c:	96 10 20 00 	clr  %o3
40008e40:	90 10 00 18 	mov  %i0, %o0
40008e44:	7f ff fe 0d 	call  40008678 <__multadd>
40008e48:	d4 00 80 01 	ld  [ %g2 + %g1 ], %o2
40008e4c:	10 bf ff b6 	b  40008d24 <__pow5mult+0x10>
40008e50:	b2 10 00 08 	mov  %o0, %i1
40008e54:	7f ff fb 31 	call  40007b18 <malloc>
40008e58:	90 10 20 10 	mov  0x10, %o0
40008e5c:	d0 26 20 24 	st  %o0, [ %i0 + 0x24 ]
40008e60:	b8 10 00 08 	mov  %o0, %i4
40008e64:	c0 22 20 04 	clr  [ %o0 + 4 ]
40008e68:	c0 22 20 08 	clr  [ %o0 + 8 ]
40008e6c:	c0 22 00 00 	clr  [ %o0 ]
40008e70:	c0 22 20 0c 	clr  [ %o0 + 0xc ]
40008e74:	92 10 20 01 	mov  1, %o1
40008e78:	7f ff fd b4 	call  40008548 <_Balloc>
40008e7c:	90 10 00 18 	mov  %i0, %o0
40008e80:	82 10 22 71 	mov  0x271, %g1
40008e84:	c2 22 20 14 	st  %g1, [ %o0 + 0x14 ]
40008e88:	82 10 20 01 	mov  1, %g1
40008e8c:	c2 22 20 10 	st  %g1, [ %o0 + 0x10 ]
40008e90:	d0 27 20 08 	st  %o0, [ %i4 + 8 ]
40008e94:	ba 10 00 08 	mov  %o0, %i5
40008e98:	10 bf ff af 	b  40008d54 <__pow5mult+0x40>
40008e9c:	c0 22 00 00 	clr  [ %o0 ]

40008ea0 <__lshift>:
40008ea0:	9d e3 bf a0 	save  %sp, -96, %sp
40008ea4:	e0 06 60 10 	ld  [ %i1 + 0x10 ], %l0
40008ea8:	bb 3e a0 05 	sra  %i2, 5, %i5
40008eac:	c2 06 60 08 	ld  [ %i1 + 8 ], %g1
40008eb0:	a0 07 40 10 	add  %i5, %l0, %l0
40008eb4:	b6 04 20 01 	add  %l0, 1, %i3
40008eb8:	80 a6 c0 01 	cmp  %i3, %g1
40008ebc:	04 80 00 06 	ble  40008ed4 <__lshift+0x34>
40008ec0:	d2 06 60 04 	ld  [ %i1 + 4 ], %o1
40008ec4:	83 28 60 01 	sll  %g1, 1, %g1
40008ec8:	80 a6 c0 01 	cmp  %i3, %g1
40008ecc:	14 bf ff fe 	bg  40008ec4 <__lshift+0x24>
40008ed0:	92 02 60 01 	inc  %o1
40008ed4:	7f ff fd 9d 	call  40008548 <_Balloc>
40008ed8:	90 10 00 18 	mov  %i0, %o0
40008edc:	80 a7 60 00 	cmp  %i5, 0
40008ee0:	a2 10 00 08 	mov  %o0, %l1
40008ee4:	04 80 00 0d 	ble  40008f18 <__lshift+0x78>
40008ee8:	88 02 20 14 	add  %o0, 0x14, %g4
40008eec:	ba 07 60 05 	add  %i5, 5, %i5
40008ef0:	82 10 00 04 	mov  %g4, %g1
40008ef4:	bb 2f 60 02 	sll  %i5, 2, %i5
40008ef8:	84 02 00 1d 	add  %o0, %i5, %g2
40008efc:	c0 20 40 00 	clr  [ %g1 ]
40008f00:	82 00 60 04 	add  %g1, 4, %g1
40008f04:	80 a0 80 01 	cmp  %g2, %g1
40008f08:	32 bf ff fe 	bne,a   40008f00 <__lshift+0x60>
40008f0c:	c0 20 40 00 	clr  [ %g1 ]
40008f10:	ba 07 7f ec 	add  %i5, -20, %i5
40008f14:	88 01 00 1d 	add  %g4, %i5, %g4
40008f18:	82 06 60 14 	add  %i1, 0x14, %g1
40008f1c:	fa 06 60 10 	ld  [ %i1 + 0x10 ], %i5
40008f20:	b4 8e a0 1f 	andcc  %i2, 0x1f, %i2
40008f24:	bb 2f 60 02 	sll  %i5, 2, %i5
40008f28:	02 80 00 24 	be  40008fb8 <__lshift+0x118>
40008f2c:	ba 00 40 1d 	add  %g1, %i5, %i5
40008f30:	9e 10 20 20 	mov  0x20, %o7
40008f34:	b8 10 00 04 	mov  %g4, %i4
40008f38:	9e 23 c0 1a 	sub  %o7, %i2, %o7
40008f3c:	86 10 20 00 	clr  %g3
40008f40:	c4 00 40 00 	ld  [ %g1 ], %g2
40008f44:	b8 07 20 04 	add  %i4, 4, %i4
40008f48:	85 28 80 1a 	sll  %g2, %i2, %g2
40008f4c:	84 10 80 03 	or  %g2, %g3, %g2
40008f50:	c4 27 3f fc 	st  %g2, [ %i4 + -4 ]
40008f54:	82 00 60 04 	add  %g1, 4, %g1
40008f58:	c4 00 7f fc 	ld  [ %g1 + -4 ], %g2
40008f5c:	80 a7 40 01 	cmp  %i5, %g1
40008f60:	18 bf ff f8 	bgu  40008f40 <__lshift+0xa0>
40008f64:	87 30 80 0f 	srl  %g2, %o7, %g3
40008f68:	84 06 60 15 	add  %i1, 0x15, %g2
40008f6c:	80 a7 40 02 	cmp  %i5, %g2
40008f70:	1a 80 00 34 	bcc  40009040 <__lshift+0x1a0>
40008f74:	82 10 20 04 	mov  4, %g1
40008f78:	80 a0 e0 00 	cmp  %g3, 0
40008f7c:	12 80 00 1d 	bne  40008ff0 <__lshift+0x150>
40008f80:	c6 21 00 01 	st  %g3, [ %g4 + %g1 ]
40008f84:	e0 24 60 10 	st  %l0, [ %l1 + 0x10 ]
40008f88:	fa 06 20 24 	ld  [ %i0 + 0x24 ], %i5
40008f8c:	80 a7 60 00 	cmp  %i5, 0
40008f90:	02 80 00 1e 	be  40009008 <__lshift+0x168>
40008f94:	01 00 00 00 	nop 
40008f98:	fa 07 60 0c 	ld  [ %i5 + 0xc ], %i5
40008f9c:	c2 06 60 04 	ld  [ %i1 + 4 ], %g1
40008fa0:	83 28 60 02 	sll  %g1, 2, %g1
40008fa4:	c4 07 40 01 	ld  [ %i5 + %g1 ], %g2
40008fa8:	c4 26 40 00 	st  %g2, [ %i1 ]
40008fac:	f2 27 40 01 	st  %i1, [ %i5 + %g1 ]
40008fb0:	81 c7 e0 08 	ret 
40008fb4:	91 e8 00 11 	restore  %g0, %l1, %o0
40008fb8:	c4 00 40 00 	ld  [ %g1 ], %g2
40008fbc:	c4 21 00 00 	st  %g2, [ %g4 ]
40008fc0:	82 00 60 04 	add  %g1, 4, %g1
40008fc4:	80 a7 40 01 	cmp  %i5, %g1
40008fc8:	08 bf ff ef 	bleu  40008f84 <__lshift+0xe4>
40008fcc:	88 01 20 04 	add  %g4, 4, %g4
40008fd0:	c4 00 40 00 	ld  [ %g1 ], %g2
40008fd4:	c4 21 00 00 	st  %g2, [ %g4 ]
40008fd8:	82 00 60 04 	add  %g1, 4, %g1
40008fdc:	80 a7 40 01 	cmp  %i5, %g1
40008fe0:	18 bf ff f6 	bgu  40008fb8 <__lshift+0x118>
40008fe4:	88 01 20 04 	add  %g4, 4, %g4
40008fe8:	10 bf ff e8 	b  40008f88 <__lshift+0xe8>
40008fec:	e0 24 60 10 	st  %l0, [ %l1 + 0x10 ]
40008ff0:	a0 10 00 1b 	mov  %i3, %l0
40008ff4:	e0 24 60 10 	st  %l0, [ %l1 + 0x10 ]
40008ff8:	fa 06 20 24 	ld  [ %i0 + 0x24 ], %i5
40008ffc:	80 a7 60 00 	cmp  %i5, 0
40009000:	32 bf ff e7 	bne,a   40008f9c <__lshift+0xfc>
40009004:	fa 07 60 0c 	ld  [ %i5 + 0xc ], %i5
40009008:	7f ff fa c4 	call  40007b18 <malloc>
4000900c:	90 10 20 10 	mov  0x10, %o0
40009010:	d0 26 20 24 	st  %o0, [ %i0 + 0x24 ]
40009014:	c0 22 20 08 	clr  [ %o0 + 8 ]
40009018:	c0 22 00 00 	clr  [ %o0 ]
4000901c:	c0 22 20 04 	clr  [ %o0 + 4 ]
40009020:	c0 22 20 0c 	clr  [ %o0 + 0xc ]
40009024:	c2 06 60 04 	ld  [ %i1 + 4 ], %g1
40009028:	83 28 60 02 	sll  %g1, 2, %g1
4000902c:	c4 07 40 01 	ld  [ %i5 + %g1 ], %g2
40009030:	c4 26 40 00 	st  %g2, [ %i1 ]
40009034:	f2 27 40 01 	st  %i1, [ %i5 + %g1 ]
40009038:	81 c7 e0 08 	ret 
4000903c:	91 e8 00 11 	restore  %g0, %l1, %o0
40009040:	82 27 40 19 	sub  %i5, %i1, %g1
40009044:	82 00 7f eb 	add  %g1, -21, %g1
40009048:	82 08 7f fc 	and  %g1, -4, %g1
4000904c:	82 00 60 04 	add  %g1, 4, %g1
40009050:	80 a0 e0 00 	cmp  %g3, 0
40009054:	02 bf ff cc 	be  40008f84 <__lshift+0xe4>
40009058:	c6 21 00 01 	st  %g3, [ %g4 + %g1 ]
4000905c:	10 bf ff e6 	b  40008ff4 <__lshift+0x154>
40009060:	a0 10 00 1b 	mov  %i3, %l0

40009064 <__mcmp>:
40009064:	88 10 00 08 	mov  %o0, %g4
40009068:	c2 02 60 10 	ld  [ %o1 + 0x10 ], %g1
4000906c:	d0 02 20 10 	ld  [ %o0 + 0x10 ], %o0
40009070:	90 a2 00 01 	subcc  %o0, %g1, %o0
40009074:	12 80 00 12 	bne  400090bc <__mcmp+0x58>
40009078:	85 28 60 02 	sll  %g1, 2, %g2
4000907c:	88 01 20 14 	add  %g4, 0x14, %g4
40009080:	92 02 60 14 	add  %o1, 0x14, %o1
40009084:	82 01 00 02 	add  %g4, %g2, %g1
40009088:	10 80 00 04 	b  40009098 <__mcmp+0x34>
4000908c:	92 02 40 02 	add  %o1, %g2, %o1
40009090:	1a 80 00 0b 	bcc  400090bc <__mcmp+0x58>
40009094:	01 00 00 00 	nop 
40009098:	82 00 7f fc 	add  %g1, -4, %g1
4000909c:	92 02 7f fc 	add  %o1, -4, %o1
400090a0:	c6 00 40 00 	ld  [ %g1 ], %g3
400090a4:	c4 02 40 00 	ld  [ %o1 ], %g2
400090a8:	80 a0 c0 02 	cmp  %g3, %g2
400090ac:	22 bf ff f9 	be,a   40009090 <__mcmp+0x2c>
400090b0:	80 a1 00 01 	cmp  %g4, %g1
400090b4:	1a 80 00 04 	bcc  400090c4 <__mcmp+0x60>
400090b8:	90 10 3f ff 	mov  -1, %o0
400090bc:	81 c3 e0 08 	retl 
400090c0:	01 00 00 00 	nop 
400090c4:	81 c3 e0 08 	retl 
400090c8:	90 10 20 01 	mov  1, %o0	! 1 <_CONTEXT_I_>

400090cc <__mdiff>:
400090cc:	9d e3 bf a0 	save  %sp, -96, %sp
400090d0:	e2 06 60 10 	ld  [ %i1 + 0x10 ], %l1
400090d4:	c4 06 a0 10 	ld  [ %i2 + 0x10 ], %g2
400090d8:	b8 06 60 14 	add  %i1, 0x14, %i4
400090dc:	a2 24 40 02 	sub  %l1, %g2, %l1
400090e0:	80 a4 60 00 	cmp  %l1, 0
400090e4:	12 80 00 67 	bne  40009280 <__mdiff+0x1b4>
400090e8:	a0 06 a0 14 	add  %i2, 0x14, %l0
400090ec:	85 28 a0 02 	sll  %g2, 2, %g2
400090f0:	82 07 00 02 	add  %i4, %g2, %g1
400090f4:	10 80 00 04 	b  40009104 <__mdiff+0x38>
400090f8:	84 04 00 02 	add  %l0, %g2, %g2
400090fc:	08 80 00 75 	bleu  400092d0 <__mdiff+0x204>
40009100:	92 10 20 00 	clr  %o1
40009104:	82 00 7f fc 	add  %g1, -4, %g1
40009108:	84 00 bf fc 	add  %g2, -4, %g2
4000910c:	c8 00 40 00 	ld  [ %g1 ], %g4
40009110:	c6 00 80 00 	ld  [ %g2 ], %g3
40009114:	80 a1 00 03 	cmp  %g4, %g3
40009118:	22 bf ff f9 	be,a   400090fc <__mdiff+0x30>
4000911c:	80 a0 40 1c 	cmp  %g1, %i4
40009120:	0a 80 00 5b 	bcs  4000928c <__mdiff+0x1c0>
40009124:	84 10 00 1c 	mov  %i4, %g2
40009128:	d2 06 60 04 	ld  [ %i1 + 4 ], %o1
4000912c:	7f ff fd 07 	call  40008548 <_Balloc>
40009130:	90 10 00 18 	mov  %i0, %o0
40009134:	de 06 a0 10 	ld  [ %i2 + 0x10 ], %o7
40009138:	f6 06 60 10 	ld  [ %i1 + 0x10 ], %i3
4000913c:	9f 2b e0 02 	sll  %o7, 2, %o7
40009140:	bb 2e e0 02 	sll  %i3, 2, %i5
40009144:	35 00 00 3f 	sethi  %hi(0xfc00), %i2
40009148:	b0 10 00 08 	mov  %o0, %i0
4000914c:	e2 22 20 0c 	st  %l1, [ %o0 + 0xc ]
40009150:	ba 07 00 1d 	add  %i4, %i5, %i5
40009154:	9e 04 00 0f 	add  %l0, %o7, %o7
40009158:	b2 02 20 14 	add  %o0, 0x14, %i1
4000915c:	9a 10 20 00 	clr  %o5
40009160:	82 10 20 00 	clr  %g1
40009164:	b4 16 a3 ff 	or  %i2, 0x3ff, %i2
40009168:	c8 04 00 0d 	ld  [ %l0 + %o5 ], %g4
4000916c:	c4 07 00 0d 	ld  [ %i4 + %o5 ], %g2
40009170:	86 08 80 1a 	and  %g2, %i2, %g3
40009174:	85 30 a0 10 	srl  %g2, 0x10, %g2
40009178:	98 09 00 1a 	and  %g4, %i2, %o4
4000917c:	86 00 c0 01 	add  %g3, %g1, %g3
40009180:	83 31 20 10 	srl  %g4, 0x10, %g1
40009184:	86 20 c0 0c 	sub  %g3, %o4, %g3
40009188:	82 20 80 01 	sub  %g2, %g1, %g1
4000918c:	89 38 e0 10 	sra  %g3, 0x10, %g4
40009190:	86 08 c0 1a 	and  %g3, %i2, %g3
40009194:	82 00 40 04 	add  %g1, %g4, %g1
40009198:	85 28 60 10 	sll  %g1, 0x10, %g2
4000919c:	86 10 80 03 	or  %g2, %g3, %g3
400091a0:	c6 26 40 0d 	st  %g3, [ %i1 + %o5 ]
400091a4:	9a 03 60 04 	add  %o5, 4, %o5
400091a8:	84 04 00 0d 	add  %l0, %o5, %g2
400091ac:	80 a3 c0 02 	cmp  %o7, %g2
400091b0:	18 bf ff ee 	bgu  40009168 <__mdiff+0x9c>
400091b4:	83 38 60 10 	sra  %g1, 0x10, %g1
400091b8:	88 04 20 01 	add  %l0, 1, %g4
400091bc:	84 10 20 00 	clr  %g2
400091c0:	a0 38 00 10 	xnor  %g0, %l0, %l0
400091c4:	80 a3 c0 04 	cmp  %o7, %g4
400091c8:	a0 03 c0 10 	add  %o7, %l0, %l0
400091cc:	1a 80 00 3a 	bcc  400092b4 <__mdiff+0x1e8>
400091d0:	a1 34 20 02 	srl  %l0, 2, %l0
400091d4:	84 06 40 02 	add  %i1, %g2, %g2
400091d8:	80 a3 c0 04 	cmp  %o7, %g4
400091dc:	1a 80 00 33 	bcc  400092a8 <__mdiff+0x1dc>
400091e0:	b4 10 20 04 	mov  4, %i2
400091e4:	b8 07 00 1a 	add  %i4, %i2, %i4
400091e8:	80 a7 40 1c 	cmp  %i5, %i4
400091ec:	08 80 00 1a 	bleu  40009254 <__mdiff+0x188>
400091f0:	b4 06 40 1a 	add  %i1, %i2, %i2
400091f4:	ba 07 7f ff 	add  %i5, -1, %i5
400091f8:	33 00 00 3f 	sethi  %hi(0xfc00), %i1
400091fc:	ba 27 40 1c 	sub  %i5, %i4, %i5
40009200:	88 10 20 00 	clr  %g4
40009204:	bb 37 60 02 	srl  %i5, 2, %i5
40009208:	b2 16 63 ff 	or  %i1, 0x3ff, %i1
4000920c:	9e 07 60 01 	add  %i5, 1, %o7
40009210:	9f 2b e0 02 	sll  %o7, 2, %o7
40009214:	c4 07 00 04 	ld  [ %i4 + %g4 ], %g2
40009218:	86 08 80 19 	and  %g2, %i1, %g3
4000921c:	85 30 a0 10 	srl  %g2, 0x10, %g2
40009220:	86 00 c0 01 	add  %g3, %g1, %g3
40009224:	83 38 e0 10 	sra  %g3, 0x10, %g1
40009228:	86 08 c0 19 	and  %g3, %i1, %g3
4000922c:	82 00 80 01 	add  %g2, %g1, %g1
40009230:	85 28 60 10 	sll  %g1, 0x10, %g2
40009234:	86 10 80 03 	or  %g2, %g3, %g3
40009238:	c6 26 80 04 	st  %g3, [ %i2 + %g4 ]
4000923c:	88 01 20 04 	add  %g4, 4, %g4
40009240:	80 a3 c0 04 	cmp  %o7, %g4
40009244:	12 bf ff f4 	bne  40009214 <__mdiff+0x148>
40009248:	83 38 60 10 	sra  %g1, 0x10, %g1
4000924c:	85 2f 60 02 	sll  %i5, 2, %g2
40009250:	84 06 80 02 	add  %i2, %g2, %g2
40009254:	80 a0 e0 00 	cmp  %g3, 0
40009258:	32 80 00 08 	bne,a   40009278 <__mdiff+0x1ac>
4000925c:	f6 26 20 10 	st  %i3, [ %i0 + 0x10 ]
40009260:	84 00 bf fc 	add  %g2, -4, %g2
40009264:	c2 00 80 00 	ld  [ %g2 ], %g1
40009268:	80 a0 60 00 	cmp  %g1, 0
4000926c:	02 bf ff fd 	be  40009260 <__mdiff+0x194>
40009270:	b6 06 ff ff 	add  %i3, -1, %i3
40009274:	f6 26 20 10 	st  %i3, [ %i0 + 0x10 ]
40009278:	81 c7 e0 08 	ret 
4000927c:	81 e8 00 00 	restore 
40009280:	16 bf ff aa 	bge  40009128 <__mdiff+0x5c>
40009284:	a2 10 20 00 	clr  %l1
40009288:	84 10 00 1c 	mov  %i4, %g2
4000928c:	82 10 00 19 	mov  %i1, %g1
40009290:	b8 10 00 10 	mov  %l0, %i4
40009294:	b2 10 00 1a 	mov  %i2, %i1
40009298:	a0 10 00 02 	mov  %g2, %l0
4000929c:	b4 10 00 01 	mov  %g1, %i2
400092a0:	10 bf ff a2 	b  40009128 <__mdiff+0x5c>
400092a4:	a2 10 20 01 	mov  1, %l1
400092a8:	a0 04 20 01 	inc  %l0
400092ac:	10 bf ff ce 	b  400091e4 <__mdiff+0x118>
400092b0:	b5 2c 20 02 	sll  %l0, 2, %i2
400092b4:	85 2c 20 02 	sll  %l0, 2, %g2
400092b8:	b4 10 20 04 	mov  4, %i2
400092bc:	80 a3 c0 04 	cmp  %o7, %g4
400092c0:	0a bf ff c9 	bcs  400091e4 <__mdiff+0x118>
400092c4:	84 06 40 02 	add  %i1, %g2, %g2
400092c8:	10 bf ff f9 	b  400092ac <__mdiff+0x1e0>
400092cc:	a0 04 20 01 	inc  %l0
400092d0:	7f ff fc 9e 	call  40008548 <_Balloc>
400092d4:	90 10 00 18 	mov  %i0, %o0
400092d8:	82 10 20 01 	mov  1, %g1
400092dc:	c2 22 20 10 	st  %g1, [ %o0 + 0x10 ]
400092e0:	c0 22 20 14 	clr  [ %o0 + 0x14 ]
400092e4:	81 c7 e0 08 	ret 
400092e8:	91 e8 00 08 	restore  %g0, %o0, %o0

400092ec <__ulp>:
400092ec:	03 1f fc 00 	sethi  %hi(0x7ff00000), %g1
400092f0:	90 0a 00 01 	and  %o0, %g1, %o0
400092f4:	03 3f 30 00 	sethi  %hi(0xfcc00000), %g1
400092f8:	90 02 00 01 	add  %o0, %g1, %o0
400092fc:	80 a2 20 00 	cmp  %o0, 0
40009300:	04 80 00 08 	ble  40009320 <__ulp+0x34>
40009304:	9c 03 bf b0 	add  %sp, -80, %sp
40009308:	84 10 00 08 	mov  %o0, %g2
4000930c:	86 10 20 00 	clr  %g3
40009310:	c4 3b a0 48 	std  %g2, [ %sp + 0x48 ]
40009314:	c1 1b a0 48 	ldd  [ %sp + 0x48 ], %f0
40009318:	81 c3 e0 08 	retl 
4000931c:	9c 03 a0 50 	add  %sp, 0x50, %sp
40009320:	90 20 00 08 	neg  %o0
40009324:	91 3a 20 14 	sra  %o0, 0x14, %o0
40009328:	80 a2 20 13 	cmp  %o0, 0x13
4000932c:	34 80 00 09 	bg,a   40009350 <__ulp+0x64>
40009330:	90 02 3f ec 	add  %o0, -20, %o0
40009334:	03 00 02 00 	sethi  %hi(0x80000), %g1
40009338:	86 10 20 00 	clr  %g3
4000933c:	85 38 40 08 	sra  %g1, %o0, %g2
40009340:	c4 3b a0 48 	std  %g2, [ %sp + 0x48 ]
40009344:	c1 1b a0 48 	ldd  [ %sp + 0x48 ], %f0
40009348:	81 c3 e0 08 	retl 
4000934c:	9c 03 a0 50 	add  %sp, 0x50, %sp
40009350:	84 10 20 00 	clr  %g2
40009354:	80 a2 20 1e 	cmp  %o0, 0x1e
40009358:	14 80 00 04 	bg  40009368 <__ulp+0x7c>
4000935c:	82 10 20 01 	mov  1, %g1
40009360:	03 20 00 00 	sethi  %hi(0x80000000), %g1
40009364:	83 30 40 08 	srl  %g1, %o0, %g1
40009368:	86 10 00 01 	mov  %g1, %g3
4000936c:	c4 3b a0 48 	std  %g2, [ %sp + 0x48 ]
40009370:	c1 1b a0 48 	ldd  [ %sp + 0x48 ], %f0
40009374:	81 c3 e0 08 	retl 
40009378:	9c 03 a0 50 	add  %sp, 0x50, %sp

4000937c <__b2d>:
4000937c:	9d e3 bf 98 	save  %sp, -104, %sp
40009380:	03 3f ff c0 	sethi  %hi(0xffff0000), %g1
40009384:	b6 06 20 14 	add  %i0, 0x14, %i3
40009388:	c6 06 20 10 	ld  [ %i0 + 0x10 ], %g3
4000938c:	87 28 e0 02 	sll  %g3, 2, %g3
40009390:	86 06 c0 03 	add  %i3, %g3, %g3
40009394:	c8 00 ff fc 	ld  [ %g3 + -4 ], %g4
40009398:	80 89 00 01 	btst  %g4, %g1
4000939c:	12 80 00 2d 	bne  40009450 <__b2d+0xd4>
400093a0:	b4 00 ff fc 	add  %g3, -4, %i2
400093a4:	85 29 20 10 	sll  %g4, 0x10, %g2
400093a8:	b8 10 20 18 	mov  0x18, %i4
400093ac:	82 10 20 10 	mov  0x10, %g1
400093b0:	3b 3f c0 00 	sethi  %hi(0xff000000), %i5
400093b4:	80 88 80 1d 	btst  %g2, %i5
400093b8:	12 80 00 04 	bne  400093c8 <__b2d+0x4c>
400093bc:	3b 3c 00 00 	sethi  %hi(0xf0000000), %i5
400093c0:	85 28 a0 08 	sll  %g2, 8, %g2
400093c4:	82 10 00 1c 	mov  %i4, %g1
400093c8:	80 88 80 1d 	btst  %g2, %i5
400093cc:	12 80 00 04 	bne  400093dc <__b2d+0x60>
400093d0:	3b 30 00 00 	sethi  %hi(0xc0000000), %i5
400093d4:	82 00 60 04 	add  %g1, 4, %g1
400093d8:	85 28 a0 04 	sll  %g2, 4, %g2
400093dc:	80 88 80 1d 	btst  %g2, %i5
400093e0:	12 80 00 05 	bne  400093f4 <__b2d+0x78>
400093e4:	80 a0 a0 00 	cmp  %g2, 0
400093e8:	82 00 60 02 	add  %g1, 2, %g1
400093ec:	85 28 a0 02 	sll  %g2, 2, %g2
400093f0:	80 a0 a0 00 	cmp  %g2, 0
400093f4:	06 80 00 05 	bl  40009408 <__b2d+0x8c>
400093f8:	3b 10 00 00 	sethi  %hi(0x40000000), %i5
400093fc:	80 88 80 1d 	btst  %g2, %i5
40009400:	02 80 00 31 	be  400094c4 <__b2d+0x148>
40009404:	82 00 60 01 	inc  %g1
40009408:	84 10 20 20 	mov  0x20, %g2
4000940c:	ba 20 80 01 	sub  %g2, %g1, %i5
40009410:	80 a0 60 0a 	cmp  %g1, 0xa
40009414:	04 80 00 1b 	ble  40009480 <__b2d+0x104>
40009418:	fa 26 40 00 	st  %i5, [ %i1 ]
4000941c:	80 a6 c0 1a 	cmp  %i3, %i2
40009420:	1a 80 00 10 	bcc  40009460 <__b2d+0xe4>
40009424:	82 00 7f f5 	add  %g1, -11, %g1
40009428:	80 a0 60 00 	cmp  %g1, 0
4000942c:	12 80 00 3a 	bne  40009514 <__b2d+0x198>
40009430:	f4 00 ff f8 	ld  [ %g3 + -8 ], %i2
40009434:	03 0f fc 00 	sethi  %hi(0x3ff00000), %g1
40009438:	b8 11 00 01 	or  %g4, %g1, %i4
4000943c:	ba 10 00 1a 	mov  %i2, %i5
40009440:	f8 3f bf f8 	std  %i4, [ %fp + -8 ]
40009444:	c1 1f bf f8 	ldd  [ %fp + -8 ], %f0
40009448:	81 c7 e0 08 	ret 
4000944c:	81 e8 00 00 	restore 
40009450:	84 10 00 04 	mov  %g4, %g2
40009454:	b8 10 20 08 	mov  8, %i4
40009458:	10 bf ff d6 	b  400093b0 <__b2d+0x34>
4000945c:	82 10 20 00 	clr  %g1
40009460:	80 a0 60 00 	cmp  %g1, 0
40009464:	02 bf ff f4 	be  40009434 <__b2d+0xb8>
40009468:	b4 10 20 00 	clr  %i2
4000946c:	83 29 00 01 	sll  %g4, %g1, %g1
40009470:	05 0f fc 00 	sethi  %hi(0x3ff00000), %g2
40009474:	b4 10 20 00 	clr  %i2
40009478:	10 bf ff f1 	b  4000943c <__b2d+0xc0>
4000947c:	b8 10 40 02 	or  %g1, %g2, %i4
40009480:	84 10 20 0b 	mov  0xb, %g2
40009484:	31 0f fc 00 	sethi  %hi(0x3ff00000), %i0
40009488:	84 20 80 01 	sub  %g2, %g1, %g2
4000948c:	b2 10 20 00 	clr  %i1
40009490:	9f 31 00 02 	srl  %g4, %g2, %o7
40009494:	80 a6 c0 1a 	cmp  %i3, %i2
40009498:	1a 80 00 04 	bcc  400094a8 <__b2d+0x12c>
4000949c:	b8 13 c0 18 	or  %o7, %i0, %i4
400094a0:	f2 00 ff f8 	ld  [ %g3 + -8 ], %i1
400094a4:	b3 36 40 02 	srl  %i1, %g2, %i1
400094a8:	82 00 60 15 	add  %g1, 0x15, %g1
400094ac:	83 29 00 01 	sll  %g4, %g1, %g1
400094b0:	ba 10 40 19 	or  %g1, %i1, %i5
400094b4:	f8 3f bf f8 	std  %i4, [ %fp + -8 ]
400094b8:	c1 1f bf f8 	ldd  [ %fp + -8 ], %f0
400094bc:	81 c7 e0 08 	ret 
400094c0:	81 e8 00 00 	restore 
400094c4:	c0 26 40 00 	clr  [ %i1 ]
400094c8:	80 a6 c0 1a 	cmp  %i3, %i2
400094cc:	1a bf ff e8 	bcc  4000946c <__b2d+0xf0>
400094d0:	82 10 20 15 	mov  0x15, %g1
400094d4:	b2 00 ff f8 	add  %g3, -8, %i1
400094d8:	f4 00 ff f8 	ld  [ %g3 + -8 ], %i2
400094dc:	84 10 20 0b 	mov  0xb, %g2
400094e0:	82 10 20 15 	mov  0x15, %g1
400094e4:	89 29 00 01 	sll  %g4, %g1, %g4
400094e8:	87 36 80 02 	srl  %i2, %g2, %g3
400094ec:	80 a6 c0 19 	cmp  %i3, %i1
400094f0:	88 11 00 03 	or  %g4, %g3, %g4
400094f4:	b5 2e 80 01 	sll  %i2, %g1, %i2
400094f8:	03 0f fc 00 	sethi  %hi(0x3ff00000), %g1
400094fc:	1a bf ff d0 	bcc  4000943c <__b2d+0xc0>
40009500:	b8 11 00 01 	or  %g4, %g1, %i4
40009504:	c2 06 7f fc 	ld  [ %i1 + -4 ], %g1
40009508:	85 30 40 02 	srl  %g1, %g2, %g2
4000950c:	10 bf ff cc 	b  4000943c <__b2d+0xc0>
40009510:	b4 16 80 02 	or  %i2, %g2, %i2
40009514:	b2 00 ff f8 	add  %g3, -8, %i1
40009518:	10 bf ff f3 	b  400094e4 <__b2d+0x168>
4000951c:	84 20 80 01 	sub  %g2, %g1, %g2

40009520 <__d2b>:
40009520:	9d e3 bf a0 	save  %sp, -96, %sp
40009524:	86 10 00 1a 	mov  %i2, %g3
40009528:	f4 06 20 24 	ld  [ %i0 + 0x24 ], %i2
4000952c:	80 a6 a0 00 	cmp  %i2, 0
40009530:	02 80 00 b8 	be  40009810 <__d2b+0x2f0>
40009534:	ba 10 00 03 	mov  %g3, %i5
40009538:	c4 06 a0 0c 	ld  [ %i2 + 0xc ], %g2
4000953c:	80 a0 a0 00 	cmp  %g2, 0
40009540:	02 80 00 bd 	be  40009834 <__d2b+0x314>
40009544:	94 10 20 21 	mov  0x21, %o2
40009548:	d0 00 a0 04 	ld  [ %g2 + 4 ], %o0
4000954c:	80 a2 20 00 	cmp  %o0, 0
40009550:	02 80 00 c4 	be  40009860 <__d2b+0x340>
40009554:	94 10 20 1c 	mov  0x1c, %o2
40009558:	c6 02 00 00 	ld  [ %o0 ], %g3
4000955c:	c6 20 a0 04 	st  %g3, [ %g2 + 4 ]
40009560:	c0 22 20 10 	clr  [ %o0 + 0x10 ]
40009564:	c0 22 20 0c 	clr  [ %o0 + 0xc ]
40009568:	85 36 60 14 	srl  %i1, 0x14, %g2
4000956c:	07 3f fc 00 	sethi  %hi(0xfff00000), %g3
40009570:	b4 88 a7 ff 	andcc  %g2, 0x7ff, %i2
40009574:	02 80 00 04 	be  40009584 <__d2b+0x64>
40009578:	82 2e 40 03 	andn  %i1, %g3, %g1
4000957c:	05 00 04 00 	sethi  %hi(0x100000), %g2
40009580:	82 10 40 02 	or  %g1, %g2, %g1
40009584:	84 97 60 00 	orcc  %i5, 0, %g2
40009588:	02 80 00 3d 	be  4000967c <__d2b+0x15c>
4000958c:	80 88 60 07 	btst  7, %g1
40009590:	80 88 a0 07 	btst  7, %g2
40009594:	22 80 00 6e 	be,a   4000974c <__d2b+0x22c>
40009598:	07 00 00 3f 	sethi  %hi(0xfc00), %g3
4000959c:	80 88 a0 01 	btst  1, %g2
400095a0:	12 80 00 94 	bne  400097f0 <__d2b+0x2d0>
400095a4:	80 88 a0 02 	btst  2, %g2
400095a8:	02 80 00 c7 	be  400098c4 <__d2b+0x3a4>
400095ac:	89 30 a0 02 	srl  %g2, 2, %g4
400095b0:	89 30 a0 01 	srl  %g2, 1, %g4
400095b4:	bb 28 60 1f 	sll  %g1, 0x1f, %i5
400095b8:	86 10 20 01 	mov  1, %g3
400095bc:	88 11 00 1d 	or  %g4, %i5, %g4
400095c0:	83 30 40 03 	srl  %g1, %g3, %g1
400095c4:	c8 22 20 14 	st  %g4, [ %o0 + 0x14 ]
400095c8:	80 a0 00 01 	cmp  %g0, %g1
400095cc:	c2 22 20 18 	st  %g1, [ %o0 + 0x18 ]
400095d0:	82 40 20 00 	addx  %g0, 0, %g1
400095d4:	82 00 60 01 	inc  %g1
400095d8:	80 a6 a0 00 	cmp  %i2, 0
400095dc:	12 80 00 37 	bne  400096b8 <__d2b+0x198>
400095e0:	c2 22 20 10 	st  %g1, [ %o0 + 0x10 ]
400095e4:	86 00 fb ce 	add  %g3, -1074, %g3
400095e8:	c6 26 c0 00 	st  %g3, [ %i3 ]
400095ec:	85 28 60 02 	sll  %g1, 2, %g2
400095f0:	07 3f ff c0 	sethi  %hi(0xffff0000), %g3
400095f4:	84 02 00 02 	add  %o0, %g2, %g2
400095f8:	c4 00 a0 10 	ld  [ %g2 + 0x10 ], %g2
400095fc:	80 88 80 03 	btst  %g2, %g3
40009600:	12 80 00 72 	bne  400097c8 <__d2b+0x2a8>
40009604:	83 28 60 05 	sll  %g1, 5, %g1
40009608:	85 28 a0 10 	sll  %g2, 0x10, %g2
4000960c:	ba 10 20 18 	mov  0x18, %i5
40009610:	86 10 20 10 	mov  0x10, %g3
40009614:	09 3f c0 00 	sethi  %hi(0xff000000), %g4
40009618:	80 88 80 04 	btst  %g2, %g4
4000961c:	12 80 00 04 	bne  4000962c <__d2b+0x10c>
40009620:	09 3c 00 00 	sethi  %hi(0xf0000000), %g4
40009624:	85 28 a0 08 	sll  %g2, 8, %g2
40009628:	86 10 00 1d 	mov  %i5, %g3
4000962c:	80 88 80 04 	btst  %g2, %g4
40009630:	12 80 00 04 	bne  40009640 <__d2b+0x120>
40009634:	09 30 00 00 	sethi  %hi(0xc0000000), %g4
40009638:	86 00 e0 04 	add  %g3, 4, %g3
4000963c:	85 28 a0 04 	sll  %g2, 4, %g2
40009640:	80 88 80 04 	btst  %g2, %g4
40009644:	12 80 00 05 	bne  40009658 <__d2b+0x138>
40009648:	80 a0 a0 00 	cmp  %g2, 0
4000964c:	86 00 e0 02 	add  %g3, 2, %g3
40009650:	85 28 a0 02 	sll  %g2, 2, %g2
40009654:	80 a0 a0 00 	cmp  %g2, 0
40009658:	06 80 00 05 	bl  4000966c <__d2b+0x14c>
4000965c:	09 10 00 00 	sethi  %hi(0x40000000), %g4
40009660:	80 88 80 04 	btst  %g2, %g4
40009664:	02 80 00 67 	be  40009800 <__d2b+0x2e0>
40009668:	86 00 e0 01 	inc  %g3
4000966c:	82 20 40 03 	sub  %g1, %g3, %g1
40009670:	c2 27 00 00 	st  %g1, [ %i4 ]
40009674:	81 c7 e0 08 	ret 
40009678:	91 e8 00 08 	restore  %g0, %o0, %o0
4000967c:	02 80 00 17 	be  400096d8 <__d2b+0x1b8>
40009680:	05 00 00 3f 	sethi  %hi(0xfc00), %g2
40009684:	80 88 60 01 	btst  1, %g1
40009688:	12 80 00 07 	bne  400096a4 <__d2b+0x184>
4000968c:	86 10 20 20 	mov  0x20, %g3
40009690:	80 88 60 02 	btst  2, %g1
40009694:	22 80 00 8a 	be,a   400098bc <__d2b+0x39c>
40009698:	83 30 60 02 	srl  %g1, 2, %g1
4000969c:	83 30 60 01 	srl  %g1, 1, %g1
400096a0:	86 10 20 21 	mov  0x21, %g3
400096a4:	c2 22 20 14 	st  %g1, [ %o0 + 0x14 ]
400096a8:	82 10 20 01 	mov  1, %g1
400096ac:	80 a6 a0 00 	cmp  %i2, 0
400096b0:	02 bf ff cd 	be  400095e4 <__d2b+0xc4>
400096b4:	c2 22 20 10 	st  %g1, [ %o0 + 0x10 ]
400096b8:	82 06 bb cd 	add  %i2, -1075, %g1
400096bc:	82 00 40 03 	add  %g1, %g3, %g1
400096c0:	c2 26 c0 00 	st  %g1, [ %i3 ]
400096c4:	82 10 20 35 	mov  0x35, %g1
400096c8:	86 20 40 03 	sub  %g1, %g3, %g3
400096cc:	c6 27 00 00 	st  %g3, [ %i4 ]
400096d0:	81 c7 e0 08 	ret 
400096d4:	91 e8 00 08 	restore  %g0, %o0, %o0
400096d8:	84 10 a3 ff 	or  %g2, 0x3ff, %g2
400096dc:	80 88 40 02 	btst  %g1, %g2
400096e0:	02 80 00 3d 	be  400097d4 <__d2b+0x2b4>
400096e4:	89 30 60 10 	srl  %g1, 0x10, %g4
400096e8:	86 08 60 ff 	and  %g1, 0xff, %g3
400096ec:	88 10 00 01 	mov  %g1, %g4
400096f0:	ba 10 20 08 	mov  8, %i5
400096f4:	84 10 20 00 	clr  %g2
400096f8:	80 a0 e0 00 	cmp  %g3, 0
400096fc:	12 80 00 05 	bne  40009710 <__d2b+0x1f0>
40009700:	80 89 20 0f 	btst  0xf, %g4
40009704:	89 31 20 08 	srl  %g4, 8, %g4
40009708:	84 10 00 1d 	mov  %i5, %g2
4000970c:	80 89 20 0f 	btst  0xf, %g4
40009710:	12 80 00 05 	bne  40009724 <__d2b+0x204>
40009714:	80 89 20 03 	btst  3, %g4
40009718:	84 00 a0 04 	add  %g2, 4, %g2
4000971c:	89 31 20 04 	srl  %g4, 4, %g4
40009720:	80 89 20 03 	btst  3, %g4
40009724:	12 80 00 05 	bne  40009738 <__d2b+0x218>
40009728:	80 89 20 01 	btst  1, %g4
4000972c:	84 00 a0 02 	add  %g2, 2, %g2
40009730:	89 31 20 02 	srl  %g4, 2, %g4
40009734:	80 89 20 01 	btst  1, %g4
40009738:	22 80 00 5b 	be,a   400098a4 <__d2b+0x384>
4000973c:	89 31 20 01 	srl  %g4, 1, %g4
40009740:	86 00 a0 20 	add  %g2, 0x20, %g3
40009744:	10 bf ff d8 	b  400096a4 <__d2b+0x184>
40009748:	82 10 00 04 	mov  %g4, %g1
4000974c:	86 10 e3 ff 	or  %g3, 0x3ff, %g3
40009750:	80 88 80 03 	btst  %g2, %g3
40009754:	02 80 00 24 	be  400097e4 <__d2b+0x2c4>
40009758:	89 30 a0 10 	srl  %g2, 0x10, %g4
4000975c:	88 10 00 02 	mov  %g2, %g4
40009760:	ba 10 20 08 	mov  8, %i5
40009764:	86 10 20 00 	clr  %g3
40009768:	80 89 20 ff 	btst  0xff, %g4
4000976c:	12 80 00 05 	bne  40009780 <__d2b+0x260>
40009770:	80 89 20 0f 	btst  0xf, %g4
40009774:	89 31 20 08 	srl  %g4, 8, %g4
40009778:	86 10 00 1d 	mov  %i5, %g3
4000977c:	80 89 20 0f 	btst  0xf, %g4
40009780:	12 80 00 05 	bne  40009794 <__d2b+0x274>
40009784:	80 89 20 03 	btst  3, %g4
40009788:	86 00 e0 04 	add  %g3, 4, %g3
4000978c:	89 31 20 04 	srl  %g4, 4, %g4
40009790:	80 89 20 03 	btst  3, %g4
40009794:	12 80 00 3d 	bne  40009888 <__d2b+0x368>
40009798:	80 89 20 01 	btst  1, %g4
4000979c:	89 31 20 02 	srl  %g4, 2, %g4
400097a0:	80 89 20 01 	btst  1, %g4
400097a4:	12 80 00 06 	bne  400097bc <__d2b+0x29c>
400097a8:	86 00 e0 02 	add  %g3, 2, %g3
400097ac:	89 31 20 01 	srl  %g4, 1, %g4
400097b0:	80 a1 20 00 	cmp  %g4, 0
400097b4:	02 80 00 47 	be  400098d0 <__d2b+0x3b0>
400097b8:	86 00 e0 01 	inc  %g3
400097bc:	ba 20 00 03 	neg  %g3, %i5
400097c0:	10 bf ff 7f 	b  400095bc <__d2b+0x9c>
400097c4:	bb 28 40 1d 	sll  %g1, %i5, %i5
400097c8:	ba 10 20 08 	mov  8, %i5
400097cc:	10 bf ff 92 	b  40009614 <__d2b+0xf4>
400097d0:	86 10 20 00 	clr  %g3
400097d4:	ba 10 20 18 	mov  0x18, %i5
400097d8:	86 10 00 04 	mov  %g4, %g3
400097dc:	10 bf ff c7 	b  400096f8 <__d2b+0x1d8>
400097e0:	84 10 20 10 	mov  0x10, %g2
400097e4:	ba 10 20 18 	mov  0x18, %i5
400097e8:	10 bf ff e0 	b  40009768 <__d2b+0x248>
400097ec:	86 10 20 10 	mov  0x10, %g3
400097f0:	88 10 00 02 	mov  %g2, %g4
400097f4:	86 10 20 00 	clr  %g3
400097f8:	10 bf ff 74 	b  400095c8 <__d2b+0xa8>
400097fc:	c8 22 20 14 	st  %g4, [ %o0 + 0x14 ]
40009800:	86 10 20 20 	mov  0x20, %g3
40009804:	82 20 40 03 	sub  %g1, %g3, %g1
40009808:	10 bf ff 9b 	b  40009674 <__d2b+0x154>
4000980c:	c2 27 00 00 	st  %g1, [ %i4 ]
40009810:	7f ff f8 c2 	call  40007b18 <malloc>
40009814:	90 10 20 10 	mov  0x10, %o0
40009818:	d0 26 20 24 	st  %o0, [ %i0 + 0x24 ]
4000981c:	b4 10 00 08 	mov  %o0, %i2
40009820:	c0 22 20 04 	clr  [ %o0 + 4 ]
40009824:	c0 22 20 08 	clr  [ %o0 + 8 ]
40009828:	c0 22 00 00 	clr  [ %o0 ]
4000982c:	c0 22 20 0c 	clr  [ %o0 + 0xc ]
40009830:	94 10 20 21 	mov  0x21, %o2
40009834:	92 10 20 04 	mov  4, %o1
40009838:	40 00 09 bc 	call  4000bf28 <_calloc_r>
4000983c:	90 10 00 18 	mov  %i0, %o0
40009840:	d0 26 a0 0c 	st  %o0, [ %i2 + 0xc ]
40009844:	c4 06 20 24 	ld  [ %i0 + 0x24 ], %g2
40009848:	c4 00 a0 0c 	ld  [ %g2 + 0xc ], %g2
4000984c:	80 a0 a0 00 	cmp  %g2, 0
40009850:	32 bf ff 3f 	bne,a   4000954c <__d2b+0x2c>
40009854:	d0 00 a0 04 	ld  [ %g2 + 4 ], %o0
40009858:	10 bf ff 44 	b  40009568 <__d2b+0x48>
4000985c:	90 10 20 00 	clr  %o0
40009860:	92 10 20 01 	mov  1, %o1
40009864:	40 00 09 b1 	call  4000bf28 <_calloc_r>
40009868:	90 10 00 18 	mov  %i0, %o0
4000986c:	80 a2 20 00 	cmp  %o0, 0
40009870:	02 bf ff fa 	be  40009858 <__d2b+0x338>
40009874:	84 10 20 01 	mov  1, %g2
40009878:	c4 22 20 04 	st  %g2, [ %o0 + 4 ]
4000987c:	84 10 20 02 	mov  2, %g2
40009880:	10 bf ff 38 	b  40009560 <__d2b+0x40>
40009884:	c4 22 20 08 	st  %g2, [ %o0 + 8 ]
40009888:	02 bf ff c9 	be  400097ac <__d2b+0x28c>
4000988c:	80 a0 e0 00 	cmp  %g3, 0
40009890:	12 bf ff cc 	bne  400097c0 <__d2b+0x2a0>
40009894:	ba 20 00 03 	neg  %g3, %i5
40009898:	c8 22 20 14 	st  %g4, [ %o0 + 0x14 ]
4000989c:	10 bf ff 4b 	b  400095c8 <__d2b+0xa8>
400098a0:	86 10 20 00 	clr  %g3
400098a4:	80 a1 20 00 	cmp  %g4, 0
400098a8:	02 bf ff 7f 	be  400096a4 <__d2b+0x184>
400098ac:	86 10 20 40 	mov  0x40, %g3
400098b0:	86 00 a0 21 	add  %g2, 0x21, %g3
400098b4:	10 bf ff 7c 	b  400096a4 <__d2b+0x184>
400098b8:	82 10 00 04 	mov  %g4, %g1
400098bc:	10 bf ff 7a 	b  400096a4 <__d2b+0x184>
400098c0:	86 10 20 22 	mov  0x22, %g3
400098c4:	bb 28 60 1e 	sll  %g1, 0x1e, %i5
400098c8:	10 bf ff 3d 	b  400095bc <__d2b+0x9c>
400098cc:	86 10 20 02 	mov  2, %g3
400098d0:	ba 10 00 01 	mov  %g1, %i5
400098d4:	88 10 00 02 	mov  %g2, %g4
400098d8:	10 bf ff 39 	b  400095bc <__d2b+0x9c>
400098dc:	86 10 20 20 	mov  0x20, %g3

400098e0 <__ratio>:
400098e0:	9d e3 bf 90 	save  %sp, -112, %sp
400098e4:	03 3f ff c0 	sethi  %hi(0xffff0000), %g1
400098e8:	b4 06 20 14 	add  %i0, 0x14, %i2
400098ec:	c6 06 20 10 	ld  [ %i0 + 0x10 ], %g3
400098f0:	87 28 e0 02 	sll  %g3, 2, %g3
400098f4:	86 06 80 03 	add  %i2, %g3, %g3
400098f8:	c8 00 ff fc 	ld  [ %g3 + -4 ], %g4
400098fc:	80 89 00 01 	btst  %g4, %g1
40009900:	12 80 00 40 	bne  40009a00 <__ratio+0x120>
40009904:	9e 00 ff fc 	add  %g3, -4, %o7
40009908:	85 29 20 10 	sll  %g4, 0x10, %g2
4000990c:	b8 10 20 18 	mov  0x18, %i4
40009910:	82 10 20 10 	mov  0x10, %g1
40009914:	3b 3f c0 00 	sethi  %hi(0xff000000), %i5
40009918:	80 88 80 1d 	btst  %g2, %i5
4000991c:	12 80 00 04 	bne  4000992c <__ratio+0x4c>
40009920:	3b 3c 00 00 	sethi  %hi(0xf0000000), %i5
40009924:	85 28 a0 08 	sll  %g2, 8, %g2
40009928:	82 10 00 1c 	mov  %i4, %g1
4000992c:	80 88 80 1d 	btst  %g2, %i5
40009930:	12 80 00 04 	bne  40009940 <__ratio+0x60>
40009934:	3b 30 00 00 	sethi  %hi(0xc0000000), %i5
40009938:	82 00 60 04 	add  %g1, 4, %g1
4000993c:	85 28 a0 04 	sll  %g2, 4, %g2
40009940:	80 88 80 1d 	btst  %g2, %i5
40009944:	12 80 00 05 	bne  40009958 <__ratio+0x78>
40009948:	80 a0 a0 00 	cmp  %g2, 0
4000994c:	82 00 60 02 	add  %g1, 2, %g1
40009950:	85 28 a0 02 	sll  %g2, 2, %g2
40009954:	80 a0 a0 00 	cmp  %g2, 0
40009958:	06 80 00 05 	bl  4000996c <__ratio+0x8c>
4000995c:	3b 10 00 00 	sethi  %hi(0x40000000), %i5
40009960:	80 88 80 1d 	btst  %g2, %i5
40009964:	02 80 00 48 	be  40009a84 <__ratio+0x1a4>
40009968:	82 00 60 01 	inc  %g1
4000996c:	84 10 20 20 	mov  0x20, %g2
40009970:	80 a0 60 0a 	cmp  %g1, 0xa
40009974:	04 80 00 36 	ble  40009a4c <__ratio+0x16c>
40009978:	b6 20 80 01 	sub  %g2, %g1, %i3
4000997c:	80 a6 80 0f 	cmp  %i2, %o7
40009980:	1a 80 00 24 	bcc  40009a10 <__ratio+0x130>
40009984:	82 00 7f f5 	add  %g1, -11, %g1
40009988:	80 a0 60 00 	cmp  %g1, 0
4000998c:	12 80 00 48 	bne  40009aac <__ratio+0x1cc>
40009990:	de 00 ff f8 	ld  [ %g3 + -8 ], %o7
40009994:	03 0f fc 00 	sethi  %hi(0x3ff00000), %g1
40009998:	b8 11 00 01 	or  %g4, %g1, %i4
4000999c:	ba 10 00 0f 	mov  %o7, %i5
400099a0:	92 07 bf fc 	add  %fp, -4, %o1
400099a4:	7f ff fe 76 	call  4000937c <__b2d>
400099a8:	90 10 00 19 	mov  %i1, %o0
400099ac:	f8 3f bf f0 	std  %i4, [ %fp + -16 ]
400099b0:	c4 06 60 10 	ld  [ %i1 + 0x10 ], %g2
400099b4:	d1 1f bf f0 	ldd  [ %fp + -16 ], %f8
400099b8:	c1 3f bf f0 	std  %f0, [ %fp + -16 ]
400099bc:	c2 06 20 10 	ld  [ %i0 + 0x10 ], %g1
400099c0:	86 10 00 1d 	mov  %i5, %g3
400099c4:	82 20 40 02 	sub  %g1, %g2, %g1
400099c8:	c4 07 bf fc 	ld  [ %fp + -4 ], %g2
400099cc:	83 28 60 05 	sll  %g1, 5, %g1
400099d0:	84 26 c0 02 	sub  %i3, %g2, %g2
400099d4:	82 00 40 02 	add  %g1, %g2, %g1
400099d8:	80 a0 60 00 	cmp  %g1, 0
400099dc:	04 80 00 13 	ble  40009a28 <__ratio+0x148>
400099e0:	f4 1f bf f0 	ldd  [ %fp + -16 ], %i2
400099e4:	83 28 60 14 	sll  %g1, 0x14, %g1
400099e8:	84 00 40 1c 	add  %g1, %i4, %g2
400099ec:	c4 3f bf f0 	std  %g2, [ %fp + -16 ]
400099f0:	d1 1f bf f0 	ldd  [ %fp + -16 ], %f8
400099f4:	81 a2 09 c0 	fdivd  %f8, %f0, %f0
400099f8:	81 c7 e0 08 	ret 
400099fc:	81 e8 00 00 	restore 
40009a00:	84 10 00 04 	mov  %g4, %g2
40009a04:	b8 10 20 08 	mov  8, %i4
40009a08:	10 bf ff c3 	b  40009914 <__ratio+0x34>
40009a0c:	82 10 20 00 	clr  %g1
40009a10:	80 a0 60 00 	cmp  %g1, 0
40009a14:	12 80 00 21 	bne  40009a98 <__ratio+0x1b8>
40009a18:	9e 10 20 00 	clr  %o7
40009a1c:	03 0f fc 00 	sethi  %hi(0x3ff00000), %g1
40009a20:	10 bf ff df 	b  4000999c <__ratio+0xbc>
40009a24:	b8 11 00 01 	or  %g4, %g1, %i4
40009a28:	c1 27 bf f0 	st  %f0, [ %fp + -16 ]
40009a2c:	83 28 60 14 	sll  %g1, 0x14, %g1
40009a30:	c4 07 bf f0 	ld  [ %fp + -16 ], %g2
40009a34:	b4 20 80 01 	sub  %g2, %g1, %i2
40009a38:	f4 3f bf f0 	std  %i2, [ %fp + -16 ]
40009a3c:	c1 1f bf f0 	ldd  [ %fp + -16 ], %f0
40009a40:	81 a2 09 c0 	fdivd  %f8, %f0, %f0
40009a44:	81 c7 e0 08 	ret 
40009a48:	81 e8 00 00 	restore 
40009a4c:	84 10 20 0b 	mov  0xb, %g2
40009a50:	19 0f fc 00 	sethi  %hi(0x3ff00000), %o4
40009a54:	84 20 80 01 	sub  %g2, %g1, %g2
40009a58:	9a 10 20 00 	clr  %o5
40009a5c:	97 31 00 02 	srl  %g4, %g2, %o3
40009a60:	80 a6 80 0f 	cmp  %i2, %o7
40009a64:	1a 80 00 04 	bcc  40009a74 <__ratio+0x194>
40009a68:	b8 12 c0 0c 	or  %o3, %o4, %i4
40009a6c:	da 00 ff f8 	ld  [ %g3 + -8 ], %o5
40009a70:	9b 33 40 02 	srl  %o5, %g2, %o5
40009a74:	82 00 60 15 	add  %g1, 0x15, %g1
40009a78:	83 29 00 01 	sll  %g4, %g1, %g1
40009a7c:	10 bf ff c9 	b  400099a0 <__ratio+0xc0>
40009a80:	ba 10 40 0d 	or  %g1, %o5, %i5
40009a84:	80 a6 80 0f 	cmp  %i2, %o7
40009a88:	0a 80 00 17 	bcs  40009ae4 <__ratio+0x204>
40009a8c:	9a 00 ff f8 	add  %g3, -8, %o5
40009a90:	82 10 20 15 	mov  0x15, %g1
40009a94:	b6 10 20 00 	clr  %i3
40009a98:	83 29 00 01 	sll  %g4, %g1, %g1
40009a9c:	05 0f fc 00 	sethi  %hi(0x3ff00000), %g2
40009aa0:	9e 10 20 00 	clr  %o7
40009aa4:	10 bf ff be 	b  4000999c <__ratio+0xbc>
40009aa8:	b8 10 40 02 	or  %g1, %g2, %i4
40009aac:	9a 00 ff f8 	add  %g3, -8, %o5
40009ab0:	84 20 80 01 	sub  %g2, %g1, %g2
40009ab4:	89 29 00 01 	sll  %g4, %g1, %g4
40009ab8:	87 33 c0 02 	srl  %o7, %g2, %g3
40009abc:	80 a6 80 0d 	cmp  %i2, %o5
40009ac0:	88 11 00 03 	or  %g4, %g3, %g4
40009ac4:	9f 2b c0 01 	sll  %o7, %g1, %o7
40009ac8:	03 0f fc 00 	sethi  %hi(0x3ff00000), %g1
40009acc:	1a bf ff b4 	bcc  4000999c <__ratio+0xbc>
40009ad0:	b8 11 00 01 	or  %g4, %g1, %i4
40009ad4:	c2 03 7f fc 	ld  [ %o5 + -4 ], %g1
40009ad8:	85 30 40 02 	srl  %g1, %g2, %g2
40009adc:	10 bf ff b0 	b  4000999c <__ratio+0xbc>
40009ae0:	9e 13 c0 02 	or  %o7, %g2, %o7
40009ae4:	de 00 ff f8 	ld  [ %g3 + -8 ], %o7
40009ae8:	84 10 20 0b 	mov  0xb, %g2
40009aec:	b6 10 20 00 	clr  %i3
40009af0:	10 bf ff f1 	b  40009ab4 <__ratio+0x1d4>
40009af4:	82 10 20 15 	mov  0x15, %g1

40009af8 <_mprec_log10>:
40009af8:	03 10 00 3b 	sethi  %hi(0x4000ec00), %g1
40009afc:	80 a2 20 17 	cmp  %o0, 0x17
40009b00:	c1 18 61 f0 	ldd  [ %g1 + 0x1f0 ], %f0
40009b04:	03 10 00 3b 	sethi  %hi(0x4000ec00), %g1
40009b08:	04 80 00 07 	ble  40009b24 <_mprec_log10+0x2c>
40009b0c:	d1 18 61 f8 	ldd  [ %g1 + 0x1f8 ], %f8	! 4000edf8 <blanks.1+0x58>
40009b10:	90 82 3f ff 	addcc  %o0, -1, %o0
40009b14:	12 bf ff ff 	bne  40009b10 <_mprec_log10+0x18>
40009b18:	81 a0 09 48 	fmuld  %f0, %f8, %f0
40009b1c:	81 c3 e0 08 	retl 
40009b20:	01 00 00 00 	nop 
40009b24:	91 2a 20 03 	sll  %o0, 3, %o0
40009b28:	03 10 00 3b 	sethi  %hi(0x4000ec00), %g1
40009b2c:	82 10 62 d0 	or  %g1, 0x2d0, %g1	! 4000eed0 <__mprec_tens>
40009b30:	81 c3 e0 08 	retl 
40009b34:	c1 18 40 08 	ldd  [ %g1 + %o0 ], %f0

40009b38 <__copybits>:
40009b38:	82 02 a0 14 	add  %o2, 0x14, %g1
40009b3c:	88 02 7f ff 	add  %o1, -1, %g4
40009b40:	c6 02 a0 10 	ld  [ %o2 + 0x10 ], %g3
40009b44:	89 39 20 05 	sra  %g4, 5, %g4
40009b48:	87 28 e0 02 	sll  %g3, 2, %g3
40009b4c:	88 01 20 01 	inc  %g4
40009b50:	86 00 40 03 	add  %g1, %g3, %g3
40009b54:	89 29 20 02 	sll  %g4, 2, %g4
40009b58:	80 a0 40 03 	cmp  %g1, %g3
40009b5c:	1a 80 00 13 	bcc  40009ba8 <__copybits+0x70>
40009b60:	88 02 00 04 	add  %o0, %g4, %g4
40009b64:	84 10 00 08 	mov  %o0, %g2
40009b68:	da 00 40 00 	ld  [ %g1 ], %o5
40009b6c:	da 20 80 00 	st  %o5, [ %g2 ]
40009b70:	82 00 60 04 	add  %g1, 4, %g1
40009b74:	80 a0 c0 01 	cmp  %g3, %g1
40009b78:	18 bf ff fc 	bgu  40009b68 <__copybits+0x30>
40009b7c:	84 00 a0 04 	add  %g2, 4, %g2
40009b80:	82 20 c0 0a 	sub  %g3, %o2, %g1
40009b84:	82 00 7f eb 	add  %g1, -21, %g1
40009b88:	82 08 7f fc 	and  %g1, -4, %g1
40009b8c:	82 00 60 04 	add  %g1, 4, %g1
40009b90:	90 02 00 01 	add  %o0, %g1, %o0
40009b94:	80 a1 00 08 	cmp  %g4, %o0
40009b98:	08 80 00 07 	bleu  40009bb4 <__copybits+0x7c>
40009b9c:	01 00 00 00 	nop 
40009ba0:	c0 22 00 00 	clr  [ %o0 ]
40009ba4:	90 02 20 04 	add  %o0, 4, %o0
40009ba8:	80 a1 00 08 	cmp  %g4, %o0
40009bac:	38 bf ff fe 	bgu,a   40009ba4 <__copybits+0x6c>
40009bb0:	c0 22 00 00 	clr  [ %o0 ]
40009bb4:	81 c3 e0 08 	retl 
40009bb8:	01 00 00 00 	nop 

40009bbc <__any_on>:
40009bbc:	c2 02 20 10 	ld  [ %o0 + 0x10 ], %g1
40009bc0:	85 3a 60 05 	sra  %o1, 5, %g2
40009bc4:	80 a0 40 02 	cmp  %g1, %g2
40009bc8:	16 80 00 0e 	bge  40009c00 <__any_on+0x44>
40009bcc:	86 02 20 14 	add  %o0, 0x14, %g3
40009bd0:	83 28 60 02 	sll  %g1, 2, %g1
40009bd4:	10 80 00 06 	b  40009bec <__any_on+0x30>
40009bd8:	82 00 c0 01 	add  %g3, %g1, %g1
40009bdc:	c4 00 40 00 	ld  [ %g1 ], %g2
40009be0:	80 a0 a0 00 	cmp  %g2, 0
40009be4:	12 80 00 15 	bne  40009c38 <__any_on+0x7c>
40009be8:	01 00 00 00 	nop 
40009bec:	80 a0 40 03 	cmp  %g1, %g3
40009bf0:	18 bf ff fb 	bgu  40009bdc <__any_on+0x20>
40009bf4:	82 00 7f fc 	add  %g1, -4, %g1
40009bf8:	81 c3 e0 08 	retl 
40009bfc:	90 10 20 00 	clr  %o0
40009c00:	85 28 a0 02 	sll  %g2, 2, %g2
40009c04:	04 bf ff fa 	ble  40009bec <__any_on+0x30>
40009c08:	82 00 c0 02 	add  %g3, %g2, %g1
40009c0c:	92 8a 60 1f 	andcc  %o1, 0x1f, %o1
40009c10:	02 bf ff f8 	be  40009bf0 <__any_on+0x34>
40009c14:	80 a0 40 03 	cmp  %g1, %g3
40009c18:	c8 00 c0 02 	ld  [ %g3 + %g2 ], %g4
40009c1c:	85 31 00 09 	srl  %g4, %o1, %g2
40009c20:	93 28 80 09 	sll  %g2, %o1, %o1
40009c24:	80 a1 00 09 	cmp  %g4, %o1
40009c28:	02 bf ff f1 	be  40009bec <__any_on+0x30>
40009c2c:	90 10 20 01 	mov  1, %o0
40009c30:	81 c3 e0 08 	retl 
40009c34:	01 00 00 00 	nop 
40009c38:	81 c3 e0 08 	retl 
40009c3c:	90 10 20 01 	mov  1, %o0	! 1 <_CONTEXT_I_>

40009c40 <frexp>:
40009c40:	c0 22 80 00 	clr  [ %o2 ]
40009c44:	05 1f ff ff 	sethi  %hi(0x7ffffc00), %g2
40009c48:	07 1f fb ff 	sethi  %hi(0x7feffc00), %g3
40009c4c:	84 10 a3 ff 	or  %g2, 0x3ff, %g2
40009c50:	86 10 e3 ff 	or  %g3, 0x3ff, %g3
40009c54:	82 0a 00 02 	and  %o0, %g2, %g1
40009c58:	9c 03 bf b0 	add  %sp, -80, %sp
40009c5c:	80 a0 40 03 	cmp  %g1, %g3
40009c60:	14 80 00 1a 	bg  40009cc8 <frexp+0x88>
40009c64:	88 10 00 08 	mov  %o0, %g4
40009c68:	80 90 40 09 	orcc  %g1, %o1, %g0
40009c6c:	02 80 00 17 	be  40009cc8 <frexp+0x88>
40009c70:	1b 1f fc 00 	sethi  %hi(0x7ff00000), %o5
40009c74:	80 8a 00 0d 	btst  %o0, %o5
40009c78:	12 80 00 0c 	bne  40009ca8 <frexp+0x68>
40009c7c:	86 10 20 00 	clr  %g3
40009c80:	d0 3b a0 48 	std  %o0, [ %sp + 0x48 ]
40009c84:	03 10 00 3b 	sethi  %hi(0x4000ec00), %g1
40009c88:	d5 1b a0 48 	ldd  [ %sp + 0x48 ], %f10
40009c8c:	d1 18 63 98 	ldd  [ %g1 + 0x398 ], %f8
40009c90:	86 10 3f ca 	mov  -54, %g3
40009c94:	91 a2 89 48 	fmuld  %f10, %f8, %f8
40009c98:	d1 3b a0 48 	std  %f8, [ %sp + 0x48 ]
40009c9c:	d0 1b a0 48 	ldd  [ %sp + 0x48 ], %o0
40009ca0:	88 10 00 08 	mov  %o0, %g4
40009ca4:	82 09 00 02 	and  %g4, %g2, %g1
40009ca8:	83 38 60 14 	sra  %g1, 0x14, %g1
40009cac:	82 00 7c 02 	add  %g1, -1022, %g1
40009cb0:	82 00 40 03 	add  %g1, %g3, %g1
40009cb4:	05 1f fc 00 	sethi  %hi(0x7ff00000), %g2
40009cb8:	c2 22 80 00 	st  %g1, [ %o2 ]
40009cbc:	88 29 00 02 	andn  %g4, %g2, %g4
40009cc0:	03 0f f8 00 	sethi  %hi(0x3fe00000), %g1
40009cc4:	90 11 00 01 	or  %g4, %g1, %o0
40009cc8:	d0 3b a0 48 	std  %o0, [ %sp + 0x48 ]
40009ccc:	c1 1b a0 48 	ldd  [ %sp + 0x48 ], %f0
40009cd0:	81 c3 e0 08 	retl 
40009cd4:	9c 03 a0 50 	add  %sp, 0x50, %sp

40009cd8 <_sbrk_r>:
40009cd8:	9d e3 bf a0 	save  %sp, -96, %sp
40009cdc:	3b 10 00 3e 	sethi  %hi(0x4000f800), %i5
40009ce0:	90 10 00 19 	mov  %i1, %o0
40009ce4:	40 00 10 00 	call  4000dce4 <sbrk>
40009ce8:	c0 27 63 18 	clr  [ %i5 + 0x318 ]
40009cec:	80 a2 3f ff 	cmp  %o0, -1
40009cf0:	02 80 00 04 	be  40009d00 <_sbrk_r+0x28>
40009cf4:	c2 07 63 18 	ld  [ %i5 + 0x318 ], %g1
40009cf8:	81 c7 e0 08 	ret 
40009cfc:	91 e8 00 08 	restore  %g0, %o0, %o0
40009d00:	80 a0 60 00 	cmp  %g1, 0
40009d04:	02 bf ff fd 	be  40009cf8 <_sbrk_r+0x20>
40009d08:	01 00 00 00 	nop 
40009d0c:	c2 26 00 00 	st  %g1, [ %i0 ]
40009d10:	81 c7 e0 08 	ret 
40009d14:	91 e8 00 08 	restore  %g0, %o0, %o0

40009d18 <__sread>:
40009d18:	9d e3 bf a0 	save  %sp, -96, %sp
40009d1c:	90 10 00 18 	mov  %i0, %o0
40009d20:	96 10 00 1b 	mov  %i3, %o3
40009d24:	94 10 00 1a 	mov  %i2, %o2
40009d28:	40 00 0c 42 	call  4000ce30 <_read_r>
40009d2c:	d2 56 60 0e 	ldsh  [ %i1 + 0xe ], %o1
40009d30:	b0 92 20 00 	orcc  %o0, 0, %i0
40009d34:	26 80 00 07 	bl,a   40009d50 <__sread+0x38>
40009d38:	c4 16 60 0c 	lduh  [ %i1 + 0xc ], %g2
40009d3c:	c2 06 60 54 	ld  [ %i1 + 0x54 ], %g1
40009d40:	82 00 40 18 	add  %g1, %i0, %g1
40009d44:	c2 26 60 54 	st  %g1, [ %i1 + 0x54 ]
40009d48:	81 c7 e0 08 	ret 
40009d4c:	81 e8 00 00 	restore 
40009d50:	03 00 00 04 	sethi  %hi(0x1000), %g1
40009d54:	82 28 80 01 	andn  %g2, %g1, %g1
40009d58:	c2 36 60 0c 	sth  %g1, [ %i1 + 0xc ]
40009d5c:	81 c7 e0 08 	ret 
40009d60:	81 e8 00 00 	restore 

40009d64 <__seofread>:
40009d64:	81 c3 e0 08 	retl 
40009d68:	90 10 20 00 	clr  %o0

40009d6c <__swrite>:
40009d6c:	9d e3 bf a0 	save  %sp, -96, %sp
40009d70:	c4 16 60 0c 	lduh  [ %i1 + 0xc ], %g2
40009d74:	ba 10 00 19 	mov  %i1, %i5
40009d78:	80 88 a1 00 	btst  0x100, %g2
40009d7c:	12 80 00 07 	bne  40009d98 <__swrite+0x2c>
40009d80:	f2 56 60 0e 	ldsh  [ %i1 + 0xe ], %i1
40009d84:	03 00 00 04 	sethi  %hi(0x1000), %g1
40009d88:	82 28 80 01 	andn  %g2, %g1, %g1
40009d8c:	c2 37 60 0c 	sth  %g1, [ %i5 + 0xc ]
40009d90:	40 00 08 54 	call  4000bee0 <_write_r>
40009d94:	81 e8 00 00 	restore 
40009d98:	92 10 00 19 	mov  %i1, %o1
40009d9c:	96 10 20 02 	mov  2, %o3
40009da0:	94 10 20 00 	clr  %o2
40009da4:	40 00 0b 63 	call  4000cb30 <_lseek_r>
40009da8:	90 10 00 18 	mov  %i0, %o0
40009dac:	c4 17 60 0c 	lduh  [ %i5 + 0xc ], %g2
40009db0:	03 00 00 04 	sethi  %hi(0x1000), %g1
40009db4:	f2 57 60 0e 	ldsh  [ %i5 + 0xe ], %i1
40009db8:	82 28 80 01 	andn  %g2, %g1, %g1
40009dbc:	c2 37 60 0c 	sth  %g1, [ %i5 + 0xc ]
40009dc0:	40 00 08 48 	call  4000bee0 <_write_r>
40009dc4:	81 e8 00 00 	restore 

40009dc8 <__sseek>:
40009dc8:	9d e3 bf a0 	save  %sp, -96, %sp
40009dcc:	90 10 00 18 	mov  %i0, %o0
40009dd0:	96 10 00 1b 	mov  %i3, %o3
40009dd4:	94 10 00 1a 	mov  %i2, %o2
40009dd8:	40 00 0b 56 	call  4000cb30 <_lseek_r>
40009ddc:	d2 56 60 0e 	ldsh  [ %i1 + 0xe ], %o1
40009de0:	c4 16 60 0c 	lduh  [ %i1 + 0xc ], %g2
40009de4:	80 a2 3f ff 	cmp  %o0, -1
40009de8:	02 80 00 08 	be  40009e08 <__sseek+0x40>
40009dec:	b0 10 00 08 	mov  %o0, %i0
40009df0:	d0 26 60 54 	st  %o0, [ %i1 + 0x54 ]
40009df4:	03 00 00 04 	sethi  %hi(0x1000), %g1
40009df8:	82 10 40 02 	or  %g1, %g2, %g1
40009dfc:	c2 36 60 0c 	sth  %g1, [ %i1 + 0xc ]
40009e00:	81 c7 e0 08 	ret 
40009e04:	81 e8 00 00 	restore 
40009e08:	03 00 00 04 	sethi  %hi(0x1000), %g1
40009e0c:	82 28 80 01 	andn  %g2, %g1, %g1
40009e10:	c2 36 60 0c 	sth  %g1, [ %i1 + 0xc ]
40009e14:	81 c7 e0 08 	ret 
40009e18:	81 e8 00 00 	restore 

40009e1c <__sclose>:
40009e1c:	d2 52 60 0e 	ldsh  [ %o1 + 0xe ], %o1
40009e20:	82 13 c0 00 	mov  %o7, %g1
40009e24:	40 00 08 6a 	call  4000bfcc <_close_r>
40009e28:	9e 10 40 00 	mov  %g1, %o7

40009e2c <strlen>:
40009e2c:	80 8a 20 03 	btst  3, %o0
40009e30:	12 80 00 07 	bne  40009e4c <strlen+0x20>
40009e34:	82 10 00 08 	mov  %o0, %g1
40009e38:	10 80 00 0b 	b  40009e64 <strlen+0x38>
40009e3c:	c4 00 40 00 	ld  [ %g1 ], %g2
40009e40:	80 88 60 03 	btst  3, %g1
40009e44:	22 80 00 08 	be,a   40009e64 <strlen+0x38>
40009e48:	c4 00 40 00 	ld  [ %g1 ], %g2
40009e4c:	c4 48 40 00 	ldsb  [ %g1 ], %g2
40009e50:	80 a0 a0 00 	cmp  %g2, 0
40009e54:	32 bf ff fb 	bne,a   40009e40 <strlen+0x14>
40009e58:	82 00 60 01 	inc  %g1
40009e5c:	81 c3 e0 08 	retl 
40009e60:	90 20 40 08 	sub  %g1, %o0, %o0
40009e64:	1b 3f bf bf 	sethi  %hi(0xfefefc00), %o5
40009e68:	09 20 20 20 	sethi  %hi(0x80808000), %g4
40009e6c:	9a 13 62 ff 	or  %o5, 0x2ff, %o5
40009e70:	88 11 20 80 	or  %g4, 0x80, %g4
40009e74:	86 00 80 0d 	add  %g2, %o5, %g3
40009e78:	84 28 c0 02 	andn  %g3, %g2, %g2
40009e7c:	80 88 80 04 	btst  %g2, %g4
40009e80:	32 80 00 11 	bne,a   40009ec4 <strlen+0x98>
40009e84:	c4 48 40 00 	ldsb  [ %g1 ], %g2
40009e88:	c4 00 60 04 	ld  [ %g1 + 4 ], %g2
40009e8c:	86 00 80 0d 	add  %g2, %o5, %g3
40009e90:	84 28 c0 02 	andn  %g3, %g2, %g2
40009e94:	80 88 80 04 	btst  %g2, %g4
40009e98:	12 80 00 0a 	bne  40009ec0 <strlen+0x94>
40009e9c:	82 00 60 04 	add  %g1, 4, %g1
40009ea0:	c4 00 60 04 	ld  [ %g1 + 4 ], %g2
40009ea4:	86 00 80 0d 	add  %g2, %o5, %g3
40009ea8:	84 28 c0 02 	andn  %g3, %g2, %g2
40009eac:	80 88 80 04 	btst  %g2, %g4
40009eb0:	02 bf ff f6 	be  40009e88 <strlen+0x5c>
40009eb4:	82 00 60 04 	add  %g1, 4, %g1
40009eb8:	10 80 00 03 	b  40009ec4 <strlen+0x98>
40009ebc:	c4 48 40 00 	ldsb  [ %g1 ], %g2
40009ec0:	c4 48 40 00 	ldsb  [ %g1 ], %g2
40009ec4:	80 a0 a0 00 	cmp  %g2, 0
40009ec8:	32 bf ff fe 	bne,a   40009ec0 <strlen+0x94>
40009ecc:	82 00 60 01 	inc  %g1
40009ed0:	81 c3 e0 08 	retl 
40009ed4:	90 20 40 08 	sub  %g1, %o0, %o0

40009ed8 <strncpy>:
40009ed8:	82 12 40 08 	or  %o1, %o0, %g1
40009edc:	80 88 60 03 	btst  3, %g1
40009ee0:	12 80 00 07 	bne  40009efc <strncpy+0x24>
40009ee4:	80 a2 a0 03 	cmp  %o2, 3
40009ee8:	08 80 00 18 	bleu  40009f48 <strncpy+0x70>
40009eec:	82 10 20 01 	mov  1, %g1
40009ef0:	80 88 60 ff 	btst  0xff, %g1
40009ef4:	32 80 00 1a 	bne,a   40009f5c <strncpy+0x84>
40009ef8:	1b 3f bf bf 	sethi  %hi(0xfefefc00), %o5
40009efc:	86 10 00 08 	mov  %o0, %g3
40009f00:	82 02 bf ff 	add  %o2, -1, %g1
40009f04:	9a 10 20 01 	mov  1, %o5
40009f08:	10 80 00 0a 	b  40009f30 <strncpy+0x58>
40009f0c:	92 02 40 01 	add  %o1, %g1, %o1
40009f10:	c2 0a 40 01 	ldub  [ %o1 + %g1 ], %g1
40009f14:	c2 28 bf ff 	stb  %g1, [ %g2 + -1 ]
40009f18:	83 28 60 18 	sll  %g1, 0x18, %g1
40009f1c:	80 a0 60 00 	cmp  %g1, 0
40009f20:	02 80 00 21 	be  40009fa4 <strncpy+0xcc>
40009f24:	88 02 bf ff 	add  %o2, -1, %g4
40009f28:	86 10 00 02 	mov  %g2, %g3
40009f2c:	94 10 00 04 	mov  %g4, %o2
40009f30:	84 00 e0 01 	add  %g3, 1, %g2
40009f34:	80 a2 a0 00 	cmp  %o2, 0
40009f38:	12 bf ff f6 	bne  40009f10 <strncpy+0x38>
40009f3c:	82 23 40 0a 	sub  %o5, %o2, %g1
40009f40:	81 c3 e0 08 	retl 
40009f44:	01 00 00 00 	nop 
40009f48:	82 10 20 00 	clr  %g1	! 0 <__bcc_cfg_skip_clear_bss>
40009f4c:	80 88 60 ff 	btst  0xff, %g1
40009f50:	02 bf ff ec 	be  40009f00 <strncpy+0x28>
40009f54:	86 10 00 08 	mov  %o0, %g3
40009f58:	1b 3f bf bf 	sethi  %hi(0xfefefc00), %o5
40009f5c:	09 20 20 20 	sethi  %hi(0x80808000), %g4
40009f60:	86 10 00 08 	mov  %o0, %g3
40009f64:	9a 13 62 ff 	or  %o5, 0x2ff, %o5
40009f68:	88 11 20 80 	or  %g4, 0x80, %g4
40009f6c:	c4 02 40 00 	ld  [ %o1 ], %g2
40009f70:	82 00 80 0d 	add  %g2, %o5, %g1
40009f74:	82 28 40 02 	andn  %g1, %g2, %g1
40009f78:	80 88 40 04 	btst  %g1, %g4
40009f7c:	32 bf ff e2 	bne,a   40009f04 <strncpy+0x2c>
40009f80:	82 02 bf ff 	add  %o2, -1, %g1
40009f84:	c4 20 c0 00 	st  %g2, [ %g3 ]
40009f88:	94 02 bf fc 	add  %o2, -4, %o2
40009f8c:	86 00 e0 04 	add  %g3, 4, %g3
40009f90:	80 a2 a0 03 	cmp  %o2, 3
40009f94:	18 bf ff f6 	bgu  40009f6c <strncpy+0x94>
40009f98:	92 02 60 04 	add  %o1, 4, %o1
40009f9c:	10 bf ff da 	b  40009f04 <strncpy+0x2c>
40009fa0:	82 02 bf ff 	add  %o2, -1, %g1
40009fa4:	80 a1 20 00 	cmp  %g4, 0
40009fa8:	02 bf ff e6 	be  40009f40 <strncpy+0x68>
40009fac:	98 02 bf fe 	add  %o2, -2, %o4
40009fb0:	82 20 00 02 	neg  %g2, %g1
40009fb4:	80 a3 20 05 	cmp  %o4, 5
40009fb8:	08 80 00 22 	bleu  4000a040 <strncpy+0x168>
40009fbc:	82 08 60 03 	and  %g1, 3, %g1
40009fc0:	80 a0 60 00 	cmp  %g1, 0
40009fc4:	02 80 00 0f 	be  4000a000 <strncpy+0x128>
40009fc8:	96 10 00 02 	mov  %g2, %o3
40009fcc:	c0 28 80 00 	clrb  [ %g2 ]
40009fd0:	96 00 e0 02 	add  %g3, 2, %o3
40009fd4:	80 a0 60 01 	cmp  %g1, 1
40009fd8:	02 80 00 0a 	be  4000a000 <strncpy+0x128>
40009fdc:	98 02 bf fd 	add  %o2, -3, %o4
40009fe0:	c0 28 a0 01 	clrb  [ %g2 + 1 ]
40009fe4:	96 00 e0 03 	add  %g3, 3, %o3
40009fe8:	80 a0 60 03 	cmp  %g1, 3
40009fec:	12 80 00 05 	bne  4000a000 <strncpy+0x128>
40009ff0:	98 02 bf fc 	add  %o2, -4, %o4
40009ff4:	96 00 e0 04 	add  %g3, 4, %o3
40009ff8:	c0 28 a0 02 	clrb  [ %g2 + 2 ]
40009ffc:	98 02 bf fb 	add  %o2, -5, %o4
4000a000:	88 21 00 01 	sub  %g4, %g1, %g4
4000a004:	84 00 80 01 	add  %g2, %g1, %g2
4000a008:	86 01 3f fc 	add  %g4, -4, %g3
4000a00c:	82 10 20 00 	clr  %g1
4000a010:	87 30 e0 02 	srl  %g3, 2, %g3
4000a014:	86 00 e0 01 	inc  %g3
4000a018:	9b 28 60 02 	sll  %g1, 2, %o5
4000a01c:	82 00 60 01 	inc  %g1
4000a020:	80 a0 c0 01 	cmp  %g3, %g1
4000a024:	18 bf ff fd 	bgu  4000a018 <strncpy+0x140>
4000a028:	c0 20 80 0d 	clr  [ %g2 + %o5 ]
4000a02c:	87 28 e0 02 	sll  %g3, 2, %g3
4000a030:	84 02 c0 03 	add  %o3, %g3, %g2
4000a034:	80 a1 00 03 	cmp  %g4, %g3
4000a038:	02 bf ff c2 	be  40009f40 <strncpy+0x68>
4000a03c:	98 23 00 03 	sub  %o4, %g3, %o4
4000a040:	80 a3 20 00 	cmp  %o4, 0
4000a044:	02 bf ff bf 	be  40009f40 <strncpy+0x68>
4000a048:	c0 28 80 00 	clrb  [ %g2 ]
4000a04c:	80 a3 20 01 	cmp  %o4, 1
4000a050:	02 bf ff bc 	be  40009f40 <strncpy+0x68>
4000a054:	c0 28 a0 01 	clrb  [ %g2 + 1 ]
4000a058:	80 a3 20 02 	cmp  %o4, 2
4000a05c:	02 bf ff b9 	be  40009f40 <strncpy+0x68>
4000a060:	c0 28 a0 02 	clrb  [ %g2 + 2 ]
4000a064:	80 a3 20 03 	cmp  %o4, 3
4000a068:	02 bf ff b6 	be  40009f40 <strncpy+0x68>
4000a06c:	c0 28 a0 03 	clrb  [ %g2 + 3 ]
4000a070:	80 a3 20 04 	cmp  %o4, 4
4000a074:	02 bf ff b3 	be  40009f40 <strncpy+0x68>
4000a078:	c0 28 a0 04 	clrb  [ %g2 + 4 ]
4000a07c:	81 c3 e0 08 	retl 
4000a080:	c0 28 a0 05 	clrb  [ %g2 + 5 ]
4000a084:	40 00 a9 c4 	call  40034794 <__bss_end+0x24c64>
4000a088:	40 00 a5 80 	call  40033688 <__bss_end+0x23b58>
4000a08c:	40 00 a5 80 	call  4003368c <__bss_end+0x23b5c>
4000a090:	40 00 a9 b4 	call  40034760 <__bss_end+0x24c30>
4000a094:	40 00 a5 80 	call  40033694 <__bss_end+0x23b64>
4000a098:	40 00 a5 80 	call  40033698 <__bss_end+0x23b68>
4000a09c:	40 00 a5 80 	call  4003369c <__bss_end+0x23b6c>
4000a0a0:	40 00 a6 b8 	call  40033b80 <__bss_end+0x24050>
4000a0a4:	40 00 a5 80 	call  400336a4 <__bss_end+0x23b74>
4000a0a8:	40 00 a5 80 	call  400336a8 <__bss_end+0x23b78>
4000a0ac:	40 00 a9 88 	call  400346cc <__bss_end+0x24b9c>
4000a0b0:	40 00 a9 78 	call  40034690 <__bss_end+0x24b60>
4000a0b4:	40 00 a5 80 	call  400336b4 <__bss_end+0x23b84>
4000a0b8:	40 00 a9 68 	call  40034658 <__bss_end+0x24b28>
4000a0bc:	40 00 a9 14 	call  4003450c <__bss_end+0x249dc>
4000a0c0:	40 00 a5 80 	call  400336c0 <__bss_end+0x23b90>
4000a0c4:	40 00 a9 04 	call  400344d4 <__bss_end+0x249a4>
4000a0c8:	40 00 a6 80 	call  40033ac8 <__bss_end+0x23f98>
4000a0cc:	40 00 a6 80 	call  40033acc <__bss_end+0x23f9c>
4000a0d0:	40 00 a6 80 	call  40033ad0 <__bss_end+0x23fa0>
4000a0d4:	40 00 a6 80 	call  40033ad4 <__bss_end+0x23fa4>
4000a0d8:	40 00 a6 80 	call  40033ad8 <__bss_end+0x23fa8>
4000a0dc:	40 00 a6 80 	call  40033adc <__bss_end+0x23fac>
4000a0e0:	40 00 a6 80 	call  40033ae0 <__bss_end+0x23fb0>
4000a0e4:	40 00 a6 80 	call  40033ae4 <__bss_end+0x23fb4>
4000a0e8:	40 00 a6 80 	call  40033ae8 <__bss_end+0x23fb8>
4000a0ec:	40 00 a5 80 	call  400336ec <__bss_end+0x23bbc>
4000a0f0:	40 00 a5 80 	call  400336f0 <__bss_end+0x23bc0>
4000a0f4:	40 00 a5 80 	call  400336f4 <__bss_end+0x23bc4>
4000a0f8:	40 00 a5 80 	call  400336f8 <__bss_end+0x23bc8>
4000a0fc:	40 00 a5 80 	call  400336fc <__bss_end+0x23bcc>
4000a100:	40 00 a5 80 	call  40033700 <__bss_end+0x23bd0>
4000a104:	40 00 a5 80 	call  40033704 <__bss_end+0x23bd4>
4000a108:	40 00 a5 80 	call  40033708 <__bss_end+0x23bd8>
4000a10c:	40 00 a5 80 	call  4003370c <__bss_end+0x23bdc>
4000a110:	40 00 a7 b8 	call  40033ff0 <__bss_end+0x244c0>
4000a114:	40 00 a7 1c 	call  40033d84 <__bss_end+0x24254>
4000a118:	40 00 a5 80 	call  40033718 <__bss_end+0x23be8>
4000a11c:	40 00 a5 80 	call  4003371c <__bss_end+0x23bec>
4000a120:	40 00 a5 80 	call  40033720 <__bss_end+0x23bf0>
4000a124:	40 00 a5 80 	call  40033724 <__bss_end+0x23bf4>
4000a128:	40 00 a5 80 	call  40033728 <__bss_end+0x23bf8>
4000a12c:	40 00 a5 80 	call  4003372c <__bss_end+0x23bfc>
4000a130:	40 00 a5 80 	call  40033730 <__bss_end+0x23c00>
4000a134:	40 00 a5 80 	call  40033734 <__bss_end+0x23c04>
4000a138:	40 00 a5 80 	call  40033738 <__bss_end+0x23c08>
4000a13c:	40 00 a5 80 	call  4003373c <__bss_end+0x23c0c>
4000a140:	40 00 a8 30 	call  40034200 <__bss_end+0x246d0>
4000a144:	40 00 a5 80 	call  40033744 <__bss_end+0x23c14>
4000a148:	40 00 a5 80 	call  40033748 <__bss_end+0x23c18>
4000a14c:	40 00 a5 80 	call  4003374c <__bss_end+0x23c1c>
4000a150:	40 00 a7 e4 	call  400340e0 <__bss_end+0x245b0>
4000a154:	40 00 a5 80 	call  40033754 <__bss_end+0x23c24>
4000a158:	40 00 aa 00 	call  40034958 <__bss_end+0x24e28>
4000a15c:	40 00 a5 80 	call  4003375c <__bss_end+0x23c2c>
4000a160:	40 00 a5 80 	call  40033760 <__bss_end+0x23c30>
4000a164:	40 00 b9 b4 	call  40038834 <__bss_end+0x28d04>
4000a168:	40 00 a5 80 	call  40033768 <__bss_end+0x23c38>
4000a16c:	40 00 a5 80 	call  4003376c <__bss_end+0x23c3c>
4000a170:	40 00 a5 80 	call  40033770 <__bss_end+0x23c40>
4000a174:	40 00 a5 80 	call  40033774 <__bss_end+0x23c44>
4000a178:	40 00 a5 80 	call  40033778 <__bss_end+0x23c48>
4000a17c:	40 00 a5 80 	call  4003377c <__bss_end+0x23c4c>
4000a180:	40 00 a5 80 	call  40033780 <__bss_end+0x23c50>
4000a184:	40 00 a5 80 	call  40033784 <__bss_end+0x23c54>
4000a188:	40 00 a5 80 	call  40033788 <__bss_end+0x23c58>
4000a18c:	40 00 a5 80 	call  4003378c <__bss_end+0x23c5c>
4000a190:	40 00 a7 b8 	call  40034070 <__bss_end+0x24540>
4000a194:	40 00 a7 20 	call  40033e14 <__bss_end+0x242e4>
4000a198:	40 00 a5 80 	call  40033798 <__bss_end+0x23c68>
4000a19c:	40 00 a5 80 	call  4003379c <__bss_end+0x23c6c>
4000a1a0:	40 00 a5 80 	call  400337a0 <__bss_end+0x23c70>
4000a1a4:	40 00 a9 e0 	call  40034924 <__bss_end+0x24df4>
4000a1a8:	40 00 a7 20 	call  40033e28 <__bss_end+0x242f8>
4000a1ac:	40 00 a7 0c 	call  40033ddc <__bss_end+0x242ac>
4000a1b0:	40 00 a5 80 	call  400337b0 <__bss_end+0x23c80>
4000a1b4:	40 00 aa 74 	call  40034b84 <__bss_end+0x25054>
4000a1b8:	40 00 a5 80 	call  400337b8 <__bss_end+0x23c88>
4000a1bc:	40 00 a8 bc 	call  400344ac <__bss_end+0x2497c>
4000a1c0:	40 00 a8 34 	call  40034290 <__bss_end+0x24760>
4000a1c4:	40 00 aa 38 	call  40034aa4 <__bss_end+0x24f74>
4000a1c8:	40 00 a7 0c 	call  40033df8 <__bss_end+0x242c8>
4000a1cc:	40 00 a5 80 	call  400337cc <__bss_end+0x23c9c>
4000a1d0:	40 00 a7 e4 	call  40034160 <__bss_end+0x24630>
4000a1d4:	40 00 a7 00 	call  40033dd4 <__bss_end+0x242a4>
4000a1d8:	40 00 b9 ac 	call  40038888 <__bss_end+0x28d58>
4000a1dc:	40 00 a5 80 	call  400337dc <__bss_end+0x23cac>
4000a1e0:	40 00 a5 80 	call  400337e0 <__bss_end+0x23cb0>
4000a1e4:	40 00 b9 3c 	call  400386d4 <__bss_end+0x28ba4>
4000a1e8:	40 00 a5 80 	call  400337e8 <__bss_end+0x23cb8>
4000a1ec:	40 00 a7 00 	call  40033dec <__bss_end+0x242bc>

4000a1f0 <__sprint_r>:
4000a1f0:	9d e3 bf a0 	save  %sp, -96, %sp
4000a1f4:	c2 06 a0 08 	ld  [ %i2 + 8 ], %g1
4000a1f8:	80 a0 60 00 	cmp  %g1, 0
4000a1fc:	02 80 00 2d 	be  4000a2b0 <__sprint_r+0xc0>
4000a200:	05 00 00 08 	sethi  %hi(0x2000), %g2
4000a204:	c6 06 60 60 	ld  [ %i1 + 0x60 ], %g3
4000a208:	80 88 c0 02 	btst  %g3, %g2
4000a20c:	02 80 00 1a 	be  4000a274 <__sprint_r+0x84>
4000a210:	94 10 00 1a 	mov  %i2, %o2
4000a214:	e0 06 80 00 	ld  [ %i2 ], %l0
4000a218:	e2 04 20 04 	ld  [ %l0 + 4 ], %l1
4000a21c:	b9 34 60 02 	srl  %l1, 2, %i4
4000a220:	80 a7 20 00 	cmp  %i4, 0
4000a224:	02 80 00 1b 	be  4000a290 <__sprint_r+0xa0>
4000a228:	f6 04 00 00 	ld  [ %l0 ], %i3
4000a22c:	10 80 00 05 	b  4000a240 <__sprint_r+0x50>
4000a230:	ba 10 20 00 	clr  %i5
4000a234:	80 a7 00 1d 	cmp  %i4, %i5
4000a238:	22 80 00 16 	be,a   4000a290 <__sprint_r+0xa0>
4000a23c:	c2 06 a0 08 	ld  [ %i2 + 8 ], %g1
4000a240:	83 2f 60 02 	sll  %i5, 2, %g1
4000a244:	94 10 00 19 	mov  %i1, %o2
4000a248:	d2 06 c0 01 	ld  [ %i3 + %g1 ], %o1
4000a24c:	40 00 08 4f 	call  4000c388 <_fputwc_r>
4000a250:	90 10 00 18 	mov  %i0, %o0
4000a254:	80 a2 3f ff 	cmp  %o0, -1
4000a258:	32 bf ff f7 	bne,a   4000a234 <__sprint_r+0x44>
4000a25c:	ba 07 60 01 	inc  %i5
4000a260:	b0 10 3f ff 	mov  -1, %i0
4000a264:	c0 26 a0 08 	clr  [ %i2 + 8 ]
4000a268:	c0 26 a0 04 	clr  [ %i2 + 4 ]
4000a26c:	81 c7 e0 08 	ret 
4000a270:	81 e8 00 00 	restore 
4000a274:	92 10 00 19 	mov  %i1, %o1
4000a278:	40 00 08 90 	call  4000c4b8 <__sfvwrite_r>
4000a27c:	90 10 00 18 	mov  %i0, %o0
4000a280:	c0 26 a0 08 	clr  [ %i2 + 8 ]
4000a284:	c0 26 a0 04 	clr  [ %i2 + 4 ]
4000a288:	81 c7 e0 08 	ret 
4000a28c:	91 e8 00 08 	restore  %g0, %o0, %o0
4000a290:	a2 0c 7f fc 	and  %l1, -4, %l1
4000a294:	82 20 40 11 	sub  %g1, %l1, %g1
4000a298:	c2 26 a0 08 	st  %g1, [ %i2 + 8 ]
4000a29c:	80 a0 60 00 	cmp  %g1, 0
4000a2a0:	12 bf ff de 	bne  4000a218 <__sprint_r+0x28>
4000a2a4:	a0 04 20 08 	add  %l0, 8, %l0
4000a2a8:	10 bf ff ef 	b  4000a264 <__sprint_r+0x74>
4000a2ac:	b0 10 20 00 	clr  %i0
4000a2b0:	c0 26 a0 04 	clr  [ %i2 + 4 ]
4000a2b4:	81 c7 e0 08 	ret 
4000a2b8:	91 e8 20 00 	restore  %g0, 0, %o0

4000a2bc <_vfiprintf_r>:
4000a2bc:	9d e3 be 78 	save  %sp, -392, %sp
4000a2c0:	f6 27 bf 04 	st  %i3, [ %fp + -252 ]
4000a2c4:	a4 10 00 18 	mov  %i0, %l2
4000a2c8:	aa 10 00 19 	mov  %i1, %l5
4000a2cc:	80 a6 20 00 	cmp  %i0, 0
4000a2d0:	02 80 00 06 	be  4000a2e8 <_vfiprintf_r+0x2c>
4000a2d4:	a2 10 00 1a 	mov  %i2, %l1
4000a2d8:	c2 06 20 18 	ld  [ %i0 + 0x18 ], %g1
4000a2dc:	80 a0 60 00 	cmp  %g1, 0
4000a2e0:	02 80 00 7a 	be  4000a4c8 <_vfiprintf_r+0x20c>
4000a2e4:	01 00 00 00 	nop 
4000a2e8:	03 10 00 3b 	sethi  %hi(0x4000ec00), %g1
4000a2ec:	82 10 62 50 	or  %g1, 0x250, %g1	! 4000ee50 <__sf_fake_stdin>
4000a2f0:	80 a5 40 01 	cmp  %l5, %g1
4000a2f4:	22 80 00 0b 	be,a   4000a320 <_vfiprintf_r+0x64>
4000a2f8:	ea 04 a0 04 	ld  [ %l2 + 4 ], %l5
4000a2fc:	03 10 00 3b 	sethi  %hi(0x4000ec00), %g1
4000a300:	82 10 62 30 	or  %g1, 0x230, %g1	! 4000ee30 <__sf_fake_stdout>
4000a304:	80 a5 40 01 	cmp  %l5, %g1
4000a308:	02 80 00 79 	be  4000a4ec <_vfiprintf_r+0x230>
4000a30c:	03 10 00 3b 	sethi  %hi(0x4000ec00), %g1
4000a310:	82 10 62 10 	or  %g1, 0x210, %g1	! 4000ee10 <__sf_fake_stderr>
4000a314:	80 a5 40 01 	cmp  %l5, %g1
4000a318:	22 80 00 02 	be,a   4000a320 <_vfiprintf_r+0x64>
4000a31c:	ea 04 a0 0c 	ld  [ %l2 + 0xc ], %l5
4000a320:	c2 15 60 0c 	lduh  [ %l5 + 0xc ], %g1
4000a324:	05 00 00 08 	sethi  %hi(0x2000), %g2
4000a328:	80 88 80 01 	btst  %g2, %g1
4000a32c:	12 80 00 08 	bne  4000a34c <_vfiprintf_r+0x90>
4000a330:	80 88 60 08 	btst  8, %g1
4000a334:	82 10 40 02 	or  %g1, %g2, %g1
4000a338:	c6 05 60 60 	ld  [ %l5 + 0x60 ], %g3
4000a33c:	c2 35 60 0c 	sth  %g1, [ %l5 + 0xc ]
4000a340:	84 28 c0 02 	andn  %g3, %g2, %g2
4000a344:	c4 25 60 60 	st  %g2, [ %l5 + 0x60 ]
4000a348:	80 88 60 08 	btst  8, %g1
4000a34c:	02 80 04 8c 	be  4000b57c <_vfiprintf_r+0x12c0>
4000a350:	92 10 00 15 	mov  %l5, %o1
4000a354:	c4 05 60 10 	ld  [ %l5 + 0x10 ], %g2
4000a358:	80 a0 a0 00 	cmp  %g2, 0
4000a35c:	02 80 04 88 	be  4000b57c <_vfiprintf_r+0x12c0>
4000a360:	82 08 60 1a 	and  %g1, 0x1a, %g1
4000a364:	80 a0 60 0a 	cmp  %g1, 0xa
4000a368:	22 80 04 90 	be,a   4000b5a8 <_vfiprintf_r+0x12ec>
4000a36c:	c2 55 60 0e 	ldsh  [ %l5 + 0xe ], %g1
4000a370:	82 07 bf 58 	add  %fp, -168, %g1
4000a374:	c2 27 bf 4c 	st  %g1, [ %fp + -180 ]
4000a378:	b2 10 00 01 	mov  %g1, %i1
4000a37c:	03 10 00 28 	sethi  %hi(0x4000a000), %g1
4000a380:	82 10 60 84 	or  %g1, 0x84, %g1	! 4000a084 <strncpy+0x1ac>
4000a384:	c2 27 be f0 	st  %g1, [ %fp + -272 ]
4000a388:	03 10 00 3b 	sethi  %hi(0x4000ec00), %g1
4000a38c:	82 10 63 b0 	or  %g1, 0x3b0, %g1	! 4000efb0 <blanks.1>
4000a390:	c2 27 bf 10 	st  %g1, [ %fp + -240 ]
4000a394:	03 10 00 3b 	sethi  %hi(0x4000ec00), %g1
4000a398:	82 10 63 a0 	or  %g1, 0x3a0, %g1	! 4000efa0 <zeroes.0>
4000a39c:	c0 27 bf 54 	clr  [ %fp + -172 ]
4000a3a0:	c2 27 bf 14 	st  %g1, [ %fp + -236 ]
4000a3a4:	c0 27 bf 50 	clr  [ %fp + -176 ]
4000a3a8:	03 10 00 3b 	sethi  %hi(0x4000ec00), %g1
4000a3ac:	c0 27 be ec 	clr  [ %fp + -276 ]
4000a3b0:	82 10 61 28 	or  %g1, 0x128, %g1
4000a3b4:	c0 27 be e8 	clr  [ %fp + -280 ]
4000a3b8:	c0 27 be dc 	clr  [ %fp + -292 ]
4000a3bc:	c0 27 be e0 	clr  [ %fp + -288 ]
4000a3c0:	c0 27 bf 08 	clr  [ %fp + -248 ]
4000a3c4:	c2 27 be e4 	st  %g1, [ %fp + -284 ]
4000a3c8:	c2 0c 40 00 	ldub  [ %l1 ], %g1
4000a3cc:	83 28 60 18 	sll  %g1, 0x18, %g1
4000a3d0:	85 38 60 18 	sra  %g1, 0x18, %g2
4000a3d4:	80 a0 a0 25 	cmp  %g2, 0x25
4000a3d8:	02 80 00 55 	be  4000a52c <_vfiprintf_r+0x270>
4000a3dc:	ba 10 00 11 	mov  %l1, %i5
4000a3e0:	80 a0 a0 00 	cmp  %g2, 0
4000a3e4:	02 80 00 53 	be  4000a530 <_vfiprintf_r+0x274>
4000a3e8:	80 a0 60 00 	cmp  %g1, 0
4000a3ec:	b8 10 00 1d 	mov  %i5, %i4
4000a3f0:	ba 07 60 01 	inc  %i5
4000a3f4:	c2 0f 40 00 	ldub  [ %i5 ], %g1
4000a3f8:	83 28 60 18 	sll  %g1, 0x18, %g1
4000a3fc:	80 a0 60 00 	cmp  %g1, 0
4000a400:	02 80 00 05 	be  4000a414 <_vfiprintf_r+0x158>
4000a404:	85 38 60 18 	sra  %g1, 0x18, %g2
4000a408:	80 a0 a0 25 	cmp  %g2, 0x25
4000a40c:	32 bf ff f9 	bne,a   4000a3f0 <_vfiprintf_r+0x134>
4000a410:	b8 10 00 1d 	mov  %i5, %i4
4000a414:	b6 a7 40 11 	subcc  %i5, %l1, %i3
4000a418:	02 80 00 45 	be  4000a52c <_vfiprintf_r+0x270>
4000a41c:	c4 07 bf 50 	ld  [ %fp + -176 ], %g2
4000a420:	c2 07 bf 54 	ld  [ %fp + -172 ], %g1
4000a424:	82 06 c0 01 	add  %i3, %g1, %g1
4000a428:	84 00 a0 01 	inc  %g2
4000a42c:	e2 26 40 00 	st  %l1, [ %i1 ]
4000a430:	f6 26 60 04 	st  %i3, [ %i1 + 4 ]
4000a434:	c2 27 bf 54 	st  %g1, [ %fp + -172 ]
4000a438:	c4 27 bf 50 	st  %g2, [ %fp + -176 ]
4000a43c:	80 a0 a0 07 	cmp  %g2, 7
4000a440:	04 80 00 36 	ble  4000a518 <_vfiprintf_r+0x25c>
4000a444:	b2 06 60 08 	add  %i1, 8, %i1
4000a448:	80 a0 60 00 	cmp  %g1, 0
4000a44c:	02 80 04 96 	be  4000b6a4 <_vfiprintf_r+0x13e8>
4000a450:	05 00 00 08 	sethi  %hi(0x2000), %g2
4000a454:	c6 05 60 60 	ld  [ %l5 + 0x60 ], %g3
4000a458:	80 88 c0 02 	btst  %g3, %g2
4000a45c:	02 80 00 26 	be  4000a4f4 <_vfiprintf_r+0x238>
4000a460:	f0 07 bf 4c 	ld  [ %fp + -180 ], %i0
4000a464:	e2 06 20 04 	ld  [ %i0 + 4 ], %l1
4000a468:	b3 34 60 02 	srl  %l1, 2, %i1
4000a46c:	80 a6 60 00 	cmp  %i1, 0
4000a470:	02 80 04 87 	be  4000b68c <_vfiprintf_r+0x13d0>
4000a474:	e0 06 00 00 	ld  [ %i0 ], %l0
4000a478:	10 80 00 05 	b  4000a48c <_vfiprintf_r+0x1d0>
4000a47c:	b4 10 20 00 	clr  %i2
4000a480:	80 a6 40 1a 	cmp  %i1, %i2
4000a484:	02 80 04 82 	be  4000b68c <_vfiprintf_r+0x13d0>
4000a488:	c2 07 bf 54 	ld  [ %fp + -172 ], %g1
4000a48c:	83 2e a0 02 	sll  %i2, 2, %g1
4000a490:	94 10 00 15 	mov  %l5, %o2
4000a494:	d2 04 00 01 	ld  [ %l0 + %g1 ], %o1
4000a498:	40 00 07 bc 	call  4000c388 <_fputwc_r>
4000a49c:	90 10 00 12 	mov  %l2, %o0
4000a4a0:	80 a2 3f ff 	cmp  %o0, -1
4000a4a4:	32 bf ff f7 	bne,a   4000a480 <_vfiprintf_r+0x1c4>
4000a4a8:	b4 06 a0 01 	inc  %i2
4000a4ac:	c2 15 60 0c 	lduh  [ %l5 + 0xc ], %g1
4000a4b0:	80 88 60 40 	btst  0x40, %g1
4000a4b4:	12 80 06 3c 	bne  4000bda4 <_vfiprintf_r+0x1ae8>
4000a4b8:	82 10 3f ff 	mov  -1, %g1
4000a4bc:	f0 07 bf 08 	ld  [ %fp + -248 ], %i0
4000a4c0:	81 c7 e0 08 	ret 
4000a4c4:	81 e8 00 00 	restore 
4000a4c8:	7f ff f3 c2 	call  400073d0 <__sinit>
4000a4cc:	90 10 00 18 	mov  %i0, %o0
4000a4d0:	03 10 00 3b 	sethi  %hi(0x4000ec00), %g1
4000a4d4:	82 10 62 50 	or  %g1, 0x250, %g1	! 4000ee50 <__sf_fake_stdin>
4000a4d8:	80 a5 40 01 	cmp  %l5, %g1
4000a4dc:	12 bf ff 89 	bne  4000a300 <_vfiprintf_r+0x44>
4000a4e0:	03 10 00 3b 	sethi  %hi(0x4000ec00), %g1
4000a4e4:	10 bf ff 8f 	b  4000a320 <_vfiprintf_r+0x64>
4000a4e8:	ea 04 a0 04 	ld  [ %l2 + 4 ], %l5
4000a4ec:	10 bf ff 8d 	b  4000a320 <_vfiprintf_r+0x64>
4000a4f0:	ea 04 a0 08 	ld  [ %l2 + 8 ], %l5
4000a4f4:	94 07 bf 4c 	add  %fp, -180, %o2
4000a4f8:	92 10 00 15 	mov  %l5, %o1
4000a4fc:	40 00 07 ef 	call  4000c4b8 <__sfvwrite_r>
4000a500:	90 10 00 12 	mov  %l2, %o0
4000a504:	c0 27 bf 54 	clr  [ %fp + -172 ]
4000a508:	80 a2 20 00 	cmp  %o0, 0
4000a50c:	12 bf ff e8 	bne  4000a4ac <_vfiprintf_r+0x1f0>
4000a510:	c0 27 bf 50 	clr  [ %fp + -176 ]
4000a514:	b2 07 bf 58 	add  %fp, -168, %i1
4000a518:	c4 07 bf 08 	ld  [ %fp + -248 ], %g2
4000a51c:	c2 0f 20 01 	ldub  [ %i4 + 1 ], %g1
4000a520:	84 00 80 1b 	add  %g2, %i3, %g2
4000a524:	83 28 60 18 	sll  %g1, 0x18, %g1
4000a528:	c4 27 bf 08 	st  %g2, [ %fp + -248 ]
4000a52c:	80 a0 60 00 	cmp  %g1, 0
4000a530:	02 80 05 96 	be  4000bb88 <_vfiprintf_r+0x18cc>
4000a534:	a2 07 60 01 	add  %i5, 1, %l1
4000a538:	c2 0f 60 01 	ldub  [ %i5 + 1 ], %g1
4000a53c:	c0 2f bf 1f 	clrb  [ %fp + -225 ]
4000a540:	b6 10 3f ff 	mov  -1, %i3
4000a544:	b4 10 20 00 	clr  %i2
4000a548:	a0 10 20 00 	clr  %l0
4000a54c:	83 28 60 18 	sll  %g1, 0x18, %g1
4000a550:	ba 10 20 2b 	mov  0x2b, %i5
4000a554:	b8 10 20 20 	mov  0x20, %i4
4000a558:	a2 04 60 01 	inc  %l1
4000a55c:	83 38 60 18 	sra  %g1, 0x18, %g1
4000a560:	84 00 7f e0 	add  %g1, -32, %g2
4000a564:	80 a0 a0 5a 	cmp  %g2, 0x5a
4000a568:	18 80 00 06 	bgu  4000a580 <_vfiprintf_r+0x2c4>
4000a56c:	85 28 a0 02 	sll  %g2, 2, %g2
4000a570:	c6 07 be f0 	ld  [ %fp + -272 ], %g3
4000a574:	c4 00 c0 02 	ld  [ %g3 + %g2 ], %g2
4000a578:	81 c0 80 00 	jmp  %g2
4000a57c:	01 00 00 00 	nop 
4000a580:	80 a0 60 00 	cmp  %g1, 0
4000a584:	02 80 05 81 	be  4000bb88 <_vfiprintf_r+0x18cc>
4000a588:	a8 10 20 01 	mov  1, %l4
4000a58c:	c2 2f bf 98 	stb  %g1, [ %fp + -104 ]
4000a590:	c0 2f bf 1f 	clrb  [ %fp + -225 ]
4000a594:	82 10 20 01 	mov  1, %g1
4000a598:	c2 27 bf 0c 	st  %g1, [ %fp + -244 ]
4000a59c:	b0 07 bf 98 	add  %fp, -104, %i0
4000a5a0:	b6 10 20 00 	clr  %i3
4000a5a4:	82 8c 20 02 	andcc  %l0, 2, %g1
4000a5a8:	02 80 00 03 	be  4000a5b4 <_vfiprintf_r+0x2f8>
4000a5ac:	c2 27 be f4 	st  %g1, [ %fp + -268 ]
4000a5b0:	a8 05 20 02 	add  %l4, 2, %l4
4000a5b4:	84 8c 20 84 	andcc  %l0, 0x84, %g2
4000a5b8:	c4 27 bf 00 	st  %g2, [ %fp + -256 ]
4000a5bc:	d0 07 bf 50 	ld  [ %fp + -176 ], %o0
4000a5c0:	c2 07 bf 54 	ld  [ %fp + -172 ], %g1
4000a5c4:	86 02 20 01 	add  %o0, 1, %g3
4000a5c8:	12 80 00 06 	bne  4000a5e0 <_vfiprintf_r+0x324>
4000a5cc:	84 10 00 03 	mov  %g3, %g2
4000a5d0:	a6 26 80 14 	sub  %i2, %l4, %l3
4000a5d4:	80 a4 e0 00 	cmp  %l3, 0
4000a5d8:	14 80 02 fc 	bg  4000b1c8 <_vfiprintf_r+0xf0c>
4000a5dc:	80 a4 e0 10 	cmp  %l3, 0x10
4000a5e0:	c8 4f bf 1f 	ldsb  [ %fp + -225 ], %g4
4000a5e4:	80 a1 20 00 	cmp  %g4, 0
4000a5e8:	02 80 01 41 	be  4000aaec <_vfiprintf_r+0x830>
4000a5ec:	86 06 60 08 	add  %i1, 8, %g3
4000a5f0:	88 07 bf 1f 	add  %fp, -225, %g4
4000a5f4:	82 00 60 01 	inc  %g1
4000a5f8:	c8 26 40 00 	st  %g4, [ %i1 ]
4000a5fc:	c2 27 bf 54 	st  %g1, [ %fp + -172 ]
4000a600:	88 10 20 01 	mov  1, %g4
4000a604:	c4 27 bf 50 	st  %g2, [ %fp + -176 ]
4000a608:	80 a0 a0 07 	cmp  %g2, 7
4000a60c:	04 80 01 34 	ble  4000aadc <_vfiprintf_r+0x820>
4000a610:	c8 26 60 04 	st  %g4, [ %i1 + 4 ]
4000a614:	80 a0 60 00 	cmp  %g1, 0
4000a618:	02 80 02 db 	be  4000b184 <_vfiprintf_r+0xec8>
4000a61c:	05 00 00 08 	sethi  %hi(0x2000), %g2
4000a620:	c6 05 60 60 	ld  [ %l5 + 0x60 ], %g3
4000a624:	80 88 c0 02 	btst  %g3, %g2
4000a628:	02 80 02 cf 	be  4000b164 <_vfiprintf_r+0xea8>
4000a62c:	f2 07 bf 4c 	ld  [ %fp + -180 ], %i1
4000a630:	ec 06 60 04 	ld  [ %i1 + 4 ], %l6
4000a634:	b9 35 a0 02 	srl  %l6, 2, %i4
4000a638:	80 a7 20 00 	cmp  %i4, 0
4000a63c:	02 80 04 22 	be  4000b6c4 <_vfiprintf_r+0x1408>
4000a640:	e6 06 40 00 	ld  [ %i1 ], %l3
4000a644:	10 80 00 05 	b  4000a658 <_vfiprintf_r+0x39c>
4000a648:	ba 10 20 00 	clr  %i5
4000a64c:	80 a7 00 1d 	cmp  %i4, %i5
4000a650:	02 80 04 1d 	be  4000b6c4 <_vfiprintf_r+0x1408>
4000a654:	c2 07 bf 54 	ld  [ %fp + -172 ], %g1
4000a658:	83 2f 60 02 	sll  %i5, 2, %g1
4000a65c:	94 10 00 15 	mov  %l5, %o2
4000a660:	d2 04 c0 01 	ld  [ %l3 + %g1 ], %o1
4000a664:	40 00 07 49 	call  4000c388 <_fputwc_r>
4000a668:	90 10 00 12 	mov  %l2, %o0
4000a66c:	80 a2 3f ff 	cmp  %o0, -1
4000a670:	32 bf ff f7 	bne,a   4000a64c <_vfiprintf_r+0x390>
4000a674:	ba 07 60 01 	inc  %i5
4000a678:	10 bf ff 8e 	b  4000a4b0 <_vfiprintf_r+0x1f4>
4000a67c:	c2 15 60 0c 	lduh  [ %l5 + 0xc ], %g1
4000a680:	b4 10 20 00 	clr  %i2
4000a684:	84 00 7f d0 	add  %g1, -48, %g2
4000a688:	83 2e a0 02 	sll  %i2, 2, %g1
4000a68c:	a2 04 60 01 	inc  %l1
4000a690:	b4 00 40 1a 	add  %g1, %i2, %i2
4000a694:	c2 4c 7f ff 	ldsb  [ %l1 + -1 ], %g1
4000a698:	b5 2e a0 01 	sll  %i2, 1, %i2
4000a69c:	b4 00 80 1a 	add  %g2, %i2, %i2
4000a6a0:	84 00 7f d0 	add  %g1, -48, %g2
4000a6a4:	80 a0 a0 09 	cmp  %g2, 9
4000a6a8:	28 bf ff f9 	bleu,a   4000a68c <_vfiprintf_r+0x3d0>
4000a6ac:	83 2e a0 02 	sll  %i2, 2, %g1
4000a6b0:	10 bf ff ad 	b  4000a564 <_vfiprintf_r+0x2a8>
4000a6b4:	84 00 7f e0 	add  %g1, -32, %g2
4000a6b8:	7f ff f4 88 	call  400078d8 <_localeconv_r>
4000a6bc:	90 10 00 12 	mov  %l2, %o0
4000a6c0:	c2 02 20 04 	ld  [ %o0 + 4 ], %g1
4000a6c4:	c2 27 be e0 	st  %g1, [ %fp + -288 ]
4000a6c8:	7f ff fd d9 	call  40009e2c <strlen>
4000a6cc:	90 10 00 01 	mov  %g1, %o0
4000a6d0:	82 10 00 08 	mov  %o0, %g1
4000a6d4:	90 10 00 12 	mov  %l2, %o0
4000a6d8:	b0 10 00 01 	mov  %g1, %i0
4000a6dc:	7f ff f4 7f 	call  400078d8 <_localeconv_r>
4000a6e0:	c2 27 be dc 	st  %g1, [ %fp + -292 ]
4000a6e4:	82 96 20 00 	orcc  %i0, 0, %g1
4000a6e8:	c2 02 20 08 	ld  [ %o0 + 8 ], %g1
4000a6ec:	02 80 00 05 	be  4000a700 <_vfiprintf_r+0x444>
4000a6f0:	c2 27 be e8 	st  %g1, [ %fp + -280 ]
4000a6f4:	80 a0 60 00 	cmp  %g1, 0
4000a6f8:	32 80 04 83 	bne,a   4000b904 <_vfiprintf_r+0x1648>
4000a6fc:	c6 48 40 00 	ldsb  [ %g1 ], %g3
4000a700:	c4 0c 40 00 	ldub  [ %l1 ], %g2
4000a704:	10 bf ff 95 	b  4000a558 <_vfiprintf_r+0x29c>
4000a708:	83 28 a0 18 	sll  %g2, 0x18, %g1
4000a70c:	c4 0c 40 00 	ldub  [ %l1 ], %g2
4000a710:	a0 14 20 20 	or  %l0, 0x20, %l0
4000a714:	10 bf ff 91 	b  4000a558 <_vfiprintf_r+0x29c>
4000a718:	83 28 a0 18 	sll  %g2, 0x18, %g1
4000a71c:	a0 14 20 10 	or  %l0, 0x10, %l0
4000a720:	80 8c 20 20 	btst  0x20, %l0
4000a724:	02 80 04 13 	be  4000b770 <_vfiprintf_r+0x14b4>
4000a728:	c4 07 bf 04 	ld  [ %fp + -252 ], %g2
4000a72c:	c2 07 bf 04 	ld  [ %fp + -252 ], %g1
4000a730:	92 10 00 01 	mov  %g1, %o1
4000a734:	82 00 60 08 	add  %g1, 8, %g1
4000a738:	94 10 20 08 	mov  8, %o2
4000a73c:	c2 27 bf 04 	st  %g1, [ %fp + -252 ]
4000a740:	7f ff de c2 	call  40002248 <memcpy>
4000a744:	90 07 bf 28 	add  %fp, -216, %o0
4000a748:	c2 07 bf 28 	ld  [ %fp + -216 ], %g1
4000a74c:	c4 07 bf 2c 	ld  [ %fp + -212 ], %g2
4000a750:	c2 27 be f8 	st  %g1, [ %fp + -264 ]
4000a754:	c4 27 be fc 	st  %g2, [ %fp + -260 ]
4000a758:	80 a0 60 00 	cmp  %g1, 0
4000a75c:	06 80 04 1f 	bl  4000b7d8 <_vfiprintf_r+0x151c>
4000a760:	f8 1f be f8 	ldd  [ %fp + -264 ], %i4
4000a764:	80 a6 ff ff 	cmp  %i3, -1
4000a768:	02 80 03 98 	be  4000b5c8 <_vfiprintf_r+0x130c>
4000a76c:	80 a6 e0 00 	cmp  %i3, 0
4000a770:	12 80 03 96 	bne  4000b5c8 <_vfiprintf_r+0x130c>
4000a774:	a0 0c 3f 7f 	and  %l0, -129, %l0
4000a778:	c4 1f be f8 	ldd  [ %fp + -264 ], %g2
4000a77c:	82 10 00 02 	mov  %g2, %g1
4000a780:	80 90 40 03 	orcc  %g1, %g3, %g0
4000a784:	12 80 03 93 	bne  4000b5d0 <_vfiprintf_r+0x1314>
4000a788:	ba 10 00 10 	mov  %l0, %i5
4000a78c:	c0 27 bf 0c 	clr  [ %fp + -244 ]
4000a790:	b0 07 bf fc 	add  %fp, -4, %i0
4000a794:	c2 07 bf 0c 	ld  [ %fp + -244 ], %g1
4000a798:	80 a6 c0 01 	cmp  %i3, %g1
4000a79c:	16 80 00 03 	bge  4000a7a8 <_vfiprintf_r+0x4ec>
4000a7a0:	a8 10 00 1b 	mov  %i3, %l4
4000a7a4:	a8 10 00 01 	mov  %g1, %l4
4000a7a8:	c2 4f bf 1f 	ldsb  [ %fp + -225 ], %g1
4000a7ac:	80 a0 00 01 	cmp  %g0, %g1
4000a7b0:	10 bf ff 7d 	b  4000a5a4 <_vfiprintf_r+0x2e8>
4000a7b4:	a8 40 00 14 	addx  %g0, %l4, %l4
4000a7b8:	c4 07 bf 04 	ld  [ %fp + -252 ], %g2
4000a7bc:	c2 00 80 00 	ld  [ %g2 ], %g1
4000a7c0:	c0 2f bf 1f 	clrb  [ %fp + -225 ]
4000a7c4:	84 00 a0 04 	add  %g2, 4, %g2
4000a7c8:	c2 2f bf 98 	stb  %g1, [ %fp + -104 ]
4000a7cc:	c4 27 bf 04 	st  %g2, [ %fp + -252 ]
4000a7d0:	82 10 20 01 	mov  1, %g1
4000a7d4:	a8 10 20 01 	mov  1, %l4
4000a7d8:	c2 27 bf 0c 	st  %g1, [ %fp + -244 ]
4000a7dc:	10 bf ff 71 	b  4000a5a0 <_vfiprintf_r+0x2e4>
4000a7e0:	b0 07 bf 98 	add  %fp, -104, %i0
4000a7e4:	c2 07 bf 04 	ld  [ %fp + -252 ], %g1
4000a7e8:	c0 2f bf 1f 	clrb  [ %fp + -225 ]
4000a7ec:	f0 00 40 00 	ld  [ %g1 ], %i0
4000a7f0:	82 00 60 04 	add  %g1, 4, %g1
4000a7f4:	80 a6 20 00 	cmp  %i0, 0
4000a7f8:	02 80 04 c6 	be  4000bb10 <_vfiprintf_r+0x1854>
4000a7fc:	c2 27 bf 04 	st  %g1, [ %fp + -252 ]
4000a800:	80 a6 ff ff 	cmp  %i3, -1
4000a804:	02 80 04 7f 	be  4000ba00 <_vfiprintf_r+0x1744>
4000a808:	94 10 00 1b 	mov  %i3, %o2
4000a80c:	92 10 20 00 	clr  %o1
4000a810:	7f ff f6 c3 	call  4000831c <memchr>
4000a814:	90 10 00 18 	mov  %i0, %o0
4000a818:	80 a2 20 00 	cmp  %o0, 0
4000a81c:	02 80 05 5d 	be  4000bd90 <_vfiprintf_r+0x1ad4>
4000a820:	82 22 00 18 	sub  %o0, %i0, %g1
4000a824:	b6 10 20 00 	clr  %i3
4000a828:	10 bf ff db 	b  4000a794 <_vfiprintf_r+0x4d8>
4000a82c:	c2 27 bf 0c 	st  %g1, [ %fp + -244 ]
4000a830:	a0 14 20 10 	or  %l0, 0x10, %l0
4000a834:	80 8c 20 20 	btst  0x20, %l0
4000a838:	02 80 03 b6 	be  4000b710 <_vfiprintf_r+0x1454>
4000a83c:	c4 07 bf 04 	ld  [ %fp + -252 ], %g2
4000a840:	c2 07 bf 04 	ld  [ %fp + -252 ], %g1
4000a844:	92 10 00 01 	mov  %g1, %o1
4000a848:	82 00 60 08 	add  %g1, 8, %g1
4000a84c:	94 10 20 08 	mov  8, %o2
4000a850:	c2 27 bf 04 	st  %g1, [ %fp + -252 ]
4000a854:	7f ff de 7d 	call  40002248 <memcpy>
4000a858:	90 07 bf 30 	add  %fp, -208, %o0
4000a85c:	c4 1f bf 30 	ldd  [ %fp + -208 ], %g2
4000a860:	ba 0c 3b ff 	and  %l0, -1025, %i5
4000a864:	c4 3f be f8 	std  %g2, [ %fp + -264 ]
4000a868:	82 10 20 00 	clr  %g1
4000a86c:	c0 2f bf 1f 	clrb  [ %fp + -225 ]
4000a870:	80 a6 ff ff 	cmp  %i3, -1
4000a874:	02 80 01 4c 	be  4000ada4 <_vfiprintf_r+0xae8>
4000a878:	c4 1f be f8 	ldd  [ %fp + -264 ], %g2
4000a87c:	88 10 00 02 	mov  %g2, %g4
4000a880:	80 91 00 03 	orcc  %g4, %g3, %g0
4000a884:	12 80 01 47 	bne  4000ada0 <_vfiprintf_r+0xae4>
4000a888:	a0 0f 7f 7f 	and  %i5, -129, %l0
4000a88c:	80 a6 e0 00 	cmp  %i3, 0
4000a890:	12 80 01 44 	bne  4000ada0 <_vfiprintf_r+0xae4>
4000a894:	80 88 60 ff 	btst  0xff, %g1
4000a898:	12 bf ff bd 	bne  4000a78c <_vfiprintf_r+0x4d0>
4000a89c:	b6 10 20 00 	clr  %i3
4000a8a0:	82 8f 60 01 	andcc  %i5, 1, %g1
4000a8a4:	02 bf ff bb 	be  4000a790 <_vfiprintf_r+0x4d4>
4000a8a8:	c2 27 bf 0c 	st  %g1, [ %fp + -244 ]
4000a8ac:	82 10 20 30 	mov  0x30, %g1
4000a8b0:	b0 07 bf fb 	add  %fp, -5, %i0
4000a8b4:	10 bf ff b8 	b  4000a794 <_vfiprintf_r+0x4d8>
4000a8b8:	c2 2f bf fb 	stb  %g1, [ %fp + -5 ]
4000a8bc:	c4 07 bf 04 	ld  [ %fp + -252 ], %g2
4000a8c0:	c2 00 80 00 	ld  [ %g2 ], %g1
4000a8c4:	84 00 a0 04 	add  %g2, 4, %g2
4000a8c8:	80 8c 20 20 	btst  0x20, %l0
4000a8cc:	12 80 04 09 	bne  4000b8f0 <_vfiprintf_r+0x1634>
4000a8d0:	c4 27 bf 04 	st  %g2, [ %fp + -252 ]
4000a8d4:	80 8c 20 10 	btst  0x10, %l0
4000a8d8:	12 80 04 a2 	bne  4000bb60 <_vfiprintf_r+0x18a4>
4000a8dc:	c4 07 bf 08 	ld  [ %fp + -248 ], %g2
4000a8e0:	80 8c 20 40 	btst  0x40, %l0
4000a8e4:	32 bf fe b9 	bne,a   4000a3c8 <_vfiprintf_r+0x10c>
4000a8e8:	c4 30 40 00 	sth  %g2, [ %g1 ]
4000a8ec:	80 8c 22 00 	btst  0x200, %l0
4000a8f0:	22 bf fe b6 	be,a   4000a3c8 <_vfiprintf_r+0x10c>
4000a8f4:	c4 20 40 00 	st  %g2, [ %g1 ]
4000a8f8:	c4 07 bf 08 	ld  [ %fp + -248 ], %g2
4000a8fc:	10 bf fe b3 	b  4000a3c8 <_vfiprintf_r+0x10c>
4000a900:	c4 28 40 00 	stb  %g2, [ %g1 ]
4000a904:	c4 0c 40 00 	ldub  [ %l1 ], %g2
4000a908:	a0 14 20 80 	or  %l0, 0x80, %l0
4000a90c:	10 bf ff 13 	b  4000a558 <_vfiprintf_r+0x29c>
4000a910:	83 28 a0 18 	sll  %g2, 0x18, %g1
4000a914:	c2 4c 40 00 	ldsb  [ %l1 ], %g1
4000a918:	80 a0 60 2a 	cmp  %g1, 0x2a
4000a91c:	02 80 05 33 	be  4000bde8 <_vfiprintf_r+0x1b2c>
4000a920:	86 04 60 01 	add  %l1, 1, %g3
4000a924:	84 00 7f d0 	add  %g1, -48, %g2
4000a928:	a2 10 00 03 	mov  %g3, %l1
4000a92c:	80 a0 a0 09 	cmp  %g2, 9
4000a930:	18 bf ff 0c 	bgu  4000a560 <_vfiprintf_r+0x2a4>
4000a934:	b6 10 20 00 	clr  %i3
4000a938:	83 2e e0 02 	sll  %i3, 2, %g1
4000a93c:	a2 04 60 01 	inc  %l1
4000a940:	b6 00 40 1b 	add  %g1, %i3, %i3
4000a944:	c2 4c 7f ff 	ldsb  [ %l1 + -1 ], %g1
4000a948:	b7 2e e0 01 	sll  %i3, 1, %i3
4000a94c:	b6 06 c0 02 	add  %i3, %g2, %i3
4000a950:	84 00 7f d0 	add  %g1, -48, %g2
4000a954:	80 a0 a0 09 	cmp  %g2, 9
4000a958:	28 bf ff f9 	bleu,a   4000a93c <_vfiprintf_r+0x680>
4000a95c:	83 2e e0 02 	sll  %i3, 2, %g1
4000a960:	10 bf ff 01 	b  4000a564 <_vfiprintf_r+0x2a8>
4000a964:	84 00 7f e0 	add  %g1, -32, %g2
4000a968:	c4 0c 40 00 	ldub  [ %l1 ], %g2
4000a96c:	a0 14 20 04 	or  %l0, 4, %l0
4000a970:	10 bf fe fa 	b  4000a558 <_vfiprintf_r+0x29c>
4000a974:	83 28 a0 18 	sll  %g2, 0x18, %g1
4000a978:	c4 0c 40 00 	ldub  [ %l1 ], %g2
4000a97c:	fa 2f bf 1f 	stb  %i5, [ %fp + -225 ]
4000a980:	10 bf fe f6 	b  4000a558 <_vfiprintf_r+0x29c>
4000a984:	83 28 a0 18 	sll  %g2, 0x18, %g1
4000a988:	c2 07 bf 04 	ld  [ %fp + -252 ], %g1
4000a98c:	f4 00 40 00 	ld  [ %g1 ], %i2
4000a990:	82 00 60 04 	add  %g1, 4, %g1
4000a994:	c2 27 bf 04 	st  %g1, [ %fp + -252 ]
4000a998:	c4 0c 40 00 	ldub  [ %l1 ], %g2
4000a99c:	80 a6 a0 00 	cmp  %i2, 0
4000a9a0:	16 bf fe ee 	bge  4000a558 <_vfiprintf_r+0x29c>
4000a9a4:	83 28 a0 18 	sll  %g2, 0x18, %g1
4000a9a8:	b4 20 00 1a 	neg  %i2
4000a9ac:	10 bf fe eb 	b  4000a558 <_vfiprintf_r+0x29c>
4000a9b0:	a0 14 20 04 	or  %l0, 4, %l0
4000a9b4:	c4 0c 40 00 	ldub  [ %l1 ], %g2
4000a9b8:	a0 14 20 01 	or  %l0, 1, %l0
4000a9bc:	10 bf fe e7 	b  4000a558 <_vfiprintf_r+0x29c>
4000a9c0:	83 28 a0 18 	sll  %g2, 0x18, %g1
4000a9c4:	c4 0c 40 00 	ldub  [ %l1 ], %g2
4000a9c8:	c6 4f bf 1f 	ldsb  [ %fp + -225 ], %g3
4000a9cc:	80 a0 e0 00 	cmp  %g3, 0
4000a9d0:	12 bf fe e2 	bne  4000a558 <_vfiprintf_r+0x29c>
4000a9d4:	83 28 a0 18 	sll  %g2, 0x18, %g1
4000a9d8:	10 bf fe e0 	b  4000a558 <_vfiprintf_r+0x29c>
4000a9dc:	f8 2f bf 1f 	stb  %i4, [ %fp + -225 ]
4000a9e0:	c4 0c 40 00 	ldub  [ %l1 ], %g2
4000a9e4:	83 28 a0 18 	sll  %g2, 0x18, %g1
4000a9e8:	85 38 60 18 	sra  %g1, 0x18, %g2
4000a9ec:	80 a0 a0 68 	cmp  %g2, 0x68
4000a9f0:	22 80 04 3c 	be,a   4000bae0 <_vfiprintf_r+0x1824>
4000a9f4:	c4 0c 60 01 	ldub  [ %l1 + 1 ], %g2
4000a9f8:	10 bf fe d8 	b  4000a558 <_vfiprintf_r+0x29c>
4000a9fc:	a0 14 20 40 	or  %l0, 0x40, %l0
4000aa00:	ba 14 20 10 	or  %l0, 0x10, %i5
4000aa04:	80 8f 60 20 	btst  0x20, %i5
4000aa08:	02 80 03 7c 	be  4000b7f8 <_vfiprintf_r+0x153c>
4000aa0c:	c2 07 bf 04 	ld  [ %fp + -252 ], %g1
4000aa10:	92 10 00 01 	mov  %g1, %o1
4000aa14:	82 00 60 08 	add  %g1, 8, %g1
4000aa18:	94 10 20 08 	mov  8, %o2
4000aa1c:	c2 27 bf 04 	st  %g1, [ %fp + -252 ]
4000aa20:	7f ff de 0a 	call  40002248 <memcpy>
4000aa24:	90 07 bf 38 	add  %fp, -200, %o0
4000aa28:	c4 1f bf 38 	ldd  [ %fp + -200 ], %g2
4000aa2c:	82 10 20 01 	mov  1, %g1
4000aa30:	10 bf ff 8f 	b  4000a86c <_vfiprintf_r+0x5b0>
4000aa34:	c4 3f be f8 	std  %g2, [ %fp + -264 ]
4000aa38:	c4 07 bf 04 	ld  [ %fp + -252 ], %g2
4000aa3c:	c2 00 80 00 	ld  [ %g2 ], %g1
4000aa40:	86 10 00 01 	mov  %g1, %g3
4000aa44:	03 00 00 0c 	sethi  %hi(0x3000), %g1
4000aa48:	82 10 60 78 	or  %g1, 0x78, %g1	! 3078 <__data_size+0x2a68>
4000aa4c:	84 00 a0 04 	add  %g2, 4, %g2
4000aa50:	c2 37 bf 20 	sth  %g1, [ %fp + -224 ]
4000aa54:	c2 07 be e4 	ld  [ %fp + -284 ], %g1
4000aa58:	c4 27 bf 04 	st  %g2, [ %fp + -252 ]
4000aa5c:	c2 27 be ec 	st  %g1, [ %fp + -276 ]
4000aa60:	84 10 20 00 	clr  %g2
4000aa64:	ba 14 20 02 	or  %l0, 2, %i5
4000aa68:	c4 3f be f8 	std  %g2, [ %fp + -264 ]
4000aa6c:	10 bf ff 80 	b  4000a86c <_vfiprintf_r+0x5b0>
4000aa70:	82 10 20 02 	mov  2, %g1
4000aa74:	c4 0c 40 00 	ldub  [ %l1 ], %g2
4000aa78:	83 28 a0 18 	sll  %g2, 0x18, %g1
4000aa7c:	85 38 60 18 	sra  %g1, 0x18, %g2
4000aa80:	80 a0 a0 6c 	cmp  %g2, 0x6c
4000aa84:	22 80 04 13 	be,a   4000bad0 <_vfiprintf_r+0x1814>
4000aa88:	c4 0c 60 01 	ldub  [ %l1 + 1 ], %g2
4000aa8c:	10 bf fe b3 	b  4000a558 <_vfiprintf_r+0x29c>
4000aa90:	a0 14 20 10 	or  %l0, 0x10, %l0
4000aa94:	94 07 bf 4c 	add  %fp, -180, %o2
4000aa98:	92 10 00 15 	mov  %l5, %o1
4000aa9c:	40 00 06 87 	call  4000c4b8 <__sfvwrite_r>
4000aaa0:	90 10 00 12 	mov  %l2, %o0
4000aaa4:	c0 27 bf 54 	clr  [ %fp + -172 ]
4000aaa8:	80 a2 20 00 	cmp  %o0, 0
4000aaac:	12 bf fe 80 	bne  4000a4ac <_vfiprintf_r+0x1f0>
4000aab0:	c0 27 bf 50 	clr  [ %fp + -176 ]
4000aab4:	c2 4f bf 1f 	ldsb  [ %fp + -225 ], %g1
4000aab8:	80 a0 60 00 	cmp  %g1, 0
4000aabc:	02 80 03 98 	be  4000b91c <_vfiprintf_r+0x1660>
4000aac0:	c2 07 be f4 	ld  [ %fp + -268 ], %g1
4000aac4:	82 07 bf 1f 	add  %fp, -225, %g1
4000aac8:	86 07 bf 60 	add  %fp, -160, %g3
4000aacc:	c2 27 bf 58 	st  %g1, [ %fp + -168 ]
4000aad0:	84 10 20 01 	mov  1, %g2
4000aad4:	82 10 20 01 	mov  1, %g1
4000aad8:	c2 27 bf 5c 	st  %g1, [ %fp + -164 ]
4000aadc:	90 10 00 02 	mov  %g2, %o0
4000aae0:	b2 10 00 03 	mov  %g3, %i1
4000aae4:	84 00 a0 01 	inc  %g2
4000aae8:	86 00 e0 08 	add  %g3, 8, %g3
4000aaec:	c8 07 be f4 	ld  [ %fp + -268 ], %g4
4000aaf0:	80 a1 20 00 	cmp  %g4, 0
4000aaf4:	02 80 00 31 	be  4000abb8 <_vfiprintf_r+0x8fc>
4000aaf8:	c8 07 bf 00 	ld  [ %fp + -256 ], %g4
4000aafc:	88 07 bf 20 	add  %fp, -224, %g4
4000ab00:	82 00 60 02 	add  %g1, 2, %g1
4000ab04:	c8 26 40 00 	st  %g4, [ %i1 ]
4000ab08:	c2 27 bf 54 	st  %g1, [ %fp + -172 ]
4000ab0c:	88 10 20 02 	mov  2, %g4
4000ab10:	c4 27 bf 50 	st  %g2, [ %fp + -176 ]
4000ab14:	80 a0 a0 07 	cmp  %g2, 7
4000ab18:	04 80 00 23 	ble  4000aba4 <_vfiprintf_r+0x8e8>
4000ab1c:	c8 26 60 04 	st  %g4, [ %i1 + 4 ]
4000ab20:	80 a0 60 00 	cmp  %g1, 0
4000ab24:	02 80 02 f7 	be  4000b700 <_vfiprintf_r+0x1444>
4000ab28:	86 07 bf 60 	add  %fp, -160, %g3
4000ab2c:	c6 05 60 60 	ld  [ %l5 + 0x60 ], %g3
4000ab30:	05 00 00 08 	sethi  %hi(0x2000), %g2
4000ab34:	80 88 c0 02 	btst  %g3, %g2
4000ab38:	02 80 02 84 	be  4000b548 <_vfiprintf_r+0x128c>
4000ab3c:	f2 07 bf 4c 	ld  [ %fp + -180 ], %i1
4000ab40:	ec 06 60 04 	ld  [ %i1 + 4 ], %l6
4000ab44:	b9 35 a0 02 	srl  %l6, 2, %i4
4000ab48:	80 a7 20 00 	cmp  %i4, 0
4000ab4c:	02 80 02 e6 	be  4000b6e4 <_vfiprintf_r+0x1428>
4000ab50:	e6 06 40 00 	ld  [ %i1 ], %l3
4000ab54:	10 80 00 05 	b  4000ab68 <_vfiprintf_r+0x8ac>
4000ab58:	ba 10 20 00 	clr  %i5
4000ab5c:	80 a7 00 1d 	cmp  %i4, %i5
4000ab60:	02 80 02 e1 	be  4000b6e4 <_vfiprintf_r+0x1428>
4000ab64:	c2 07 bf 54 	ld  [ %fp + -172 ], %g1
4000ab68:	83 2f 60 02 	sll  %i5, 2, %g1
4000ab6c:	94 10 00 15 	mov  %l5, %o2
4000ab70:	d2 04 c0 01 	ld  [ %l3 + %g1 ], %o1
4000ab74:	40 00 06 05 	call  4000c388 <_fputwc_r>
4000ab78:	90 10 00 12 	mov  %l2, %o0
4000ab7c:	80 a2 3f ff 	cmp  %o0, -1
4000ab80:	32 bf ff f7 	bne,a   4000ab5c <_vfiprintf_r+0x8a0>
4000ab84:	ba 07 60 01 	inc  %i5
4000ab88:	10 bf fe 4a 	b  4000a4b0 <_vfiprintf_r+0x1f4>
4000ab8c:	c2 15 60 0c 	lduh  [ %l5 + 0xc ], %g1
4000ab90:	86 07 bf 60 	add  %fp, -160, %g3
4000ab94:	c2 27 bf 58 	st  %g1, [ %fp + -168 ]
4000ab98:	84 10 20 01 	mov  1, %g2
4000ab9c:	82 10 20 02 	mov  2, %g1
4000aba0:	c2 27 bf 5c 	st  %g1, [ %fp + -164 ]
4000aba4:	b2 10 00 03 	mov  %g3, %i1
4000aba8:	90 10 00 02 	mov  %g2, %o0
4000abac:	86 06 60 08 	add  %i1, 8, %g3
4000abb0:	84 02 20 01 	add  %o0, 1, %g2
4000abb4:	c8 07 bf 00 	ld  [ %fp + -256 ], %g4
4000abb8:	80 a1 20 80 	cmp  %g4, 0x80
4000abbc:	02 80 00 99 	be  4000ae20 <_vfiprintf_r+0xb64>
4000abc0:	a6 26 80 14 	sub  %i2, %l4, %l3
4000abc4:	c8 07 bf 0c 	ld  [ %fp + -244 ], %g4
4000abc8:	b6 26 c0 04 	sub  %i3, %g4, %i3
4000abcc:	80 a6 e0 00 	cmp  %i3, 0
4000abd0:	14 80 00 fc 	bg  4000afc0 <_vfiprintf_r+0xd04>
4000abd4:	80 a6 e0 10 	cmp  %i3, 0x10
4000abd8:	c8 07 bf 0c 	ld  [ %fp + -244 ], %g4
4000abdc:	f0 26 40 00 	st  %i0, [ %i1 ]
4000abe0:	82 01 00 01 	add  %g4, %g1, %g1
4000abe4:	c8 26 60 04 	st  %g4, [ %i1 + 4 ]
4000abe8:	c2 27 bf 54 	st  %g1, [ %fp + -172 ]
4000abec:	80 a0 a0 07 	cmp  %g2, 7
4000abf0:	04 80 00 2c 	ble  4000aca0 <_vfiprintf_r+0x9e4>
4000abf4:	c4 27 bf 50 	st  %g2, [ %fp + -176 ]
4000abf8:	80 a0 60 00 	cmp  %g1, 0
4000abfc:	02 80 00 59 	be  4000ad60 <_vfiprintf_r+0xaa4>
4000ac00:	05 00 00 08 	sethi  %hi(0x2000), %g2
4000ac04:	c6 05 60 60 	ld  [ %l5 + 0x60 ], %g3
4000ac08:	80 88 c0 02 	btst  %g3, %g2
4000ac0c:	02 80 00 4d 	be  4000ad40 <_vfiprintf_r+0xa84>
4000ac10:	f6 07 bf 4c 	ld  [ %fp + -180 ], %i3
4000ac14:	f0 06 e0 04 	ld  [ %i3 + 4 ], %i0
4000ac18:	b9 36 20 02 	srl  %i0, 2, %i4
4000ac1c:	80 a7 20 00 	cmp  %i4, 0
4000ac20:	02 80 01 62 	be  4000b1a8 <_vfiprintf_r+0xeec>
4000ac24:	f2 06 c0 00 	ld  [ %i3 ], %i1
4000ac28:	10 80 00 05 	b  4000ac3c <_vfiprintf_r+0x980>
4000ac2c:	ba 10 20 00 	clr  %i5
4000ac30:	80 a7 00 1d 	cmp  %i4, %i5
4000ac34:	02 80 01 5d 	be  4000b1a8 <_vfiprintf_r+0xeec>
4000ac38:	c2 07 bf 54 	ld  [ %fp + -172 ], %g1
4000ac3c:	83 2f 60 02 	sll  %i5, 2, %g1
4000ac40:	94 10 00 15 	mov  %l5, %o2
4000ac44:	d2 06 40 01 	ld  [ %i1 + %g1 ], %o1
4000ac48:	40 00 05 d0 	call  4000c388 <_fputwc_r>
4000ac4c:	90 10 00 12 	mov  %l2, %o0
4000ac50:	80 a2 3f ff 	cmp  %o0, -1
4000ac54:	32 bf ff f7 	bne,a   4000ac30 <_vfiprintf_r+0x974>
4000ac58:	ba 07 60 01 	inc  %i5
4000ac5c:	10 bf fe 15 	b  4000a4b0 <_vfiprintf_r+0x1f4>
4000ac60:	c2 15 60 0c 	lduh  [ %l5 + 0xc ], %g1
4000ac64:	94 07 bf 4c 	add  %fp, -180, %o2
4000ac68:	92 10 00 15 	mov  %l5, %o1
4000ac6c:	40 00 06 13 	call  4000c4b8 <__sfvwrite_r>
4000ac70:	90 10 00 12 	mov  %l2, %o0
4000ac74:	c0 27 bf 54 	clr  [ %fp + -172 ]
4000ac78:	80 a2 20 00 	cmp  %o0, 0
4000ac7c:	12 bf fe 0c 	bne  4000a4ac <_vfiprintf_r+0x1f0>
4000ac80:	c0 27 bf 50 	clr  [ %fp + -176 ]
4000ac84:	c2 07 bf 0c 	ld  [ %fp + -244 ], %g1
4000ac88:	84 10 20 01 	mov  1, %g2
4000ac8c:	f0 27 bf 58 	st  %i0, [ %fp + -168 ]
4000ac90:	c2 27 bf 5c 	st  %g1, [ %fp + -164 ]
4000ac94:	c2 27 bf 54 	st  %g1, [ %fp + -172 ]
4000ac98:	c4 27 bf 50 	st  %g2, [ %fp + -176 ]
4000ac9c:	86 07 bf 60 	add  %fp, -160, %g3
4000aca0:	80 8c 20 04 	btst  4, %l0
4000aca4:	02 80 00 07 	be  4000acc0 <_vfiprintf_r+0xa04>
4000aca8:	80 a6 80 14 	cmp  %i2, %l4
4000acac:	b6 26 80 14 	sub  %i2, %l4, %i3
4000acb0:	80 a6 e0 00 	cmp  %i3, 0
4000acb4:	14 80 01 b8 	bg  4000b394 <_vfiprintf_r+0x10d8>
4000acb8:	80 a6 e0 10 	cmp  %i3, 0x10
4000acbc:	80 a6 80 14 	cmp  %i2, %l4
4000acc0:	26 80 00 02 	bl,a   4000acc8 <_vfiprintf_r+0xa0c>
4000acc4:	b4 10 00 14 	mov  %l4, %i2
4000acc8:	c4 07 bf 08 	ld  [ %fp + -248 ], %g2
4000accc:	84 00 80 1a 	add  %g2, %i2, %g2
4000acd0:	80 a0 60 00 	cmp  %g1, 0
4000acd4:	02 80 00 30 	be  4000ad94 <_vfiprintf_r+0xad8>
4000acd8:	c4 27 bf 08 	st  %g2, [ %fp + -248 ]
4000acdc:	c6 05 60 60 	ld  [ %l5 + 0x60 ], %g3
4000ace0:	05 00 00 08 	sethi  %hi(0x2000), %g2
4000ace4:	80 88 c0 02 	btst  %g3, %g2
4000ace8:	02 80 01 14 	be  4000b138 <_vfiprintf_r+0xe7c>
4000acec:	f6 07 bf 4c 	ld  [ %fp + -180 ], %i3
4000acf0:	f2 06 e0 04 	ld  [ %i3 + 4 ], %i1
4000acf4:	b9 36 60 02 	srl  %i1, 2, %i4
4000acf8:	80 a7 20 00 	cmp  %i4, 0
4000acfc:	02 80 01 88 	be  4000b31c <_vfiprintf_r+0x1060>
4000ad00:	f4 06 c0 00 	ld  [ %i3 ], %i2
4000ad04:	10 80 00 05 	b  4000ad18 <_vfiprintf_r+0xa5c>
4000ad08:	ba 10 20 00 	clr  %i5
4000ad0c:	80 a7 00 1d 	cmp  %i4, %i5
4000ad10:	02 80 01 83 	be  4000b31c <_vfiprintf_r+0x1060>
4000ad14:	c2 07 bf 54 	ld  [ %fp + -172 ], %g1
4000ad18:	83 2f 60 02 	sll  %i5, 2, %g1
4000ad1c:	94 10 00 15 	mov  %l5, %o2
4000ad20:	d2 06 80 01 	ld  [ %i2 + %g1 ], %o1
4000ad24:	40 00 05 99 	call  4000c388 <_fputwc_r>
4000ad28:	90 10 00 12 	mov  %l2, %o0
4000ad2c:	80 a2 3f ff 	cmp  %o0, -1
4000ad30:	32 bf ff f7 	bne,a   4000ad0c <_vfiprintf_r+0xa50>
4000ad34:	ba 07 60 01 	inc  %i5
4000ad38:	10 bf fd de 	b  4000a4b0 <_vfiprintf_r+0x1f4>
4000ad3c:	c2 15 60 0c 	lduh  [ %l5 + 0xc ], %g1
4000ad40:	94 07 bf 4c 	add  %fp, -180, %o2
4000ad44:	92 10 00 15 	mov  %l5, %o1
4000ad48:	40 00 05 dc 	call  4000c4b8 <__sfvwrite_r>
4000ad4c:	90 10 00 12 	mov  %l2, %o0
4000ad50:	c0 27 bf 54 	clr  [ %fp + -172 ]
4000ad54:	80 a2 20 00 	cmp  %o0, 0
4000ad58:	12 bf fd d5 	bne  4000a4ac <_vfiprintf_r+0x1f0>
4000ad5c:	c0 27 bf 50 	clr  [ %fp + -176 ]
4000ad60:	80 8c 20 04 	btst  4, %l0
4000ad64:	02 80 00 07 	be  4000ad80 <_vfiprintf_r+0xac4>
4000ad68:	80 a6 80 14 	cmp  %i2, %l4
4000ad6c:	b6 26 80 14 	sub  %i2, %l4, %i3
4000ad70:	80 a6 e0 00 	cmp  %i3, 0
4000ad74:	14 80 01 85 	bg  4000b388 <_vfiprintf_r+0x10cc>
4000ad78:	84 10 20 00 	clr  %g2
4000ad7c:	80 a6 80 14 	cmp  %i2, %l4
4000ad80:	26 80 00 02 	bl,a   4000ad88 <_vfiprintf_r+0xacc>
4000ad84:	b4 10 00 14 	mov  %l4, %i2
4000ad88:	c2 07 bf 08 	ld  [ %fp + -248 ], %g1
4000ad8c:	82 00 40 1a 	add  %g1, %i2, %g1
4000ad90:	c2 27 bf 08 	st  %g1, [ %fp + -248 ]
4000ad94:	c0 27 bf 50 	clr  [ %fp + -176 ]
4000ad98:	10 bf fd 8c 	b  4000a3c8 <_vfiprintf_r+0x10c>
4000ad9c:	b2 07 bf 58 	add  %fp, -168, %i1
4000ada0:	ba 10 00 10 	mov  %l0, %i5
4000ada4:	82 08 60 ff 	and  %g1, 0xff, %g1
4000ada8:	80 a0 60 01 	cmp  %g1, 1
4000adac:	02 80 02 08 	be  4000b5cc <_vfiprintf_r+0x1310>
4000adb0:	b8 07 bf fc 	add  %fp, -4, %i4
4000adb4:	80 a0 60 02 	cmp  %g1, 2
4000adb8:	02 80 01 62 	be  4000b340 <_vfiprintf_r+0x1084>
4000adbc:	b0 10 00 1c 	mov  %i4, %i0
4000adc0:	c4 1f be f8 	ldd  [ %fp + -264 ], %g2
4000adc4:	9e 10 00 18 	mov  %i0, %o7
4000adc8:	82 08 e0 07 	and  %g3, 7, %g1
4000adcc:	b0 06 3f ff 	add  %i0, -1, %i0
4000add0:	82 00 60 30 	add  %g1, 0x30, %g1
4000add4:	c2 2e 00 00 	stb  %g1, [ %i0 ]
4000add8:	9b 28 a0 1d 	sll  %g2, 0x1d, %o5
4000addc:	99 30 a0 03 	srl  %g2, 3, %o4
4000ade0:	89 30 e0 03 	srl  %g3, 3, %g4
4000ade4:	86 13 40 04 	or  %o5, %g4, %g3
4000ade8:	80 93 00 03 	orcc  %o4, %g3, %g0
4000adec:	12 bf ff f6 	bne  4000adc4 <_vfiprintf_r+0xb08>
4000adf0:	84 10 00 0c 	mov  %o4, %g2
4000adf4:	82 08 60 7f 	and  %g1, 0x7f, %g1
4000adf8:	80 a0 60 30 	cmp  %g1, 0x30
4000adfc:	02 80 00 05 	be  4000ae10 <_vfiprintf_r+0xb54>
4000ae00:	c4 3f be f8 	std  %g2, [ %fp + -264 ]
4000ae04:	80 8f 60 01 	btst  1, %i5
4000ae08:	32 80 02 b3 	bne,a   4000b8d4 <_vfiprintf_r+0x1618>
4000ae0c:	9e 03 ff fe 	add  %o7, -2, %o7
4000ae10:	82 27 00 18 	sub  %i4, %i0, %g1
4000ae14:	a0 10 00 1d 	mov  %i5, %l0
4000ae18:	10 bf fe 5f 	b  4000a794 <_vfiprintf_r+0x4d8>
4000ae1c:	c2 27 bf 0c 	st  %g1, [ %fp + -244 ]
4000ae20:	80 a4 e0 00 	cmp  %l3, 0
4000ae24:	04 bf ff 69 	ble  4000abc8 <_vfiprintf_r+0x90c>
4000ae28:	c8 07 bf 0c 	ld  [ %fp + -244 ], %g4
4000ae2c:	80 a4 e0 10 	cmp  %l3, 0x10
4000ae30:	04 80 03 df 	ble  4000bdac <_vfiprintf_r+0x1af0>
4000ae34:	ba 10 00 03 	mov  %g3, %i5
4000ae38:	ae 10 20 10 	mov  0x10, %l7
4000ae3c:	10 80 00 09 	b  4000ae60 <_vfiprintf_r+0xba4>
4000ae40:	f6 27 bf 00 	st  %i3, [ %fp + -256 ]
4000ae44:	88 02 20 02 	add  %o0, 2, %g4
4000ae48:	b2 06 60 08 	add  %i1, 8, %i1
4000ae4c:	90 10 00 02 	mov  %g2, %o0
4000ae50:	a6 04 ff f0 	add  %l3, -16, %l3
4000ae54:	80 a4 e0 10 	cmp  %l3, 0x10
4000ae58:	04 80 00 35 	ble  4000af2c <_vfiprintf_r+0xc70>
4000ae5c:	f6 07 bf 00 	ld  [ %fp + -256 ], %i3
4000ae60:	84 02 20 01 	add  %o0, 1, %g2
4000ae64:	82 00 60 10 	add  %g1, 0x10, %g1
4000ae68:	c6 07 bf 14 	ld  [ %fp + -236 ], %g3
4000ae6c:	ee 26 60 04 	st  %l7, [ %i1 + 4 ]
4000ae70:	c6 26 40 00 	st  %g3, [ %i1 ]
4000ae74:	c2 27 bf 54 	st  %g1, [ %fp + -172 ]
4000ae78:	80 a0 a0 07 	cmp  %g2, 7
4000ae7c:	04 bf ff f2 	ble  4000ae44 <_vfiprintf_r+0xb88>
4000ae80:	c4 27 bf 50 	st  %g2, [ %fp + -176 ]
4000ae84:	80 a0 60 00 	cmp  %g1, 0
4000ae88:	02 80 00 a8 	be  4000b128 <_vfiprintf_r+0xe6c>
4000ae8c:	07 00 00 08 	sethi  %hi(0x2000), %g3
4000ae90:	c4 05 60 60 	ld  [ %l5 + 0x60 ], %g2
4000ae94:	80 88 80 03 	btst  %g2, %g3
4000ae98:	02 80 00 16 	be  4000aef0 <_vfiprintf_r+0xc34>
4000ae9c:	f2 07 bf 4c 	ld  [ %fp + -180 ], %i1
4000aea0:	f6 06 60 04 	ld  [ %i1 + 4 ], %i3
4000aea4:	bb 36 e0 02 	srl  %i3, 2, %i5
4000aea8:	80 a7 60 00 	cmp  %i5, 0
4000aeac:	02 80 00 99 	be  4000b110 <_vfiprintf_r+0xe54>
4000aeb0:	f8 06 40 00 	ld  [ %i1 ], %i4
4000aeb4:	10 80 00 05 	b  4000aec8 <_vfiprintf_r+0xc0c>
4000aeb8:	ac 10 20 00 	clr  %l6
4000aebc:	80 a7 40 16 	cmp  %i5, %l6
4000aec0:	02 80 00 94 	be  4000b110 <_vfiprintf_r+0xe54>
4000aec4:	c2 07 bf 54 	ld  [ %fp + -172 ], %g1
4000aec8:	83 2d a0 02 	sll  %l6, 2, %g1
4000aecc:	94 10 00 15 	mov  %l5, %o2
4000aed0:	d2 07 00 01 	ld  [ %i4 + %g1 ], %o1
4000aed4:	40 00 05 2d 	call  4000c388 <_fputwc_r>
4000aed8:	90 10 00 12 	mov  %l2, %o0
4000aedc:	80 a2 3f ff 	cmp  %o0, -1
4000aee0:	32 bf ff f7 	bne,a   4000aebc <_vfiprintf_r+0xc00>
4000aee4:	ac 05 a0 01 	inc  %l6
4000aee8:	10 bf fd 72 	b  4000a4b0 <_vfiprintf_r+0x1f4>
4000aeec:	c2 15 60 0c 	lduh  [ %l5 + 0xc ], %g1
4000aef0:	94 07 bf 4c 	add  %fp, -180, %o2
4000aef4:	92 10 00 15 	mov  %l5, %o1
4000aef8:	40 00 05 70 	call  4000c4b8 <__sfvwrite_r>
4000aefc:	90 10 00 12 	mov  %l2, %o0
4000af00:	c0 27 bf 54 	clr  [ %fp + -172 ]
4000af04:	80 a2 20 00 	cmp  %o0, 0
4000af08:	12 bf fd 69 	bne  4000a4ac <_vfiprintf_r+0x1f0>
4000af0c:	c0 27 bf 50 	clr  [ %fp + -176 ]
4000af10:	a6 04 ff f0 	add  %l3, -16, %l3
4000af14:	88 10 20 01 	mov  1, %g4
4000af18:	82 10 20 00 	clr  %g1
4000af1c:	80 a4 e0 10 	cmp  %l3, 0x10
4000af20:	14 bf ff d0 	bg  4000ae60 <_vfiprintf_r+0xba4>
4000af24:	b2 07 bf 58 	add  %fp, -168, %i1
4000af28:	f6 07 bf 00 	ld  [ %fp + -256 ], %i3
4000af2c:	ba 06 60 08 	add  %i1, 8, %i5
4000af30:	82 00 40 13 	add  %g1, %l3, %g1
4000af34:	c4 07 bf 14 	ld  [ %fp + -236 ], %g2
4000af38:	e6 26 60 04 	st  %l3, [ %i1 + 4 ]
4000af3c:	c4 26 40 00 	st  %g2, [ %i1 ]
4000af40:	c2 27 bf 54 	st  %g1, [ %fp + -172 ]
4000af44:	80 a1 20 07 	cmp  %g4, 7
4000af48:	04 80 02 59 	ble  4000b8ac <_vfiprintf_r+0x15f0>
4000af4c:	c8 27 bf 50 	st  %g4, [ %fp + -176 ]
4000af50:	80 a0 60 00 	cmp  %g1, 0
4000af54:	02 80 03 5e 	be  4000bccc <_vfiprintf_r+0x1a10>
4000af58:	86 07 bf 60 	add  %fp, -160, %g3
4000af5c:	c6 05 60 60 	ld  [ %l5 + 0x60 ], %g3
4000af60:	05 00 00 08 	sethi  %hi(0x2000), %g2
4000af64:	80 88 c0 02 	btst  %g3, %g2
4000af68:	02 80 02 f1 	be  4000bb2c <_vfiprintf_r+0x1870>
4000af6c:	e6 07 bf 4c 	ld  [ %fp + -180 ], %l3
4000af70:	ec 04 e0 04 	ld  [ %l3 + 4 ], %l6
4000af74:	b9 35 a0 02 	srl  %l6, 2, %i4
4000af78:	80 a7 20 00 	cmp  %i4, 0
4000af7c:	02 80 03 4d 	be  4000bcb0 <_vfiprintf_r+0x19f4>
4000af80:	f2 04 c0 00 	ld  [ %l3 ], %i1
4000af84:	10 80 00 05 	b  4000af98 <_vfiprintf_r+0xcdc>
4000af88:	ba 10 20 00 	clr  %i5
4000af8c:	80 a7 00 1d 	cmp  %i4, %i5
4000af90:	02 80 03 48 	be  4000bcb0 <_vfiprintf_r+0x19f4>
4000af94:	c2 07 bf 54 	ld  [ %fp + -172 ], %g1
4000af98:	83 2f 60 02 	sll  %i5, 2, %g1
4000af9c:	94 10 00 15 	mov  %l5, %o2
4000afa0:	d2 06 40 01 	ld  [ %i1 + %g1 ], %o1
4000afa4:	40 00 04 f9 	call  4000c388 <_fputwc_r>
4000afa8:	90 10 00 12 	mov  %l2, %o0
4000afac:	80 a2 3f ff 	cmp  %o0, -1
4000afb0:	32 bf ff f7 	bne,a   4000af8c <_vfiprintf_r+0xcd0>
4000afb4:	ba 07 60 01 	inc  %i5
4000afb8:	10 bf fd 3e 	b  4000a4b0 <_vfiprintf_r+0x1f4>
4000afbc:	c2 15 60 0c 	lduh  [ %l5 + 0xc ], %g1
4000afc0:	04 80 00 3e 	ble  4000b0b8 <_vfiprintf_r+0xdfc>
4000afc4:	88 10 00 03 	mov  %g3, %g4
4000afc8:	10 80 00 09 	b  4000afec <_vfiprintf_r+0xd30>
4000afcc:	ac 10 20 10 	mov  0x10, %l6
4000afd0:	84 02 20 02 	add  %o0, 2, %g2
4000afd4:	b2 06 60 08 	add  %i1, 8, %i1
4000afd8:	90 10 00 03 	mov  %g3, %o0
4000afdc:	b6 06 ff f0 	add  %i3, -16, %i3
4000afe0:	80 a6 e0 10 	cmp  %i3, 0x10
4000afe4:	04 80 00 35 	ble  4000b0b8 <_vfiprintf_r+0xdfc>
4000afe8:	88 06 60 08 	add  %i1, 8, %g4
4000afec:	86 02 20 01 	add  %o0, 1, %g3
4000aff0:	82 00 60 10 	add  %g1, 0x10, %g1
4000aff4:	c4 07 bf 14 	ld  [ %fp + -236 ], %g2
4000aff8:	ec 26 60 04 	st  %l6, [ %i1 + 4 ]
4000affc:	c4 26 40 00 	st  %g2, [ %i1 ]
4000b000:	c2 27 bf 54 	st  %g1, [ %fp + -172 ]
4000b004:	80 a0 e0 07 	cmp  %g3, 7
4000b008:	04 bf ff f2 	ble  4000afd0 <_vfiprintf_r+0xd14>
4000b00c:	c6 27 bf 50 	st  %g3, [ %fp + -176 ]
4000b010:	80 a0 60 00 	cmp  %g1, 0
4000b014:	02 80 00 3b 	be  4000b100 <_vfiprintf_r+0xe44>
4000b018:	07 00 00 08 	sethi  %hi(0x2000), %g3
4000b01c:	c4 05 60 60 	ld  [ %l5 + 0x60 ], %g2
4000b020:	80 88 80 03 	btst  %g2, %g3
4000b024:	02 80 00 16 	be  4000b07c <_vfiprintf_r+0xdc0>
4000b028:	f2 07 bf 4c 	ld  [ %fp + -180 ], %i1
4000b02c:	e6 06 60 04 	ld  [ %i1 + 4 ], %l3
4000b030:	bb 34 e0 02 	srl  %l3, 2, %i5
4000b034:	80 a7 60 00 	cmp  %i5, 0
4000b038:	02 80 00 2c 	be  4000b0e8 <_vfiprintf_r+0xe2c>
4000b03c:	f8 06 40 00 	ld  [ %i1 ], %i4
4000b040:	10 80 00 05 	b  4000b054 <_vfiprintf_r+0xd98>
4000b044:	ae 10 20 00 	clr  %l7
4000b048:	80 a7 40 17 	cmp  %i5, %l7
4000b04c:	02 80 00 27 	be  4000b0e8 <_vfiprintf_r+0xe2c>
4000b050:	c2 07 bf 54 	ld  [ %fp + -172 ], %g1
4000b054:	83 2d e0 02 	sll  %l7, 2, %g1
4000b058:	94 10 00 15 	mov  %l5, %o2
4000b05c:	d2 07 00 01 	ld  [ %i4 + %g1 ], %o1
4000b060:	40 00 04 ca 	call  4000c388 <_fputwc_r>
4000b064:	90 10 00 12 	mov  %l2, %o0
4000b068:	80 a2 3f ff 	cmp  %o0, -1
4000b06c:	32 bf ff f7 	bne,a   4000b048 <_vfiprintf_r+0xd8c>
4000b070:	ae 05 e0 01 	inc  %l7
4000b074:	10 bf fd 0f 	b  4000a4b0 <_vfiprintf_r+0x1f4>
4000b078:	c2 15 60 0c 	lduh  [ %l5 + 0xc ], %g1
4000b07c:	94 07 bf 4c 	add  %fp, -180, %o2
4000b080:	92 10 00 15 	mov  %l5, %o1
4000b084:	40 00 05 0d 	call  4000c4b8 <__sfvwrite_r>
4000b088:	90 10 00 12 	mov  %l2, %o0
4000b08c:	c0 27 bf 54 	clr  [ %fp + -172 ]
4000b090:	80 a2 20 00 	cmp  %o0, 0
4000b094:	12 bf fd 06 	bne  4000a4ac <_vfiprintf_r+0x1f0>
4000b098:	c0 27 bf 50 	clr  [ %fp + -176 ]
4000b09c:	b6 06 ff f0 	add  %i3, -16, %i3
4000b0a0:	84 10 20 01 	mov  1, %g2
4000b0a4:	82 10 20 00 	clr  %g1
4000b0a8:	80 a6 e0 10 	cmp  %i3, 0x10
4000b0ac:	14 bf ff d0 	bg  4000afec <_vfiprintf_r+0xd30>
4000b0b0:	b2 07 bf 58 	add  %fp, -168, %i1
4000b0b4:	88 06 60 08 	add  %i1, 8, %g4
4000b0b8:	82 00 40 1b 	add  %g1, %i3, %g1
4000b0bc:	c6 07 bf 14 	ld  [ %fp + -236 ], %g3
4000b0c0:	f6 26 60 04 	st  %i3, [ %i1 + 4 ]
4000b0c4:	c6 26 40 00 	st  %g3, [ %i1 ]
4000b0c8:	c2 27 bf 54 	st  %g1, [ %fp + -172 ]
4000b0cc:	80 a0 a0 07 	cmp  %g2, 7
4000b0d0:	14 80 01 4c 	bg  4000b600 <_vfiprintf_r+0x1344>
4000b0d4:	c4 27 bf 50 	st  %g2, [ %fp + -176 ]
4000b0d8:	84 00 a0 01 	inc  %g2
4000b0dc:	86 01 20 08 	add  %g4, 8, %g3
4000b0e0:	10 bf fe be 	b  4000abd8 <_vfiprintf_r+0x91c>
4000b0e4:	b2 10 00 04 	mov  %g4, %i1
4000b0e8:	a6 0c ff fc 	and  %l3, -4, %l3
4000b0ec:	82 20 40 13 	sub  %g1, %l3, %g1
4000b0f0:	c2 27 bf 54 	st  %g1, [ %fp + -172 ]
4000b0f4:	80 a0 60 00 	cmp  %g1, 0
4000b0f8:	12 bf ff cd 	bne  4000b02c <_vfiprintf_r+0xd70>
4000b0fc:	b2 06 60 08 	add  %i1, 8, %i1
4000b100:	84 10 20 01 	mov  1, %g2
4000b104:	90 10 20 00 	clr  %o0
4000b108:	10 bf ff b5 	b  4000afdc <_vfiprintf_r+0xd20>
4000b10c:	b2 07 bf 58 	add  %fp, -168, %i1
4000b110:	b6 0e ff fc 	and  %i3, -4, %i3
4000b114:	82 20 40 1b 	sub  %g1, %i3, %g1
4000b118:	c2 27 bf 54 	st  %g1, [ %fp + -172 ]
4000b11c:	80 a0 60 00 	cmp  %g1, 0
4000b120:	12 bf ff 60 	bne  4000aea0 <_vfiprintf_r+0xbe4>
4000b124:	b2 06 60 08 	add  %i1, 8, %i1
4000b128:	88 10 20 01 	mov  1, %g4
4000b12c:	90 10 20 00 	clr  %o0
4000b130:	10 bf ff 48 	b  4000ae50 <_vfiprintf_r+0xb94>
4000b134:	b2 07 bf 58 	add  %fp, -168, %i1
4000b138:	94 07 bf 4c 	add  %fp, -180, %o2
4000b13c:	92 10 00 15 	mov  %l5, %o1
4000b140:	40 00 04 de 	call  4000c4b8 <__sfvwrite_r>
4000b144:	90 10 00 12 	mov  %l2, %o0
4000b148:	c0 27 bf 54 	clr  [ %fp + -172 ]
4000b14c:	80 a2 20 00 	cmp  %o0, 0
4000b150:	12 bf fc d7 	bne  4000a4ac <_vfiprintf_r+0x1f0>
4000b154:	c0 27 bf 50 	clr  [ %fp + -176 ]
4000b158:	c0 27 bf 50 	clr  [ %fp + -176 ]
4000b15c:	10 bf fc 9b 	b  4000a3c8 <_vfiprintf_r+0x10c>
4000b160:	b2 07 bf 58 	add  %fp, -168, %i1
4000b164:	94 07 bf 4c 	add  %fp, -180, %o2
4000b168:	92 10 00 15 	mov  %l5, %o1
4000b16c:	40 00 04 d3 	call  4000c4b8 <__sfvwrite_r>
4000b170:	90 10 00 12 	mov  %l2, %o0
4000b174:	c0 27 bf 54 	clr  [ %fp + -172 ]
4000b178:	80 a2 20 00 	cmp  %o0, 0
4000b17c:	12 bf fc cc 	bne  4000a4ac <_vfiprintf_r+0x1f0>
4000b180:	c0 27 bf 50 	clr  [ %fp + -176 ]
4000b184:	c2 07 be f4 	ld  [ %fp + -268 ], %g1
4000b188:	80 a0 60 00 	cmp  %g1, 0
4000b18c:	32 80 01 38 	bne,a   4000b66c <_vfiprintf_r+0x13b0>
4000b190:	82 07 bf 20 	add  %fp, -224, %g1
4000b194:	90 10 20 00 	clr  %o0
4000b198:	86 07 bf 60 	add  %fp, -160, %g3
4000b19c:	84 10 20 01 	mov  1, %g2
4000b1a0:	10 bf fe 85 	b  4000abb4 <_vfiprintf_r+0x8f8>
4000b1a4:	b2 07 bf 58 	add  %fp, -168, %i1
4000b1a8:	b0 0e 3f fc 	and  %i0, -4, %i0
4000b1ac:	82 20 40 18 	sub  %g1, %i0, %g1
4000b1b0:	c2 27 bf 54 	st  %g1, [ %fp + -172 ]
4000b1b4:	80 a0 60 00 	cmp  %g1, 0
4000b1b8:	12 bf fe 97 	bne  4000ac14 <_vfiprintf_r+0x958>
4000b1bc:	b6 06 e0 08 	add  %i3, 8, %i3
4000b1c0:	10 bf fe e9 	b  4000ad64 <_vfiprintf_r+0xaa8>
4000b1c4:	80 8c 20 04 	btst  4, %l0
4000b1c8:	24 80 00 3f 	ble,a   4000b2c4 <_vfiprintf_r+0x1008>
4000b1cc:	88 10 00 03 	mov  %g3, %g4
4000b1d0:	ae 10 20 10 	mov  0x10, %l7
4000b1d4:	10 80 00 0a 	b  4000b1fc <_vfiprintf_r+0xf40>
4000b1d8:	f6 27 be d8 	st  %i3, [ %fp + -296 ]
4000b1dc:	88 02 20 02 	add  %o0, 2, %g4
4000b1e0:	b2 06 60 08 	add  %i1, 8, %i1
4000b1e4:	90 10 00 03 	mov  %g3, %o0
4000b1e8:	a6 04 ff f0 	add  %l3, -16, %l3
4000b1ec:	80 a4 e0 10 	cmp  %l3, 0x10
4000b1f0:	04 80 00 35 	ble  4000b2c4 <_vfiprintf_r+0x1008>
4000b1f4:	f6 07 be d8 	ld  [ %fp + -296 ], %i3
4000b1f8:	86 02 20 01 	add  %o0, 1, %g3
4000b1fc:	82 00 60 10 	add  %g1, 0x10, %g1
4000b200:	c4 07 bf 10 	ld  [ %fp + -240 ], %g2
4000b204:	ee 26 60 04 	st  %l7, [ %i1 + 4 ]
4000b208:	c4 26 40 00 	st  %g2, [ %i1 ]
4000b20c:	c2 27 bf 54 	st  %g1, [ %fp + -172 ]
4000b210:	80 a0 e0 07 	cmp  %g3, 7
4000b214:	04 bf ff f2 	ble  4000b1dc <_vfiprintf_r+0xf20>
4000b218:	c6 27 bf 50 	st  %g3, [ %fp + -176 ]
4000b21c:	80 a0 60 00 	cmp  %g1, 0
4000b220:	02 80 00 3b 	be  4000b30c <_vfiprintf_r+0x1050>
4000b224:	07 00 00 08 	sethi  %hi(0x2000), %g3
4000b228:	c4 05 60 60 	ld  [ %l5 + 0x60 ], %g2
4000b22c:	80 88 80 03 	btst  %g2, %g3
4000b230:	02 80 00 16 	be  4000b288 <_vfiprintf_r+0xfcc>
4000b234:	f2 07 bf 4c 	ld  [ %fp + -180 ], %i1
4000b238:	f6 06 60 04 	ld  [ %i1 + 4 ], %i3
4000b23c:	bb 36 e0 02 	srl  %i3, 2, %i5
4000b240:	80 a7 60 00 	cmp  %i5, 0
4000b244:	02 80 00 2c 	be  4000b2f4 <_vfiprintf_r+0x1038>
4000b248:	f8 06 40 00 	ld  [ %i1 ], %i4
4000b24c:	10 80 00 05 	b  4000b260 <_vfiprintf_r+0xfa4>
4000b250:	ac 10 20 00 	clr  %l6
4000b254:	80 a7 40 16 	cmp  %i5, %l6
4000b258:	02 80 00 27 	be  4000b2f4 <_vfiprintf_r+0x1038>
4000b25c:	c2 07 bf 54 	ld  [ %fp + -172 ], %g1
4000b260:	83 2d a0 02 	sll  %l6, 2, %g1
4000b264:	94 10 00 15 	mov  %l5, %o2
4000b268:	d2 07 00 01 	ld  [ %i4 + %g1 ], %o1
4000b26c:	40 00 04 47 	call  4000c388 <_fputwc_r>
4000b270:	90 10 00 12 	mov  %l2, %o0
4000b274:	80 a2 3f ff 	cmp  %o0, -1
4000b278:	32 bf ff f7 	bne,a   4000b254 <_vfiprintf_r+0xf98>
4000b27c:	ac 05 a0 01 	inc  %l6
4000b280:	10 bf fc 8c 	b  4000a4b0 <_vfiprintf_r+0x1f4>
4000b284:	c2 15 60 0c 	lduh  [ %l5 + 0xc ], %g1
4000b288:	94 07 bf 4c 	add  %fp, -180, %o2
4000b28c:	92 10 00 15 	mov  %l5, %o1
4000b290:	40 00 04 8a 	call  4000c4b8 <__sfvwrite_r>
4000b294:	90 10 00 12 	mov  %l2, %o0
4000b298:	c0 27 bf 54 	clr  [ %fp + -172 ]
4000b29c:	80 a2 20 00 	cmp  %o0, 0
4000b2a0:	12 bf fc 83 	bne  4000a4ac <_vfiprintf_r+0x1f0>
4000b2a4:	c0 27 bf 50 	clr  [ %fp + -176 ]
4000b2a8:	a6 04 ff f0 	add  %l3, -16, %l3
4000b2ac:	88 10 20 01 	mov  1, %g4
4000b2b0:	82 10 20 00 	clr  %g1
4000b2b4:	80 a4 e0 10 	cmp  %l3, 0x10
4000b2b8:	14 bf ff d0 	bg  4000b1f8 <_vfiprintf_r+0xf3c>
4000b2bc:	b2 07 bf 58 	add  %fp, -168, %i1
4000b2c0:	f6 07 be d8 	ld  [ %fp + -296 ], %i3
4000b2c4:	82 00 40 13 	add  %g1, %l3, %g1
4000b2c8:	c4 07 bf 10 	ld  [ %fp + -240 ], %g2
4000b2cc:	e6 26 60 04 	st  %l3, [ %i1 + 4 ]
4000b2d0:	c4 26 40 00 	st  %g2, [ %i1 ]
4000b2d4:	c2 27 bf 54 	st  %g1, [ %fp + -172 ]
4000b2d8:	80 a1 20 07 	cmp  %g4, 7
4000b2dc:	14 80 01 51 	bg  4000b820 <_vfiprintf_r+0x1564>
4000b2e0:	c8 27 bf 50 	st  %g4, [ %fp + -176 ]
4000b2e4:	b2 06 60 08 	add  %i1, 8, %i1
4000b2e8:	84 01 20 01 	add  %g4, 1, %g2
4000b2ec:	10 bf fc bd 	b  4000a5e0 <_vfiprintf_r+0x324>
4000b2f0:	90 10 00 04 	mov  %g4, %o0
4000b2f4:	b6 0e ff fc 	and  %i3, -4, %i3
4000b2f8:	82 20 40 1b 	sub  %g1, %i3, %g1
4000b2fc:	c2 27 bf 54 	st  %g1, [ %fp + -172 ]
4000b300:	80 a0 60 00 	cmp  %g1, 0
4000b304:	12 bf ff cd 	bne  4000b238 <_vfiprintf_r+0xf7c>
4000b308:	b2 06 60 08 	add  %i1, 8, %i1
4000b30c:	90 10 20 00 	clr  %o0
4000b310:	88 10 20 01 	mov  1, %g4
4000b314:	10 bf ff b5 	b  4000b1e8 <_vfiprintf_r+0xf2c>
4000b318:	b2 07 bf 58 	add  %fp, -168, %i1
4000b31c:	b2 0e 7f fc 	and  %i1, -4, %i1
4000b320:	82 20 40 19 	sub  %g1, %i1, %g1
4000b324:	c2 27 bf 54 	st  %g1, [ %fp + -172 ]
4000b328:	80 a0 60 00 	cmp  %g1, 0
4000b32c:	12 bf fe 71 	bne  4000acf0 <_vfiprintf_r+0xa34>
4000b330:	b6 06 e0 08 	add  %i3, 8, %i3
4000b334:	c0 27 bf 50 	clr  [ %fp + -176 ]
4000b338:	10 bf fc 24 	b  4000a3c8 <_vfiprintf_r+0x10c>
4000b33c:	b2 07 bf 58 	add  %fp, -168, %i1
4000b340:	da 07 be ec 	ld  [ %fp + -276 ], %o5
4000b344:	c4 1f be f8 	ldd  [ %fp + -264 ], %g2
4000b348:	82 08 e0 0f 	and  %g3, 0xf, %g1
4000b34c:	b0 06 3f ff 	add  %i0, -1, %i0
4000b350:	c2 0b 40 01 	ldub  [ %o5 + %g1 ], %g1
4000b354:	c2 2e 00 00 	stb  %g1, [ %i0 ]
4000b358:	89 28 a0 1c 	sll  %g2, 0x1c, %g4
4000b35c:	9f 30 a0 04 	srl  %g2, 4, %o7
4000b360:	83 30 e0 04 	srl  %g3, 4, %g1
4000b364:	86 11 00 01 	or  %g4, %g1, %g3
4000b368:	80 93 c0 03 	orcc  %o7, %g3, %g0
4000b36c:	12 bf ff f7 	bne  4000b348 <_vfiprintf_r+0x108c>
4000b370:	84 10 00 0f 	mov  %o7, %g2
4000b374:	82 27 00 18 	sub  %i4, %i0, %g1
4000b378:	c4 3f be f8 	std  %g2, [ %fp + -264 ]
4000b37c:	c2 27 bf 0c 	st  %g1, [ %fp + -244 ]
4000b380:	10 bf fd 05 	b  4000a794 <_vfiprintf_r+0x4d8>
4000b384:	a0 10 00 1d 	mov  %i5, %l0
4000b388:	82 10 20 00 	clr  %g1
4000b38c:	86 07 bf 58 	add  %fp, -168, %g3
4000b390:	80 a6 e0 10 	cmp  %i3, 0x10
4000b394:	24 80 00 3f 	ble,a   4000b490 <_vfiprintf_r+0x11d4>
4000b398:	ba 00 a0 01 	add  %g2, 1, %i5
4000b39c:	a0 10 20 10 	mov  0x10, %l0
4000b3a0:	27 00 00 08 	sethi  %hi(0x2000), %l3
4000b3a4:	10 80 00 09 	b  4000b3c8 <_vfiprintf_r+0x110c>
4000b3a8:	90 10 00 02 	mov  %g2, %o0
4000b3ac:	ba 02 20 02 	add  %o0, 2, %i5
4000b3b0:	86 00 e0 08 	add  %g3, 8, %g3
4000b3b4:	90 10 00 04 	mov  %g4, %o0
4000b3b8:	b6 06 ff f0 	add  %i3, -16, %i3
4000b3bc:	80 a6 e0 10 	cmp  %i3, 0x10
4000b3c0:	24 80 00 35 	ble,a   4000b494 <_vfiprintf_r+0x11d8>
4000b3c4:	82 00 40 1b 	add  %g1, %i3, %g1
4000b3c8:	88 02 20 01 	add  %o0, 1, %g4
4000b3cc:	82 00 60 10 	add  %g1, 0x10, %g1
4000b3d0:	c4 07 bf 10 	ld  [ %fp + -240 ], %g2
4000b3d4:	e0 20 e0 04 	st  %l0, [ %g3 + 4 ]
4000b3d8:	c4 20 c0 00 	st  %g2, [ %g3 ]
4000b3dc:	c2 27 bf 54 	st  %g1, [ %fp + -172 ]
4000b3e0:	80 a1 20 08 	cmp  %g4, 8
4000b3e4:	12 bf ff f2 	bne  4000b3ac <_vfiprintf_r+0x10f0>
4000b3e8:	c8 27 bf 50 	st  %g4, [ %fp + -176 ]
4000b3ec:	80 a0 60 00 	cmp  %g1, 0
4000b3f0:	22 80 00 53 	be,a   4000b53c <_vfiprintf_r+0x1280>
4000b3f4:	ba 10 20 01 	mov  1, %i5
4000b3f8:	c4 05 60 60 	ld  [ %l5 + 0x60 ], %g2
4000b3fc:	80 88 80 13 	btst  %g2, %l3
4000b400:	02 80 00 16 	be  4000b458 <_vfiprintf_r+0x119c>
4000b404:	f2 07 bf 4c 	ld  [ %fp + -180 ], %i1
4000b408:	ec 06 60 04 	ld  [ %i1 + 4 ], %l6
4000b40c:	b9 35 a0 02 	srl  %l6, 2, %i4
4000b410:	80 a7 20 00 	cmp  %i4, 0
4000b414:	02 80 00 43 	be  4000b520 <_vfiprintf_r+0x1264>
4000b418:	f0 06 40 00 	ld  [ %i1 ], %i0
4000b41c:	10 80 00 05 	b  4000b430 <_vfiprintf_r+0x1174>
4000b420:	ba 10 20 00 	clr  %i5
4000b424:	80 a7 00 1d 	cmp  %i4, %i5
4000b428:	02 80 00 3e 	be  4000b520 <_vfiprintf_r+0x1264>
4000b42c:	c2 07 bf 54 	ld  [ %fp + -172 ], %g1
4000b430:	83 2f 60 02 	sll  %i5, 2, %g1
4000b434:	94 10 00 15 	mov  %l5, %o2
4000b438:	d2 06 00 01 	ld  [ %i0 + %g1 ], %o1
4000b43c:	40 00 03 d3 	call  4000c388 <_fputwc_r>
4000b440:	90 10 00 12 	mov  %l2, %o0
4000b444:	80 a2 3f ff 	cmp  %o0, -1
4000b448:	32 bf ff f7 	bne,a   4000b424 <_vfiprintf_r+0x1168>
4000b44c:	ba 07 60 01 	inc  %i5
4000b450:	10 bf fc 18 	b  4000a4b0 <_vfiprintf_r+0x1f4>
4000b454:	c2 15 60 0c 	lduh  [ %l5 + 0xc ], %g1
4000b458:	94 07 bf 4c 	add  %fp, -180, %o2
4000b45c:	92 10 00 15 	mov  %l5, %o1
4000b460:	40 00 04 16 	call  4000c4b8 <__sfvwrite_r>
4000b464:	90 10 00 12 	mov  %l2, %o0
4000b468:	c0 27 bf 54 	clr  [ %fp + -172 ]
4000b46c:	80 a2 20 00 	cmp  %o0, 0
4000b470:	12 bf fc 0f 	bne  4000a4ac <_vfiprintf_r+0x1f0>
4000b474:	c0 27 bf 50 	clr  [ %fp + -176 ]
4000b478:	b6 06 ff f0 	add  %i3, -16, %i3
4000b47c:	ba 10 20 01 	mov  1, %i5
4000b480:	82 10 20 00 	clr  %g1
4000b484:	80 a6 e0 10 	cmp  %i3, 0x10
4000b488:	14 bf ff d0 	bg  4000b3c8 <_vfiprintf_r+0x110c>
4000b48c:	86 07 bf 58 	add  %fp, -168, %g3
4000b490:	82 00 40 1b 	add  %g1, %i3, %g1
4000b494:	c4 07 bf 10 	ld  [ %fp + -240 ], %g2
4000b498:	f6 20 e0 04 	st  %i3, [ %g3 + 4 ]
4000b49c:	c4 20 c0 00 	st  %g2, [ %g3 ]
4000b4a0:	c2 27 bf 54 	st  %g1, [ %fp + -172 ]
4000b4a4:	80 a7 60 08 	cmp  %i5, 8
4000b4a8:	12 bf fe 05 	bne  4000acbc <_vfiprintf_r+0xa00>
4000b4ac:	fa 27 bf 50 	st  %i5, [ %fp + -176 ]
4000b4b0:	80 a0 60 00 	cmp  %g1, 0
4000b4b4:	02 bf fe 32 	be  4000ad7c <_vfiprintf_r+0xac0>
4000b4b8:	05 00 00 08 	sethi  %hi(0x2000), %g2
4000b4bc:	c6 05 60 60 	ld  [ %l5 + 0x60 ], %g3
4000b4c0:	80 88 c0 02 	btst  %g3, %g2
4000b4c4:	02 80 01 7a 	be  4000baac <_vfiprintf_r+0x17f0>
4000b4c8:	94 07 bf 4c 	add  %fp, -180, %o2
4000b4cc:	f6 07 bf 4c 	ld  [ %fp + -180 ], %i3
4000b4d0:	f0 06 e0 04 	ld  [ %i3 + 4 ], %i0
4000b4d4:	b3 36 20 02 	srl  %i0, 2, %i1
4000b4d8:	80 a6 60 00 	cmp  %i1, 0
4000b4dc:	02 80 01 a3 	be  4000bb68 <_vfiprintf_r+0x18ac>
4000b4e0:	f8 06 c0 00 	ld  [ %i3 ], %i4
4000b4e4:	10 80 00 05 	b  4000b4f8 <_vfiprintf_r+0x123c>
4000b4e8:	ba 10 20 00 	clr  %i5
4000b4ec:	80 a6 40 1d 	cmp  %i1, %i5
4000b4f0:	02 80 01 9e 	be  4000bb68 <_vfiprintf_r+0x18ac>
4000b4f4:	c2 07 bf 54 	ld  [ %fp + -172 ], %g1
4000b4f8:	83 2f 60 02 	sll  %i5, 2, %g1
4000b4fc:	94 10 00 15 	mov  %l5, %o2
4000b500:	d2 07 00 01 	ld  [ %i4 + %g1 ], %o1
4000b504:	40 00 03 a1 	call  4000c388 <_fputwc_r>
4000b508:	90 10 00 12 	mov  %l2, %o0
4000b50c:	80 a2 3f ff 	cmp  %o0, -1
4000b510:	32 bf ff f7 	bne,a   4000b4ec <_vfiprintf_r+0x1230>
4000b514:	ba 07 60 01 	inc  %i5
4000b518:	10 bf fb e6 	b  4000a4b0 <_vfiprintf_r+0x1f4>
4000b51c:	c2 15 60 0c 	lduh  [ %l5 + 0xc ], %g1
4000b520:	ac 0d bf fc 	and  %l6, -4, %l6
4000b524:	82 20 40 16 	sub  %g1, %l6, %g1
4000b528:	c2 27 bf 54 	st  %g1, [ %fp + -172 ]
4000b52c:	80 a0 60 00 	cmp  %g1, 0
4000b530:	12 bf ff b6 	bne  4000b408 <_vfiprintf_r+0x114c>
4000b534:	b2 06 60 08 	add  %i1, 8, %i1
4000b538:	ba 10 20 01 	mov  1, %i5
4000b53c:	90 10 20 00 	clr  %o0
4000b540:	10 bf ff 9e 	b  4000b3b8 <_vfiprintf_r+0x10fc>
4000b544:	86 07 bf 58 	add  %fp, -168, %g3
4000b548:	94 07 bf 4c 	add  %fp, -180, %o2
4000b54c:	92 10 00 15 	mov  %l5, %o1
4000b550:	40 00 03 da 	call  4000c4b8 <__sfvwrite_r>
4000b554:	90 10 00 12 	mov  %l2, %o0
4000b558:	c0 27 bf 54 	clr  [ %fp + -172 ]
4000b55c:	80 a2 20 00 	cmp  %o0, 0
4000b560:	12 bf fb d3 	bne  4000a4ac <_vfiprintf_r+0x1f0>
4000b564:	c0 27 bf 50 	clr  [ %fp + -176 ]
4000b568:	86 07 bf 60 	add  %fp, -160, %g3
4000b56c:	84 10 20 01 	mov  1, %g2
4000b570:	82 10 20 00 	clr  %g1
4000b574:	10 bf fd 90 	b  4000abb4 <_vfiprintf_r+0x8f8>
4000b578:	b2 07 bf 58 	add  %fp, -168, %i1
4000b57c:	7f ff e7 1d 	call  400051f0 <__swsetup_r>
4000b580:	90 10 00 12 	mov  %l2, %o0
4000b584:	80 a2 20 00 	cmp  %o0, 0
4000b588:	12 80 02 07 	bne  4000bda4 <_vfiprintf_r+0x1ae8>
4000b58c:	82 10 3f ff 	mov  -1, %g1
4000b590:	c2 15 60 0c 	lduh  [ %l5 + 0xc ], %g1
4000b594:	82 08 60 1a 	and  %g1, 0x1a, %g1
4000b598:	80 a0 60 0a 	cmp  %g1, 0xa
4000b59c:	12 bf fb 76 	bne  4000a374 <_vfiprintf_r+0xb8>
4000b5a0:	82 07 bf 58 	add  %fp, -168, %g1
4000b5a4:	c2 55 60 0e 	ldsh  [ %l5 + 0xe ], %g1
4000b5a8:	80 a0 60 00 	cmp  %g1, 0
4000b5ac:	06 bf fb 72 	bl  4000a374 <_vfiprintf_r+0xb8>
4000b5b0:	82 07 bf 58 	add  %fp, -168, %g1
4000b5b4:	f6 07 bf 04 	ld  [ %fp + -252 ], %i3
4000b5b8:	b4 10 00 11 	mov  %l1, %i2
4000b5bc:	b2 10 00 15 	mov  %l5, %i1
4000b5c0:	40 00 02 1d 	call  4000be34 <__sbprintf>
4000b5c4:	91 e8 00 12 	restore  %g0, %l2, %o0
4000b5c8:	ba 10 00 10 	mov  %l0, %i5
4000b5cc:	c4 1f be f8 	ldd  [ %fp + -264 ], %g2
4000b5d0:	82 90 a0 00 	orcc  %g2, 0, %g1
4000b5d4:	12 80 01 10 	bne  4000ba14 <_vfiprintf_r+0x1758>
4000b5d8:	80 a0 e0 09 	cmp  %g3, 9
4000b5dc:	18 80 01 0e 	bgu  4000ba14 <_vfiprintf_r+0x1758>
4000b5e0:	c2 07 be fc 	ld  [ %fp + -260 ], %g1
4000b5e4:	82 00 60 30 	add  %g1, 0x30, %g1
4000b5e8:	a0 10 00 1d 	mov  %i5, %l0
4000b5ec:	c2 2f bf fb 	stb  %g1, [ %fp + -5 ]
4000b5f0:	b0 07 bf fb 	add  %fp, -5, %i0
4000b5f4:	82 10 20 01 	mov  1, %g1
4000b5f8:	10 bf fc 67 	b  4000a794 <_vfiprintf_r+0x4d8>
4000b5fc:	c2 27 bf 0c 	st  %g1, [ %fp + -244 ]
4000b600:	80 a0 60 00 	cmp  %g1, 0
4000b604:	02 bf fd a0 	be  4000ac84 <_vfiprintf_r+0x9c8>
4000b608:	05 00 00 08 	sethi  %hi(0x2000), %g2
4000b60c:	c6 05 60 60 	ld  [ %l5 + 0x60 ], %g3
4000b610:	80 88 c0 02 	btst  %g3, %g2
4000b614:	02 bf fd 94 	be  4000ac64 <_vfiprintf_r+0x9a8>
4000b618:	f6 07 bf 4c 	ld  [ %fp + -180 ], %i3
4000b61c:	e6 06 e0 04 	ld  [ %i3 + 4 ], %l3
4000b620:	b9 34 e0 02 	srl  %l3, 2, %i4
4000b624:	80 a7 20 00 	cmp  %i4, 0
4000b628:	02 80 00 99 	be  4000b88c <_vfiprintf_r+0x15d0>
4000b62c:	f2 06 c0 00 	ld  [ %i3 ], %i1
4000b630:	10 80 00 05 	b  4000b644 <_vfiprintf_r+0x1388>
4000b634:	ba 10 20 00 	clr  %i5
4000b638:	80 a7 00 1d 	cmp  %i4, %i5
4000b63c:	02 80 00 94 	be  4000b88c <_vfiprintf_r+0x15d0>
4000b640:	c2 07 bf 54 	ld  [ %fp + -172 ], %g1
4000b644:	83 2f 60 02 	sll  %i5, 2, %g1
4000b648:	94 10 00 15 	mov  %l5, %o2
4000b64c:	d2 06 40 01 	ld  [ %i1 + %g1 ], %o1
4000b650:	40 00 03 4e 	call  4000c388 <_fputwc_r>
4000b654:	90 10 00 12 	mov  %l2, %o0
4000b658:	80 a2 3f ff 	cmp  %o0, -1
4000b65c:	32 bf ff f7 	bne,a   4000b638 <_vfiprintf_r+0x137c>
4000b660:	ba 07 60 01 	inc  %i5
4000b664:	10 bf fb 93 	b  4000a4b0 <_vfiprintf_r+0x1f4>
4000b668:	c2 15 60 0c 	lduh  [ %l5 + 0xc ], %g1
4000b66c:	b2 07 bf 60 	add  %fp, -160, %i1
4000b670:	c2 27 bf 58 	st  %g1, [ %fp + -168 ]
4000b674:	90 10 20 01 	mov  1, %o0
4000b678:	82 10 20 02 	mov  2, %g1
4000b67c:	84 02 20 01 	add  %o0, 1, %g2
4000b680:	c2 27 bf 5c 	st  %g1, [ %fp + -164 ]
4000b684:	10 bf fd 4c 	b  4000abb4 <_vfiprintf_r+0x8f8>
4000b688:	86 06 60 08 	add  %i1, 8, %g3
4000b68c:	a2 0c 7f fc 	and  %l1, -4, %l1
4000b690:	82 20 40 11 	sub  %g1, %l1, %g1
4000b694:	c2 27 bf 54 	st  %g1, [ %fp + -172 ]
4000b698:	80 a0 60 00 	cmp  %g1, 0
4000b69c:	12 bf fb 72 	bne  4000a464 <_vfiprintf_r+0x1a8>
4000b6a0:	b0 06 20 08 	add  %i0, 8, %i0
4000b6a4:	c4 07 bf 08 	ld  [ %fp + -248 ], %g2
4000b6a8:	c0 27 bf 50 	clr  [ %fp + -176 ]
4000b6ac:	84 00 80 1b 	add  %g2, %i3, %g2
4000b6b0:	c2 0f 20 01 	ldub  [ %i4 + 1 ], %g1
4000b6b4:	b2 07 bf 58 	add  %fp, -168, %i1
4000b6b8:	c4 27 bf 08 	st  %g2, [ %fp + -248 ]
4000b6bc:	10 bf fb 9c 	b  4000a52c <_vfiprintf_r+0x270>
4000b6c0:	83 28 60 18 	sll  %g1, 0x18, %g1
4000b6c4:	ac 0d bf fc 	and  %l6, -4, %l6
4000b6c8:	82 20 40 16 	sub  %g1, %l6, %g1
4000b6cc:	c2 27 bf 54 	st  %g1, [ %fp + -172 ]
4000b6d0:	80 a0 60 00 	cmp  %g1, 0
4000b6d4:	12 bf fb d7 	bne  4000a630 <_vfiprintf_r+0x374>
4000b6d8:	b2 06 60 08 	add  %i1, 8, %i1
4000b6dc:	10 bf fe ab 	b  4000b188 <_vfiprintf_r+0xecc>
4000b6e0:	c2 07 be f4 	ld  [ %fp + -268 ], %g1
4000b6e4:	ac 0d bf fc 	and  %l6, -4, %l6
4000b6e8:	82 20 40 16 	sub  %g1, %l6, %g1
4000b6ec:	c2 27 bf 54 	st  %g1, [ %fp + -172 ]
4000b6f0:	80 a0 60 00 	cmp  %g1, 0
4000b6f4:	12 bf fd 13 	bne  4000ab40 <_vfiprintf_r+0x884>
4000b6f8:	b2 06 60 08 	add  %i1, 8, %i1
4000b6fc:	86 07 bf 60 	add  %fp, -160, %g3
4000b700:	84 10 20 01 	mov  1, %g2
4000b704:	90 10 20 00 	clr  %o0
4000b708:	10 bf fd 2b 	b  4000abb4 <_vfiprintf_r+0x8f8>
4000b70c:	b2 07 bf 58 	add  %fp, -168, %i1
4000b710:	80 8c 20 10 	btst  0x10, %l0
4000b714:	12 80 00 0f 	bne  4000b750 <_vfiprintf_r+0x1494>
4000b718:	82 00 a0 04 	add  %g2, 4, %g1
4000b71c:	80 8c 20 40 	btst  0x40, %l0
4000b720:	02 80 00 0a 	be  4000b748 <_vfiprintf_r+0x148c>
4000b724:	80 8c 22 00 	btst  0x200, %l0
4000b728:	c4 10 a0 02 	lduh  [ %g2 + 2 ], %g2
4000b72c:	c2 27 bf 04 	st  %g1, [ %fp + -252 ]
4000b730:	86 10 00 02 	mov  %g2, %g3
4000b734:	ba 0c 3b ff 	and  %l0, -1025, %i5
4000b738:	84 10 20 00 	clr  %g2
4000b73c:	82 10 20 00 	clr  %g1
4000b740:	10 bf fc 4b 	b  4000a86c <_vfiprintf_r+0x5b0>
4000b744:	c4 3f be f8 	std  %g2, [ %fp + -264 ]
4000b748:	32 80 01 70 	bne,a   4000bd08 <_vfiprintf_r+0x1a4c>
4000b74c:	c4 08 a0 03 	ldub  [ %g2 + 3 ], %g2
4000b750:	c4 00 80 00 	ld  [ %g2 ], %g2
4000b754:	ba 0c 3b ff 	and  %l0, -1025, %i5
4000b758:	86 10 00 02 	mov  %g2, %g3
4000b75c:	c2 27 bf 04 	st  %g1, [ %fp + -252 ]
4000b760:	84 10 20 00 	clr  %g2
4000b764:	82 10 20 00 	clr  %g1
4000b768:	10 bf fc 41 	b  4000a86c <_vfiprintf_r+0x5b0>
4000b76c:	c4 3f be f8 	std  %g2, [ %fp + -264 ]
4000b770:	80 8c 20 10 	btst  0x10, %l0
4000b774:	12 80 00 10 	bne  4000b7b4 <_vfiprintf_r+0x14f8>
4000b778:	82 00 a0 04 	add  %g2, 4, %g1
4000b77c:	80 8c 20 40 	btst  0x40, %l0
4000b780:	02 80 00 0b 	be  4000b7ac <_vfiprintf_r+0x14f0>
4000b784:	80 8c 22 00 	btst  0x200, %l0
4000b788:	c4 00 80 00 	ld  [ %g2 ], %g2
4000b78c:	c2 27 bf 04 	st  %g1, [ %fp + -252 ]
4000b790:	83 28 a0 10 	sll  %g2, 0x10, %g1
4000b794:	85 38 60 1f 	sra  %g1, 0x1f, %g2
4000b798:	83 38 60 10 	sra  %g1, 0x10, %g1
4000b79c:	c4 27 be f8 	st  %g2, [ %fp + -264 ]
4000b7a0:	c2 27 be fc 	st  %g1, [ %fp + -260 ]
4000b7a4:	10 bf fb ed 	b  4000a758 <_vfiprintf_r+0x49c>
4000b7a8:	82 10 00 02 	mov  %g2, %g1
4000b7ac:	32 80 01 4f 	bne,a   4000bce8 <_vfiprintf_r+0x1a2c>
4000b7b0:	c4 00 80 00 	ld  [ %g2 ], %g2
4000b7b4:	c6 00 80 00 	ld  [ %g2 ], %g3
4000b7b8:	c2 27 bf 04 	st  %g1, [ %fp + -252 ]
4000b7bc:	85 38 e0 1f 	sra  %g3, 0x1f, %g2
4000b7c0:	c6 27 be fc 	st  %g3, [ %fp + -260 ]
4000b7c4:	82 10 00 02 	mov  %g2, %g1
4000b7c8:	80 a0 60 00 	cmp  %g1, 0
4000b7cc:	16 bf fb e6 	bge  4000a764 <_vfiprintf_r+0x4a8>
4000b7d0:	c4 27 be f8 	st  %g2, [ %fp + -264 ]
4000b7d4:	f8 1f be f8 	ldd  [ %fp + -264 ], %i4
4000b7d8:	82 10 20 2d 	mov  0x2d, %g1
4000b7dc:	86 a0 00 1d 	subcc  %g0, %i5, %g3
4000b7e0:	c2 2f bf 1f 	stb  %g1, [ %fp + -225 ]
4000b7e4:	84 60 00 1c 	subx  %g0, %i4, %g2
4000b7e8:	ba 10 00 10 	mov  %l0, %i5
4000b7ec:	c4 3f be f8 	std  %g2, [ %fp + -264 ]
4000b7f0:	10 bf fc 20 	b  4000a870 <_vfiprintf_r+0x5b4>
4000b7f4:	82 10 20 01 	mov  1, %g1
4000b7f8:	80 8f 60 10 	btst  0x10, %i5
4000b7fc:	02 80 00 31 	be  4000b8c0 <_vfiprintf_r+0x1604>
4000b800:	84 00 60 04 	add  %g1, 4, %g2
4000b804:	c6 00 40 00 	ld  [ %g1 ], %g3
4000b808:	9a 10 00 03 	mov  %g3, %o5
4000b80c:	98 10 20 00 	clr  %o4
4000b810:	82 10 20 01 	mov  1, %g1
4000b814:	d8 3f be f8 	std  %o4, [ %fp + -264 ]
4000b818:	10 bf fc 15 	b  4000a86c <_vfiprintf_r+0x5b0>
4000b81c:	c4 27 bf 04 	st  %g2, [ %fp + -252 ]
4000b820:	80 a0 60 00 	cmp  %g1, 0
4000b824:	02 bf fc a4 	be  4000aab4 <_vfiprintf_r+0x7f8>
4000b828:	05 00 00 08 	sethi  %hi(0x2000), %g2
4000b82c:	c6 05 60 60 	ld  [ %l5 + 0x60 ], %g3
4000b830:	80 88 c0 02 	btst  %g3, %g2
4000b834:	02 bf fc 98 	be  4000aa94 <_vfiprintf_r+0x7d8>
4000b838:	e6 07 bf 4c 	ld  [ %fp + -180 ], %l3
4000b83c:	ec 04 e0 04 	ld  [ %l3 + 4 ], %l6
4000b840:	b9 35 a0 02 	srl  %l6, 2, %i4
4000b844:	80 a7 20 00 	cmp  %i4, 0
4000b848:	02 80 00 aa 	be  4000baf0 <_vfiprintf_r+0x1834>
4000b84c:	f2 04 c0 00 	ld  [ %l3 ], %i1
4000b850:	10 80 00 05 	b  4000b864 <_vfiprintf_r+0x15a8>
4000b854:	ba 10 20 00 	clr  %i5
4000b858:	80 a7 00 1d 	cmp  %i4, %i5
4000b85c:	02 80 00 a5 	be  4000baf0 <_vfiprintf_r+0x1834>
4000b860:	c2 07 bf 54 	ld  [ %fp + -172 ], %g1
4000b864:	83 2f 60 02 	sll  %i5, 2, %g1
4000b868:	94 10 00 15 	mov  %l5, %o2
4000b86c:	d2 06 40 01 	ld  [ %i1 + %g1 ], %o1
4000b870:	40 00 02 c6 	call  4000c388 <_fputwc_r>
4000b874:	90 10 00 12 	mov  %l2, %o0
4000b878:	80 a2 3f ff 	cmp  %o0, -1
4000b87c:	32 bf ff f7 	bne,a   4000b858 <_vfiprintf_r+0x159c>
4000b880:	ba 07 60 01 	inc  %i5
4000b884:	10 bf fb 0b 	b  4000a4b0 <_vfiprintf_r+0x1f4>
4000b888:	c2 15 60 0c 	lduh  [ %l5 + 0xc ], %g1
4000b88c:	a6 0c ff fc 	and  %l3, -4, %l3
4000b890:	82 20 40 13 	sub  %g1, %l3, %g1
4000b894:	c2 27 bf 54 	st  %g1, [ %fp + -172 ]
4000b898:	80 a0 60 00 	cmp  %g1, 0
4000b89c:	12 bf ff 60 	bne  4000b61c <_vfiprintf_r+0x1360>
4000b8a0:	b6 06 e0 08 	add  %i3, 8, %i3
4000b8a4:	10 bf fc f9 	b  4000ac88 <_vfiprintf_r+0x9cc>
4000b8a8:	c2 07 bf 0c 	ld  [ %fp + -244 ], %g1
4000b8ac:	84 01 20 01 	add  %g4, 1, %g2
4000b8b0:	86 07 60 08 	add  %i5, 8, %g3
4000b8b4:	90 10 00 04 	mov  %g4, %o0
4000b8b8:	10 bf fc c3 	b  4000abc4 <_vfiprintf_r+0x908>
4000b8bc:	b2 10 00 1d 	mov  %i5, %i1
4000b8c0:	80 8f 60 40 	btst  0x40, %i5
4000b8c4:	02 80 00 cf 	be  4000bc00 <_vfiprintf_r+0x1944>
4000b8c8:	80 8f 62 00 	btst  0x200, %i5
4000b8cc:	10 bf ff cf 	b  4000b808 <_vfiprintf_r+0x154c>
4000b8d0:	c6 10 60 02 	lduh  [ %g1 + 2 ], %g3
4000b8d4:	82 27 00 0f 	sub  %i4, %o7, %g1
4000b8d8:	a0 10 00 1d 	mov  %i5, %l0
4000b8dc:	c2 27 bf 0c 	st  %g1, [ %fp + -244 ]
4000b8e0:	82 10 20 30 	mov  0x30, %g1
4000b8e4:	c2 2e 3f ff 	stb  %g1, [ %i0 + -1 ]
4000b8e8:	10 bf fb ab 	b  4000a794 <_vfiprintf_r+0x4d8>
4000b8ec:	b0 10 00 0f 	mov  %o7, %i0
4000b8f0:	c6 07 bf 08 	ld  [ %fp + -248 ], %g3
4000b8f4:	85 38 e0 1f 	sra  %g3, 0x1f, %g2
4000b8f8:	c6 20 60 04 	st  %g3, [ %g1 + 4 ]
4000b8fc:	10 bf fa b3 	b  4000a3c8 <_vfiprintf_r+0x10c>
4000b900:	c4 20 40 00 	st  %g2, [ %g1 ]
4000b904:	c4 0c 40 00 	ldub  [ %l1 ], %g2
4000b908:	80 a0 e0 00 	cmp  %g3, 0
4000b90c:	02 bf fb 13 	be  4000a558 <_vfiprintf_r+0x29c>
4000b910:	83 28 a0 18 	sll  %g2, 0x18, %g1
4000b914:	10 bf fb 11 	b  4000a558 <_vfiprintf_r+0x29c>
4000b918:	a0 14 24 00 	or  %l0, 0x400, %l0
4000b91c:	80 a0 60 00 	cmp  %g1, 0
4000b920:	32 bf fc 9c 	bne,a   4000ab90 <_vfiprintf_r+0x8d4>
4000b924:	82 07 bf 20 	add  %fp, -224, %g1
4000b928:	90 10 20 00 	clr  %o0
4000b92c:	86 07 bf 60 	add  %fp, -160, %g3
4000b930:	84 10 20 01 	mov  1, %g2
4000b934:	10 bf fc a4 	b  4000abc4 <_vfiprintf_r+0x908>
4000b938:	b2 07 bf 58 	add  %fp, -168, %i1
4000b93c:	c2 07 be e4 	ld  [ %fp + -284 ], %g1
4000b940:	c2 27 be ec 	st  %g1, [ %fp + -276 ]
4000b944:	80 8c 20 20 	btst  0x20, %l0
4000b948:	02 80 00 21 	be  4000b9cc <_vfiprintf_r+0x1710>
4000b94c:	ba 10 20 78 	mov  0x78, %i5
4000b950:	c2 07 bf 04 	ld  [ %fp + -252 ], %g1
4000b954:	92 10 00 01 	mov  %g1, %o1
4000b958:	82 00 60 08 	add  %g1, 8, %g1
4000b95c:	94 10 20 08 	mov  8, %o2
4000b960:	90 07 bf 40 	add  %fp, -192, %o0
4000b964:	7f ff da 39 	call  40002248 <memcpy>
4000b968:	c2 27 bf 04 	st  %g1, [ %fp + -252 ]
4000b96c:	c4 1f bf 40 	ldd  [ %fp + -192 ], %g2
4000b970:	c4 3f be f8 	std  %g2, [ %fp + -264 ]
4000b974:	80 90 80 03 	orcc  %g2, %g3, %g0
4000b978:	02 80 00 04 	be  4000b988 <_vfiprintf_r+0x16cc>
4000b97c:	80 8c 20 01 	btst  1, %l0
4000b980:	32 80 00 05 	bne,a   4000b994 <_vfiprintf_r+0x16d8>
4000b984:	82 10 20 30 	mov  0x30, %g1
4000b988:	ba 0c 3b ff 	and  %l0, -1025, %i5
4000b98c:	10 bf fb b8 	b  4000a86c <_vfiprintf_r+0x5b0>
4000b990:	82 10 20 02 	mov  2, %g1
4000b994:	fa 2f bf 21 	stb  %i5, [ %fp + -223 ]
4000b998:	c2 2f bf 20 	stb  %g1, [ %fp + -224 ]
4000b99c:	a0 14 20 02 	or  %l0, 2, %l0
4000b9a0:	82 10 20 02 	mov  2, %g1
4000b9a4:	10 bf fb b2 	b  4000a86c <_vfiprintf_r+0x5b0>
4000b9a8:	ba 0c 3b ff 	and  %l0, -1025, %i5
4000b9ac:	10 bf fc 16 	b  4000aa04 <_vfiprintf_r+0x748>
4000b9b0:	ba 10 00 10 	mov  %l0, %i5
4000b9b4:	03 10 00 3b 	sethi  %hi(0x4000ec00), %g1
4000b9b8:	82 10 61 40 	or  %g1, 0x140, %g1	! 4000ed40 <_global_impure_ptr+0x3c>
4000b9bc:	c2 27 be ec 	st  %g1, [ %fp + -276 ]
4000b9c0:	80 8c 20 20 	btst  0x20, %l0
4000b9c4:	12 bf ff e3 	bne  4000b950 <_vfiprintf_r+0x1694>
4000b9c8:	ba 10 20 58 	mov  0x58, %i5
4000b9cc:	c4 07 bf 04 	ld  [ %fp + -252 ], %g2
4000b9d0:	80 8c 20 10 	btst  0x10, %l0
4000b9d4:	12 80 00 30 	bne  4000ba94 <_vfiprintf_r+0x17d8>
4000b9d8:	82 00 a0 04 	add  %g2, 4, %g1
4000b9dc:	80 8c 20 40 	btst  0x40, %l0
4000b9e0:	02 80 00 2b 	be  4000ba8c <_vfiprintf_r+0x17d0>
4000b9e4:	80 8c 22 00 	btst  0x200, %l0
4000b9e8:	c4 10 a0 02 	lduh  [ %g2 + 2 ], %g2
4000b9ec:	c2 27 bf 04 	st  %g1, [ %fp + -252 ]
4000b9f0:	86 10 00 02 	mov  %g2, %g3
4000b9f4:	84 10 20 00 	clr  %g2
4000b9f8:	10 bf ff df 	b  4000b974 <_vfiprintf_r+0x16b8>
4000b9fc:	c4 3f be f8 	std  %g2, [ %fp + -264 ]
4000ba00:	90 10 00 18 	mov  %i0, %o0
4000ba04:	7f ff f9 0a 	call  40009e2c <strlen>
4000ba08:	b6 10 20 00 	clr  %i3
4000ba0c:	10 bf fb 62 	b  4000a794 <_vfiprintf_r+0x4d8>
4000ba10:	d0 27 bf 0c 	st  %o0, [ %fp + -244 ]
4000ba14:	80 8f 64 00 	btst  0x400, %i5
4000ba18:	12 80 00 7e 	bne  4000bc10 <_vfiprintf_r+0x1954>
4000ba1c:	b8 07 bf fc 	add  %fp, -4, %i4
4000ba20:	a6 10 00 11 	mov  %l1, %l3
4000ba24:	b0 10 00 1c 	mov  %i4, %i0
4000ba28:	e0 1f be f8 	ldd  [ %fp + -264 ], %l0
4000ba2c:	94 10 20 00 	clr  %o2
4000ba30:	96 10 20 0a 	mov  0xa, %o3
4000ba34:	90 10 00 10 	mov  %l0, %o0
4000ba38:	40 00 0b 90 	call  4000e878 <__umoddi3>
4000ba3c:	92 10 00 11 	mov  %l1, %o1
4000ba40:	82 02 60 30 	add  %o1, 0x30, %g1
4000ba44:	90 10 00 10 	mov  %l0, %o0
4000ba48:	92 10 00 11 	mov  %l1, %o1
4000ba4c:	94 10 20 00 	clr  %o2
4000ba50:	96 10 20 0a 	mov  0xa, %o3
4000ba54:	40 00 0a b4 	call  4000e524 <__udivdi3>
4000ba58:	c2 2e 3f ff 	stb  %g1, [ %i0 + -1 ]
4000ba5c:	b0 06 3f ff 	add  %i0, -1, %i0
4000ba60:	84 10 00 11 	mov  %l1, %g2
4000ba64:	80 a4 20 00 	cmp  %l0, 0
4000ba68:	a2 10 00 09 	mov  %o1, %l1
4000ba6c:	12 bf ff f0 	bne  4000ba2c <_vfiprintf_r+0x1770>
4000ba70:	a0 10 00 08 	mov  %o0, %l0
4000ba74:	80 a0 a0 09 	cmp  %g2, 9
4000ba78:	18 bf ff ee 	bgu  4000ba30 <_vfiprintf_r+0x1774>
4000ba7c:	94 10 20 00 	clr  %o2
4000ba80:	e0 3f be f8 	std  %l0, [ %fp + -264 ]
4000ba84:	10 bf fc e3 	b  4000ae10 <_vfiprintf_r+0xb54>
4000ba88:	a2 10 00 13 	mov  %l3, %l1
4000ba8c:	32 80 00 a6 	bne,a   4000bd24 <_vfiprintf_r+0x1a68>
4000ba90:	c4 08 a0 03 	ldub  [ %g2 + 3 ], %g2
4000ba94:	c4 00 80 00 	ld  [ %g2 ], %g2
4000ba98:	c2 27 bf 04 	st  %g1, [ %fp + -252 ]
4000ba9c:	86 10 00 02 	mov  %g2, %g3
4000baa0:	84 10 20 00 	clr  %g2
4000baa4:	10 bf ff b4 	b  4000b974 <_vfiprintf_r+0x16b8>
4000baa8:	c4 3f be f8 	std  %g2, [ %fp + -264 ]
4000baac:	92 10 00 15 	mov  %l5, %o1
4000bab0:	40 00 02 82 	call  4000c4b8 <__sfvwrite_r>
4000bab4:	90 10 00 12 	mov  %l2, %o0
4000bab8:	c0 27 bf 54 	clr  [ %fp + -172 ]
4000babc:	80 a2 20 00 	cmp  %o0, 0
4000bac0:	02 bf fc af 	be  4000ad7c <_vfiprintf_r+0xac0>
4000bac4:	c0 27 bf 50 	clr  [ %fp + -176 ]
4000bac8:	10 bf fa 7a 	b  4000a4b0 <_vfiprintf_r+0x1f4>
4000bacc:	c2 15 60 0c 	lduh  [ %l5 + 0xc ], %g1
4000bad0:	a0 14 20 20 	or  %l0, 0x20, %l0
4000bad4:	a2 04 60 01 	inc  %l1
4000bad8:	10 bf fa a0 	b  4000a558 <_vfiprintf_r+0x29c>
4000badc:	83 28 a0 18 	sll  %g2, 0x18, %g1
4000bae0:	a0 14 22 00 	or  %l0, 0x200, %l0
4000bae4:	a2 04 60 01 	inc  %l1
4000bae8:	10 bf fa 9c 	b  4000a558 <_vfiprintf_r+0x29c>
4000baec:	83 28 a0 18 	sll  %g2, 0x18, %g1
4000baf0:	ac 0d bf fc 	and  %l6, -4, %l6
4000baf4:	82 20 40 16 	sub  %g1, %l6, %g1
4000baf8:	c2 27 bf 54 	st  %g1, [ %fp + -172 ]
4000bafc:	80 a0 60 00 	cmp  %g1, 0
4000bb00:	12 bf ff 4f 	bne  4000b83c <_vfiprintf_r+0x1580>
4000bb04:	a6 04 e0 08 	add  %l3, 8, %l3
4000bb08:	10 bf fb ec 	b  4000aab8 <_vfiprintf_r+0x7fc>
4000bb0c:	c2 4f bf 1f 	ldsb  [ %fp + -225 ], %g1
4000bb10:	80 a6 e0 06 	cmp  %i3, 6
4000bb14:	18 80 00 72 	bgu  4000bcdc <_vfiprintf_r+0x1a20>
4000bb18:	f6 27 bf 0c 	st  %i3, [ %fp + -244 ]
4000bb1c:	31 10 00 3b 	sethi  %hi(0x4000ec00), %i0
4000bb20:	e8 07 bf 0c 	ld  [ %fp + -244 ], %l4
4000bb24:	10 bf fa 9f 	b  4000a5a0 <_vfiprintf_r+0x2e4>
4000bb28:	b0 16 21 58 	or  %i0, 0x158, %i0
4000bb2c:	94 07 bf 4c 	add  %fp, -180, %o2
4000bb30:	92 10 00 15 	mov  %l5, %o1
4000bb34:	40 00 02 61 	call  4000c4b8 <__sfvwrite_r>
4000bb38:	90 10 00 12 	mov  %l2, %o0
4000bb3c:	c0 27 bf 54 	clr  [ %fp + -172 ]
4000bb40:	80 a2 20 00 	cmp  %o0, 0
4000bb44:	12 bf fa 5a 	bne  4000a4ac <_vfiprintf_r+0x1f0>
4000bb48:	c0 27 bf 50 	clr  [ %fp + -176 ]
4000bb4c:	86 07 bf 60 	add  %fp, -160, %g3
4000bb50:	84 10 20 01 	mov  1, %g2
4000bb54:	82 10 20 00 	clr  %g1
4000bb58:	10 bf fc 1b 	b  4000abc4 <_vfiprintf_r+0x908>
4000bb5c:	b2 07 bf 58 	add  %fp, -168, %i1
4000bb60:	10 bf fa 1a 	b  4000a3c8 <_vfiprintf_r+0x10c>
4000bb64:	c4 20 40 00 	st  %g2, [ %g1 ]
4000bb68:	b0 0e 3f fc 	and  %i0, -4, %i0
4000bb6c:	82 20 40 18 	sub  %g1, %i0, %g1
4000bb70:	c2 27 bf 54 	st  %g1, [ %fp + -172 ]
4000bb74:	80 a0 60 00 	cmp  %g1, 0
4000bb78:	12 bf fe 56 	bne  4000b4d0 <_vfiprintf_r+0x1214>
4000bb7c:	b6 06 e0 08 	add  %i3, 8, %i3
4000bb80:	10 bf fc 80 	b  4000ad80 <_vfiprintf_r+0xac4>
4000bb84:	80 a6 80 14 	cmp  %i2, %l4
4000bb88:	c2 07 bf 54 	ld  [ %fp + -172 ], %g1
4000bb8c:	80 a0 60 00 	cmp  %g1, 0
4000bb90:	22 bf fa 48 	be,a   4000a4b0 <_vfiprintf_r+0x1f4>
4000bb94:	c2 15 60 0c 	lduh  [ %l5 + 0xc ], %g1
4000bb98:	c6 05 60 60 	ld  [ %l5 + 0x60 ], %g3
4000bb9c:	05 00 00 08 	sethi  %hi(0x2000), %g2
4000bba0:	80 88 c0 02 	btst  %g3, %g2
4000bba4:	02 80 00 8c 	be  4000bdd4 <_vfiprintf_r+0x1b18>
4000bba8:	94 07 bf 4c 	add  %fp, -180, %o2
4000bbac:	f4 07 bf 4c 	ld  [ %fp + -180 ], %i2
4000bbb0:	f2 06 a0 04 	ld  [ %i2 + 4 ], %i1
4000bbb4:	b9 36 60 02 	srl  %i1, 2, %i4
4000bbb8:	80 a7 20 00 	cmp  %i4, 0
4000bbbc:	02 80 00 7e 	be  4000bdb4 <_vfiprintf_r+0x1af8>
4000bbc0:	f6 06 80 00 	ld  [ %i2 ], %i3
4000bbc4:	10 80 00 05 	b  4000bbd8 <_vfiprintf_r+0x191c>
4000bbc8:	ba 10 20 00 	clr  %i5
4000bbcc:	80 a7 00 1d 	cmp  %i4, %i5
4000bbd0:	02 80 00 79 	be  4000bdb4 <_vfiprintf_r+0x1af8>
4000bbd4:	c2 07 bf 54 	ld  [ %fp + -172 ], %g1
4000bbd8:	83 2f 60 02 	sll  %i5, 2, %g1
4000bbdc:	94 10 00 15 	mov  %l5, %o2
4000bbe0:	d2 06 c0 01 	ld  [ %i3 + %g1 ], %o1
4000bbe4:	40 00 01 e9 	call  4000c388 <_fputwc_r>
4000bbe8:	90 10 00 12 	mov  %l2, %o0
4000bbec:	80 a2 3f ff 	cmp  %o0, -1
4000bbf0:	32 bf ff f7 	bne,a   4000bbcc <_vfiprintf_r+0x1910>
4000bbf4:	ba 07 60 01 	inc  %i5
4000bbf8:	10 bf fa 2e 	b  4000a4b0 <_vfiprintf_r+0x1f4>
4000bbfc:	c2 15 60 0c 	lduh  [ %l5 + 0xc ], %g1
4000bc00:	22 bf ff 02 	be,a   4000b808 <_vfiprintf_r+0x154c>
4000bc04:	c6 00 40 00 	ld  [ %g1 ], %g3
4000bc08:	10 bf ff 00 	b  4000b808 <_vfiprintf_r+0x154c>
4000bc0c:	c6 08 60 03 	ldub  [ %g1 + 3 ], %g3
4000bc10:	ae 10 00 15 	mov  %l5, %l7
4000bc14:	a0 10 20 00 	clr  %l0
4000bc18:	b0 10 00 1c 	mov  %i4, %i0
4000bc1c:	ec 07 be dc 	ld  [ %fp + -292 ], %l6
4000bc20:	e6 07 be e8 	ld  [ %fp + -280 ], %l3
4000bc24:	e8 1f be f8 	ldd  [ %fp + -264 ], %l4
4000bc28:	94 10 20 00 	clr  %o2
4000bc2c:	96 10 20 0a 	mov  0xa, %o3
4000bc30:	90 10 00 14 	mov  %l4, %o0
4000bc34:	40 00 0b 11 	call  4000e878 <__umoddi3>
4000bc38:	92 10 00 15 	mov  %l5, %o1
4000bc3c:	92 02 60 30 	add  %o1, 0x30, %o1
4000bc40:	d2 2e 3f ff 	stb  %o1, [ %i0 + -1 ]
4000bc44:	a0 04 20 01 	inc  %l0
4000bc48:	c2 4c c0 00 	ldsb  [ %l3 ], %g1
4000bc4c:	80 a0 40 10 	cmp  %g1, %l0
4000bc50:	12 80 00 05 	bne  4000bc64 <_vfiprintf_r+0x19a8>
4000bc54:	b0 06 3f ff 	add  %i0, -1, %i0
4000bc58:	80 a0 60 7f 	cmp  %g1, 0x7f
4000bc5c:	12 80 00 0d 	bne  4000bc90 <_vfiprintf_r+0x19d4>
4000bc60:	80 a5 20 00 	cmp  %l4, 0
4000bc64:	94 10 20 00 	clr  %o2
4000bc68:	96 10 20 0a 	mov  0xa, %o3
4000bc6c:	90 10 00 14 	mov  %l4, %o0
4000bc70:	40 00 0a 2d 	call  4000e524 <__udivdi3>
4000bc74:	92 10 00 15 	mov  %l5, %o1
4000bc78:	80 a5 20 00 	cmp  %l4, 0
4000bc7c:	02 80 00 40 	be  4000bd7c <_vfiprintf_r+0x1ac0>
4000bc80:	80 a5 60 09 	cmp  %l5, 9
4000bc84:	a8 10 00 08 	mov  %o0, %l4
4000bc88:	10 bf ff e8 	b  4000bc28 <_vfiprintf_r+0x196c>
4000bc8c:	aa 10 00 09 	mov  %o1, %l5
4000bc90:	12 80 00 2a 	bne  4000bd38 <_vfiprintf_r+0x1a7c>
4000bc94:	80 a5 60 09 	cmp  %l5, 9
4000bc98:	18 80 00 29 	bgu  4000bd3c <_vfiprintf_r+0x1a80>
4000bc9c:	94 10 00 16 	mov  %l6, %o2
4000bca0:	e8 3f be f8 	std  %l4, [ %fp + -264 ]
4000bca4:	e6 27 be e8 	st  %l3, [ %fp + -280 ]
4000bca8:	10 bf fc 5a 	b  4000ae10 <_vfiprintf_r+0xb54>
4000bcac:	aa 10 00 17 	mov  %l7, %l5
4000bcb0:	ac 0d bf fc 	and  %l6, -4, %l6
4000bcb4:	82 20 40 16 	sub  %g1, %l6, %g1
4000bcb8:	c2 27 bf 54 	st  %g1, [ %fp + -172 ]
4000bcbc:	80 a0 60 00 	cmp  %g1, 0
4000bcc0:	12 bf fc ac 	bne  4000af70 <_vfiprintf_r+0xcb4>
4000bcc4:	a6 04 e0 08 	add  %l3, 8, %l3
4000bcc8:	86 07 bf 60 	add  %fp, -160, %g3
4000bccc:	84 10 20 01 	mov  1, %g2
4000bcd0:	90 10 20 00 	clr  %o0
4000bcd4:	10 bf fb bc 	b  4000abc4 <_vfiprintf_r+0x908>
4000bcd8:	b2 07 bf 58 	add  %fp, -168, %i1
4000bcdc:	82 10 20 06 	mov  6, %g1
4000bce0:	10 bf ff 8f 	b  4000bb1c <_vfiprintf_r+0x1860>
4000bce4:	c2 27 bf 0c 	st  %g1, [ %fp + -244 ]
4000bce8:	c2 27 bf 04 	st  %g1, [ %fp + -252 ]
4000bcec:	83 28 a0 18 	sll  %g2, 0x18, %g1
4000bcf0:	85 38 60 1f 	sra  %g1, 0x1f, %g2
4000bcf4:	83 38 60 18 	sra  %g1, 0x18, %g1
4000bcf8:	c4 27 be f8 	st  %g2, [ %fp + -264 ]
4000bcfc:	c2 27 be fc 	st  %g1, [ %fp + -260 ]
4000bd00:	10 bf fa 96 	b  4000a758 <_vfiprintf_r+0x49c>
4000bd04:	82 10 00 02 	mov  %g2, %g1
4000bd08:	c2 27 bf 04 	st  %g1, [ %fp + -252 ]
4000bd0c:	86 10 00 02 	mov  %g2, %g3
4000bd10:	ba 0c 3b ff 	and  %l0, -1025, %i5
4000bd14:	84 10 20 00 	clr  %g2
4000bd18:	82 10 20 00 	clr  %g1
4000bd1c:	10 bf fa d4 	b  4000a86c <_vfiprintf_r+0x5b0>
4000bd20:	c4 3f be f8 	std  %g2, [ %fp + -264 ]
4000bd24:	c2 27 bf 04 	st  %g1, [ %fp + -252 ]
4000bd28:	86 10 00 02 	mov  %g2, %g3
4000bd2c:	84 10 20 00 	clr  %g2
4000bd30:	10 bf ff 11 	b  4000b974 <_vfiprintf_r+0x16b8>
4000bd34:	c4 3f be f8 	std  %g2, [ %fp + -264 ]
4000bd38:	94 10 00 16 	mov  %l6, %o2
4000bd3c:	d2 07 be e0 	ld  [ %fp + -288 ], %o1
4000bd40:	b0 26 00 16 	sub  %i0, %l6, %i0
4000bd44:	7f ff f8 65 	call  40009ed8 <strncpy>
4000bd48:	90 10 00 18 	mov  %i0, %o0
4000bd4c:	c2 4c e0 01 	ldsb  [ %l3 + 1 ], %g1
4000bd50:	80 a0 00 01 	cmp  %g0, %g1
4000bd54:	90 10 00 14 	mov  %l4, %o0
4000bd58:	92 10 00 15 	mov  %l5, %o1
4000bd5c:	94 10 20 00 	clr  %o2
4000bd60:	96 10 20 0a 	mov  0xa, %o3
4000bd64:	a6 40 00 13 	addx  %g0, %l3, %l3
4000bd68:	40 00 09 ef 	call  4000e524 <__udivdi3>
4000bd6c:	a0 10 20 00 	clr  %l0
4000bd70:	a8 10 00 08 	mov  %o0, %l4
4000bd74:	10 bf ff ad 	b  4000bc28 <_vfiprintf_r+0x196c>
4000bd78:	aa 10 00 09 	mov  %o1, %l5
4000bd7c:	28 bf ff ca 	bleu,a   4000bca4 <_vfiprintf_r+0x19e8>
4000bd80:	e8 3f be f8 	std  %l4, [ %fp + -264 ]
4000bd84:	a8 10 00 08 	mov  %o0, %l4
4000bd88:	10 bf ff a8 	b  4000bc28 <_vfiprintf_r+0x196c>
4000bd8c:	aa 10 00 09 	mov  %o1, %l5
4000bd90:	f6 27 bf 0c 	st  %i3, [ %fp + -244 ]
4000bd94:	10 bf fa 80 	b  4000a794 <_vfiprintf_r+0x4d8>
4000bd98:	b6 10 20 00 	clr  %i3
4000bd9c:	10 bf fd bd 	b  4000b490 <_vfiprintf_r+0x11d4>
4000bda0:	ba 00 a0 01 	add  %g2, 1, %i5
4000bda4:	10 bf f9 c6 	b  4000a4bc <_vfiprintf_r+0x200>
4000bda8:	c2 27 bf 08 	st  %g1, [ %fp + -248 ]
4000bdac:	10 bf fc 61 	b  4000af30 <_vfiprintf_r+0xc74>
4000bdb0:	88 10 00 02 	mov  %g2, %g4
4000bdb4:	b2 0e 7f fc 	and  %i1, -4, %i1
4000bdb8:	82 20 40 19 	sub  %g1, %i1, %g1
4000bdbc:	c2 27 bf 54 	st  %g1, [ %fp + -172 ]
4000bdc0:	80 a0 60 00 	cmp  %g1, 0
4000bdc4:	12 bf ff 7b 	bne  4000bbb0 <_vfiprintf_r+0x18f4>
4000bdc8:	b4 06 a0 08 	add  %i2, 8, %i2
4000bdcc:	10 bf f9 b9 	b  4000a4b0 <_vfiprintf_r+0x1f4>
4000bdd0:	c2 15 60 0c 	lduh  [ %l5 + 0xc ], %g1
4000bdd4:	92 10 00 15 	mov  %l5, %o1
4000bdd8:	40 00 01 b8 	call  4000c4b8 <__sfvwrite_r>
4000bddc:	90 10 00 12 	mov  %l2, %o0
4000bde0:	10 bf f9 b4 	b  4000a4b0 <_vfiprintf_r+0x1f4>
4000bde4:	c2 15 60 0c 	lduh  [ %l5 + 0xc ], %g1
4000bde8:	c2 07 bf 04 	ld  [ %fp + -252 ], %g1
4000bdec:	f6 00 40 00 	ld  [ %g1 ], %i3
4000bdf0:	82 00 60 04 	add  %g1, 4, %g1
4000bdf4:	80 a6 e0 00 	cmp  %i3, 0
4000bdf8:	16 80 00 03 	bge  4000be04 <_vfiprintf_r+0x1b48>
4000bdfc:	c2 27 bf 04 	st  %g1, [ %fp + -252 ]
4000be00:	b6 10 3f ff 	mov  -1, %i3
4000be04:	c4 0c 60 01 	ldub  [ %l1 + 1 ], %g2
4000be08:	a2 10 00 03 	mov  %g3, %l1
4000be0c:	10 bf f9 d3 	b  4000a558 <_vfiprintf_r+0x29c>
4000be10:	83 28 a0 18 	sll  %g2, 0x18, %g1

4000be14 <vfiprintf>:
4000be14:	96 10 00 0a 	mov  %o2, %o3
4000be18:	03 10 00 3c 	sethi  %hi(0x4000f000), %g1
4000be1c:	94 10 00 09 	mov  %o1, %o2
4000be20:	92 10 00 08 	mov  %o0, %o1
4000be24:	d0 00 63 8c 	ld  [ %g1 + 0x38c ], %o0
4000be28:	82 13 c0 00 	mov  %o7, %g1
4000be2c:	7f ff f9 24 	call  4000a2bc <_vfiprintf_r>
4000be30:	9e 10 40 00 	mov  %g1, %o7

4000be34 <__sbprintf>:
4000be34:	9d e3 bb 38 	save  %sp, -1224, %sp
4000be38:	84 10 24 00 	mov  0x400, %g2
4000be3c:	86 07 bc 00 	add  %fp, -1024, %g3
4000be40:	fa 06 60 20 	ld  [ %i1 + 0x20 ], %i5
4000be44:	c2 16 60 0c 	lduh  [ %i1 + 0xc ], %g1
4000be48:	de 06 60 60 	ld  [ %i1 + 0x60 ], %o7
4000be4c:	82 08 7f fd 	and  %g1, -3, %g1
4000be50:	c8 06 60 28 	ld  [ %i1 + 0x28 ], %g4
4000be54:	f8 16 60 0e 	lduh  [ %i1 + 0xe ], %i4
4000be58:	fa 27 bb bc 	st  %i5, [ %fp + -1092 ]
4000be5c:	c2 37 bb a8 	sth  %g1, [ %fp + -1112 ]
4000be60:	de 27 bb fc 	st  %o7, [ %fp + -1028 ]
4000be64:	f8 37 bb aa 	sth  %i4, [ %fp + -1110 ]
4000be68:	c8 27 bb c4 	st  %g4, [ %fp + -1084 ]
4000be6c:	c6 27 bb 9c 	st  %g3, [ %fp + -1124 ]
4000be70:	c6 27 bb ac 	st  %g3, [ %fp + -1108 ]
4000be74:	c4 27 bb a4 	st  %g2, [ %fp + -1116 ]
4000be78:	c4 27 bb b0 	st  %g2, [ %fp + -1104 ]
4000be7c:	c0 27 bb b4 	clr  [ %fp + -1100 ]
4000be80:	96 10 00 1b 	mov  %i3, %o3
4000be84:	94 10 00 1a 	mov  %i2, %o2
4000be88:	92 07 bb 9c 	add  %fp, -1124, %o1
4000be8c:	7f ff f9 0c 	call  4000a2bc <_vfiprintf_r>
4000be90:	90 10 00 18 	mov  %i0, %o0
4000be94:	ba 92 20 00 	orcc  %o0, 0, %i5
4000be98:	16 80 00 0b 	bge  4000bec4 <__sbprintf+0x90>
4000be9c:	92 07 bb 9c 	add  %fp, -1124, %o1
4000bea0:	c2 17 bb a8 	lduh  [ %fp + -1112 ], %g1
4000bea4:	80 88 60 40 	btst  0x40, %g1
4000bea8:	02 80 00 05 	be  4000bebc <__sbprintf+0x88>
4000beac:	01 00 00 00 	nop 
4000beb0:	c2 16 60 0c 	lduh  [ %i1 + 0xc ], %g1
4000beb4:	82 10 60 40 	or  %g1, 0x40, %g1
4000beb8:	c2 36 60 0c 	sth  %g1, [ %i1 + 0xc ]
4000bebc:	81 c7 e0 08 	ret 
4000bec0:	91 e8 00 1d 	restore  %g0, %i5, %o0
4000bec4:	7f ff ec 1c 	call  40006f34 <_fflush_r>
4000bec8:	90 10 00 18 	mov  %i0, %o0
4000becc:	80 a2 20 00 	cmp  %o0, 0
4000bed0:	32 bf ff f4 	bne,a   4000bea0 <__sbprintf+0x6c>
4000bed4:	ba 10 3f ff 	mov  -1, %i5
4000bed8:	10 bf ff f3 	b  4000bea4 <__sbprintf+0x70>
4000bedc:	c2 17 bb a8 	lduh  [ %fp + -1112 ], %g1

4000bee0 <_write_r>:
4000bee0:	9d e3 bf a0 	save  %sp, -96, %sp
4000bee4:	3b 10 00 3e 	sethi  %hi(0x4000f800), %i5
4000bee8:	94 10 00 1b 	mov  %i3, %o2
4000beec:	c0 27 63 18 	clr  [ %i5 + 0x318 ]
4000bef0:	92 10 00 1a 	mov  %i2, %o1
4000bef4:	40 00 07 a8 	call  4000dd94 <write>
4000bef8:	90 10 00 19 	mov  %i1, %o0
4000befc:	80 a2 3f ff 	cmp  %o0, -1
4000bf00:	02 80 00 04 	be  4000bf10 <_write_r+0x30>
4000bf04:	c2 07 63 18 	ld  [ %i5 + 0x318 ], %g1
4000bf08:	81 c7 e0 08 	ret 
4000bf0c:	91 e8 00 08 	restore  %g0, %o0, %o0
4000bf10:	80 a0 60 00 	cmp  %g1, 0
4000bf14:	02 bf ff fd 	be  4000bf08 <_write_r+0x28>
4000bf18:	01 00 00 00 	nop 
4000bf1c:	c2 26 00 00 	st  %g1, [ %i0 ]
4000bf20:	81 c7 e0 08 	ret 
4000bf24:	91 e8 00 08 	restore  %g0, %o0, %o0

4000bf28 <_calloc_r>:
4000bf28:	9d e3 bf a0 	save  %sp, -96, %sp
4000bf2c:	92 10 00 1a 	mov  %i2, %o1
4000bf30:	40 00 07 eb 	call  4000dedc <.umul>
4000bf34:	90 10 00 19 	mov  %i1, %o0
4000bf38:	92 10 00 08 	mov  %o0, %o1
4000bf3c:	7f ff ef 03 	call  40007b48 <_malloc_r>
4000bf40:	90 10 00 18 	mov  %i0, %o0
4000bf44:	b0 92 20 00 	orcc  %o0, 0, %i0
4000bf48:	02 80 00 16 	be  4000bfa0 <_calloc_r+0x78>
4000bf4c:	01 00 00 00 	nop 
4000bf50:	d4 06 3f fc 	ld  [ %i0 + -4 ], %o2
4000bf54:	94 0a bf fc 	and  %o2, -4, %o2
4000bf58:	94 02 bf fc 	add  %o2, -4, %o2
4000bf5c:	80 a2 a0 24 	cmp  %o2, 0x24
4000bf60:	18 80 00 0e 	bgu  4000bf98 <_calloc_r+0x70>
4000bf64:	80 a2 a0 13 	cmp  %o2, 0x13
4000bf68:	08 80 00 07 	bleu  4000bf84 <_calloc_r+0x5c>
4000bf6c:	82 10 00 18 	mov  %i0, %g1
4000bf70:	c0 26 00 00 	clr  [ %i0 ]
4000bf74:	c0 26 20 04 	clr  [ %i0 + 4 ]
4000bf78:	80 a2 a0 1b 	cmp  %o2, 0x1b
4000bf7c:	18 80 00 0b 	bgu  4000bfa8 <_calloc_r+0x80>
4000bf80:	82 06 20 08 	add  %i0, 8, %g1
4000bf84:	c0 20 40 00 	clr  [ %g1 ]
4000bf88:	c0 20 60 04 	clr  [ %g1 + 4 ]
4000bf8c:	c0 20 60 08 	clr  [ %g1 + 8 ]
4000bf90:	81 c7 e0 08 	ret 
4000bf94:	81 e8 00 00 	restore 
4000bf98:	7f ff f1 1f 	call  40008414 <memset>
4000bf9c:	92 10 20 00 	clr  %o1
4000bfa0:	81 c7 e0 08 	ret 
4000bfa4:	81 e8 00 00 	restore 
4000bfa8:	c0 26 20 08 	clr  [ %i0 + 8 ]
4000bfac:	c0 26 20 0c 	clr  [ %i0 + 0xc ]
4000bfb0:	80 a2 a0 24 	cmp  %o2, 0x24
4000bfb4:	12 bf ff f4 	bne  4000bf84 <_calloc_r+0x5c>
4000bfb8:	82 06 20 10 	add  %i0, 0x10, %g1
4000bfbc:	c0 26 20 10 	clr  [ %i0 + 0x10 ]
4000bfc0:	82 06 20 18 	add  %i0, 0x18, %g1
4000bfc4:	10 bf ff f0 	b  4000bf84 <_calloc_r+0x5c>
4000bfc8:	c0 26 20 14 	clr  [ %i0 + 0x14 ]

4000bfcc <_close_r>:
4000bfcc:	9d e3 bf a0 	save  %sp, -96, %sp
4000bfd0:	3b 10 00 3e 	sethi  %hi(0x4000f800), %i5
4000bfd4:	90 10 00 19 	mov  %i1, %o0
4000bfd8:	40 00 07 88 	call  4000ddf8 <close>
4000bfdc:	c0 27 63 18 	clr  [ %i5 + 0x318 ]
4000bfe0:	80 a2 3f ff 	cmp  %o0, -1
4000bfe4:	02 80 00 04 	be  4000bff4 <_close_r+0x28>
4000bfe8:	c2 07 63 18 	ld  [ %i5 + 0x318 ], %g1
4000bfec:	81 c7 e0 08 	ret 
4000bff0:	91 e8 00 08 	restore  %g0, %o0, %o0
4000bff4:	80 a0 60 00 	cmp  %g1, 0
4000bff8:	02 bf ff fd 	be  4000bfec <_close_r+0x20>
4000bffc:	01 00 00 00 	nop 
4000c000:	c2 26 00 00 	st  %g1, [ %i0 ]
4000c004:	81 c7 e0 08 	ret 
4000c008:	91 e8 00 08 	restore  %g0, %o0, %o0

4000c00c <_fclose_r>:
4000c00c:	9d e3 bf a0 	save  %sp, -96, %sp
4000c010:	80 a6 60 00 	cmp  %i1, 0
4000c014:	02 80 00 3e 	be  4000c10c <_fclose_r+0x100>
4000c018:	ba 10 00 18 	mov  %i0, %i5
4000c01c:	80 a6 20 00 	cmp  %i0, 0
4000c020:	02 80 00 07 	be  4000c03c <_fclose_r+0x30>
4000c024:	03 10 00 3b 	sethi  %hi(0x4000ec00), %g1
4000c028:	c2 06 20 18 	ld  [ %i0 + 0x18 ], %g1
4000c02c:	80 a0 60 00 	cmp  %g1, 0
4000c030:	02 80 00 3b 	be  4000c11c <_fclose_r+0x110>
4000c034:	01 00 00 00 	nop 
4000c038:	03 10 00 3b 	sethi  %hi(0x4000ec00), %g1
4000c03c:	82 10 62 50 	or  %g1, 0x250, %g1	! 4000ee50 <__sf_fake_stdin>
4000c040:	80 a6 40 01 	cmp  %i1, %g1
4000c044:	02 80 00 34 	be  4000c114 <_fclose_r+0x108>
4000c048:	03 10 00 3b 	sethi  %hi(0x4000ec00), %g1
4000c04c:	82 10 62 30 	or  %g1, 0x230, %g1	! 4000ee30 <__sf_fake_stdout>
4000c050:	80 a6 40 01 	cmp  %i1, %g1
4000c054:	02 80 00 36 	be  4000c12c <_fclose_r+0x120>
4000c058:	03 10 00 3b 	sethi  %hi(0x4000ec00), %g1
4000c05c:	82 10 62 10 	or  %g1, 0x210, %g1	! 4000ee10 <__sf_fake_stderr>
4000c060:	80 a6 40 01 	cmp  %i1, %g1
4000c064:	22 80 00 02 	be,a   4000c06c <_fclose_r+0x60>
4000c068:	f2 07 60 0c 	ld  [ %i5 + 0xc ], %i1
4000c06c:	c2 56 60 0c 	ldsh  [ %i1 + 0xc ], %g1
4000c070:	80 a0 60 00 	cmp  %g1, 0
4000c074:	02 80 00 26 	be  4000c10c <_fclose_r+0x100>
4000c078:	92 10 00 19 	mov  %i1, %o1
4000c07c:	7f ff eb 18 	call  40006cdc <__sflush_r>
4000c080:	90 10 00 1d 	mov  %i5, %o0
4000c084:	c2 06 60 30 	ld  [ %i1 + 0x30 ], %g1
4000c088:	80 a0 60 00 	cmp  %g1, 0
4000c08c:	02 80 00 08 	be  4000c0ac <_fclose_r+0xa0>
4000c090:	b0 10 00 08 	mov  %o0, %i0
4000c094:	d2 06 60 20 	ld  [ %i1 + 0x20 ], %o1
4000c098:	9f c0 40 00 	call  %g1
4000c09c:	90 10 00 1d 	mov  %i5, %o0
4000c0a0:	80 a2 20 00 	cmp  %o0, 0
4000c0a4:	26 80 00 24 	bl,a   4000c134 <_fclose_r+0x128>
4000c0a8:	c2 16 60 0c 	lduh  [ %i1 + 0xc ], %g1
4000c0ac:	c2 16 60 0c 	lduh  [ %i1 + 0xc ], %g1
4000c0b0:	80 88 60 80 	btst  0x80, %g1
4000c0b4:	32 80 00 24 	bne,a   4000c144 <_fclose_r+0x138>
4000c0b8:	d2 06 60 10 	ld  [ %i1 + 0x10 ], %o1
4000c0bc:	d2 06 60 34 	ld  [ %i1 + 0x34 ], %o1
4000c0c0:	80 a2 60 00 	cmp  %o1, 0
4000c0c4:	02 80 00 08 	be  4000c0e4 <_fclose_r+0xd8>
4000c0c8:	82 06 60 44 	add  %i1, 0x44, %g1
4000c0cc:	80 a2 40 01 	cmp  %o1, %g1
4000c0d0:	22 80 00 05 	be,a   4000c0e4 <_fclose_r+0xd8>
4000c0d4:	c0 26 60 34 	clr  [ %i1 + 0x34 ]
4000c0d8:	7f ff ed 03 	call  400074e4 <_free_r>
4000c0dc:	90 10 00 1d 	mov  %i5, %o0
4000c0e0:	c0 26 60 34 	clr  [ %i1 + 0x34 ]
4000c0e4:	d2 06 60 48 	ld  [ %i1 + 0x48 ], %o1
4000c0e8:	80 a2 60 00 	cmp  %o1, 0
4000c0ec:	22 80 00 06 	be,a   4000c104 <_fclose_r+0xf8>
4000c0f0:	c0 36 60 0c 	clrh  [ %i1 + 0xc ]
4000c0f4:	7f ff ec fc 	call  400074e4 <_free_r>
4000c0f8:	90 10 00 1d 	mov  %i5, %o0
4000c0fc:	c0 26 60 48 	clr  [ %i1 + 0x48 ]
4000c100:	c0 36 60 0c 	clrh  [ %i1 + 0xc ]
4000c104:	81 c7 e0 08 	ret 
4000c108:	81 e8 00 00 	restore 
4000c10c:	81 c7 e0 08 	ret 
4000c110:	91 e8 20 00 	restore  %g0, 0, %o0
4000c114:	10 bf ff d6 	b  4000c06c <_fclose_r+0x60>
4000c118:	f2 07 60 04 	ld  [ %i5 + 4 ], %i1
4000c11c:	7f ff ec ad 	call  400073d0 <__sinit>
4000c120:	90 10 00 18 	mov  %i0, %o0
4000c124:	10 bf ff c6 	b  4000c03c <_fclose_r+0x30>
4000c128:	03 10 00 3b 	sethi  %hi(0x4000ec00), %g1
4000c12c:	10 bf ff d0 	b  4000c06c <_fclose_r+0x60>
4000c130:	f2 07 60 08 	ld  [ %i5 + 8 ], %i1
4000c134:	80 88 60 80 	btst  0x80, %g1
4000c138:	02 bf ff e1 	be  4000c0bc <_fclose_r+0xb0>
4000c13c:	b0 10 3f ff 	mov  -1, %i0
4000c140:	d2 06 60 10 	ld  [ %i1 + 0x10 ], %o1
4000c144:	7f ff ec e8 	call  400074e4 <_free_r>
4000c148:	90 10 00 1d 	mov  %i5, %o0
4000c14c:	10 bf ff dd 	b  4000c0c0 <_fclose_r+0xb4>
4000c150:	d2 06 60 34 	ld  [ %i1 + 0x34 ], %o1

4000c154 <fclose>:
4000c154:	9d e3 bf a0 	save  %sp, -96, %sp
4000c158:	ba 96 20 00 	orcc  %i0, 0, %i5
4000c15c:	02 80 00 3f 	be  4000c258 <fclose+0x104>
4000c160:	03 10 00 3c 	sethi  %hi(0x4000f000), %g1
4000c164:	f8 00 63 8c 	ld  [ %g1 + 0x38c ], %i4	! 4000f38c <_impure_ptr>
4000c168:	80 a7 20 00 	cmp  %i4, 0
4000c16c:	02 80 00 07 	be  4000c188 <fclose+0x34>
4000c170:	03 10 00 3b 	sethi  %hi(0x4000ec00), %g1
4000c174:	c2 07 20 18 	ld  [ %i4 + 0x18 ], %g1
4000c178:	80 a0 60 00 	cmp  %g1, 0
4000c17c:	02 80 00 3b 	be  4000c268 <fclose+0x114>
4000c180:	01 00 00 00 	nop 
4000c184:	03 10 00 3b 	sethi  %hi(0x4000ec00), %g1
4000c188:	82 10 62 50 	or  %g1, 0x250, %g1	! 4000ee50 <__sf_fake_stdin>
4000c18c:	80 a7 40 01 	cmp  %i5, %g1
4000c190:	02 80 00 34 	be  4000c260 <fclose+0x10c>
4000c194:	03 10 00 3b 	sethi  %hi(0x4000ec00), %g1
4000c198:	82 10 62 30 	or  %g1, 0x230, %g1	! 4000ee30 <__sf_fake_stdout>
4000c19c:	80 a7 40 01 	cmp  %i5, %g1
4000c1a0:	02 80 00 36 	be  4000c278 <fclose+0x124>
4000c1a4:	03 10 00 3b 	sethi  %hi(0x4000ec00), %g1
4000c1a8:	82 10 62 10 	or  %g1, 0x210, %g1	! 4000ee10 <__sf_fake_stderr>
4000c1ac:	80 a7 40 01 	cmp  %i5, %g1
4000c1b0:	22 80 00 02 	be,a   4000c1b8 <fclose+0x64>
4000c1b4:	fa 07 20 0c 	ld  [ %i4 + 0xc ], %i5
4000c1b8:	c2 57 60 0c 	ldsh  [ %i5 + 0xc ], %g1
4000c1bc:	80 a0 60 00 	cmp  %g1, 0
4000c1c0:	02 80 00 26 	be  4000c258 <fclose+0x104>
4000c1c4:	92 10 00 1d 	mov  %i5, %o1
4000c1c8:	7f ff ea c5 	call  40006cdc <__sflush_r>
4000c1cc:	90 10 00 1c 	mov  %i4, %o0
4000c1d0:	c2 07 60 30 	ld  [ %i5 + 0x30 ], %g1
4000c1d4:	80 a0 60 00 	cmp  %g1, 0
4000c1d8:	02 80 00 08 	be  4000c1f8 <fclose+0xa4>
4000c1dc:	b0 10 00 08 	mov  %o0, %i0
4000c1e0:	d2 07 60 20 	ld  [ %i5 + 0x20 ], %o1
4000c1e4:	9f c0 40 00 	call  %g1
4000c1e8:	90 10 00 1c 	mov  %i4, %o0
4000c1ec:	80 a2 20 00 	cmp  %o0, 0
4000c1f0:	26 80 00 24 	bl,a   4000c280 <fclose+0x12c>
4000c1f4:	c2 17 60 0c 	lduh  [ %i5 + 0xc ], %g1
4000c1f8:	c2 17 60 0c 	lduh  [ %i5 + 0xc ], %g1
4000c1fc:	80 88 60 80 	btst  0x80, %g1
4000c200:	32 80 00 24 	bne,a   4000c290 <fclose+0x13c>
4000c204:	d2 07 60 10 	ld  [ %i5 + 0x10 ], %o1
4000c208:	d2 07 60 34 	ld  [ %i5 + 0x34 ], %o1
4000c20c:	80 a2 60 00 	cmp  %o1, 0
4000c210:	02 80 00 08 	be  4000c230 <fclose+0xdc>
4000c214:	82 07 60 44 	add  %i5, 0x44, %g1
4000c218:	80 a2 40 01 	cmp  %o1, %g1
4000c21c:	22 80 00 05 	be,a   4000c230 <fclose+0xdc>
4000c220:	c0 27 60 34 	clr  [ %i5 + 0x34 ]
4000c224:	7f ff ec b0 	call  400074e4 <_free_r>
4000c228:	90 10 00 1c 	mov  %i4, %o0
4000c22c:	c0 27 60 34 	clr  [ %i5 + 0x34 ]
4000c230:	d2 07 60 48 	ld  [ %i5 + 0x48 ], %o1
4000c234:	80 a2 60 00 	cmp  %o1, 0
4000c238:	22 80 00 06 	be,a   4000c250 <fclose+0xfc>
4000c23c:	c0 37 60 0c 	clrh  [ %i5 + 0xc ]
4000c240:	7f ff ec a9 	call  400074e4 <_free_r>
4000c244:	90 10 00 1c 	mov  %i4, %o0
4000c248:	c0 27 60 48 	clr  [ %i5 + 0x48 ]
4000c24c:	c0 37 60 0c 	clrh  [ %i5 + 0xc ]
4000c250:	81 c7 e0 08 	ret 
4000c254:	81 e8 00 00 	restore 
4000c258:	81 c7 e0 08 	ret 
4000c25c:	91 e8 20 00 	restore  %g0, 0, %o0
4000c260:	10 bf ff d6 	b  4000c1b8 <fclose+0x64>
4000c264:	fa 07 20 04 	ld  [ %i4 + 4 ], %i5
4000c268:	7f ff ec 5a 	call  400073d0 <__sinit>
4000c26c:	90 10 00 1c 	mov  %i4, %o0
4000c270:	10 bf ff c6 	b  4000c188 <fclose+0x34>
4000c274:	03 10 00 3b 	sethi  %hi(0x4000ec00), %g1
4000c278:	10 bf ff d0 	b  4000c1b8 <fclose+0x64>
4000c27c:	fa 07 20 08 	ld  [ %i4 + 8 ], %i5
4000c280:	80 88 60 80 	btst  0x80, %g1
4000c284:	02 bf ff e1 	be  4000c208 <fclose+0xb4>
4000c288:	b0 10 3f ff 	mov  -1, %i0
4000c28c:	d2 07 60 10 	ld  [ %i5 + 0x10 ], %o1
4000c290:	7f ff ec 95 	call  400074e4 <_free_r>
4000c294:	90 10 00 1c 	mov  %i4, %o0
4000c298:	10 bf ff dd 	b  4000c20c <fclose+0xb8>
4000c29c:	d2 07 60 34 	ld  [ %i5 + 0x34 ], %o1

4000c2a0 <__fputwc>:
4000c2a0:	9d e3 bf 98 	save  %sp, -104, %sp
4000c2a4:	40 00 01 ee 	call  4000ca5c <__locale_mb_cur_max>
4000c2a8:	01 00 00 00 	nop 
4000c2ac:	80 a2 20 01 	cmp  %o0, 1
4000c2b0:	12 80 00 05 	bne  4000c2c4 <__fputwc+0x24>
4000c2b4:	82 06 7f ff 	add  %i1, -1, %g1
4000c2b8:	80 a0 60 fe 	cmp  %g1, 0xfe
4000c2bc:	28 80 00 0d 	bleu,a   4000c2f0 <__fputwc+0x50>
4000c2c0:	f2 2f bf f8 	stb  %i1, [ %fp + -8 ]
4000c2c4:	96 06 a0 58 	add  %i2, 0x58, %o3
4000c2c8:	94 10 00 19 	mov  %i1, %o2
4000c2cc:	92 07 bf f8 	add  %fp, -8, %o1
4000c2d0:	40 00 05 f6 	call  4000daa8 <_wcrtomb_r>
4000c2d4:	90 10 00 18 	mov  %i0, %o0
4000c2d8:	80 a2 3f ff 	cmp  %o0, -1
4000c2dc:	22 80 00 28 	be,a   4000c37c <__fputwc+0xdc>
4000c2e0:	c2 16 a0 0c 	lduh  [ %i2 + 0xc ], %g1
4000c2e4:	80 a2 20 00 	cmp  %o0, 0
4000c2e8:	02 80 00 19 	be  4000c34c <__fputwc+0xac>
4000c2ec:	90 10 00 19 	mov  %i1, %o0
4000c2f0:	c2 06 a0 08 	ld  [ %i2 + 8 ], %g1
4000c2f4:	82 00 7f ff 	add  %g1, -1, %g1
4000c2f8:	c2 26 a0 08 	st  %g1, [ %i2 + 8 ]
4000c2fc:	80 a0 60 00 	cmp  %g1, 0
4000c300:	16 80 00 0e 	bge  4000c338 <__fputwc+0x98>
4000c304:	d2 0f bf f8 	ldub  [ %fp + -8 ], %o1
4000c308:	c6 06 a0 18 	ld  [ %i2 + 0x18 ], %g3
4000c30c:	80 a0 40 03 	cmp  %g1, %g3
4000c310:	16 80 00 03 	bge  4000c31c <__fputwc+0x7c>
4000c314:	84 10 20 01 	mov  1, %g2
4000c318:	84 10 20 00 	clr  %g2
4000c31c:	80 88 a0 ff 	btst  0xff, %g2
4000c320:	02 80 00 0d 	be  4000c354 <__fputwc+0xb4>
4000c324:	83 2a 60 18 	sll  %o1, 0x18, %g1
4000c328:	83 38 60 18 	sra  %g1, 0x18, %g1
4000c32c:	80 a0 60 0a 	cmp  %g1, 0xa
4000c330:	02 80 00 0a 	be  4000c358 <__fputwc+0xb8>
4000c334:	94 10 00 1a 	mov  %i2, %o2
4000c338:	c2 06 80 00 	ld  [ %i2 ], %g1
4000c33c:	84 00 60 01 	add  %g1, 1, %g2
4000c340:	c4 26 80 00 	st  %g2, [ %i2 ]
4000c344:	d2 28 40 00 	stb  %o1, [ %g1 ]
4000c348:	90 10 00 19 	mov  %i1, %o0
4000c34c:	81 c7 e0 08 	ret 
4000c350:	91 e8 00 08 	restore  %g0, %o0, %o0
4000c354:	94 10 00 1a 	mov  %i2, %o2
4000c358:	92 0a 60 ff 	and  %o1, 0xff, %o1
4000c35c:	40 00 04 fe 	call  4000d754 <__swbuf_r>
4000c360:	90 10 00 18 	mov  %i0, %o0
4000c364:	80 a2 3f ff 	cmp  %o0, -1
4000c368:	12 bf ff f9 	bne  4000c34c <__fputwc+0xac>
4000c36c:	90 10 00 19 	mov  %i1, %o0
4000c370:	90 10 3f ff 	mov  -1, %o0
4000c374:	81 c7 e0 08 	ret 
4000c378:	91 e8 00 08 	restore  %g0, %o0, %o0
4000c37c:	82 10 60 40 	or  %g1, 0x40, %g1
4000c380:	10 bf ff f3 	b  4000c34c <__fputwc+0xac>
4000c384:	c2 36 a0 0c 	sth  %g1, [ %i2 + 0xc ]

4000c388 <_fputwc_r>:
4000c388:	05 00 00 08 	sethi  %hi(0x2000), %g2
4000c38c:	c2 12 a0 0c 	lduh  [ %o2 + 0xc ], %g1
4000c390:	80 88 80 01 	btst  %g2, %g1
4000c394:	12 80 00 06 	bne  4000c3ac <_fputwc_r+0x24>
4000c398:	82 10 40 02 	or  %g1, %g2, %g1
4000c39c:	c6 02 a0 60 	ld  [ %o2 + 0x60 ], %g3
4000c3a0:	84 10 c0 02 	or  %g3, %g2, %g2
4000c3a4:	c2 32 a0 0c 	sth  %g1, [ %o2 + 0xc ]
4000c3a8:	c4 22 a0 60 	st  %g2, [ %o2 + 0x60 ]
4000c3ac:	82 13 c0 00 	mov  %o7, %g1
4000c3b0:	7f ff ff bc 	call  4000c2a0 <__fputwc>
4000c3b4:	9e 10 40 00 	mov  %g1, %o7

4000c3b8 <fputwc>:
4000c3b8:	9d e3 bf a0 	save  %sp, -96, %sp
4000c3bc:	03 10 00 3c 	sethi  %hi(0x4000f000), %g1
4000c3c0:	fa 00 63 8c 	ld  [ %g1 + 0x38c ], %i5	! 4000f38c <_impure_ptr>
4000c3c4:	80 a7 60 00 	cmp  %i5, 0
4000c3c8:	02 80 00 06 	be  4000c3e0 <fputwc+0x28>
4000c3cc:	b4 10 00 19 	mov  %i1, %i2
4000c3d0:	c2 07 60 18 	ld  [ %i5 + 0x18 ], %g1
4000c3d4:	80 a0 60 00 	cmp  %g1, 0
4000c3d8:	02 80 00 1c 	be  4000c448 <fputwc+0x90>
4000c3dc:	01 00 00 00 	nop 
4000c3e0:	03 10 00 3b 	sethi  %hi(0x4000ec00), %g1
4000c3e4:	82 10 62 50 	or  %g1, 0x250, %g1	! 4000ee50 <__sf_fake_stdin>
4000c3e8:	80 a6 80 01 	cmp  %i2, %g1
4000c3ec:	22 80 00 0b 	be,a   4000c418 <fputwc+0x60>
4000c3f0:	f4 07 60 04 	ld  [ %i5 + 4 ], %i2
4000c3f4:	03 10 00 3b 	sethi  %hi(0x4000ec00), %g1
4000c3f8:	82 10 62 30 	or  %g1, 0x230, %g1	! 4000ee30 <__sf_fake_stdout>
4000c3fc:	80 a6 80 01 	cmp  %i2, %g1
4000c400:	02 80 00 1b 	be  4000c46c <fputwc+0xb4>
4000c404:	03 10 00 3b 	sethi  %hi(0x4000ec00), %g1
4000c408:	82 10 62 10 	or  %g1, 0x210, %g1	! 4000ee10 <__sf_fake_stderr>
4000c40c:	80 a6 80 01 	cmp  %i2, %g1
4000c410:	22 80 00 02 	be,a   4000c418 <fputwc+0x60>
4000c414:	f4 07 60 0c 	ld  [ %i5 + 0xc ], %i2
4000c418:	c2 16 a0 0c 	lduh  [ %i2 + 0xc ], %g1
4000c41c:	05 00 00 08 	sethi  %hi(0x2000), %g2
4000c420:	80 88 80 01 	btst  %g2, %g1
4000c424:	12 80 00 07 	bne  4000c440 <fputwc+0x88>
4000c428:	b2 10 00 18 	mov  %i0, %i1
4000c42c:	c6 06 a0 60 	ld  [ %i2 + 0x60 ], %g3
4000c430:	82 10 40 02 	or  %g1, %g2, %g1
4000c434:	84 10 c0 02 	or  %g3, %g2, %g2
4000c438:	c2 36 a0 0c 	sth  %g1, [ %i2 + 0xc ]
4000c43c:	c4 26 a0 60 	st  %g2, [ %i2 + 0x60 ]
4000c440:	7f ff ff 98 	call  4000c2a0 <__fputwc>
4000c444:	91 e8 00 1d 	restore  %g0, %i5, %o0
4000c448:	7f ff eb e2 	call  400073d0 <__sinit>
4000c44c:	90 10 00 1d 	mov  %i5, %o0
4000c450:	03 10 00 3b 	sethi  %hi(0x4000ec00), %g1
4000c454:	82 10 62 50 	or  %g1, 0x250, %g1	! 4000ee50 <__sf_fake_stdin>
4000c458:	80 a6 80 01 	cmp  %i2, %g1
4000c45c:	12 bf ff e7 	bne  4000c3f8 <fputwc+0x40>
4000c460:	03 10 00 3b 	sethi  %hi(0x4000ec00), %g1
4000c464:	10 bf ff ed 	b  4000c418 <fputwc+0x60>
4000c468:	f4 07 60 04 	ld  [ %i5 + 4 ], %i2
4000c46c:	10 bf ff eb 	b  4000c418 <fputwc+0x60>
4000c470:	f4 07 60 08 	ld  [ %i5 + 8 ], %i2

4000c474 <_fstat_r>:
4000c474:	9d e3 bf a0 	save  %sp, -96, %sp
4000c478:	3b 10 00 3e 	sethi  %hi(0x4000f800), %i5
4000c47c:	92 10 00 1a 	mov  %i2, %o1
4000c480:	c0 27 63 18 	clr  [ %i5 + 0x318 ]
4000c484:	40 00 06 5d 	call  4000ddf8 <close>
4000c488:	90 10 00 19 	mov  %i1, %o0
4000c48c:	80 a2 3f ff 	cmp  %o0, -1
4000c490:	02 80 00 04 	be  4000c4a0 <_fstat_r+0x2c>
4000c494:	c2 07 63 18 	ld  [ %i5 + 0x318 ], %g1
4000c498:	81 c7 e0 08 	ret 
4000c49c:	91 e8 00 08 	restore  %g0, %o0, %o0
4000c4a0:	80 a0 60 00 	cmp  %g1, 0
4000c4a4:	02 bf ff fd 	be  4000c498 <_fstat_r+0x24>
4000c4a8:	01 00 00 00 	nop 
4000c4ac:	c2 26 00 00 	st  %g1, [ %i0 ]
4000c4b0:	81 c7 e0 08 	ret 
4000c4b4:	91 e8 00 08 	restore  %g0, %o0, %o0

4000c4b8 <__sfvwrite_r>:
4000c4b8:	9d e3 bf a0 	save  %sp, -96, %sp
4000c4bc:	c2 06 a0 08 	ld  [ %i2 + 8 ], %g1
4000c4c0:	80 a0 60 00 	cmp  %g1, 0
4000c4c4:	02 80 00 63 	be  4000c650 <__sfvwrite_r+0x198>
4000c4c8:	01 00 00 00 	nop 
4000c4cc:	c2 16 60 0c 	lduh  [ %i1 + 0xc ], %g1
4000c4d0:	80 88 60 08 	btst  8, %g1
4000c4d4:	02 80 00 61 	be  4000c658 <__sfvwrite_r+0x1a0>
4000c4d8:	92 10 00 19 	mov  %i1, %o1
4000c4dc:	c4 06 60 10 	ld  [ %i1 + 0x10 ], %g2
4000c4e0:	80 a0 a0 00 	cmp  %g2, 0
4000c4e4:	02 80 00 5d 	be  4000c658 <__sfvwrite_r+0x1a0>
4000c4e8:	01 00 00 00 	nop 
4000c4ec:	80 88 60 02 	btst  2, %g1
4000c4f0:	02 80 00 24 	be  4000c580 <__sfvwrite_r+0xc8>
4000c4f4:	fa 06 80 00 	ld  [ %i2 ], %i5
4000c4f8:	c2 06 60 28 	ld  [ %i1 + 0x28 ], %g1
4000c4fc:	d2 06 60 20 	ld  [ %i1 + 0x20 ], %o1
4000c500:	b6 10 20 00 	clr  %i3
4000c504:	b8 10 20 00 	clr  %i4
4000c508:	21 1f ff ff 	sethi  %hi(0x7ffffc00), %l0
4000c50c:	94 10 00 1b 	mov  %i3, %o2
4000c510:	80 a7 20 00 	cmp  %i4, 0
4000c514:	02 80 00 17 	be  4000c570 <__sfvwrite_r+0xb8>
4000c518:	90 10 00 18 	mov  %i0, %o0
4000c51c:	80 a7 00 10 	cmp  %i4, %l0
4000c520:	08 80 00 03 	bleu  4000c52c <__sfvwrite_r+0x74>
4000c524:	96 10 00 1c 	mov  %i4, %o3
4000c528:	96 10 00 10 	mov  %l0, %o3
4000c52c:	9f c0 40 00 	call  %g1
4000c530:	01 00 00 00 	nop 
4000c534:	80 a2 20 00 	cmp  %o0, 0
4000c538:	04 80 00 55 	ble  4000c68c <__sfvwrite_r+0x1d4>
4000c53c:	b6 06 c0 08 	add  %i3, %o0, %i3
4000c540:	c2 06 a0 08 	ld  [ %i2 + 8 ], %g1
4000c544:	82 20 40 08 	sub  %g1, %o0, %g1
4000c548:	c2 26 a0 08 	st  %g1, [ %i2 + 8 ]
4000c54c:	80 a0 60 00 	cmp  %g1, 0
4000c550:	02 80 00 40 	be  4000c650 <__sfvwrite_r+0x198>
4000c554:	b8 27 00 08 	sub  %i4, %o0, %i4
4000c558:	c2 06 60 28 	ld  [ %i1 + 0x28 ], %g1
4000c55c:	d2 06 60 20 	ld  [ %i1 + 0x20 ], %o1
4000c560:	94 10 00 1b 	mov  %i3, %o2
4000c564:	80 a7 20 00 	cmp  %i4, 0
4000c568:	12 bf ff ed 	bne  4000c51c <__sfvwrite_r+0x64>
4000c56c:	90 10 00 18 	mov  %i0, %o0
4000c570:	f6 07 40 00 	ld  [ %i5 ], %i3
4000c574:	f8 07 60 04 	ld  [ %i5 + 4 ], %i4
4000c578:	10 bf ff e5 	b  4000c50c <__sfvwrite_r+0x54>
4000c57c:	ba 07 60 08 	add  %i5, 8, %i5
4000c580:	80 88 60 01 	btst  1, %g1
4000c584:	02 80 00 55 	be  4000c6d8 <__sfvwrite_r+0x220>
4000c588:	25 1f ff ff 	sethi  %hi(0x7ffffc00), %l2
4000c58c:	a4 10 20 00 	clr  %l2
4000c590:	90 10 20 00 	clr  %o0
4000c594:	a2 10 20 00 	clr  %l1
4000c598:	a0 10 20 00 	clr  %l0
4000c59c:	80 a4 20 00 	cmp  %l0, 0
4000c5a0:	22 80 00 41 	be,a   4000c6a4 <__sfvwrite_r+0x1ec>
4000c5a4:	e0 07 60 04 	ld  [ %i5 + 4 ], %l0
4000c5a8:	80 a2 20 00 	cmp  %o0, 0
4000c5ac:	02 80 00 43 	be  4000c6b8 <__sfvwrite_r+0x200>
4000c5b0:	94 10 00 10 	mov  %l0, %o2
4000c5b4:	82 10 00 12 	mov  %l2, %g1
4000c5b8:	80 a4 00 01 	cmp  %l0, %g1
4000c5bc:	08 80 00 03 	bleu  4000c5c8 <__sfvwrite_r+0x110>
4000c5c0:	b6 10 00 10 	mov  %l0, %i3
4000c5c4:	b6 10 00 01 	mov  %g1, %i3
4000c5c8:	d6 06 60 14 	ld  [ %i1 + 0x14 ], %o3
4000c5cc:	f8 06 60 08 	ld  [ %i1 + 8 ], %i4
4000c5d0:	d0 06 40 00 	ld  [ %i1 ], %o0
4000c5d4:	c2 06 60 10 	ld  [ %i1 + 0x10 ], %g1
4000c5d8:	80 a0 40 08 	cmp  %g1, %o0
4000c5dc:	1a 80 00 09 	bcc  4000c600 <__sfvwrite_r+0x148>
4000c5e0:	b8 02 c0 1c 	add  %o3, %i4, %i4
4000c5e4:	80 a6 c0 1c 	cmp  %i3, %i4
4000c5e8:	14 80 00 03 	bg  4000c5f4 <__sfvwrite_r+0x13c>
4000c5ec:	82 10 20 01 	mov  1, %g1
4000c5f0:	82 10 20 00 	clr  %g1
4000c5f4:	80 88 60 ff 	btst  0xff, %g1
4000c5f8:	12 80 00 c9 	bne  4000c91c <__sfvwrite_r+0x464>
4000c5fc:	94 10 00 1c 	mov  %i4, %o2
4000c600:	80 a2 c0 1b 	cmp  %o3, %i3
4000c604:	14 80 00 bb 	bg  4000c8f0 <__sfvwrite_r+0x438>
4000c608:	94 10 00 11 	mov  %l1, %o2
4000c60c:	c2 06 60 28 	ld  [ %i1 + 0x28 ], %g1
4000c610:	d2 06 60 20 	ld  [ %i1 + 0x20 ], %o1
4000c614:	9f c0 40 00 	call  %g1
4000c618:	90 10 00 18 	mov  %i0, %o0
4000c61c:	b8 92 20 00 	orcc  %o0, 0, %i4
4000c620:	24 80 00 1c 	ble,a   4000c690 <__sfvwrite_r+0x1d8>
4000c624:	c2 16 60 0c 	lduh  [ %i1 + 0xc ], %g1
4000c628:	a4 a4 80 1c 	subcc  %l2, %i4, %l2
4000c62c:	02 80 00 12 	be  4000c674 <__sfvwrite_r+0x1bc>
4000c630:	90 10 20 01 	mov  1, %o0
4000c634:	c2 06 a0 08 	ld  [ %i2 + 8 ], %g1
4000c638:	82 20 40 1c 	sub  %g1, %i4, %g1
4000c63c:	c2 26 a0 08 	st  %g1, [ %i2 + 8 ]
4000c640:	a2 04 40 1c 	add  %l1, %i4, %l1
4000c644:	80 a0 60 00 	cmp  %g1, 0
4000c648:	12 bf ff d5 	bne  4000c59c <__sfvwrite_r+0xe4>
4000c64c:	a0 24 00 1c 	sub  %l0, %i4, %l0
4000c650:	81 c7 e0 08 	ret 
4000c654:	91 e8 20 00 	restore  %g0, 0, %o0
4000c658:	7f ff e2 e6 	call  400051f0 <__swsetup_r>
4000c65c:	90 10 00 18 	mov  %i0, %o0
4000c660:	80 a2 20 00 	cmp  %o0, 0
4000c664:	12 80 00 cf 	bne  4000c9a0 <__sfvwrite_r+0x4e8>
4000c668:	01 00 00 00 	nop 
4000c66c:	10 bf ff a0 	b  4000c4ec <__sfvwrite_r+0x34>
4000c670:	c2 16 60 0c 	lduh  [ %i1 + 0xc ], %g1
4000c674:	92 10 00 19 	mov  %i1, %o1
4000c678:	7f ff ea 2f 	call  40006f34 <_fflush_r>
4000c67c:	90 10 00 18 	mov  %i0, %o0
4000c680:	80 a2 20 00 	cmp  %o0, 0
4000c684:	22 bf ff ed 	be,a   4000c638 <__sfvwrite_r+0x180>
4000c688:	c2 06 a0 08 	ld  [ %i2 + 8 ], %g1
4000c68c:	c2 16 60 0c 	lduh  [ %i1 + 0xc ], %g1
4000c690:	82 10 60 40 	or  %g1, 0x40, %g1
4000c694:	c2 36 60 0c 	sth  %g1, [ %i1 + 0xc ]
4000c698:	81 c7 e0 08 	ret 
4000c69c:	91 e8 3f ff 	restore  %g0, -1, %o0
4000c6a0:	e0 07 60 04 	ld  [ %i5 + 4 ], %l0
4000c6a4:	e2 07 40 00 	ld  [ %i5 ], %l1
4000c6a8:	80 a4 20 00 	cmp  %l0, 0
4000c6ac:	02 bf ff fd 	be  4000c6a0 <__sfvwrite_r+0x1e8>
4000c6b0:	ba 07 60 08 	add  %i5, 8, %i5
4000c6b4:	94 10 00 10 	mov  %l0, %o2
4000c6b8:	92 10 20 0a 	mov  0xa, %o1
4000c6bc:	7f ff ef 18 	call  4000831c <memchr>
4000c6c0:	90 10 00 11 	mov  %l1, %o0
4000c6c4:	80 a2 20 00 	cmp  %o0, 0
4000c6c8:	02 80 00 af 	be  4000c984 <__sfvwrite_r+0x4cc>
4000c6cc:	90 02 20 01 	inc  %o0
4000c6d0:	10 bf ff b9 	b  4000c5b4 <__sfvwrite_r+0xfc>
4000c6d4:	a4 22 00 11 	sub  %o0, %l1, %l2
4000c6d8:	e2 06 60 08 	ld  [ %i1 + 8 ], %l1
4000c6dc:	a6 14 a3 fe 	or  %l2, 0x3fe, %l3
4000c6e0:	d0 06 40 00 	ld  [ %i1 ], %o0
4000c6e4:	a0 10 20 00 	clr  %l0
4000c6e8:	b8 10 20 00 	clr  %i4
4000c6ec:	a4 14 a3 ff 	or  %l2, 0x3ff, %l2
4000c6f0:	80 a7 20 00 	cmp  %i4, 0
4000c6f4:	22 80 00 49 	be,a   4000c818 <__sfvwrite_r+0x360>
4000c6f8:	e0 07 40 00 	ld  [ %i5 ], %l0
4000c6fc:	80 88 62 00 	btst  0x200, %g1
4000c700:	22 80 00 49 	be,a   4000c824 <__sfvwrite_r+0x36c>
4000c704:	c2 06 60 10 	ld  [ %i1 + 0x10 ], %g1
4000c708:	80 a4 40 1c 	cmp  %l1, %i4
4000c70c:	18 80 00 76 	bgu  4000c8e4 <__sfvwrite_r+0x42c>
4000c710:	a8 10 00 11 	mov  %l1, %l4
4000c714:	84 08 64 80 	and  %g1, 0x480, %g2
4000c718:	80 a0 a0 00 	cmp  %g2, 0
4000c71c:	22 80 00 29 	be,a   4000c7c0 <__sfvwrite_r+0x308>
4000c720:	94 10 00 14 	mov  %l4, %o2
4000c724:	f6 06 60 14 	ld  [ %i1 + 0x14 ], %i3
4000c728:	d2 06 60 10 	ld  [ %i1 + 0x10 ], %o1
4000c72c:	87 2e e0 01 	sll  %i3, 1, %g3
4000c730:	a8 22 00 09 	sub  %o0, %o1, %l4
4000c734:	86 00 c0 1b 	add  %g3, %i3, %g3
4000c738:	84 07 20 01 	add  %i4, 1, %g2
4000c73c:	b7 30 e0 1f 	srl  %g3, 0x1f, %i3
4000c740:	84 00 80 14 	add  %g2, %l4, %g2
4000c744:	b6 06 c0 03 	add  %i3, %g3, %i3
4000c748:	b7 3e e0 01 	sra  %i3, 1, %i3
4000c74c:	80 a0 80 1b 	cmp  %g2, %i3
4000c750:	08 80 00 04 	bleu  4000c760 <__sfvwrite_r+0x2a8>
4000c754:	94 10 00 1b 	mov  %i3, %o2
4000c758:	b6 10 00 02 	mov  %g2, %i3
4000c75c:	94 10 00 02 	mov  %g2, %o2
4000c760:	80 88 64 00 	btst  0x400, %g1
4000c764:	02 80 00 7b 	be  4000c950 <__sfvwrite_r+0x498>
4000c768:	01 00 00 00 	nop 
4000c76c:	92 10 00 0a 	mov  %o2, %o1
4000c770:	7f ff ec f6 	call  40007b48 <_malloc_r>
4000c774:	90 10 00 18 	mov  %i0, %o0
4000c778:	a2 92 20 00 	orcc  %o0, 0, %l1
4000c77c:	02 80 00 85 	be  4000c990 <__sfvwrite_r+0x4d8>
4000c780:	94 10 00 14 	mov  %l4, %o2
4000c784:	7f ff d6 b1 	call  40002248 <memcpy>
4000c788:	d2 06 60 10 	ld  [ %i1 + 0x10 ], %o1
4000c78c:	c2 16 60 0c 	lduh  [ %i1 + 0xc ], %g1
4000c790:	82 08 7b 7f 	and  %g1, -1153, %g1
4000c794:	82 10 60 80 	or  %g1, 0x80, %g1
4000c798:	c2 36 60 0c 	sth  %g1, [ %i1 + 0xc ]
4000c79c:	90 04 40 14 	add  %l1, %l4, %o0
4000c7a0:	82 26 c0 14 	sub  %i3, %l4, %g1
4000c7a4:	e2 26 60 10 	st  %l1, [ %i1 + 0x10 ]
4000c7a8:	d0 26 40 00 	st  %o0, [ %i1 ]
4000c7ac:	f6 26 60 14 	st  %i3, [ %i1 + 0x14 ]
4000c7b0:	a2 10 00 1c 	mov  %i4, %l1
4000c7b4:	c2 26 60 08 	st  %g1, [ %i1 + 8 ]
4000c7b8:	a8 10 00 1c 	mov  %i4, %l4
4000c7bc:	94 10 00 14 	mov  %l4, %o2
4000c7c0:	40 00 01 1d 	call  4000cc34 <memmove>
4000c7c4:	92 10 00 10 	mov  %l0, %o1
4000c7c8:	c4 06 60 08 	ld  [ %i1 + 8 ], %g2
4000c7cc:	c2 06 40 00 	ld  [ %i1 ], %g1
4000c7d0:	b6 10 00 1c 	mov  %i4, %i3
4000c7d4:	a2 20 80 11 	sub  %g2, %l1, %l1
4000c7d8:	82 00 40 14 	add  %g1, %l4, %g1
4000c7dc:	b8 10 20 00 	clr  %i4
4000c7e0:	e2 26 60 08 	st  %l1, [ %i1 + 8 ]
4000c7e4:	c2 26 40 00 	st  %g1, [ %i1 ]
4000c7e8:	c2 06 a0 08 	ld  [ %i2 + 8 ], %g1
4000c7ec:	82 20 40 1b 	sub  %g1, %i3, %g1
4000c7f0:	c2 26 a0 08 	st  %g1, [ %i2 + 8 ]
4000c7f4:	80 a0 60 00 	cmp  %g1, 0
4000c7f8:	02 bf ff 96 	be  4000c650 <__sfvwrite_r+0x198>
4000c7fc:	a0 04 00 1b 	add  %l0, %i3, %l0
4000c800:	c2 16 60 0c 	lduh  [ %i1 + 0xc ], %g1
4000c804:	e2 06 60 08 	ld  [ %i1 + 8 ], %l1
4000c808:	80 a7 20 00 	cmp  %i4, 0
4000c80c:	12 bf ff bc 	bne  4000c6fc <__sfvwrite_r+0x244>
4000c810:	d0 06 40 00 	ld  [ %i1 ], %o0
4000c814:	e0 07 40 00 	ld  [ %i5 ], %l0
4000c818:	f8 07 60 04 	ld  [ %i5 + 4 ], %i4
4000c81c:	10 bf ff b5 	b  4000c6f0 <__sfvwrite_r+0x238>
4000c820:	ba 07 60 08 	add  %i5, 8, %i5
4000c824:	80 a0 40 08 	cmp  %g1, %o0
4000c828:	0a 80 00 19 	bcs  4000c88c <__sfvwrite_r+0x3d4>
4000c82c:	80 a4 40 1c 	cmp  %l1, %i4
4000c830:	f6 06 60 14 	ld  [ %i1 + 0x14 ], %i3
4000c834:	80 a6 c0 1c 	cmp  %i3, %i4
4000c838:	18 80 00 15 	bgu  4000c88c <__sfvwrite_r+0x3d4>
4000c83c:	80 a4 40 1c 	cmp  %l1, %i4
4000c840:	80 a7 00 13 	cmp  %i4, %l3
4000c844:	08 80 00 03 	bleu  4000c850 <__sfvwrite_r+0x398>
4000c848:	90 10 00 1c 	mov  %i4, %o0
4000c84c:	90 10 00 12 	mov  %l2, %o0
4000c850:	40 00 05 df 	call  4000dfcc <.div>
4000c854:	92 10 00 1b 	mov  %i3, %o1
4000c858:	40 00 05 a1 	call  4000dedc <.umul>
4000c85c:	92 10 00 1b 	mov  %i3, %o1
4000c860:	c2 06 60 28 	ld  [ %i1 + 0x28 ], %g1
4000c864:	96 10 00 08 	mov  %o0, %o3
4000c868:	94 10 00 10 	mov  %l0, %o2
4000c86c:	d2 06 60 20 	ld  [ %i1 + 0x20 ], %o1
4000c870:	9f c0 40 00 	call  %g1
4000c874:	90 10 00 18 	mov  %i0, %o0
4000c878:	b6 92 20 00 	orcc  %o0, 0, %i3
4000c87c:	24 bf ff 85 	ble,a   4000c690 <__sfvwrite_r+0x1d8>
4000c880:	c2 16 60 0c 	lduh  [ %i1 + 0xc ], %g1
4000c884:	10 bf ff d9 	b  4000c7e8 <__sfvwrite_r+0x330>
4000c888:	b8 27 00 1b 	sub  %i4, %i3, %i4
4000c88c:	08 80 00 03 	bleu  4000c898 <__sfvwrite_r+0x3e0>
4000c890:	b6 10 00 11 	mov  %l1, %i3
4000c894:	b6 10 00 1c 	mov  %i4, %i3
4000c898:	94 10 00 1b 	mov  %i3, %o2
4000c89c:	40 00 00 e6 	call  4000cc34 <memmove>
4000c8a0:	92 10 00 10 	mov  %l0, %o1
4000c8a4:	c2 06 60 08 	ld  [ %i1 + 8 ], %g1
4000c8a8:	c4 06 40 00 	ld  [ %i1 ], %g2
4000c8ac:	82 20 40 1b 	sub  %g1, %i3, %g1
4000c8b0:	84 00 80 1b 	add  %g2, %i3, %g2
4000c8b4:	c2 26 60 08 	st  %g1, [ %i1 + 8 ]
4000c8b8:	80 a0 60 00 	cmp  %g1, 0
4000c8bc:	12 bf ff f2 	bne  4000c884 <__sfvwrite_r+0x3cc>
4000c8c0:	c4 26 40 00 	st  %g2, [ %i1 ]
4000c8c4:	92 10 00 19 	mov  %i1, %o1
4000c8c8:	7f ff e9 9b 	call  40006f34 <_fflush_r>
4000c8cc:	90 10 00 18 	mov  %i0, %o0
4000c8d0:	80 a2 20 00 	cmp  %o0, 0
4000c8d4:	32 bf ff 6f 	bne,a   4000c690 <__sfvwrite_r+0x1d8>
4000c8d8:	c2 16 60 0c 	lduh  [ %i1 + 0xc ], %g1
4000c8dc:	10 bf ff c3 	b  4000c7e8 <__sfvwrite_r+0x330>
4000c8e0:	b8 27 00 1b 	sub  %i4, %i3, %i4
4000c8e4:	a2 10 00 1c 	mov  %i4, %l1
4000c8e8:	10 bf ff b5 	b  4000c7bc <__sfvwrite_r+0x304>
4000c8ec:	a8 10 00 1c 	mov  %i4, %l4
4000c8f0:	94 10 00 1b 	mov  %i3, %o2
4000c8f4:	40 00 00 d0 	call  4000cc34 <memmove>
4000c8f8:	92 10 00 11 	mov  %l1, %o1
4000c8fc:	c4 06 60 08 	ld  [ %i1 + 8 ], %g2
4000c900:	c2 06 40 00 	ld  [ %i1 ], %g1
4000c904:	84 20 80 1b 	sub  %g2, %i3, %g2
4000c908:	82 00 40 1b 	add  %g1, %i3, %g1
4000c90c:	b8 10 00 1b 	mov  %i3, %i4
4000c910:	c4 26 60 08 	st  %g2, [ %i1 + 8 ]
4000c914:	10 bf ff 45 	b  4000c628 <__sfvwrite_r+0x170>
4000c918:	c2 26 40 00 	st  %g1, [ %i1 ]
4000c91c:	40 00 00 c6 	call  4000cc34 <memmove>
4000c920:	92 10 00 11 	mov  %l1, %o1
4000c924:	c2 06 40 00 	ld  [ %i1 ], %g1
4000c928:	82 00 40 1c 	add  %g1, %i4, %g1
4000c92c:	92 10 00 19 	mov  %i1, %o1
4000c930:	90 10 00 18 	mov  %i0, %o0
4000c934:	7f ff e9 80 	call  40006f34 <_fflush_r>
4000c938:	c2 26 40 00 	st  %g1, [ %i1 ]
4000c93c:	80 a2 20 00 	cmp  %o0, 0
4000c940:	22 bf ff 3b 	be,a   4000c62c <__sfvwrite_r+0x174>
4000c944:	a4 a4 80 1c 	subcc  %l2, %i4, %l2
4000c948:	10 bf ff 52 	b  4000c690 <__sfvwrite_r+0x1d8>
4000c94c:	c2 16 60 0c 	lduh  [ %i1 + 0xc ], %g1
4000c950:	40 00 01 4a 	call  4000ce78 <_realloc_r>
4000c954:	90 10 00 18 	mov  %i0, %o0
4000c958:	a2 92 20 00 	orcc  %o0, 0, %l1
4000c95c:	32 bf ff 91 	bne,a   4000c7a0 <__sfvwrite_r+0x2e8>
4000c960:	90 04 40 14 	add  %l1, %l4, %o0
4000c964:	d2 06 60 10 	ld  [ %i1 + 0x10 ], %o1
4000c968:	7f ff ea df 	call  400074e4 <_free_r>
4000c96c:	90 10 00 18 	mov  %i0, %o0
4000c970:	c2 16 60 0c 	lduh  [ %i1 + 0xc ], %g1
4000c974:	84 10 20 0c 	mov  0xc, %g2
4000c978:	82 08 7f 7f 	and  %g1, -129, %g1
4000c97c:	10 bf ff 45 	b  4000c690 <__sfvwrite_r+0x1d8>
4000c980:	c4 26 00 00 	st  %g2, [ %i0 ]
4000c984:	82 04 20 01 	add  %l0, 1, %g1
4000c988:	10 bf ff 0c 	b  4000c5b8 <__sfvwrite_r+0x100>
4000c98c:	a4 10 00 01 	mov  %g1, %l2
4000c990:	c2 16 60 0c 	lduh  [ %i1 + 0xc ], %g1
4000c994:	84 10 20 0c 	mov  0xc, %g2
4000c998:	10 bf ff 3e 	b  4000c690 <__sfvwrite_r+0x1d8>
4000c99c:	c4 26 00 00 	st  %g2, [ %i0 ]
4000c9a0:	81 c7 e0 08 	ret 
4000c9a4:	91 e8 3f ff 	restore  %g0, -1, %o0

4000c9a8 <_isatty_r>:
4000c9a8:	9d e3 bf a0 	save  %sp, -96, %sp
4000c9ac:	3b 10 00 3e 	sethi  %hi(0x4000f800), %i5
4000c9b0:	90 10 00 19 	mov  %i1, %o0
4000c9b4:	40 00 05 17 	call  4000de10 <getpid>
4000c9b8:	c0 27 63 18 	clr  [ %i5 + 0x318 ]
4000c9bc:	80 a2 3f ff 	cmp  %o0, -1
4000c9c0:	02 80 00 04 	be  4000c9d0 <_isatty_r+0x28>
4000c9c4:	c2 07 63 18 	ld  [ %i5 + 0x318 ], %g1
4000c9c8:	81 c7 e0 08 	ret 
4000c9cc:	91 e8 00 08 	restore  %g0, %o0, %o0
4000c9d0:	80 a0 60 00 	cmp  %g1, 0
4000c9d4:	02 bf ff fd 	be  4000c9c8 <_isatty_r+0x20>
4000c9d8:	01 00 00 00 	nop 
4000c9dc:	c2 26 00 00 	st  %g1, [ %i0 ]
4000c9e0:	81 c7 e0 08 	ret 
4000c9e4:	91 e8 00 08 	restore  %g0, %o0, %o0

4000c9e8 <_setlocale_r>:
4000c9e8:	9d e3 bf a0 	save  %sp, -96, %sp
4000c9ec:	80 a6 a0 00 	cmp  %i2, 0
4000c9f0:	02 80 00 0b 	be  4000ca1c <_setlocale_r+0x34>
4000c9f4:	90 10 00 1a 	mov  %i2, %o0
4000c9f8:	13 10 00 3b 	sethi  %hi(0x4000ec00), %o1
4000c9fc:	31 10 00 3b 	sethi  %hi(0x4000ec00), %i0
4000ca00:	40 00 03 25 	call  4000d694 <strcmp>
4000ca04:	92 12 63 c8 	or  %o1, 0x3c8, %o1
4000ca08:	80 a2 20 00 	cmp  %o0, 0
4000ca0c:	12 80 00 07 	bne  4000ca28 <_setlocale_r+0x40>
4000ca10:	92 16 23 c0 	or  %i0, 0x3c0, %o1
4000ca14:	81 c7 e0 08 	ret 
4000ca18:	91 ee 23 c0 	restore  %i0, 0x3c0, %o0
4000ca1c:	31 10 00 3b 	sethi  %hi(0x4000ec00), %i0
4000ca20:	81 c7 e0 08 	ret 
4000ca24:	91 ee 23 c0 	restore  %i0, 0x3c0, %o0
4000ca28:	40 00 03 1b 	call  4000d694 <strcmp>
4000ca2c:	90 10 00 1a 	mov  %i2, %o0
4000ca30:	80 a2 20 00 	cmp  %o0, 0
4000ca34:	02 bf ff f8 	be  4000ca14 <_setlocale_r+0x2c>
4000ca38:	90 10 00 1a 	mov  %i2, %o0
4000ca3c:	13 10 00 3b 	sethi  %hi(0x4000ec00), %o1
4000ca40:	40 00 03 15 	call  4000d694 <strcmp>
4000ca44:	92 12 61 50 	or  %o1, 0x150, %o1	! 4000ed50 <_global_impure_ptr+0x4c>
4000ca48:	80 a2 20 00 	cmp  %o0, 0
4000ca4c:	02 bf ff f2 	be  4000ca14 <_setlocale_r+0x2c>
4000ca50:	01 00 00 00 	nop 
4000ca54:	81 c7 e0 08 	ret 
4000ca58:	91 e8 20 00 	restore  %g0, 0, %o0

4000ca5c <__locale_mb_cur_max>:
4000ca5c:	03 10 00 3c 	sethi  %hi(0x4000f000), %g1
4000ca60:	c2 00 63 8c 	ld  [ %g1 + 0x38c ], %g1	! 4000f38c <_impure_ptr>
4000ca64:	c2 00 60 20 	ld  [ %g1 + 0x20 ], %g1
4000ca68:	80 a0 60 00 	cmp  %g1, 0
4000ca6c:	22 80 00 04 	be,a   4000ca7c <__locale_mb_cur_max+0x20>
4000ca70:	03 10 00 3e 	sethi  %hi(0x4000f800), %g1
4000ca74:	81 c3 e0 08 	retl 
4000ca78:	d0 48 61 28 	ldsb  [ %g1 + 0x128 ], %o0	! 4000f928 <__global_locale+0x128>
4000ca7c:	82 10 60 00 	mov  %g1, %g1
4000ca80:	81 c3 e0 08 	retl 
4000ca84:	d0 48 61 28 	ldsb  [ %g1 + 0x128 ], %o0

4000ca88 <__locale_ctype_ptr_l>:
4000ca88:	81 c3 e0 08 	retl 
4000ca8c:	d0 02 20 ec 	ld  [ %o0 + 0xec ], %o0

4000ca90 <__locale_ctype_ptr>:
4000ca90:	03 10 00 3c 	sethi  %hi(0x4000f000), %g1
4000ca94:	c2 00 63 8c 	ld  [ %g1 + 0x38c ], %g1	! 4000f38c <_impure_ptr>
4000ca98:	c2 00 60 20 	ld  [ %g1 + 0x20 ], %g1
4000ca9c:	80 a0 60 00 	cmp  %g1, 0
4000caa0:	22 80 00 04 	be,a   4000cab0 <__locale_ctype_ptr+0x20>
4000caa4:	03 10 00 3e 	sethi  %hi(0x4000f800), %g1
4000caa8:	81 c3 e0 08 	retl 
4000caac:	d0 00 60 ec 	ld  [ %g1 + 0xec ], %o0	! 4000f8ec <__global_locale+0xec>
4000cab0:	82 10 60 00 	mov  %g1, %g1
4000cab4:	81 c3 e0 08 	retl 
4000cab8:	d0 00 60 ec 	ld  [ %g1 + 0xec ], %o0

4000cabc <setlocale>:
4000cabc:	9d e3 bf a0 	save  %sp, -96, %sp
4000cac0:	80 a6 60 00 	cmp  %i1, 0
4000cac4:	02 80 00 0b 	be  4000caf0 <setlocale+0x34>
4000cac8:	90 10 00 19 	mov  %i1, %o0
4000cacc:	13 10 00 3b 	sethi  %hi(0x4000ec00), %o1
4000cad0:	31 10 00 3b 	sethi  %hi(0x4000ec00), %i0
4000cad4:	40 00 02 f0 	call  4000d694 <strcmp>
4000cad8:	92 12 63 c8 	or  %o1, 0x3c8, %o1
4000cadc:	80 a2 20 00 	cmp  %o0, 0
4000cae0:	12 80 00 07 	bne  4000cafc <setlocale+0x40>
4000cae4:	92 16 23 c0 	or  %i0, 0x3c0, %o1
4000cae8:	81 c7 e0 08 	ret 
4000caec:	91 ee 23 c0 	restore  %i0, 0x3c0, %o0
4000caf0:	31 10 00 3b 	sethi  %hi(0x4000ec00), %i0
4000caf4:	81 c7 e0 08 	ret 
4000caf8:	91 ee 23 c0 	restore  %i0, 0x3c0, %o0
4000cafc:	40 00 02 e6 	call  4000d694 <strcmp>
4000cb00:	90 10 00 19 	mov  %i1, %o0
4000cb04:	80 a2 20 00 	cmp  %o0, 0
4000cb08:	02 bf ff f8 	be  4000cae8 <setlocale+0x2c>
4000cb0c:	90 10 00 19 	mov  %i1, %o0
4000cb10:	13 10 00 3b 	sethi  %hi(0x4000ec00), %o1
4000cb14:	40 00 02 e0 	call  4000d694 <strcmp>
4000cb18:	92 12 61 50 	or  %o1, 0x150, %o1	! 4000ed50 <_global_impure_ptr+0x4c>
4000cb1c:	80 a2 20 00 	cmp  %o0, 0
4000cb20:	02 bf ff f2 	be  4000cae8 <setlocale+0x2c>
4000cb24:	01 00 00 00 	nop 
4000cb28:	81 c7 e0 08 	ret 
4000cb2c:	91 e8 20 00 	restore  %g0, 0, %o0

4000cb30 <_lseek_r>:
4000cb30:	9d e3 bf a0 	save  %sp, -96, %sp
4000cb34:	3b 10 00 3e 	sethi  %hi(0x4000f800), %i5
4000cb38:	94 10 00 1b 	mov  %i3, %o2
4000cb3c:	c0 27 63 18 	clr  [ %i5 + 0x318 ]
4000cb40:	92 10 00 1a 	mov  %i2, %o1
4000cb44:	40 00 04 ad 	call  4000ddf8 <close>
4000cb48:	90 10 00 19 	mov  %i1, %o0
4000cb4c:	80 a2 3f ff 	cmp  %o0, -1
4000cb50:	02 80 00 04 	be  4000cb60 <_lseek_r+0x30>
4000cb54:	c2 07 63 18 	ld  [ %i5 + 0x318 ], %g1
4000cb58:	81 c7 e0 08 	ret 
4000cb5c:	91 e8 00 08 	restore  %g0, %o0, %o0
4000cb60:	80 a0 60 00 	cmp  %g1, 0
4000cb64:	02 bf ff fd 	be  4000cb58 <_lseek_r+0x28>
4000cb68:	01 00 00 00 	nop 
4000cb6c:	c2 26 00 00 	st  %g1, [ %i0 ]
4000cb70:	81 c7 e0 08 	ret 
4000cb74:	91 e8 00 08 	restore  %g0, %o0, %o0

4000cb78 <_mbtowc_r>:
4000cb78:	9d e3 bf a0 	save  %sp, -96, %sp
4000cb7c:	03 10 00 3c 	sethi  %hi(0x4000f000), %g1
4000cb80:	c2 00 63 8c 	ld  [ %g1 + 0x38c ], %g1	! 4000f38c <_impure_ptr>
4000cb84:	c2 00 60 20 	ld  [ %g1 + 0x20 ], %g1
4000cb88:	80 a0 60 00 	cmp  %g1, 0
4000cb8c:	02 80 00 0a 	be  4000cbb4 <_mbtowc_r+0x3c>
4000cb90:	98 10 00 1c 	mov  %i4, %o4
4000cb94:	c2 00 60 e4 	ld  [ %g1 + 0xe4 ], %g1
4000cb98:	96 10 00 1b 	mov  %i3, %o3
4000cb9c:	94 10 00 1a 	mov  %i2, %o2
4000cba0:	92 10 00 19 	mov  %i1, %o1
4000cba4:	9f c0 40 00 	call  %g1
4000cba8:	90 10 00 18 	mov  %i0, %o0
4000cbac:	81 c7 e0 08 	ret 
4000cbb0:	91 e8 00 08 	restore  %g0, %o0, %o0
4000cbb4:	96 10 00 1b 	mov  %i3, %o3
4000cbb8:	94 10 00 1a 	mov  %i2, %o2
4000cbbc:	92 10 00 19 	mov  %i1, %o1
4000cbc0:	03 10 00 3e 	sethi  %hi(0x4000f800), %g1
4000cbc4:	82 10 60 00 	mov  %g1, %g1	! 4000f800 <__global_locale>
4000cbc8:	c2 00 60 e4 	ld  [ %g1 + 0xe4 ], %g1
4000cbcc:	9f c0 40 00 	call  %g1
4000cbd0:	90 10 00 18 	mov  %i0, %o0
4000cbd4:	81 c7 e0 08 	ret 
4000cbd8:	91 e8 00 08 	restore  %g0, %o0, %o0

4000cbdc <__ascii_mbtowc>:
4000cbdc:	80 a2 60 00 	cmp  %o1, 0
4000cbe0:	02 80 00 0f 	be  4000cc1c <__ascii_mbtowc+0x40>
4000cbe4:	9c 03 bf b0 	add  %sp, -80, %sp
4000cbe8:	80 a2 a0 00 	cmp  %o2, 0
4000cbec:	02 80 00 10 	be  4000cc2c <__ascii_mbtowc+0x50>
4000cbf0:	90 10 20 00 	clr  %o0
4000cbf4:	80 a2 e0 00 	cmp  %o3, 0
4000cbf8:	22 80 00 07 	be,a   4000cc14 <__ascii_mbtowc+0x38>
4000cbfc:	90 10 3f fe 	mov  -2, %o0
4000cc00:	c2 0a 80 00 	ldub  [ %o2 ], %g1
4000cc04:	c2 22 40 00 	st  %g1, [ %o1 ]
4000cc08:	c2 0a 80 00 	ldub  [ %o2 ], %g1
4000cc0c:	80 a0 00 01 	cmp  %g0, %g1
4000cc10:	90 40 20 00 	addx  %g0, 0, %o0
4000cc14:	81 c3 e0 08 	retl 
4000cc18:	9c 03 a0 50 	add  %sp, 0x50, %sp
4000cc1c:	80 a2 a0 00 	cmp  %o2, 0
4000cc20:	12 bf ff f5 	bne  4000cbf4 <__ascii_mbtowc+0x18>
4000cc24:	92 03 a0 4c 	add  %sp, 0x4c, %o1
4000cc28:	90 10 20 00 	clr  %o0
4000cc2c:	81 c3 e0 08 	retl 
4000cc30:	9c 03 a0 50 	add  %sp, 0x50, %sp

4000cc34 <memmove>:
4000cc34:	80 a2 00 09 	cmp  %o0, %o1
4000cc38:	08 80 00 11 	bleu  4000cc7c <memmove+0x48>
4000cc3c:	80 a2 a0 0f 	cmp  %o2, 0xf
4000cc40:	82 02 40 0a 	add  %o1, %o2, %g1
4000cc44:	80 a2 00 01 	cmp  %o0, %g1
4000cc48:	1a 80 00 0d 	bcc  4000cc7c <memmove+0x48>
4000cc4c:	80 a2 a0 0f 	cmp  %o2, 0xf
4000cc50:	80 a2 a0 00 	cmp  %o2, 0
4000cc54:	02 80 00 08 	be  4000cc74 <memmove+0x40>
4000cc58:	82 02 bf ff 	add  %o2, -1, %g1
4000cc5c:	c4 0a 40 01 	ldub  [ %o1 + %g1 ], %g2
4000cc60:	c4 2a 00 01 	stb  %g2, [ %o0 + %g1 ]
4000cc64:	82 00 7f ff 	add  %g1, -1, %g1
4000cc68:	80 a0 7f ff 	cmp  %g1, -1
4000cc6c:	32 bf ff fd 	bne,a   4000cc60 <memmove+0x2c>
4000cc70:	c4 0a 40 01 	ldub  [ %o1 + %g1 ], %g2
4000cc74:	81 c3 e0 08 	retl 
4000cc78:	01 00 00 00 	nop 
4000cc7c:	18 80 00 35 	bgu  4000cd50 <memmove+0x11c>
4000cc80:	82 12 40 08 	or  %o1, %o0, %g1
4000cc84:	82 10 00 08 	mov  %o0, %g1
4000cc88:	80 a2 a0 00 	cmp  %o2, 0
4000cc8c:	02 bf ff fa 	be  4000cc74 <memmove+0x40>
4000cc90:	98 02 bf ff 	add  %o2, -1, %o4
4000cc94:	84 10 40 09 	or  %g1, %o1, %g2
4000cc98:	84 08 a0 03 	and  %g2, 3, %g2
4000cc9c:	80 a0 00 02 	cmp  %g0, %g2
4000cca0:	84 02 60 01 	add  %o1, 1, %g2
4000cca4:	88 60 3f ff 	subx  %g0, -1, %g4
4000cca8:	84 20 40 02 	sub  %g1, %g2, %g2
4000ccac:	80 a0 a0 02 	cmp  %g2, 2
4000ccb0:	18 80 00 03 	bgu  4000ccbc <memmove+0x88>
4000ccb4:	86 10 20 01 	mov  1, %g3
4000ccb8:	86 10 20 00 	clr  %g3
4000ccbc:	80 89 00 03 	btst  %g4, %g3
4000ccc0:	02 80 00 52 	be  4000ce08 <memmove+0x1d4>
4000ccc4:	80 a3 20 08 	cmp  %o4, 8
4000ccc8:	18 80 00 03 	bgu  4000ccd4 <memmove+0xa0>
4000cccc:	84 10 20 01 	mov  1, %g2
4000ccd0:	84 10 20 00 	clr  %g2
4000ccd4:	80 88 a0 ff 	btst  0xff, %g2
4000ccd8:	02 80 00 4c 	be  4000ce08 <memmove+0x1d4>
4000ccdc:	86 03 3f fd 	add  %o4, -3, %g3
4000cce0:	96 03 20 01 	add  %o4, 1, %o3
4000cce4:	87 30 e0 02 	srl  %g3, 2, %g3
4000cce8:	84 10 20 00 	clr  %g2
4000ccec:	86 00 e0 01 	inc  %g3
4000ccf0:	88 10 20 00 	clr  %g4
4000ccf4:	da 02 40 02 	ld  [ %o1 + %g2 ], %o5
4000ccf8:	da 20 40 02 	st  %o5, [ %g1 + %g2 ]
4000ccfc:	88 01 20 01 	inc  %g4
4000cd00:	80 a0 c0 04 	cmp  %g3, %g4
4000cd04:	18 bf ff fc 	bgu  4000ccf4 <memmove+0xc0>
4000cd08:	84 00 a0 04 	add  %g2, 4, %g2
4000cd0c:	87 28 e0 02 	sll  %g3, 2, %g3
4000cd10:	84 00 40 03 	add  %g1, %g3, %g2
4000cd14:	88 02 40 03 	add  %o1, %g3, %g4
4000cd18:	80 a2 c0 03 	cmp  %o3, %g3
4000cd1c:	02 bf ff d6 	be  4000cc74 <memmove+0x40>
4000cd20:	98 23 00 03 	sub  %o4, %g3, %o4
4000cd24:	da 0a 40 03 	ldub  [ %o1 + %g3 ], %o5
4000cd28:	80 a3 20 00 	cmp  %o4, 0
4000cd2c:	02 bf ff d2 	be  4000cc74 <memmove+0x40>
4000cd30:	da 28 40 03 	stb  %o5, [ %g1 + %g3 ]
4000cd34:	c2 09 20 01 	ldub  [ %g4 + 1 ], %g1
4000cd38:	80 a3 20 01 	cmp  %o4, 1
4000cd3c:	02 bf ff ce 	be  4000cc74 <memmove+0x40>
4000cd40:	c2 28 a0 01 	stb  %g1, [ %g2 + 1 ]
4000cd44:	c2 09 20 02 	ldub  [ %g4 + 2 ], %g1
4000cd48:	81 c3 e0 08 	retl 
4000cd4c:	c2 28 a0 02 	stb  %g1, [ %g2 + 2 ]
4000cd50:	80 88 60 03 	btst  3, %g1
4000cd54:	12 80 00 2b 	bne  4000ce00 <memmove+0x1cc>
4000cd58:	98 02 bf ff 	add  %o2, -1, %o4
4000cd5c:	9a 02 bf f0 	add  %o2, -16, %o5
4000cd60:	84 10 00 09 	mov  %o1, %g2
4000cd64:	9a 0b 7f f0 	and  %o5, -16, %o5
4000cd68:	82 10 00 08 	mov  %o0, %g1
4000cd6c:	9a 03 60 10 	add  %o5, 0x10, %o5
4000cd70:	88 02 00 0d 	add  %o0, %o5, %g4
4000cd74:	c6 00 80 00 	ld  [ %g2 ], %g3
4000cd78:	84 00 a0 10 	add  %g2, 0x10, %g2
4000cd7c:	c6 20 40 00 	st  %g3, [ %g1 ]
4000cd80:	c6 00 bf f4 	ld  [ %g2 + -12 ], %g3
4000cd84:	c6 20 60 04 	st  %g3, [ %g1 + 4 ]
4000cd88:	c6 00 bf f8 	ld  [ %g2 + -8 ], %g3
4000cd8c:	c6 20 60 08 	st  %g3, [ %g1 + 8 ]
4000cd90:	c6 00 bf fc 	ld  [ %g2 + -4 ], %g3
4000cd94:	c6 20 60 0c 	st  %g3, [ %g1 + 0xc ]
4000cd98:	82 00 60 10 	add  %g1, 0x10, %g1
4000cd9c:	80 a1 00 01 	cmp  %g4, %g1
4000cda0:	32 bf ff f6 	bne,a   4000cd78 <memmove+0x144>
4000cda4:	c6 00 80 00 	ld  [ %g2 ], %g3
4000cda8:	92 02 40 0d 	add  %o1, %o5, %o1
4000cdac:	80 8a a0 0c 	btst  0xc, %o2
4000cdb0:	02 80 00 1e 	be  4000ce28 <memmove+0x1f4>
4000cdb4:	86 0a a0 0f 	and  %o2, 0xf, %g3
4000cdb8:	c4 02 40 00 	ld  [ %o1 ], %g2
4000cdbc:	c4 20 40 00 	st  %g2, [ %g1 ]
4000cdc0:	84 00 ff fc 	add  %g3, -4, %g2
4000cdc4:	80 a0 a0 03 	cmp  %g2, 3
4000cdc8:	08 80 00 08 	bleu  4000cde8 <memmove+0x1b4>
4000cdcc:	86 00 ff f8 	add  %g3, -8, %g3
4000cdd0:	c8 02 60 04 	ld  [ %o1 + 4 ], %g4
4000cdd4:	80 a0 e0 03 	cmp  %g3, 3
4000cdd8:	08 80 00 04 	bleu  4000cde8 <memmove+0x1b4>
4000cddc:	c8 20 60 04 	st  %g4, [ %g1 + 4 ]
4000cde0:	c6 02 60 08 	ld  [ %o1 + 8 ], %g3
4000cde4:	c6 20 60 08 	st  %g3, [ %g1 + 8 ]
4000cde8:	84 08 bf fc 	and  %g2, -4, %g2
4000cdec:	94 0a a0 03 	and  %o2, 3, %o2
4000cdf0:	84 00 a0 04 	add  %g2, 4, %g2
4000cdf4:	82 00 40 02 	add  %g1, %g2, %g1
4000cdf8:	10 bf ff a4 	b  4000cc88 <memmove+0x54>
4000cdfc:	92 02 40 02 	add  %o1, %g2, %o1
4000ce00:	10 bf ff a5 	b  4000cc94 <memmove+0x60>
4000ce04:	82 10 00 08 	mov  %o0, %g1
4000ce08:	84 10 20 00 	clr  %g2
4000ce0c:	c6 0a 40 02 	ldub  [ %o1 + %g2 ], %g3
4000ce10:	c6 28 40 02 	stb  %g3, [ %g1 + %g2 ]
4000ce14:	80 a3 00 02 	cmp  %o4, %g2
4000ce18:	12 bf ff fd 	bne  4000ce0c <memmove+0x1d8>
4000ce1c:	84 00 a0 01 	inc  %g2
4000ce20:	81 c3 e0 08 	retl 
4000ce24:	01 00 00 00 	nop 
4000ce28:	10 bf ff 98 	b  4000cc88 <memmove+0x54>
4000ce2c:	94 10 00 03 	mov  %g3, %o2

4000ce30 <_read_r>:
4000ce30:	9d e3 bf a0 	save  %sp, -96, %sp
4000ce34:	3b 10 00 3e 	sethi  %hi(0x4000f800), %i5
4000ce38:	94 10 00 1b 	mov  %i3, %o2
4000ce3c:	c0 27 63 18 	clr  [ %i5 + 0x318 ]
4000ce40:	92 10 00 1a 	mov  %i2, %o1
4000ce44:	40 00 03 95 	call  4000dc98 <read>
4000ce48:	90 10 00 19 	mov  %i1, %o0
4000ce4c:	80 a2 3f ff 	cmp  %o0, -1
4000ce50:	02 80 00 04 	be  4000ce60 <_read_r+0x30>
4000ce54:	c2 07 63 18 	ld  [ %i5 + 0x318 ], %g1
4000ce58:	81 c7 e0 08 	ret 
4000ce5c:	91 e8 00 08 	restore  %g0, %o0, %o0
4000ce60:	80 a0 60 00 	cmp  %g1, 0
4000ce64:	02 bf ff fd 	be  4000ce58 <_read_r+0x28>
4000ce68:	01 00 00 00 	nop 
4000ce6c:	c2 26 00 00 	st  %g1, [ %i0 ]
4000ce70:	81 c7 e0 08 	ret 
4000ce74:	91 e8 00 08 	restore  %g0, %o0, %o0

4000ce78 <_realloc_r>:
4000ce78:	9d e3 bf a0 	save  %sp, -96, %sp
4000ce7c:	80 a6 60 00 	cmp  %i1, 0
4000ce80:	02 80 00 74 	be  4000d050 <_realloc_r+0x1d8>
4000ce84:	01 00 00 00 	nop 
4000ce88:	7f ff ed ac 	call  40008538 <__malloc_lock>
4000ce8c:	90 10 00 18 	mov  %i0, %o0
4000ce90:	c2 06 7f fc 	ld  [ %i1 + -4 ], %g1
4000ce94:	ba 06 a0 0b 	add  %i2, 0xb, %i5
4000ce98:	a0 06 7f f8 	add  %i1, -8, %l0
4000ce9c:	80 a7 60 16 	cmp  %i5, 0x16
4000cea0:	18 80 00 4c 	bgu  4000cfd0 <_realloc_r+0x158>
4000cea4:	b8 08 7f fc 	and  %g1, -4, %i4
4000cea8:	84 10 20 00 	clr  %g2
4000ceac:	86 10 20 10 	mov  0x10, %g3
4000ceb0:	ba 10 20 10 	mov  0x10, %i5
4000ceb4:	80 a7 40 1a 	cmp  %i5, %i2
4000ceb8:	0a 80 00 75 	bcs  4000d08c <_realloc_r+0x214>
4000cebc:	80 88 a0 ff 	btst  0xff, %g2
4000cec0:	12 80 00 73 	bne  4000d08c <_realloc_r+0x214>
4000cec4:	80 a7 00 03 	cmp  %i4, %g3
4000cec8:	16 80 00 4c 	bge  4000cff8 <_realloc_r+0x180>
4000cecc:	b6 04 00 1c 	add  %l0, %i4, %i3
4000ced0:	25 10 00 3c 	sethi  %hi(0x4000f000), %l2
4000ced4:	a4 14 a3 f8 	or  %l2, 0x3f8, %l2	! 4000f3f8 <__malloc_av_>
4000ced8:	c8 04 a0 08 	ld  [ %l2 + 8 ], %g4
4000cedc:	80 a1 00 1b 	cmp  %g4, %i3
4000cee0:	02 80 00 91 	be  4000d124 <_realloc_r+0x2ac>
4000cee4:	c4 06 e0 04 	ld  [ %i3 + 4 ], %g2
4000cee8:	88 08 bf fe 	and  %g2, -2, %g4
4000ceec:	88 06 c0 04 	add  %i3, %g4, %g4
4000cef0:	c8 01 20 04 	ld  [ %g4 + 4 ], %g4
4000cef4:	80 89 20 01 	btst  1, %g4
4000cef8:	12 80 00 4f 	bne  4000d034 <_realloc_r+0x1bc>
4000cefc:	80 88 60 01 	btst  1, %g1
4000cf00:	84 08 bf fc 	and  %g2, -4, %g2
4000cf04:	88 07 00 02 	add  %i4, %g2, %g4
4000cf08:	80 a1 00 03 	cmp  %g4, %g3
4000cf0c:	16 80 00 35 	bge  4000cfe0 <_realloc_r+0x168>
4000cf10:	80 88 60 01 	btst  1, %g1
4000cf14:	12 80 00 10 	bne  4000cf54 <_realloc_r+0xdc>
4000cf18:	92 10 00 1a 	mov  %i2, %o1
4000cf1c:	e6 06 7f f8 	ld  [ %i1 + -8 ], %l3
4000cf20:	a6 24 00 13 	sub  %l0, %l3, %l3
4000cf24:	c2 04 e0 04 	ld  [ %l3 + 4 ], %g1
4000cf28:	82 08 7f fc 	and  %g1, -4, %g1
4000cf2c:	84 00 40 02 	add  %g1, %g2, %g2
4000cf30:	a2 00 80 1c 	add  %g2, %i4, %l1
4000cf34:	80 a4 40 03 	cmp  %l1, %g3
4000cf38:	36 80 00 5a 	bge,a   4000d0a0 <_realloc_r+0x228>
4000cf3c:	c2 06 e0 0c 	ld  [ %i3 + 0xc ], %g1
4000cf40:	a2 07 00 01 	add  %i4, %g1, %l1
4000cf44:	80 a4 40 03 	cmp  %l1, %g3
4000cf48:	36 80 00 5a 	bge,a   4000d0b0 <_realloc_r+0x238>
4000cf4c:	c2 04 e0 0c 	ld  [ %l3 + 0xc ], %g1
4000cf50:	92 10 00 1a 	mov  %i2, %o1
4000cf54:	7f ff ea fd 	call  40007b48 <_malloc_r>
4000cf58:	90 10 00 18 	mov  %i0, %o0
4000cf5c:	b6 92 20 00 	orcc  %o0, 0, %i3
4000cf60:	02 80 00 17 	be  4000cfbc <_realloc_r+0x144>
4000cf64:	84 06 ff f8 	add  %i3, -8, %g2
4000cf68:	c2 06 7f fc 	ld  [ %i1 + -4 ], %g1
4000cf6c:	82 08 7f fe 	and  %g1, -2, %g1
4000cf70:	82 04 00 01 	add  %l0, %g1, %g1
4000cf74:	80 a0 40 02 	cmp  %g1, %g2
4000cf78:	02 80 00 a1 	be  4000d1fc <_realloc_r+0x384>
4000cf7c:	94 07 3f fc 	add  %i4, -4, %o2
4000cf80:	80 a2 a0 24 	cmp  %o2, 0x24
4000cf84:	18 80 00 ac 	bgu  4000d234 <_realloc_r+0x3bc>
4000cf88:	80 a2 a0 13 	cmp  %o2, 0x13
4000cf8c:	18 80 00 a1 	bgu  4000d210 <_realloc_r+0x398>
4000cf90:	c6 06 40 00 	ld  [ %i1 ], %g3
4000cf94:	82 10 00 1b 	mov  %i3, %g1
4000cf98:	84 10 00 19 	mov  %i1, %g2
4000cf9c:	c6 20 40 00 	st  %g3, [ %g1 ]
4000cfa0:	c6 00 a0 04 	ld  [ %g2 + 4 ], %g3
4000cfa4:	c6 20 60 04 	st  %g3, [ %g1 + 4 ]
4000cfa8:	c4 00 a0 08 	ld  [ %g2 + 8 ], %g2
4000cfac:	c4 20 60 08 	st  %g2, [ %g1 + 8 ]
4000cfb0:	92 10 00 19 	mov  %i1, %o1
4000cfb4:	7f ff e9 4c 	call  400074e4 <_free_r>
4000cfb8:	90 10 00 18 	mov  %i0, %o0
4000cfbc:	90 10 00 18 	mov  %i0, %o0
4000cfc0:	7f ff ed 60 	call  40008540 <__malloc_unlock>
4000cfc4:	b0 10 00 1b 	mov  %i3, %i0
4000cfc8:	81 c7 e0 08 	ret 
4000cfcc:	81 e8 00 00 	restore 
4000cfd0:	ba 0f 7f f8 	and  %i5, -8, %i5
4000cfd4:	86 10 00 1d 	mov  %i5, %g3
4000cfd8:	10 bf ff b7 	b  4000ceb4 <_realloc_r+0x3c>
4000cfdc:	85 37 60 1f 	srl  %i5, 0x1f, %g2
4000cfe0:	c2 06 e0 0c 	ld  [ %i3 + 0xc ], %g1
4000cfe4:	c4 06 e0 08 	ld  [ %i3 + 8 ], %g2
4000cfe8:	c2 20 a0 0c 	st  %g1, [ %g2 + 0xc ]
4000cfec:	c4 20 60 08 	st  %g2, [ %g1 + 8 ]
4000cff0:	b6 04 00 04 	add  %l0, %g4, %i3
4000cff4:	b8 10 00 04 	mov  %g4, %i4
4000cff8:	84 27 00 1d 	sub  %i4, %i5, %g2
4000cffc:	c2 04 20 04 	ld  [ %l0 + 4 ], %g1
4000d000:	80 a0 a0 0f 	cmp  %g2, 0xf
4000d004:	18 80 00 15 	bgu  4000d058 <_realloc_r+0x1e0>
4000d008:	82 08 60 01 	and  %g1, 1, %g1
4000d00c:	82 17 00 01 	or  %i4, %g1, %g1
4000d010:	c2 24 20 04 	st  %g1, [ %l0 + 4 ]
4000d014:	c2 06 e0 04 	ld  [ %i3 + 4 ], %g1
4000d018:	82 10 60 01 	or  %g1, 1, %g1
4000d01c:	c2 26 e0 04 	st  %g1, [ %i3 + 4 ]
4000d020:	90 10 00 18 	mov  %i0, %o0
4000d024:	7f ff ed 47 	call  40008540 <__malloc_unlock>
4000d028:	b6 10 00 19 	mov  %i1, %i3
4000d02c:	81 c7 e0 08 	ret 
4000d030:	91 e8 00 1b 	restore  %g0, %i3, %o0
4000d034:	12 bf ff c8 	bne  4000cf54 <_realloc_r+0xdc>
4000d038:	92 10 00 1a 	mov  %i2, %o1
4000d03c:	e6 06 7f f8 	ld  [ %i1 + -8 ], %l3
4000d040:	a6 24 00 13 	sub  %l0, %l3, %l3
4000d044:	c2 04 e0 04 	ld  [ %l3 + 4 ], %g1
4000d048:	10 bf ff be 	b  4000cf40 <_realloc_r+0xc8>
4000d04c:	82 08 7f fc 	and  %g1, -4, %g1
4000d050:	7f ff ea be 	call  40007b48 <_malloc_r>
4000d054:	93 e8 00 1a 	restore  %g0, %i2, %o1
4000d058:	82 17 40 01 	or  %i5, %g1, %g1
4000d05c:	c2 24 20 04 	st  %g1, [ %l0 + 4 ]
4000d060:	92 04 00 1d 	add  %l0, %i5, %o1
4000d064:	84 10 a0 01 	or  %g2, 1, %g2
4000d068:	c4 22 60 04 	st  %g2, [ %o1 + 4 ]
4000d06c:	c2 06 e0 04 	ld  [ %i3 + 4 ], %g1
4000d070:	82 10 60 01 	or  %g1, 1, %g1
4000d074:	92 02 60 08 	add  %o1, 8, %o1
4000d078:	90 10 00 18 	mov  %i0, %o0
4000d07c:	7f ff e9 1a 	call  400074e4 <_free_r>
4000d080:	c2 26 e0 04 	st  %g1, [ %i3 + 4 ]
4000d084:	10 bf ff e8 	b  4000d024 <_realloc_r+0x1ac>
4000d088:	90 10 00 18 	mov  %i0, %o0
4000d08c:	b6 10 20 00 	clr  %i3
4000d090:	82 10 20 0c 	mov  0xc, %g1
4000d094:	c2 26 00 00 	st  %g1, [ %i0 ]
4000d098:	81 c7 e0 08 	ret 
4000d09c:	91 e8 00 1b 	restore  %g0, %i3, %o0
4000d0a0:	c4 06 e0 08 	ld  [ %i3 + 8 ], %g2
4000d0a4:	c2 20 a0 0c 	st  %g1, [ %g2 + 0xc ]
4000d0a8:	c4 20 60 08 	st  %g2, [ %g1 + 8 ]
4000d0ac:	c2 04 e0 0c 	ld  [ %l3 + 0xc ], %g1
4000d0b0:	c4 04 e0 08 	ld  [ %l3 + 8 ], %g2
4000d0b4:	c2 20 a0 0c 	st  %g1, [ %g2 + 0xc ]
4000d0b8:	c4 20 60 08 	st  %g2, [ %g1 + 8 ]
4000d0bc:	94 07 3f fc 	add  %i4, -4, %o2
4000d0c0:	90 04 e0 08 	add  %l3, 8, %o0
4000d0c4:	80 a2 a0 24 	cmp  %o2, 0x24
4000d0c8:	18 80 00 5f 	bgu  4000d244 <_realloc_r+0x3cc>
4000d0cc:	b6 04 c0 11 	add  %l3, %l1, %i3
4000d0d0:	c4 06 40 00 	ld  [ %i1 ], %g2
4000d0d4:	80 a2 a0 13 	cmp  %o2, 0x13
4000d0d8:	08 80 00 0a 	bleu  4000d100 <_realloc_r+0x288>
4000d0dc:	82 10 00 08 	mov  %o0, %g1
4000d0e0:	c4 24 e0 08 	st  %g2, [ %l3 + 8 ]
4000d0e4:	c2 06 60 04 	ld  [ %i1 + 4 ], %g1
4000d0e8:	80 a2 a0 1b 	cmp  %o2, 0x1b
4000d0ec:	18 80 00 74 	bgu  4000d2bc <_realloc_r+0x444>
4000d0f0:	c2 24 e0 0c 	st  %g1, [ %l3 + 0xc ]
4000d0f4:	c4 06 60 08 	ld  [ %i1 + 8 ], %g2
4000d0f8:	82 04 e0 10 	add  %l3, 0x10, %g1
4000d0fc:	b2 06 60 08 	add  %i1, 8, %i1
4000d100:	c4 20 40 00 	st  %g2, [ %g1 ]
4000d104:	c4 06 60 04 	ld  [ %i1 + 4 ], %g2
4000d108:	b8 10 00 11 	mov  %l1, %i4
4000d10c:	c4 20 60 04 	st  %g2, [ %g1 + 4 ]
4000d110:	a0 10 00 13 	mov  %l3, %l0
4000d114:	c4 06 60 08 	ld  [ %i1 + 8 ], %g2
4000d118:	b2 10 00 08 	mov  %o0, %i1
4000d11c:	10 bf ff b7 	b  4000cff8 <_realloc_r+0x180>
4000d120:	c4 20 60 08 	st  %g2, [ %g1 + 8 ]
4000d124:	84 08 bf fc 	and  %g2, -4, %g2
4000d128:	b6 07 60 10 	add  %i5, 0x10, %i3
4000d12c:	88 07 00 02 	add  %i4, %g2, %g4
4000d130:	80 a1 00 1b 	cmp  %g4, %i3
4000d134:	16 80 00 55 	bge  4000d288 <_realloc_r+0x410>
4000d138:	80 88 60 01 	btst  1, %g1
4000d13c:	12 bf ff 86 	bne  4000cf54 <_realloc_r+0xdc>
4000d140:	92 10 00 1a 	mov  %i2, %o1
4000d144:	e6 06 7f f8 	ld  [ %i1 + -8 ], %l3
4000d148:	a6 24 00 13 	sub  %l0, %l3, %l3
4000d14c:	c2 04 e0 04 	ld  [ %l3 + 4 ], %g1
4000d150:	82 08 7f fc 	and  %g1, -4, %g1
4000d154:	84 00 40 02 	add  %g1, %g2, %g2
4000d158:	a2 00 80 1c 	add  %g2, %i4, %l1
4000d15c:	80 a6 c0 11 	cmp  %i3, %l1
4000d160:	34 bf ff 79 	bg,a   4000cf44 <_realloc_r+0xcc>
4000d164:	a2 07 00 01 	add  %i4, %g1, %l1
4000d168:	c2 04 e0 0c 	ld  [ %l3 + 0xc ], %g1
4000d16c:	c4 04 e0 08 	ld  [ %l3 + 8 ], %g2
4000d170:	c2 20 a0 0c 	st  %g1, [ %g2 + 0xc ]
4000d174:	c4 20 60 08 	st  %g2, [ %g1 + 8 ]
4000d178:	94 07 3f fc 	add  %i4, -4, %o2
4000d17c:	80 a2 a0 24 	cmp  %o2, 0x24
4000d180:	18 80 00 68 	bgu  4000d320 <_realloc_r+0x4a8>
4000d184:	b6 04 e0 08 	add  %l3, 8, %i3
4000d188:	c4 06 40 00 	ld  [ %i1 ], %g2
4000d18c:	80 a2 a0 13 	cmp  %o2, 0x13
4000d190:	08 80 00 0a 	bleu  4000d1b8 <_realloc_r+0x340>
4000d194:	82 10 00 1b 	mov  %i3, %g1
4000d198:	c4 24 e0 08 	st  %g2, [ %l3 + 8 ]
4000d19c:	c2 06 60 04 	ld  [ %i1 + 4 ], %g1
4000d1a0:	80 a2 a0 1b 	cmp  %o2, 0x1b
4000d1a4:	18 80 00 64 	bgu  4000d334 <_realloc_r+0x4bc>
4000d1a8:	c2 24 e0 0c 	st  %g1, [ %l3 + 0xc ]
4000d1ac:	c4 06 60 08 	ld  [ %i1 + 8 ], %g2
4000d1b0:	82 04 e0 10 	add  %l3, 0x10, %g1
4000d1b4:	b2 06 60 08 	add  %i1, 8, %i1
4000d1b8:	c4 20 40 00 	st  %g2, [ %g1 ]
4000d1bc:	c4 06 60 04 	ld  [ %i1 + 4 ], %g2
4000d1c0:	c4 20 60 04 	st  %g2, [ %g1 + 4 ]
4000d1c4:	c4 06 60 08 	ld  [ %i1 + 8 ], %g2
4000d1c8:	c4 20 60 08 	st  %g2, [ %g1 + 8 ]
4000d1cc:	84 04 c0 1d 	add  %l3, %i5, %g2
4000d1d0:	82 24 40 1d 	sub  %l1, %i5, %g1
4000d1d4:	c4 24 a0 08 	st  %g2, [ %l2 + 8 ]
4000d1d8:	82 10 60 01 	or  %g1, 1, %g1
4000d1dc:	c2 20 a0 04 	st  %g1, [ %g2 + 4 ]
4000d1e0:	c2 04 e0 04 	ld  [ %l3 + 4 ], %g1
4000d1e4:	82 08 60 01 	and  %g1, 1, %g1
4000d1e8:	90 10 00 18 	mov  %i0, %o0
4000d1ec:	ba 10 40 1d 	or  %g1, %i5, %i5
4000d1f0:	7f ff ec d4 	call  40008540 <__malloc_unlock>
4000d1f4:	fa 24 e0 04 	st  %i5, [ %l3 + 4 ]
4000d1f8:	30 bf ff 8d 	b,a   4000d02c <_realloc_r+0x1b4>
4000d1fc:	c2 06 ff fc 	ld  [ %i3 + -4 ], %g1
4000d200:	82 08 7f fc 	and  %g1, -4, %g1
4000d204:	b8 07 00 01 	add  %i4, %g1, %i4
4000d208:	10 bf ff 7c 	b  4000cff8 <_realloc_r+0x180>
4000d20c:	b6 04 00 1c 	add  %l0, %i4, %i3
4000d210:	c6 26 c0 00 	st  %g3, [ %i3 ]
4000d214:	c2 06 60 04 	ld  [ %i1 + 4 ], %g1
4000d218:	80 a2 a0 1b 	cmp  %o2, 0x1b
4000d21c:	18 80 00 11 	bgu  4000d260 <_realloc_r+0x3e8>
4000d220:	c2 26 e0 04 	st  %g1, [ %i3 + 4 ]
4000d224:	84 06 60 08 	add  %i1, 8, %g2
4000d228:	82 06 e0 08 	add  %i3, 8, %g1
4000d22c:	10 bf ff 5c 	b  4000cf9c <_realloc_r+0x124>
4000d230:	c6 06 60 08 	ld  [ %i1 + 8 ], %g3
4000d234:	7f ff fe 80 	call  4000cc34 <memmove>
4000d238:	92 10 00 19 	mov  %i1, %o1
4000d23c:	10 bf ff 5e 	b  4000cfb4 <_realloc_r+0x13c>
4000d240:	92 10 00 19 	mov  %i1, %o1
4000d244:	92 10 00 19 	mov  %i1, %o1
4000d248:	b8 10 00 11 	mov  %l1, %i4
4000d24c:	b2 10 00 08 	mov  %o0, %i1
4000d250:	7f ff fe 79 	call  4000cc34 <memmove>
4000d254:	a0 10 00 13 	mov  %l3, %l0
4000d258:	10 bf ff 69 	b  4000cffc <_realloc_r+0x184>
4000d25c:	84 27 00 1d 	sub  %i4, %i5, %g2
4000d260:	c2 06 60 08 	ld  [ %i1 + 8 ], %g1
4000d264:	c2 26 e0 08 	st  %g1, [ %i3 + 8 ]
4000d268:	c2 06 60 0c 	ld  [ %i1 + 0xc ], %g1
4000d26c:	80 a2 a0 24 	cmp  %o2, 0x24
4000d270:	02 80 00 1d 	be  4000d2e4 <_realloc_r+0x46c>
4000d274:	c2 26 e0 0c 	st  %g1, [ %i3 + 0xc ]
4000d278:	84 06 60 10 	add  %i1, 0x10, %g2
4000d27c:	82 06 e0 10 	add  %i3, 0x10, %g1
4000d280:	10 bf ff 47 	b  4000cf9c <_realloc_r+0x124>
4000d284:	c6 06 60 10 	ld  [ %i1 + 0x10 ], %g3
4000d288:	a0 04 00 1d 	add  %l0, %i5, %l0
4000d28c:	82 21 00 1d 	sub  %g4, %i5, %g1
4000d290:	e0 24 a0 08 	st  %l0, [ %l2 + 8 ]
4000d294:	82 10 60 01 	or  %g1, 1, %g1
4000d298:	c2 24 20 04 	st  %g1, [ %l0 + 4 ]
4000d29c:	c2 06 7f fc 	ld  [ %i1 + -4 ], %g1
4000d2a0:	82 08 60 01 	and  %g1, 1, %g1
4000d2a4:	90 10 00 18 	mov  %i0, %o0
4000d2a8:	ba 10 40 1d 	or  %g1, %i5, %i5
4000d2ac:	b6 10 00 19 	mov  %i1, %i3
4000d2b0:	7f ff ec a4 	call  40008540 <__malloc_unlock>
4000d2b4:	fa 26 7f fc 	st  %i5, [ %i1 + -4 ]
4000d2b8:	30 bf ff 5d 	b,a   4000d02c <_realloc_r+0x1b4>
4000d2bc:	c2 06 60 08 	ld  [ %i1 + 8 ], %g1
4000d2c0:	c2 24 e0 10 	st  %g1, [ %l3 + 0x10 ]
4000d2c4:	c2 06 60 0c 	ld  [ %i1 + 0xc ], %g1
4000d2c8:	c2 24 e0 14 	st  %g1, [ %l3 + 0x14 ]
4000d2cc:	80 a2 a0 24 	cmp  %o2, 0x24
4000d2d0:	02 80 00 0d 	be  4000d304 <_realloc_r+0x48c>
4000d2d4:	c4 06 60 10 	ld  [ %i1 + 0x10 ], %g2
4000d2d8:	82 04 e0 18 	add  %l3, 0x18, %g1
4000d2dc:	10 bf ff 89 	b  4000d100 <_realloc_r+0x288>
4000d2e0:	b2 06 60 10 	add  %i1, 0x10, %i1
4000d2e4:	c2 06 60 10 	ld  [ %i1 + 0x10 ], %g1
4000d2e8:	c2 26 e0 10 	st  %g1, [ %i3 + 0x10 ]
4000d2ec:	c6 06 60 14 	ld  [ %i1 + 0x14 ], %g3
4000d2f0:	84 06 60 18 	add  %i1, 0x18, %g2
4000d2f4:	c6 26 e0 14 	st  %g3, [ %i3 + 0x14 ]
4000d2f8:	82 06 e0 18 	add  %i3, 0x18, %g1
4000d2fc:	10 bf ff 28 	b  4000cf9c <_realloc_r+0x124>
4000d300:	c6 06 60 18 	ld  [ %i1 + 0x18 ], %g3
4000d304:	c4 24 e0 18 	st  %g2, [ %l3 + 0x18 ]
4000d308:	c4 06 60 14 	ld  [ %i1 + 0x14 ], %g2
4000d30c:	82 04 e0 20 	add  %l3, 0x20, %g1
4000d310:	c4 24 e0 1c 	st  %g2, [ %l3 + 0x1c ]
4000d314:	b2 06 60 18 	add  %i1, 0x18, %i1
4000d318:	10 bf ff 7a 	b  4000d100 <_realloc_r+0x288>
4000d31c:	c4 06 40 00 	ld  [ %i1 ], %g2
4000d320:	92 10 00 19 	mov  %i1, %o1
4000d324:	7f ff fe 44 	call  4000cc34 <memmove>
4000d328:	90 10 00 1b 	mov  %i3, %o0
4000d32c:	10 bf ff a9 	b  4000d1d0 <_realloc_r+0x358>
4000d330:	84 04 c0 1d 	add  %l3, %i5, %g2
4000d334:	c2 06 60 08 	ld  [ %i1 + 8 ], %g1
4000d338:	c2 24 e0 10 	st  %g1, [ %l3 + 0x10 ]
4000d33c:	c2 06 60 0c 	ld  [ %i1 + 0xc ], %g1
4000d340:	c2 24 e0 14 	st  %g1, [ %l3 + 0x14 ]
4000d344:	80 a2 a0 24 	cmp  %o2, 0x24
4000d348:	02 80 00 05 	be  4000d35c <_realloc_r+0x4e4>
4000d34c:	c4 06 60 10 	ld  [ %i1 + 0x10 ], %g2
4000d350:	82 04 e0 18 	add  %l3, 0x18, %g1
4000d354:	10 bf ff 99 	b  4000d1b8 <_realloc_r+0x340>
4000d358:	b2 06 60 10 	add  %i1, 0x10, %i1
4000d35c:	c4 24 e0 18 	st  %g2, [ %l3 + 0x18 ]
4000d360:	c4 06 60 14 	ld  [ %i1 + 0x14 ], %g2
4000d364:	82 04 e0 20 	add  %l3, 0x20, %g1
4000d368:	c4 24 e0 1c 	st  %g2, [ %l3 + 0x1c ]
4000d36c:	b2 06 60 18 	add  %i1, 0x18, %i1
4000d370:	10 bf ff 92 	b  4000d1b8 <_realloc_r+0x340>
4000d374:	c4 06 40 00 	ld  [ %i1 ], %g2

4000d378 <cleanup_glue>:
4000d378:	9d e3 bf a0 	save  %sp, -96, %sp
4000d37c:	fa 06 40 00 	ld  [ %i1 ], %i5
4000d380:	80 a7 60 00 	cmp  %i5, 0
4000d384:	02 80 00 19 	be  4000d3e8 <cleanup_glue+0x70>
4000d388:	01 00 00 00 	nop 
4000d38c:	f8 07 40 00 	ld  [ %i5 ], %i4
4000d390:	80 a7 20 00 	cmp  %i4, 0
4000d394:	02 80 00 13 	be  4000d3e0 <cleanup_glue+0x68>
4000d398:	92 10 00 1d 	mov  %i5, %o1
4000d39c:	f6 07 00 00 	ld  [ %i4 ], %i3
4000d3a0:	80 a6 e0 00 	cmp  %i3, 0
4000d3a4:	02 80 00 0c 	be  4000d3d4 <cleanup_glue+0x5c>
4000d3a8:	92 10 00 1c 	mov  %i4, %o1
4000d3ac:	d2 06 c0 00 	ld  [ %i3 ], %o1
4000d3b0:	80 a2 60 00 	cmp  %o1, 0
4000d3b4:	22 80 00 05 	be,a   4000d3c8 <cleanup_glue+0x50>
4000d3b8:	92 10 00 1b 	mov  %i3, %o1
4000d3bc:	7f ff ff ef 	call  4000d378 <cleanup_glue>
4000d3c0:	90 10 00 18 	mov  %i0, %o0
4000d3c4:	92 10 00 1b 	mov  %i3, %o1
4000d3c8:	7f ff e8 47 	call  400074e4 <_free_r>
4000d3cc:	90 10 00 18 	mov  %i0, %o0
4000d3d0:	92 10 00 1c 	mov  %i4, %o1
4000d3d4:	7f ff e8 44 	call  400074e4 <_free_r>
4000d3d8:	90 10 00 18 	mov  %i0, %o0
4000d3dc:	92 10 00 1d 	mov  %i5, %o1
4000d3e0:	7f ff e8 41 	call  400074e4 <_free_r>
4000d3e4:	90 10 00 18 	mov  %i0, %o0
4000d3e8:	7f ff e8 3f 	call  400074e4 <_free_r>
4000d3ec:	81 e8 00 00 	restore 

4000d3f0 <_reclaim_reent>:
4000d3f0:	9d e3 bf a0 	save  %sp, -96, %sp
4000d3f4:	03 10 00 3c 	sethi  %hi(0x4000f000), %g1
4000d3f8:	c2 00 63 8c 	ld  [ %g1 + 0x38c ], %g1	! 4000f38c <_impure_ptr>
4000d3fc:	80 a0 40 18 	cmp  %g1, %i0
4000d400:	02 80 00 99 	be  4000d664 <_reclaim_reent+0x274>
4000d404:	01 00 00 00 	nop 
4000d408:	c4 06 20 24 	ld  [ %i0 + 0x24 ], %g2
4000d40c:	80 a0 a0 00 	cmp  %g2, 0
4000d410:	22 80 00 97 	be,a   4000d66c <_reclaim_reent+0x27c>
4000d414:	d2 06 20 14 	ld  [ %i0 + 0x14 ], %o1
4000d418:	d2 00 a0 0c 	ld  [ %g2 + 0xc ], %o1
4000d41c:	80 a2 60 00 	cmp  %o1, 0
4000d420:	22 80 00 18 	be,a   4000d480 <_reclaim_reent+0x90>
4000d424:	d2 00 80 00 	ld  [ %g2 ], %o1
4000d428:	b8 10 20 00 	clr  %i4
4000d42c:	fa 02 40 1c 	ld  [ %o1 + %i4 ], %i5
4000d430:	80 a7 60 00 	cmp  %i5, 0
4000d434:	22 80 00 0c 	be,a   4000d464 <_reclaim_reent+0x74>
4000d438:	b8 07 20 04 	add  %i4, 4, %i4
4000d43c:	92 10 00 1d 	mov  %i5, %o1
4000d440:	90 10 00 18 	mov  %i0, %o0
4000d444:	7f ff e8 28 	call  400074e4 <_free_r>
4000d448:	fa 07 40 00 	ld  [ %i5 ], %i5
4000d44c:	80 a7 60 00 	cmp  %i5, 0
4000d450:	12 bf ff fc 	bne  4000d440 <_reclaim_reent+0x50>
4000d454:	92 10 00 1d 	mov  %i5, %o1
4000d458:	c2 06 20 24 	ld  [ %i0 + 0x24 ], %g1
4000d45c:	d2 00 60 0c 	ld  [ %g1 + 0xc ], %o1
4000d460:	b8 07 20 04 	add  %i4, 4, %i4
4000d464:	80 a7 20 80 	cmp  %i4, 0x80
4000d468:	32 bf ff f2 	bne,a   4000d430 <_reclaim_reent+0x40>
4000d46c:	fa 02 40 1c 	ld  [ %o1 + %i4 ], %i5
4000d470:	7f ff e8 1d 	call  400074e4 <_free_r>
4000d474:	90 10 00 18 	mov  %i0, %o0
4000d478:	c4 06 20 24 	ld  [ %i0 + 0x24 ], %g2
4000d47c:	d2 00 80 00 	ld  [ %g2 ], %o1
4000d480:	80 a2 60 00 	cmp  %o1, 0
4000d484:	22 80 00 7f 	be,a   4000d680 <_reclaim_reent+0x290>
4000d488:	d2 06 20 14 	ld  [ %i0 + 0x14 ], %o1
4000d48c:	7f ff e8 16 	call  400074e4 <_free_r>
4000d490:	90 10 00 18 	mov  %i0, %o0
4000d494:	d2 06 20 14 	ld  [ %i0 + 0x14 ], %o1
4000d498:	80 a2 60 00 	cmp  %o1, 0
4000d49c:	22 80 00 05 	be,a   4000d4b0 <_reclaim_reent+0xc0>
4000d4a0:	c4 06 20 24 	ld  [ %i0 + 0x24 ], %g2
4000d4a4:	7f ff e8 10 	call  400074e4 <_free_r>
4000d4a8:	90 10 00 18 	mov  %i0, %o0
4000d4ac:	c4 06 20 24 	ld  [ %i0 + 0x24 ], %g2
4000d4b0:	80 a0 a0 00 	cmp  %g2, 0
4000d4b4:	02 80 00 04 	be  4000d4c4 <_reclaim_reent+0xd4>
4000d4b8:	92 10 00 02 	mov  %g2, %o1
4000d4bc:	7f ff e8 0a 	call  400074e4 <_free_r>
4000d4c0:	90 10 00 18 	mov  %i0, %o0
4000d4c4:	d2 06 20 38 	ld  [ %i0 + 0x38 ], %o1
4000d4c8:	80 a2 60 00 	cmp  %o1, 0
4000d4cc:	22 80 00 05 	be,a   4000d4e0 <_reclaim_reent+0xf0>
4000d4d0:	d2 06 20 3c 	ld  [ %i0 + 0x3c ], %o1
4000d4d4:	7f ff e8 04 	call  400074e4 <_free_r>
4000d4d8:	90 10 00 18 	mov  %i0, %o0
4000d4dc:	d2 06 20 3c 	ld  [ %i0 + 0x3c ], %o1
4000d4e0:	80 a2 60 00 	cmp  %o1, 0
4000d4e4:	22 80 00 05 	be,a   4000d4f8 <_reclaim_reent+0x108>
4000d4e8:	d2 06 20 40 	ld  [ %i0 + 0x40 ], %o1
4000d4ec:	7f ff e7 fe 	call  400074e4 <_free_r>
4000d4f0:	90 10 00 18 	mov  %i0, %o0
4000d4f4:	d2 06 20 40 	ld  [ %i0 + 0x40 ], %o1
4000d4f8:	80 a2 60 00 	cmp  %o1, 0
4000d4fc:	22 80 00 05 	be,a   4000d510 <_reclaim_reent+0x120>
4000d500:	d2 06 20 5c 	ld  [ %i0 + 0x5c ], %o1
4000d504:	7f ff e7 f8 	call  400074e4 <_free_r>
4000d508:	90 10 00 18 	mov  %i0, %o0
4000d50c:	d2 06 20 5c 	ld  [ %i0 + 0x5c ], %o1
4000d510:	80 a2 60 00 	cmp  %o1, 0
4000d514:	22 80 00 05 	be,a   4000d528 <_reclaim_reent+0x138>
4000d518:	d2 06 20 58 	ld  [ %i0 + 0x58 ], %o1
4000d51c:	7f ff e7 f2 	call  400074e4 <_free_r>
4000d520:	90 10 00 18 	mov  %i0, %o0
4000d524:	d2 06 20 58 	ld  [ %i0 + 0x58 ], %o1
4000d528:	80 a2 60 00 	cmp  %o1, 0
4000d52c:	22 80 00 05 	be,a   4000d540 <_reclaim_reent+0x150>
4000d530:	d2 06 20 34 	ld  [ %i0 + 0x34 ], %o1
4000d534:	7f ff e7 ec 	call  400074e4 <_free_r>
4000d538:	90 10 00 18 	mov  %i0, %o0
4000d53c:	d2 06 20 34 	ld  [ %i0 + 0x34 ], %o1
4000d540:	80 a2 60 00 	cmp  %o1, 0
4000d544:	22 80 00 05 	be,a   4000d558 <_reclaim_reent+0x168>
4000d548:	c2 06 20 18 	ld  [ %i0 + 0x18 ], %g1
4000d54c:	7f ff e7 e6 	call  400074e4 <_free_r>
4000d550:	90 10 00 18 	mov  %i0, %o0
4000d554:	c2 06 20 18 	ld  [ %i0 + 0x18 ], %g1
4000d558:	80 a0 60 00 	cmp  %g1, 0
4000d55c:	02 80 00 42 	be  4000d664 <_reclaim_reent+0x274>
4000d560:	01 00 00 00 	nop 
4000d564:	c2 06 20 28 	ld  [ %i0 + 0x28 ], %g1
4000d568:	9f c0 40 00 	call  %g1
4000d56c:	90 10 00 18 	mov  %i0, %o0
4000d570:	f2 06 20 48 	ld  [ %i0 + 0x48 ], %i1
4000d574:	80 a6 60 00 	cmp  %i1, 0
4000d578:	02 80 00 3b 	be  4000d664 <_reclaim_reent+0x274>
4000d57c:	01 00 00 00 	nop 
4000d580:	fa 06 40 00 	ld  [ %i1 ], %i5
4000d584:	80 a7 60 00 	cmp  %i5, 0
4000d588:	02 80 00 35 	be  4000d65c <_reclaim_reent+0x26c>
4000d58c:	01 00 00 00 	nop 
4000d590:	f8 07 40 00 	ld  [ %i5 ], %i4
4000d594:	80 a7 20 00 	cmp  %i4, 0
4000d598:	02 80 00 2f 	be  4000d654 <_reclaim_reent+0x264>
4000d59c:	92 10 00 1d 	mov  %i5, %o1
4000d5a0:	f6 07 00 00 	ld  [ %i4 ], %i3
4000d5a4:	80 a6 e0 00 	cmp  %i3, 0
4000d5a8:	02 80 00 28 	be  4000d648 <_reclaim_reent+0x258>
4000d5ac:	92 10 00 1c 	mov  %i4, %o1
4000d5b0:	f4 06 c0 00 	ld  [ %i3 ], %i2
4000d5b4:	80 a6 a0 00 	cmp  %i2, 0
4000d5b8:	02 80 00 21 	be  4000d63c <_reclaim_reent+0x24c>
4000d5bc:	92 10 00 1b 	mov  %i3, %o1
4000d5c0:	e0 06 80 00 	ld  [ %i2 ], %l0
4000d5c4:	80 a4 20 00 	cmp  %l0, 0
4000d5c8:	02 80 00 1a 	be  4000d630 <_reclaim_reent+0x240>
4000d5cc:	92 10 00 1a 	mov  %i2, %o1
4000d5d0:	e2 04 00 00 	ld  [ %l0 ], %l1
4000d5d4:	80 a4 60 00 	cmp  %l1, 0
4000d5d8:	02 80 00 13 	be  4000d624 <_reclaim_reent+0x234>
4000d5dc:	92 10 00 10 	mov  %l0, %o1
4000d5e0:	e4 04 40 00 	ld  [ %l1 ], %l2
4000d5e4:	80 a4 a0 00 	cmp  %l2, 0
4000d5e8:	02 80 00 0c 	be  4000d618 <_reclaim_reent+0x228>
4000d5ec:	92 10 00 11 	mov  %l1, %o1
4000d5f0:	d2 04 80 00 	ld  [ %l2 ], %o1
4000d5f4:	80 a2 60 00 	cmp  %o1, 0
4000d5f8:	22 80 00 05 	be,a   4000d60c <_reclaim_reent+0x21c>
4000d5fc:	92 10 00 12 	mov  %l2, %o1
4000d600:	7f ff ff 5e 	call  4000d378 <cleanup_glue>
4000d604:	90 10 00 18 	mov  %i0, %o0
4000d608:	92 10 00 12 	mov  %l2, %o1
4000d60c:	7f ff e7 b6 	call  400074e4 <_free_r>
4000d610:	90 10 00 18 	mov  %i0, %o0
4000d614:	92 10 00 11 	mov  %l1, %o1
4000d618:	7f ff e7 b3 	call  400074e4 <_free_r>
4000d61c:	90 10 00 18 	mov  %i0, %o0
4000d620:	92 10 00 10 	mov  %l0, %o1
4000d624:	7f ff e7 b0 	call  400074e4 <_free_r>
4000d628:	90 10 00 18 	mov  %i0, %o0
4000d62c:	92 10 00 1a 	mov  %i2, %o1
4000d630:	7f ff e7 ad 	call  400074e4 <_free_r>
4000d634:	90 10 00 18 	mov  %i0, %o0
4000d638:	92 10 00 1b 	mov  %i3, %o1
4000d63c:	7f ff e7 aa 	call  400074e4 <_free_r>
4000d640:	90 10 00 18 	mov  %i0, %o0
4000d644:	92 10 00 1c 	mov  %i4, %o1
4000d648:	7f ff e7 a7 	call  400074e4 <_free_r>
4000d64c:	90 10 00 18 	mov  %i0, %o0
4000d650:	92 10 00 1d 	mov  %i5, %o1
4000d654:	7f ff e7 a4 	call  400074e4 <_free_r>
4000d658:	90 10 00 18 	mov  %i0, %o0
4000d65c:	7f ff e7 a2 	call  400074e4 <_free_r>
4000d660:	81 e8 00 00 	restore 
4000d664:	81 c7 e0 08 	ret 
4000d668:	81 e8 00 00 	restore 
4000d66c:	80 a2 60 00 	cmp  %o1, 0
4000d670:	12 bf ff 8d 	bne  4000d4a4 <_reclaim_reent+0xb4>
4000d674:	01 00 00 00 	nop 
4000d678:	10 bf ff 94 	b  4000d4c8 <_reclaim_reent+0xd8>
4000d67c:	d2 06 20 38 	ld  [ %i0 + 0x38 ], %o1
4000d680:	80 a2 60 00 	cmp  %o1, 0
4000d684:	12 bf ff 88 	bne  4000d4a4 <_reclaim_reent+0xb4>
4000d688:	01 00 00 00 	nop 
4000d68c:	10 bf ff 8c 	b  4000d4bc <_reclaim_reent+0xcc>
4000d690:	92 10 00 02 	mov  %g2, %o1

4000d694 <strcmp>:
4000d694:	82 12 00 09 	or  %o0, %o1, %g1
4000d698:	80 88 60 03 	btst  3, %g1
4000d69c:	32 80 00 23 	bne,a   4000d728 <strcmp+0x94>
4000d6a0:	c4 0a 00 00 	ldub  [ %o0 ], %g2
4000d6a4:	c2 02 00 00 	ld  [ %o0 ], %g1
4000d6a8:	c4 02 40 00 	ld  [ %o1 ], %g2
4000d6ac:	09 3f bf bf 	sethi  %hi(0xfefefc00), %g4
4000d6b0:	07 20 20 20 	sethi  %hi(0x80808000), %g3
4000d6b4:	88 11 22 ff 	or  %g4, 0x2ff, %g4
4000d6b8:	80 a0 40 02 	cmp  %g1, %g2
4000d6bc:	12 80 00 1a 	bne  4000d724 <strcmp+0x90>
4000d6c0:	86 10 e0 80 	or  %g3, 0x80, %g3
4000d6c4:	84 00 40 04 	add  %g1, %g4, %g2
4000d6c8:	82 28 80 01 	andn  %g2, %g1, %g1
4000d6cc:	80 88 40 03 	btst  %g1, %g3
4000d6d0:	12 80 00 0d 	bne  4000d704 <strcmp+0x70>
4000d6d4:	01 00 00 00 	nop 
4000d6d8:	90 02 20 04 	add  %o0, 4, %o0
4000d6dc:	92 02 60 04 	add  %o1, 4, %o1
4000d6e0:	c2 02 00 00 	ld  [ %o0 ], %g1
4000d6e4:	c4 02 40 00 	ld  [ %o1 ], %g2
4000d6e8:	80 a0 40 02 	cmp  %g1, %g2
4000d6ec:	12 80 00 0e 	bne  4000d724 <strcmp+0x90>
4000d6f0:	84 00 40 04 	add  %g1, %g4, %g2
4000d6f4:	82 28 80 01 	andn  %g2, %g1, %g1
4000d6f8:	80 88 40 03 	btst  %g1, %g3
4000d6fc:	22 bf ff f8 	be,a   4000d6dc <strcmp+0x48>
4000d700:	90 02 20 04 	add  %o0, 4, %o0
4000d704:	81 c3 e0 08 	retl 
4000d708:	90 10 20 00 	clr  %o0
4000d70c:	83 38 60 18 	sra  %g1, 0x18, %g1
4000d710:	80 a0 c0 01 	cmp  %g3, %g1
4000d714:	32 80 00 0d 	bne,a   4000d748 <strcmp+0xb4>
4000d718:	90 08 a0 ff 	and  %g2, 0xff, %o0
4000d71c:	90 02 20 01 	inc  %o0
4000d720:	92 02 60 01 	inc  %o1
4000d724:	c4 0a 00 00 	ldub  [ %o0 ], %g2
4000d728:	83 28 a0 18 	sll  %g2, 0x18, %g1
4000d72c:	80 a0 60 00 	cmp  %g1, 0
4000d730:	32 bf ff f7 	bne,a   4000d70c <strcmp+0x78>
4000d734:	c6 4a 40 00 	ldsb  [ %o1 ], %g3
4000d738:	c4 0a 40 00 	ldub  [ %o1 ], %g2
4000d73c:	90 10 20 00 	clr  %o0
4000d740:	81 c3 e0 08 	retl 
4000d744:	90 22 00 02 	sub  %o0, %g2, %o0
4000d748:	c4 0a 40 00 	ldub  [ %o1 ], %g2
4000d74c:	81 c3 e0 08 	retl 
4000d750:	90 22 00 02 	sub  %o0, %g2, %o0

4000d754 <__swbuf_r>:
4000d754:	9d e3 bf a0 	save  %sp, -96, %sp
4000d758:	ba 96 20 00 	orcc  %i0, 0, %i5
4000d75c:	02 80 00 06 	be  4000d774 <__swbuf_r+0x20>
4000d760:	03 10 00 3b 	sethi  %hi(0x4000ec00), %g1
4000d764:	c2 07 60 18 	ld  [ %i5 + 0x18 ], %g1
4000d768:	80 a0 60 00 	cmp  %g1, 0
4000d76c:	02 80 00 3a 	be  4000d854 <__swbuf_r+0x100>
4000d770:	03 10 00 3b 	sethi  %hi(0x4000ec00), %g1
4000d774:	82 10 62 50 	or  %g1, 0x250, %g1	! 4000ee50 <__sf_fake_stdin>
4000d778:	80 a6 80 01 	cmp  %i2, %g1
4000d77c:	22 80 00 3e 	be,a   4000d874 <__swbuf_r+0x120>
4000d780:	f4 07 60 04 	ld  [ %i5 + 4 ], %i2
4000d784:	03 10 00 3b 	sethi  %hi(0x4000ec00), %g1
4000d788:	82 10 62 30 	or  %g1, 0x230, %g1	! 4000ee30 <__sf_fake_stdout>
4000d78c:	80 a6 80 01 	cmp  %i2, %g1
4000d790:	02 80 00 48 	be  4000d8b0 <__swbuf_r+0x15c>
4000d794:	03 10 00 3b 	sethi  %hi(0x4000ec00), %g1
4000d798:	82 10 62 10 	or  %g1, 0x210, %g1	! 4000ee10 <__sf_fake_stderr>
4000d79c:	80 a6 80 01 	cmp  %i2, %g1
4000d7a0:	22 80 00 02 	be,a   4000d7a8 <__swbuf_r+0x54>
4000d7a4:	f4 07 60 0c 	ld  [ %i5 + 0xc ], %i2
4000d7a8:	c2 06 a0 18 	ld  [ %i2 + 0x18 ], %g1
4000d7ac:	c2 26 a0 08 	st  %g1, [ %i2 + 8 ]
4000d7b0:	c4 16 a0 0c 	lduh  [ %i2 + 0xc ], %g2
4000d7b4:	80 88 a0 08 	btst  8, %g2
4000d7b8:	02 80 00 36 	be  4000d890 <__swbuf_r+0x13c>
4000d7bc:	92 10 00 1a 	mov  %i2, %o1
4000d7c0:	c2 06 a0 10 	ld  [ %i2 + 0x10 ], %g1
4000d7c4:	80 a0 60 00 	cmp  %g1, 0
4000d7c8:	02 80 00 32 	be  4000d890 <__swbuf_r+0x13c>
4000d7cc:	92 10 00 1a 	mov  %i2, %o1
4000d7d0:	07 00 00 08 	sethi  %hi(0x2000), %g3
4000d7d4:	80 88 c0 02 	btst  %g3, %g2
4000d7d8:	12 80 00 07 	bne  4000d7f4 <__swbuf_r+0xa0>
4000d7dc:	b0 0e 60 ff 	and  %i1, 0xff, %i0
4000d7e0:	84 10 80 03 	or  %g2, %g3, %g2
4000d7e4:	c8 06 a0 60 	ld  [ %i2 + 0x60 ], %g4
4000d7e8:	c4 36 a0 0c 	sth  %g2, [ %i2 + 0xc ]
4000d7ec:	84 29 00 03 	andn  %g4, %g3, %g2
4000d7f0:	c4 26 a0 60 	st  %g2, [ %i2 + 0x60 ]
4000d7f4:	c4 06 80 00 	ld  [ %i2 ], %g2
4000d7f8:	c6 06 a0 14 	ld  [ %i2 + 0x14 ], %g3
4000d7fc:	82 20 80 01 	sub  %g2, %g1, %g1
4000d800:	80 a0 c0 01 	cmp  %g3, %g1
4000d804:	04 80 00 35 	ble  4000d8d8 <__swbuf_r+0x184>
4000d808:	82 00 60 01 	inc  %g1
4000d80c:	c6 06 a0 08 	ld  [ %i2 + 8 ], %g3
4000d810:	88 00 a0 01 	add  %g2, 1, %g4
4000d814:	86 00 ff ff 	add  %g3, -1, %g3
4000d818:	c8 26 80 00 	st  %g4, [ %i2 ]
4000d81c:	c6 26 a0 08 	st  %g3, [ %i2 + 8 ]
4000d820:	f2 28 80 00 	stb  %i1, [ %g2 ]
4000d824:	c4 06 a0 14 	ld  [ %i2 + 0x14 ], %g2
4000d828:	80 a0 80 01 	cmp  %g2, %g1
4000d82c:	02 80 00 23 	be  4000d8b8 <__swbuf_r+0x164>
4000d830:	80 a6 20 0a 	cmp  %i0, 0xa
4000d834:	12 80 00 06 	bne  4000d84c <__swbuf_r+0xf8>
4000d838:	01 00 00 00 	nop 
4000d83c:	c2 16 a0 0c 	lduh  [ %i2 + 0xc ], %g1
4000d840:	80 88 60 01 	btst  1, %g1
4000d844:	12 80 00 1e 	bne  4000d8bc <__swbuf_r+0x168>
4000d848:	92 10 00 1a 	mov  %i2, %o1
4000d84c:	81 c7 e0 08 	ret 
4000d850:	81 e8 00 00 	restore 
4000d854:	7f ff e6 df 	call  400073d0 <__sinit>
4000d858:	90 10 00 1d 	mov  %i5, %o0
4000d85c:	03 10 00 3b 	sethi  %hi(0x4000ec00), %g1
4000d860:	82 10 62 50 	or  %g1, 0x250, %g1	! 4000ee50 <__sf_fake_stdin>
4000d864:	80 a6 80 01 	cmp  %i2, %g1
4000d868:	12 bf ff c8 	bne  4000d788 <__swbuf_r+0x34>
4000d86c:	03 10 00 3b 	sethi  %hi(0x4000ec00), %g1
4000d870:	f4 07 60 04 	ld  [ %i5 + 4 ], %i2
4000d874:	c2 06 a0 18 	ld  [ %i2 + 0x18 ], %g1
4000d878:	c2 26 a0 08 	st  %g1, [ %i2 + 8 ]
4000d87c:	c4 16 a0 0c 	lduh  [ %i2 + 0xc ], %g2
4000d880:	80 88 a0 08 	btst  8, %g2
4000d884:	32 bf ff d0 	bne,a   4000d7c4 <__swbuf_r+0x70>
4000d888:	c2 06 a0 10 	ld  [ %i2 + 0x10 ], %g1
4000d88c:	92 10 00 1a 	mov  %i2, %o1
4000d890:	7f ff de 58 	call  400051f0 <__swsetup_r>
4000d894:	90 10 00 1d 	mov  %i5, %o0
4000d898:	80 a2 20 00 	cmp  %o0, 0
4000d89c:	12 80 00 0d 	bne  4000d8d0 <__swbuf_r+0x17c>
4000d8a0:	01 00 00 00 	nop 
4000d8a4:	c4 16 a0 0c 	lduh  [ %i2 + 0xc ], %g2
4000d8a8:	10 bf ff ca 	b  4000d7d0 <__swbuf_r+0x7c>
4000d8ac:	c2 06 a0 10 	ld  [ %i2 + 0x10 ], %g1
4000d8b0:	10 bf ff be 	b  4000d7a8 <__swbuf_r+0x54>
4000d8b4:	f4 07 60 08 	ld  [ %i5 + 8 ], %i2
4000d8b8:	92 10 00 1a 	mov  %i2, %o1
4000d8bc:	7f ff e5 9e 	call  40006f34 <_fflush_r>
4000d8c0:	90 10 00 1d 	mov  %i5, %o0
4000d8c4:	80 a2 20 00 	cmp  %o0, 0
4000d8c8:	02 bf ff e1 	be  4000d84c <__swbuf_r+0xf8>
4000d8cc:	01 00 00 00 	nop 
4000d8d0:	81 c7 e0 08 	ret 
4000d8d4:	91 e8 3f ff 	restore  %g0, -1, %o0
4000d8d8:	92 10 00 1a 	mov  %i2, %o1
4000d8dc:	7f ff e5 96 	call  40006f34 <_fflush_r>
4000d8e0:	90 10 00 1d 	mov  %i5, %o0
4000d8e4:	80 a2 20 00 	cmp  %o0, 0
4000d8e8:	12 bf ff fa 	bne  4000d8d0 <__swbuf_r+0x17c>
4000d8ec:	82 10 20 01 	mov  1, %g1
4000d8f0:	10 bf ff c7 	b  4000d80c <__swbuf_r+0xb8>
4000d8f4:	c4 06 80 00 	ld  [ %i2 ], %g2

4000d8f8 <__swbuf>:
4000d8f8:	9d e3 bf a0 	save  %sp, -96, %sp
4000d8fc:	03 10 00 3c 	sethi  %hi(0x4000f000), %g1
4000d900:	fa 00 63 8c 	ld  [ %g1 + 0x38c ], %i5	! 4000f38c <_impure_ptr>
4000d904:	80 a7 60 00 	cmp  %i5, 0
4000d908:	02 80 00 06 	be  4000d920 <__swbuf+0x28>
4000d90c:	b8 10 00 18 	mov  %i0, %i4
4000d910:	c2 07 60 18 	ld  [ %i5 + 0x18 ], %g1
4000d914:	80 a0 60 00 	cmp  %g1, 0
4000d918:	02 80 00 3b 	be  4000da04 <__swbuf+0x10c>
4000d91c:	01 00 00 00 	nop 
4000d920:	03 10 00 3b 	sethi  %hi(0x4000ec00), %g1
4000d924:	82 10 62 50 	or  %g1, 0x250, %g1	! 4000ee50 <__sf_fake_stdin>
4000d928:	80 a6 40 01 	cmp  %i1, %g1
4000d92c:	22 80 00 3e 	be,a   4000da24 <__swbuf+0x12c>
4000d930:	f2 07 60 04 	ld  [ %i5 + 4 ], %i1
4000d934:	03 10 00 3b 	sethi  %hi(0x4000ec00), %g1
4000d938:	82 10 62 30 	or  %g1, 0x230, %g1	! 4000ee30 <__sf_fake_stdout>
4000d93c:	80 a6 40 01 	cmp  %i1, %g1
4000d940:	02 80 00 48 	be  4000da60 <__swbuf+0x168>
4000d944:	03 10 00 3b 	sethi  %hi(0x4000ec00), %g1
4000d948:	82 10 62 10 	or  %g1, 0x210, %g1	! 4000ee10 <__sf_fake_stderr>
4000d94c:	80 a6 40 01 	cmp  %i1, %g1
4000d950:	22 80 00 02 	be,a   4000d958 <__swbuf+0x60>
4000d954:	f2 07 60 0c 	ld  [ %i5 + 0xc ], %i1
4000d958:	c2 06 60 18 	ld  [ %i1 + 0x18 ], %g1
4000d95c:	c2 26 60 08 	st  %g1, [ %i1 + 8 ]
4000d960:	c4 16 60 0c 	lduh  [ %i1 + 0xc ], %g2
4000d964:	80 88 a0 08 	btst  8, %g2
4000d968:	02 80 00 36 	be  4000da40 <__swbuf+0x148>
4000d96c:	92 10 00 19 	mov  %i1, %o1
4000d970:	c2 06 60 10 	ld  [ %i1 + 0x10 ], %g1
4000d974:	80 a0 60 00 	cmp  %g1, 0
4000d978:	02 80 00 32 	be  4000da40 <__swbuf+0x148>
4000d97c:	92 10 00 19 	mov  %i1, %o1
4000d980:	07 00 00 08 	sethi  %hi(0x2000), %g3
4000d984:	80 88 c0 02 	btst  %g3, %g2
4000d988:	12 80 00 07 	bne  4000d9a4 <__swbuf+0xac>
4000d98c:	b0 0f 20 ff 	and  %i4, 0xff, %i0
4000d990:	84 10 80 03 	or  %g2, %g3, %g2
4000d994:	c8 06 60 60 	ld  [ %i1 + 0x60 ], %g4
4000d998:	c4 36 60 0c 	sth  %g2, [ %i1 + 0xc ]
4000d99c:	84 29 00 03 	andn  %g4, %g3, %g2
4000d9a0:	c4 26 60 60 	st  %g2, [ %i1 + 0x60 ]
4000d9a4:	c4 06 40 00 	ld  [ %i1 ], %g2
4000d9a8:	c6 06 60 14 	ld  [ %i1 + 0x14 ], %g3
4000d9ac:	82 20 80 01 	sub  %g2, %g1, %g1
4000d9b0:	80 a0 40 03 	cmp  %g1, %g3
4000d9b4:	16 80 00 35 	bge  4000da88 <__swbuf+0x190>
4000d9b8:	82 00 60 01 	inc  %g1
4000d9bc:	c6 06 60 08 	ld  [ %i1 + 8 ], %g3
4000d9c0:	88 00 a0 01 	add  %g2, 1, %g4
4000d9c4:	86 00 ff ff 	add  %g3, -1, %g3
4000d9c8:	c8 26 40 00 	st  %g4, [ %i1 ]
4000d9cc:	c6 26 60 08 	st  %g3, [ %i1 + 8 ]
4000d9d0:	f8 28 80 00 	stb  %i4, [ %g2 ]
4000d9d4:	c4 06 60 14 	ld  [ %i1 + 0x14 ], %g2
4000d9d8:	80 a0 80 01 	cmp  %g2, %g1
4000d9dc:	02 80 00 23 	be  4000da68 <__swbuf+0x170>
4000d9e0:	80 a6 20 0a 	cmp  %i0, 0xa
4000d9e4:	12 80 00 06 	bne  4000d9fc <__swbuf+0x104>
4000d9e8:	01 00 00 00 	nop 
4000d9ec:	c2 16 60 0c 	lduh  [ %i1 + 0xc ], %g1
4000d9f0:	80 88 60 01 	btst  1, %g1
4000d9f4:	12 80 00 1e 	bne  4000da6c <__swbuf+0x174>
4000d9f8:	92 10 00 19 	mov  %i1, %o1
4000d9fc:	81 c7 e0 08 	ret 
4000da00:	81 e8 00 00 	restore 
4000da04:	7f ff e6 73 	call  400073d0 <__sinit>
4000da08:	90 10 00 1d 	mov  %i5, %o0
4000da0c:	03 10 00 3b 	sethi  %hi(0x4000ec00), %g1
4000da10:	82 10 62 50 	or  %g1, 0x250, %g1	! 4000ee50 <__sf_fake_stdin>
4000da14:	80 a6 40 01 	cmp  %i1, %g1
4000da18:	12 bf ff c8 	bne  4000d938 <__swbuf+0x40>
4000da1c:	03 10 00 3b 	sethi  %hi(0x4000ec00), %g1
4000da20:	f2 07 60 04 	ld  [ %i5 + 4 ], %i1
4000da24:	c2 06 60 18 	ld  [ %i1 + 0x18 ], %g1
4000da28:	c2 26 60 08 	st  %g1, [ %i1 + 8 ]
4000da2c:	c4 16 60 0c 	lduh  [ %i1 + 0xc ], %g2
4000da30:	80 88 a0 08 	btst  8, %g2
4000da34:	32 bf ff d0 	bne,a   4000d974 <__swbuf+0x7c>
4000da38:	c2 06 60 10 	ld  [ %i1 + 0x10 ], %g1
4000da3c:	92 10 00 19 	mov  %i1, %o1
4000da40:	7f ff dd ec 	call  400051f0 <__swsetup_r>
4000da44:	90 10 00 1d 	mov  %i5, %o0
4000da48:	80 a2 20 00 	cmp  %o0, 0
4000da4c:	12 80 00 0d 	bne  4000da80 <__swbuf+0x188>
4000da50:	01 00 00 00 	nop 
4000da54:	c4 16 60 0c 	lduh  [ %i1 + 0xc ], %g2
4000da58:	10 bf ff ca 	b  4000d980 <__swbuf+0x88>
4000da5c:	c2 06 60 10 	ld  [ %i1 + 0x10 ], %g1
4000da60:	10 bf ff be 	b  4000d958 <__swbuf+0x60>
4000da64:	f2 07 60 08 	ld  [ %i5 + 8 ], %i1
4000da68:	92 10 00 19 	mov  %i1, %o1
4000da6c:	7f ff e5 32 	call  40006f34 <_fflush_r>
4000da70:	90 10 00 1d 	mov  %i5, %o0
4000da74:	80 a2 20 00 	cmp  %o0, 0
4000da78:	02 bf ff e1 	be  4000d9fc <__swbuf+0x104>
4000da7c:	01 00 00 00 	nop 
4000da80:	81 c7 e0 08 	ret 
4000da84:	91 e8 3f ff 	restore  %g0, -1, %o0
4000da88:	92 10 00 19 	mov  %i1, %o1
4000da8c:	7f ff e5 2a 	call  40006f34 <_fflush_r>
4000da90:	90 10 00 1d 	mov  %i5, %o0
4000da94:	80 a2 20 00 	cmp  %o0, 0
4000da98:	12 bf ff fa 	bne  4000da80 <__swbuf+0x188>
4000da9c:	82 10 20 01 	mov  1, %g1
4000daa0:	10 bf ff c7 	b  4000d9bc <__swbuf+0xc4>
4000daa4:	c4 06 40 00 	ld  [ %i1 ], %g2

4000daa8 <_wcrtomb_r>:
4000daa8:	9d e3 bf 90 	save  %sp, -112, %sp
4000daac:	03 10 00 3c 	sethi  %hi(0x4000f000), %g1
4000dab0:	80 a6 60 00 	cmp  %i1, 0
4000dab4:	c2 00 63 8c 	ld  [ %g1 + 0x38c ], %g1
4000dab8:	02 80 00 12 	be  4000db00 <_wcrtomb_r+0x58>
4000dabc:	c2 00 60 20 	ld  [ %g1 + 0x20 ], %g1
4000dac0:	80 a0 60 00 	cmp  %g1, 0
4000dac4:	22 80 00 0d 	be,a   4000daf8 <_wcrtomb_r+0x50>
4000dac8:	03 10 00 3e 	sethi  %hi(0x4000f800), %g1
4000dacc:	c2 00 60 e0 	ld  [ %g1 + 0xe0 ], %g1	! 4000f8e0 <__global_locale+0xe0>
4000dad0:	96 10 00 1b 	mov  %i3, %o3
4000dad4:	94 10 00 1a 	mov  %i2, %o2
4000dad8:	92 10 00 19 	mov  %i1, %o1
4000dadc:	9f c0 40 00 	call  %g1
4000dae0:	90 10 00 18 	mov  %i0, %o0
4000dae4:	80 a2 3f ff 	cmp  %o0, -1
4000dae8:	22 80 00 13 	be,a   4000db34 <_wcrtomb_r+0x8c>
4000daec:	c0 26 c0 00 	clr  [ %i3 ]
4000daf0:	81 c7 e0 08 	ret 
4000daf4:	91 e8 00 08 	restore  %g0, %o0, %o0
4000daf8:	10 bf ff f5 	b  4000dacc <_wcrtomb_r+0x24>
4000dafc:	82 10 60 00 	mov  %g1, %g1
4000db00:	80 a0 60 00 	cmp  %g1, 0
4000db04:	22 80 00 10 	be,a   4000db44 <_wcrtomb_r+0x9c>
4000db08:	03 10 00 3e 	sethi  %hi(0x4000f800), %g1
4000db0c:	c2 00 60 e0 	ld  [ %g1 + 0xe0 ], %g1	! 4000f8e0 <__global_locale+0xe0>
4000db10:	96 10 00 1b 	mov  %i3, %o3
4000db14:	94 10 20 00 	clr  %o2
4000db18:	92 07 bf f0 	add  %fp, -16, %o1
4000db1c:	9f c0 40 00 	call  %g1
4000db20:	90 10 00 18 	mov  %i0, %o0
4000db24:	80 a2 3f ff 	cmp  %o0, -1
4000db28:	12 bf ff f2 	bne  4000daf0 <_wcrtomb_r+0x48>
4000db2c:	01 00 00 00 	nop 
4000db30:	c0 26 c0 00 	clr  [ %i3 ]
4000db34:	82 10 20 8a 	mov  0x8a, %g1
4000db38:	c2 26 00 00 	st  %g1, [ %i0 ]
4000db3c:	81 c7 e0 08 	ret 
4000db40:	91 e8 00 08 	restore  %g0, %o0, %o0
4000db44:	10 bf ff f2 	b  4000db0c <_wcrtomb_r+0x64>
4000db48:	82 10 60 00 	mov  %g1, %g1

4000db4c <wcrtomb>:
4000db4c:	9d e3 bf 90 	save  %sp, -112, %sp
4000db50:	03 10 00 3c 	sethi  %hi(0x4000f000), %g1
4000db54:	80 a6 20 00 	cmp  %i0, 0
4000db58:	fa 00 63 8c 	ld  [ %g1 + 0x38c ], %i5
4000db5c:	02 80 00 17 	be  4000dbb8 <wcrtomb+0x6c>
4000db60:	c2 07 60 20 	ld  [ %i5 + 0x20 ], %g1
4000db64:	80 a0 60 00 	cmp  %g1, 0
4000db68:	22 80 00 12 	be,a   4000dbb0 <wcrtomb+0x64>
4000db6c:	03 10 00 3e 	sethi  %hi(0x4000f800), %g1
4000db70:	92 10 00 18 	mov  %i0, %o1
4000db74:	c2 00 60 e0 	ld  [ %g1 + 0xe0 ], %g1
4000db78:	96 10 00 1a 	mov  %i2, %o3
4000db7c:	94 10 00 19 	mov  %i1, %o2
4000db80:	9f c0 40 00 	call  %g1
4000db84:	90 10 00 1d 	mov  %i5, %o0
4000db88:	b0 10 00 08 	mov  %o0, %i0
4000db8c:	80 a6 3f ff 	cmp  %i0, -1
4000db90:	22 80 00 04 	be,a   4000dba0 <wcrtomb+0x54>
4000db94:	c0 26 80 00 	clr  [ %i2 ]
4000db98:	81 c7 e0 08 	ret 
4000db9c:	81 e8 00 00 	restore 
4000dba0:	82 10 20 8a 	mov  0x8a, %g1
4000dba4:	c2 27 40 00 	st  %g1, [ %i5 ]
4000dba8:	81 c7 e0 08 	ret 
4000dbac:	81 e8 00 00 	restore 
4000dbb0:	10 bf ff f0 	b  4000db70 <wcrtomb+0x24>
4000dbb4:	82 10 60 00 	mov  %g1, %g1
4000dbb8:	80 a0 60 00 	cmp  %g1, 0
4000dbbc:	22 80 00 0a 	be,a   4000dbe4 <wcrtomb+0x98>
4000dbc0:	03 10 00 3e 	sethi  %hi(0x4000f800), %g1
4000dbc4:	c2 00 60 e0 	ld  [ %g1 + 0xe0 ], %g1	! 4000f8e0 <__global_locale+0xe0>
4000dbc8:	96 10 00 1a 	mov  %i2, %o3
4000dbcc:	94 10 20 00 	clr  %o2
4000dbd0:	92 07 bf f0 	add  %fp, -16, %o1
4000dbd4:	9f c0 40 00 	call  %g1
4000dbd8:	90 10 00 1d 	mov  %i5, %o0
4000dbdc:	10 bf ff ec 	b  4000db8c <wcrtomb+0x40>
4000dbe0:	b0 10 00 08 	mov  %o0, %i0
4000dbe4:	10 bf ff f8 	b  4000dbc4 <wcrtomb+0x78>
4000dbe8:	82 10 60 00 	mov  %g1, %g1

4000dbec <_wctomb_r>:
4000dbec:	9d e3 bf a0 	save  %sp, -96, %sp
4000dbf0:	03 10 00 3c 	sethi  %hi(0x4000f000), %g1
4000dbf4:	c2 00 63 8c 	ld  [ %g1 + 0x38c ], %g1	! 4000f38c <_impure_ptr>
4000dbf8:	c2 00 60 20 	ld  [ %g1 + 0x20 ], %g1
4000dbfc:	80 a0 60 00 	cmp  %g1, 0
4000dc00:	02 80 00 09 	be  4000dc24 <_wctomb_r+0x38>
4000dc04:	96 10 00 1b 	mov  %i3, %o3
4000dc08:	c2 00 60 e0 	ld  [ %g1 + 0xe0 ], %g1
4000dc0c:	94 10 00 1a 	mov  %i2, %o2
4000dc10:	92 10 00 19 	mov  %i1, %o1
4000dc14:	9f c0 40 00 	call  %g1
4000dc18:	90 10 00 18 	mov  %i0, %o0
4000dc1c:	81 c7 e0 08 	ret 
4000dc20:	91 e8 00 08 	restore  %g0, %o0, %o0
4000dc24:	94 10 00 1a 	mov  %i2, %o2
4000dc28:	92 10 00 19 	mov  %i1, %o1
4000dc2c:	03 10 00 3e 	sethi  %hi(0x4000f800), %g1
4000dc30:	82 10 60 00 	mov  %g1, %g1	! 4000f800 <__global_locale>
4000dc34:	c2 00 60 e0 	ld  [ %g1 + 0xe0 ], %g1
4000dc38:	9f c0 40 00 	call  %g1
4000dc3c:	90 10 00 18 	mov  %i0, %o0
4000dc40:	81 c7 e0 08 	ret 
4000dc44:	91 e8 00 08 	restore  %g0, %o0, %o0

4000dc48 <__ascii_wctomb>:
4000dc48:	80 a2 60 00 	cmp  %o1, 0
4000dc4c:	02 80 00 0c 	be  4000dc7c <__ascii_wctomb+0x34>
4000dc50:	80 a2 a0 ff 	cmp  %o2, 0xff
4000dc54:	18 80 00 05 	bgu  4000dc68 <__ascii_wctomb+0x20>
4000dc58:	82 10 20 01 	mov  1, %g1
4000dc5c:	d4 2a 40 00 	stb  %o2, [ %o1 ]
4000dc60:	81 c3 e0 08 	retl 
4000dc64:	90 10 00 01 	mov  %g1, %o0
4000dc68:	82 10 3f ff 	mov  -1, %g1
4000dc6c:	84 10 20 8a 	mov  0x8a, %g2
4000dc70:	c4 22 00 00 	st  %g2, [ %o0 ]
4000dc74:	81 c3 e0 08 	retl 
4000dc78:	90 10 00 01 	mov  %g1, %o0
4000dc7c:	82 10 20 00 	clr  %g1
4000dc80:	81 c3 e0 08 	retl 
4000dc84:	90 10 00 01 	mov  %g1, %o0

4000dc88 <_exit>:
4000dc88:	80 10 00 08 	mov  %o0, %g0
4000dc8c:	80 10 00 01 	mov  %g1, %g0
4000dc90:	82 10 20 01 	mov  1, %g1
4000dc94:	91 d0 20 00 	ta  0

4000dc98 <read>:
4000dc98:	9d e3 bf a0 	save  %sp, -96, %sp
4000dc9c:	80 a6 a0 00 	cmp  %i2, 0
4000dca0:	02 80 00 0f 	be  4000dcdc <read+0x44>
4000dca4:	b0 10 20 00 	clr  %i0
4000dca8:	40 00 00 80 	call  4000dea8 <__bcc_con_inbyte>
4000dcac:	01 00 00 00 	nop 
4000dcb0:	d0 2e 40 18 	stb  %o0, [ %i1 + %i0 ]
4000dcb4:	91 2a 20 18 	sll  %o0, 0x18, %o0
4000dcb8:	91 3a 20 18 	sra  %o0, 0x18, %o0
4000dcbc:	80 a2 20 0a 	cmp  %o0, 0xa
4000dcc0:	02 80 00 07 	be  4000dcdc <read+0x44>
4000dcc4:	b0 06 20 01 	inc  %i0
4000dcc8:	80 a2 20 0d 	cmp  %o0, 0xd
4000dccc:	02 80 00 04 	be  4000dcdc <read+0x44>
4000dcd0:	80 a6 00 1a 	cmp  %i0, %i2
4000dcd4:	12 bf ff f5 	bne  4000dca8 <read+0x10>
4000dcd8:	01 00 00 00 	nop 
4000dcdc:	81 c7 e0 08 	ret 
4000dce0:	81 e8 00 00 	restore 

4000dce4 <sbrk>:
4000dce4:	03 10 00 3e 	sethi  %hi(0x4000f800), %g1
4000dce8:	c4 00 63 24 	ld  [ %g1 + 0x324 ], %g2	! 4000fb24 <__bcc_heap_min>
4000dcec:	80 a0 a0 00 	cmp  %g2, 0
4000dcf0:	22 80 00 15 	be,a   4000dd44 <sbrk+0x60>
4000dcf4:	05 10 00 3e 	sethi  %hi(0x4000f800), %g2
4000dcf8:	03 10 00 3e 	sethi  %hi(0x4000f800), %g1
4000dcfc:	c6 00 63 20 	ld  [ %g1 + 0x320 ], %g3	! 4000fb20 <__bcc_heap_max>
4000dd00:	80 a0 e0 00 	cmp  %g3, 0
4000dd04:	02 80 00 18 	be  4000dd64 <sbrk+0x80>
4000dd08:	09 3f ff f8 	sethi  %hi(0xffffe000), %g4
4000dd0c:	09 10 00 3e 	sethi  %hi(0x4000f800), %g4
4000dd10:	c2 01 23 1c 	ld  [ %g4 + 0x31c ], %g1	! 4000fb1c <__sbrk_heap_end>
4000dd14:	80 a0 60 00 	cmp  %g1, 0
4000dd18:	22 80 00 1d 	be,a   4000dd8c <sbrk+0xa8>
4000dd1c:	c4 21 23 1c 	st  %g2, [ %g4 + 0x31c ]
4000dd20:	90 00 40 08 	add  %g1, %o0, %o0
4000dd24:	80 a2 00 03 	cmp  %o0, %g3
4000dd28:	3a 80 00 05 	bcc,a   4000dd3c <sbrk+0x58>
4000dd2c:	82 10 3f ff 	mov  -1, %g1
4000dd30:	d0 21 23 1c 	st  %o0, [ %g4 + 0x31c ]
4000dd34:	81 c3 e0 08 	retl 
4000dd38:	90 10 00 01 	mov  %g1, %o0
4000dd3c:	81 c3 e0 08 	retl 
4000dd40:	90 10 00 01 	mov  %g1, %o0
4000dd44:	84 10 a3 30 	or  %g2, 0x330, %g2
4000dd48:	c4 20 63 24 	st  %g2, [ %g1 + 0x324 ]
4000dd4c:	03 10 00 3e 	sethi  %hi(0x4000f800), %g1
4000dd50:	c6 00 63 20 	ld  [ %g1 + 0x320 ], %g3	! 4000fb20 <__bcc_heap_max>
4000dd54:	80 a0 e0 00 	cmp  %g3, 0
4000dd58:	12 bf ff ee 	bne  4000dd10 <sbrk+0x2c>
4000dd5c:	09 10 00 3e 	sethi  %hi(0x4000f800), %g4
4000dd60:	09 3f ff f8 	sethi  %hi(0xffffe000), %g4
4000dd64:	07 10 00 3e 	sethi  %hi(0x4000f800), %g3
4000dd68:	c6 00 e1 70 	ld  [ %g3 + 0x170 ], %g3	! 4000f970 <__TMC_END__>
4000dd6c:	86 00 c0 04 	add  %g3, %g4, %g3
4000dd70:	c6 20 63 20 	st  %g3, [ %g1 + 0x320 ]
4000dd74:	09 10 00 3e 	sethi  %hi(0x4000f800), %g4
4000dd78:	c2 01 23 1c 	ld  [ %g4 + 0x31c ], %g1	! 4000fb1c <__sbrk_heap_end>
4000dd7c:	80 a0 60 00 	cmp  %g1, 0
4000dd80:	32 bf ff e9 	bne,a   4000dd24 <sbrk+0x40>
4000dd84:	90 00 40 08 	add  %g1, %o0, %o0
4000dd88:	c4 21 23 1c 	st  %g2, [ %g4 + 0x31c ]
4000dd8c:	10 bf ff e5 	b  4000dd20 <sbrk+0x3c>
4000dd90:	82 10 00 02 	mov  %g2, %g1

4000dd94 <write>:
4000dd94:	9d e3 bf a0 	save  %sp, -96, %sp
4000dd98:	80 a6 a0 00 	cmp  %i2, 0
4000dd9c:	02 80 00 0b 	be  4000ddc8 <write+0x34>
4000dda0:	ba 06 40 1a 	add  %i1, %i2, %i5
4000dda4:	d0 4e 40 00 	ldsb  [ %i1 ], %o0
4000dda8:	80 a2 20 0a 	cmp  %o0, 0xa
4000ddac:	02 80 00 09 	be  4000ddd0 <write+0x3c>
4000ddb0:	01 00 00 00 	nop 
4000ddb4:	40 00 00 19 	call  4000de18 <__bcc_con_outbyte>
4000ddb8:	b2 06 60 01 	inc  %i1
4000ddbc:	80 a6 40 1d 	cmp  %i1, %i5
4000ddc0:	32 bf ff fa 	bne,a   4000dda8 <write+0x14>
4000ddc4:	d0 4e 40 00 	ldsb  [ %i1 ], %o0
4000ddc8:	81 c7 e0 08 	ret 
4000ddcc:	91 e8 00 1a 	restore  %g0, %i2, %o0
4000ddd0:	40 00 00 12 	call  4000de18 <__bcc_con_outbyte>
4000ddd4:	90 10 20 0d 	mov  0xd, %o0
4000ddd8:	40 00 00 10 	call  4000de18 <__bcc_con_outbyte>
4000dddc:	90 10 20 0a 	mov  0xa, %o0
4000dde0:	b2 06 60 01 	inc  %i1
4000dde4:	80 a6 40 1d 	cmp  %i1, %i5
4000dde8:	32 bf ff f0 	bne,a   4000dda8 <write+0x14>
4000ddec:	d0 4e 40 00 	ldsb  [ %i1 ], %o0
4000ddf0:	81 c7 e0 08 	ret 
4000ddf4:	91 e8 00 1a 	restore  %g0, %i2, %o0

4000ddf8 <close>:
4000ddf8:	92 10 20 58 	mov  0x58, %o1
4000ddfc:	15 10 00 3e 	sethi  %hi(0x4000f800), %o2
4000de00:	94 12 a3 18 	or  %o2, 0x318, %o2	! 4000fb18 <errno>
4000de04:	d2 22 80 00 	st  %o1, [ %o2 ]
4000de08:	81 c3 e0 08 	retl 
4000de0c:	90 00 3f ff 	add  %g0, -1, %o0

4000de10 <getpid>:
4000de10:	81 c3 e0 08 	retl 
4000de14:	90 00 20 01 	add  %g0, 1, %o0

4000de18 <__bcc_con_outbyte>:
4000de18:	03 10 00 3e 	sethi  %hi(0x4000f800), %g1
4000de1c:	c2 00 62 44 	ld  [ %g1 + 0x244 ], %g1	! 4000fa44 <__bcc_con_handle>
4000de20:	80 a0 60 00 	cmp  %g1, 0
4000de24:	02 80 00 13 	be  4000de70 <__bcc_con_outbyte+0x58>
4000de28:	07 10 00 3e 	sethi  %hi(0x4000f800), %g3
4000de2c:	c4 00 e3 28 	ld  [ %g3 + 0x328 ], %g2	! 4000fb28 <fifoinfo>
4000de30:	80 a0 a0 01 	cmp  %g2, 1
4000de34:	02 80 00 13 	be  4000de80 <__bcc_con_outbyte+0x68>
4000de38:	80 a0 a0 02 	cmp  %g2, 2
4000de3c:	02 80 00 07 	be  4000de58 <__bcc_con_outbyte+0x40>
4000de40:	01 00 00 00 	nop 
4000de44:	c4 00 60 08 	ld  [ %g1 + 8 ], %g2
4000de48:	80 a0 a0 00 	cmp  %g2, 0
4000de4c:	06 80 00 0b 	bl  4000de78 <__bcc_con_outbyte+0x60>
4000de50:	84 10 20 02 	mov  2, %g2
4000de54:	c4 20 e3 28 	st  %g2, [ %g3 + 0x328 ]
4000de58:	c4 00 60 04 	ld  [ %g1 + 4 ], %g2
4000de5c:	80 88 a0 04 	btst  4, %g2
4000de60:	02 bf ff fe 	be  4000de58 <__bcc_con_outbyte+0x40>
4000de64:	01 00 00 00 	nop 
4000de68:	90 0a 20 ff 	and  %o0, 0xff, %o0
4000de6c:	d0 20 40 00 	st  %o0, [ %g1 ]
4000de70:	81 c3 e0 08 	retl 
4000de74:	90 10 20 00 	clr  %o0
4000de78:	84 10 20 01 	mov  1, %g2
4000de7c:	c4 20 e3 28 	st  %g2, [ %g3 + 0x328 ]
4000de80:	c4 00 60 04 	ld  [ %g1 + 4 ], %g2
4000de84:	80 88 a2 00 	btst  0x200, %g2
4000de88:	22 bf ff f9 	be,a   4000de6c <__bcc_con_outbyte+0x54>
4000de8c:	90 0a 20 ff 	and  %o0, 0xff, %o0
4000de90:	c4 00 60 04 	ld  [ %g1 + 4 ], %g2
4000de94:	80 88 a2 00 	btst  0x200, %g2
4000de98:	12 bf ff fa 	bne  4000de80 <__bcc_con_outbyte+0x68>
4000de9c:	01 00 00 00 	nop 
4000dea0:	10 bf ff f3 	b  4000de6c <__bcc_con_outbyte+0x54>
4000dea4:	90 0a 20 ff 	and  %o0, 0xff, %o0

4000dea8 <__bcc_con_inbyte>:
4000dea8:	03 10 00 3e 	sethi  %hi(0x4000f800), %g1
4000deac:	c4 00 62 44 	ld  [ %g1 + 0x244 ], %g2	! 4000fa44 <__bcc_con_handle>
4000deb0:	80 a0 a0 00 	cmp  %g2, 0
4000deb4:	02 80 00 07 	be  4000ded0 <__bcc_con_inbyte+0x28>
4000deb8:	90 10 20 00 	clr  %o0
4000debc:	c2 00 a0 04 	ld  [ %g2 + 4 ], %g1
4000dec0:	80 88 60 01 	btst  1, %g1
4000dec4:	02 bf ff fe 	be  4000debc <__bcc_con_inbyte+0x14>
4000dec8:	01 00 00 00 	nop 
4000decc:	d0 00 80 00 	ld  [ %g2 ], %o0
4000ded0:	91 2a 20 18 	sll  %o0, 0x18, %o0
4000ded4:	81 c3 e0 08 	retl 
4000ded8:	91 3a 20 18 	sra  %o0, 0x18, %o0

4000dedc <.umul>:
4000dedc:	98 12 00 09 	or  %o0, %o1, %o4
4000dee0:	81 80 00 08 	wr  %o0, %y
4000dee4:	9a ab 2f ff 	andncc  %o4, 0xfff, %o5
4000dee8:	02 80 00 25 	be  4000df7c <mul_shortway>
4000deec:	98 88 00 00 	andcc  %g0, %g0, %o4
4000def0:	99 23 00 09 	mulscc  %o4, %o1, %o4
4000def4:	99 23 00 09 	mulscc  %o4, %o1, %o4
4000def8:	99 23 00 09 	mulscc  %o4, %o1, %o4
4000defc:	99 23 00 09 	mulscc  %o4, %o1, %o4
4000df00:	99 23 00 09 	mulscc  %o4, %o1, %o4
4000df04:	99 23 00 09 	mulscc  %o4, %o1, %o4
4000df08:	99 23 00 09 	mulscc  %o4, %o1, %o4
4000df0c:	99 23 00 09 	mulscc  %o4, %o1, %o4
4000df10:	99 23 00 09 	mulscc  %o4, %o1, %o4
4000df14:	99 23 00 09 	mulscc  %o4, %o1, %o4
4000df18:	99 23 00 09 	mulscc  %o4, %o1, %o4
4000df1c:	99 23 00 09 	mulscc  %o4, %o1, %o4
4000df20:	99 23 00 09 	mulscc  %o4, %o1, %o4
4000df24:	99 23 00 09 	mulscc  %o4, %o1, %o4
4000df28:	99 23 00 09 	mulscc  %o4, %o1, %o4
4000df2c:	99 23 00 09 	mulscc  %o4, %o1, %o4
4000df30:	99 23 00 09 	mulscc  %o4, %o1, %o4
4000df34:	99 23 00 09 	mulscc  %o4, %o1, %o4
4000df38:	99 23 00 09 	mulscc  %o4, %o1, %o4
4000df3c:	99 23 00 09 	mulscc  %o4, %o1, %o4
4000df40:	99 23 00 09 	mulscc  %o4, %o1, %o4
4000df44:	99 23 00 09 	mulscc  %o4, %o1, %o4
4000df48:	99 23 00 09 	mulscc  %o4, %o1, %o4
4000df4c:	99 23 00 09 	mulscc  %o4, %o1, %o4
4000df50:	99 23 00 09 	mulscc  %o4, %o1, %o4
4000df54:	99 23 00 09 	mulscc  %o4, %o1, %o4
4000df58:	99 23 00 09 	mulscc  %o4, %o1, %o4
4000df5c:	99 23 00 09 	mulscc  %o4, %o1, %o4
4000df60:	99 23 00 09 	mulscc  %o4, %o1, %o4
4000df64:	99 23 00 09 	mulscc  %o4, %o1, %o4
4000df68:	99 23 00 09 	mulscc  %o4, %o1, %o4
4000df6c:	99 23 00 09 	mulscc  %o4, %o1, %o4
4000df70:	99 23 00 00 	mulscc  %o4, %g0, %o4
4000df74:	81 c3 e0 08 	retl 
4000df78:	91 40 00 00 	rd  %y, %o0

4000df7c <mul_shortway>:
4000df7c:	99 23 00 09 	mulscc  %o4, %o1, %o4
4000df80:	99 23 00 09 	mulscc  %o4, %o1, %o4
4000df84:	99 23 00 09 	mulscc  %o4, %o1, %o4
4000df88:	99 23 00 09 	mulscc  %o4, %o1, %o4
4000df8c:	99 23 00 09 	mulscc  %o4, %o1, %o4
4000df90:	99 23 00 09 	mulscc  %o4, %o1, %o4
4000df94:	99 23 00 09 	mulscc  %o4, %o1, %o4
4000df98:	99 23 00 09 	mulscc  %o4, %o1, %o4
4000df9c:	99 23 00 09 	mulscc  %o4, %o1, %o4
4000dfa0:	99 23 00 09 	mulscc  %o4, %o1, %o4
4000dfa4:	99 23 00 09 	mulscc  %o4, %o1, %o4
4000dfa8:	99 23 00 09 	mulscc  %o4, %o1, %o4
4000dfac:	99 23 00 00 	mulscc  %o4, %g0, %o4
4000dfb0:	9b 40 00 00 	rd  %y, %o5
4000dfb4:	99 2b 20 0c 	sll  %o4, 0xc, %o4
4000dfb8:	9b 33 60 14 	srl  %o5, 0x14, %o5
4000dfbc:	81 c3 e0 08 	retl 
4000dfc0:	90 13 40 0c 	or  %o5, %o4, %o0

4000dfc4 <.udiv>:
4000dfc4:	10 80 00 0b 	b  4000dff0 <ready_to_divide>
4000dfc8:	86 10 20 00 	clr  %g3

4000dfcc <.div>:
4000dfcc:	80 92 40 08 	orcc  %o1, %o0, %g0
4000dfd0:	16 80 00 08 	bge  4000dff0 <ready_to_divide>
4000dfd4:	86 1a 40 08 	xor  %o1, %o0, %g3
4000dfd8:	80 92 40 00 	tst  %o1
4000dfdc:	16 80 00 04 	bge  4000dfec <.div+0x20>
4000dfe0:	80 92 00 00 	tst  %o0
4000dfe4:	16 80 00 03 	bge  4000dff0 <ready_to_divide>
4000dfe8:	92 20 00 09 	neg  %o1
4000dfec:	90 20 00 08 	neg  %o0

4000dff0 <ready_to_divide>:
4000dff0:	9a 92 40 00 	orcc  %o1, %g0, %o5
4000dff4:	12 80 00 05 	bne  4000e008 <ready_to_divide+0x18>
4000dff8:	96 10 00 08 	mov  %o0, %o3
4000dffc:	91 d0 20 02 	ta  2
4000e000:	81 c3 e0 08 	retl 
4000e004:	90 10 00 00 	mov  %g0, %o0
4000e008:	80 a2 c0 0d 	cmp  %o3, %o5
4000e00c:	0a 80 00 95 	bcs  4000e260 <got_result>
4000e010:	94 10 00 00 	mov  %g0, %o2
4000e014:	03 02 00 00 	sethi  %hi(0x8000000), %g1
4000e018:	80 a2 c0 01 	cmp  %o3, %g1
4000e01c:	0a 80 00 28 	bcs  4000e0bc <not_really_big>
4000e020:	98 10 00 00 	mov  %g0, %o4
4000e024:	80 a3 40 01 	cmp  %o5, %g1
4000e028:	1a 80 00 0d 	bcc  4000e05c <not_too_big>
4000e02c:	84 10 20 01 	mov  1, %g2
4000e030:	9b 2b 60 04 	sll  %o5, 4, %o5
4000e034:	10 bf ff fc 	b  4000e024 <ready_to_divide+0x34>
4000e038:	98 03 20 01 	inc  %o4
4000e03c:	9a 83 40 0d 	addcc  %o5, %o5, %o5
4000e040:	1a 80 00 07 	bcc  4000e05c <not_too_big>
4000e044:	84 00 a0 01 	inc  %g2
4000e048:	83 28 60 04 	sll  %g1, 4, %g1
4000e04c:	9b 33 60 01 	srl  %o5, 1, %o5
4000e050:	9a 03 40 01 	add  %o5, %g1, %o5
4000e054:	10 80 00 07 	b  4000e070 <do_single_div>
4000e058:	84 20 a0 01 	dec  %g2

4000e05c <not_too_big>:
4000e05c:	80 a3 40 0b 	cmp  %o5, %o3
4000e060:	0a bf ff f7 	bcs  4000e03c <ready_to_divide+0x4c>
4000e064:	01 00 00 00 	nop 
4000e068:	02 80 00 02 	be  4000e070 <do_single_div>
4000e06c:	01 00 00 00 	nop 

4000e070 <do_single_div>:
4000e070:	84 a0 a0 01 	deccc  %g2
4000e074:	06 80 00 76 	bl  4000e24c <end_regular_divide>
4000e078:	01 00 00 00 	nop 
4000e07c:	96 22 c0 0d 	sub  %o3, %o5, %o3
4000e080:	94 10 20 01 	mov  1, %o2
4000e084:	10 80 00 0a 	b  4000e0ac <end_single_divloop>
4000e088:	01 00 00 00 	nop 

4000e08c <single_divloop>:
4000e08c:	95 2a a0 01 	sll  %o2, 1, %o2
4000e090:	06 80 00 05 	bl  4000e0a4 <single_divloop+0x18>
4000e094:	9b 33 60 01 	srl  %o5, 1, %o5
4000e098:	96 22 c0 0d 	sub  %o3, %o5, %o3
4000e09c:	10 80 00 04 	b  4000e0ac <end_single_divloop>
4000e0a0:	94 02 a0 01 	inc  %o2
4000e0a4:	96 02 c0 0d 	add  %o3, %o5, %o3
4000e0a8:	94 22 a0 01 	dec  %o2

4000e0ac <end_single_divloop>:
4000e0ac:	84 a0 a0 01 	deccc  %g2
4000e0b0:	16 bf ff f7 	bge  4000e08c <single_divloop>
4000e0b4:	80 92 c0 00 	tst  %o3
4000e0b8:	30 80 00 65 	b,a   4000e24c <end_regular_divide>

4000e0bc <not_really_big>:
4000e0bc:	9b 2b 60 04 	sll  %o5, 4, %o5
4000e0c0:	80 a3 40 0b 	cmp  %o5, %o3
4000e0c4:	08 bf ff fe 	bleu  4000e0bc <not_really_big>
4000e0c8:	98 83 20 01 	inccc  %o4
4000e0cc:	02 80 00 65 	be  4000e260 <got_result>
4000e0d0:	98 23 20 01 	dec  %o4
4000e0d4:	80 92 c0 00 	tst  %o3

4000e0d8 <divloop>:
4000e0d8:	95 2a a0 04 	sll  %o2, 4, %o2
4000e0dc:	06 80 00 2f 	bl  4000e198 <L1.16>
4000e0e0:	9b 33 60 01 	srl  %o5, 1, %o5
4000e0e4:	96 a2 c0 0d 	subcc  %o3, %o5, %o3
4000e0e8:	06 80 00 17 	bl  4000e144 <L2.17>
4000e0ec:	9b 33 60 01 	srl  %o5, 1, %o5
4000e0f0:	96 a2 c0 0d 	subcc  %o3, %o5, %o3
4000e0f4:	06 80 00 0b 	bl  4000e120 <L3.19>
4000e0f8:	9b 33 60 01 	srl  %o5, 1, %o5
4000e0fc:	96 a2 c0 0d 	subcc  %o3, %o5, %o3
4000e100:	06 80 00 05 	bl  4000e114 <L4.23>
4000e104:	9b 33 60 01 	srl  %o5, 1, %o5
4000e108:	96 a2 c0 0d 	subcc  %o3, %o5, %o3
4000e10c:	10 80 00 50 	b  4000e24c <end_regular_divide>
4000e110:	94 02 a0 0f 	add  %o2, 0xf, %o2

4000e114 <L4.23>:
4000e114:	96 82 c0 0d 	addcc  %o3, %o5, %o3
4000e118:	10 80 00 4d 	b  4000e24c <end_regular_divide>
4000e11c:	94 02 a0 0d 	add  %o2, 0xd, %o2

4000e120 <L3.19>:
4000e120:	96 82 c0 0d 	addcc  %o3, %o5, %o3
4000e124:	06 80 00 05 	bl  4000e138 <L4.21>
4000e128:	9b 33 60 01 	srl  %o5, 1, %o5
4000e12c:	96 a2 c0 0d 	subcc  %o3, %o5, %o3
4000e130:	10 80 00 47 	b  4000e24c <end_regular_divide>
4000e134:	94 02 a0 0b 	add  %o2, 0xb, %o2

4000e138 <L4.21>:
4000e138:	96 82 c0 0d 	addcc  %o3, %o5, %o3
4000e13c:	10 80 00 44 	b  4000e24c <end_regular_divide>
4000e140:	94 02 a0 09 	add  %o2, 9, %o2

4000e144 <L2.17>:
4000e144:	96 82 c0 0d 	addcc  %o3, %o5, %o3
4000e148:	06 80 00 0b 	bl  4000e174 <L3.17>
4000e14c:	9b 33 60 01 	srl  %o5, 1, %o5
4000e150:	96 a2 c0 0d 	subcc  %o3, %o5, %o3
4000e154:	06 80 00 05 	bl  4000e168 <L4.19>
4000e158:	9b 33 60 01 	srl  %o5, 1, %o5
4000e15c:	96 a2 c0 0d 	subcc  %o3, %o5, %o3
4000e160:	10 80 00 3b 	b  4000e24c <end_regular_divide>
4000e164:	94 02 a0 07 	add  %o2, 7, %o2

4000e168 <L4.19>:
4000e168:	96 82 c0 0d 	addcc  %o3, %o5, %o3
4000e16c:	10 80 00 38 	b  4000e24c <end_regular_divide>
4000e170:	94 02 a0 05 	add  %o2, 5, %o2

4000e174 <L3.17>:
4000e174:	96 82 c0 0d 	addcc  %o3, %o5, %o3
4000e178:	06 80 00 05 	bl  4000e18c <L4.17>
4000e17c:	9b 33 60 01 	srl  %o5, 1, %o5
4000e180:	96 a2 c0 0d 	subcc  %o3, %o5, %o3
4000e184:	10 80 00 32 	b  4000e24c <end_regular_divide>
4000e188:	94 02 a0 03 	add  %o2, 3, %o2

4000e18c <L4.17>:
4000e18c:	96 82 c0 0d 	addcc  %o3, %o5, %o3
4000e190:	10 80 00 2f 	b  4000e24c <end_regular_divide>
4000e194:	94 02 a0 01 	inc  %o2

4000e198 <L1.16>:
4000e198:	96 82 c0 0d 	addcc  %o3, %o5, %o3
4000e19c:	06 80 00 17 	bl  4000e1f8 <L2.15>
4000e1a0:	9b 33 60 01 	srl  %o5, 1, %o5
4000e1a4:	96 a2 c0 0d 	subcc  %o3, %o5, %o3
4000e1a8:	06 80 00 0b 	bl  4000e1d4 <L3.15>
4000e1ac:	9b 33 60 01 	srl  %o5, 1, %o5
4000e1b0:	96 a2 c0 0d 	subcc  %o3, %o5, %o3
4000e1b4:	06 80 00 05 	bl  4000e1c8 <L4.15>
4000e1b8:	9b 33 60 01 	srl  %o5, 1, %o5
4000e1bc:	96 a2 c0 0d 	subcc  %o3, %o5, %o3
4000e1c0:	10 80 00 23 	b  4000e24c <end_regular_divide>
4000e1c4:	94 02 bf ff 	add  %o2, -1, %o2

4000e1c8 <L4.15>:
4000e1c8:	96 82 c0 0d 	addcc  %o3, %o5, %o3
4000e1cc:	10 80 00 20 	b  4000e24c <end_regular_divide>
4000e1d0:	94 02 bf fd 	add  %o2, -3, %o2

4000e1d4 <L3.15>:
4000e1d4:	96 82 c0 0d 	addcc  %o3, %o5, %o3
4000e1d8:	06 80 00 05 	bl  4000e1ec <L4.13>
4000e1dc:	9b 33 60 01 	srl  %o5, 1, %o5
4000e1e0:	96 a2 c0 0d 	subcc  %o3, %o5, %o3
4000e1e4:	10 80 00 1a 	b  4000e24c <end_regular_divide>
4000e1e8:	94 02 bf fb 	add  %o2, -5, %o2

4000e1ec <L4.13>:
4000e1ec:	96 82 c0 0d 	addcc  %o3, %o5, %o3
4000e1f0:	10 80 00 17 	b  4000e24c <end_regular_divide>
4000e1f4:	94 02 bf f9 	add  %o2, -7, %o2

4000e1f8 <L2.15>:
4000e1f8:	96 82 c0 0d 	addcc  %o3, %o5, %o3
4000e1fc:	06 80 00 0b 	bl  4000e228 <L3.13>
4000e200:	9b 33 60 01 	srl  %o5, 1, %o5
4000e204:	96 a2 c0 0d 	subcc  %o3, %o5, %o3
4000e208:	06 80 00 05 	bl  4000e21c <L4.11>
4000e20c:	9b 33 60 01 	srl  %o5, 1, %o5
4000e210:	96 a2 c0 0d 	subcc  %o3, %o5, %o3
4000e214:	10 80 00 0e 	b  4000e24c <end_regular_divide>
4000e218:	94 02 bf f7 	add  %o2, -9, %o2

4000e21c <L4.11>:
4000e21c:	96 82 c0 0d 	addcc  %o3, %o5, %o3
4000e220:	10 80 00 0b 	b  4000e24c <end_regular_divide>
4000e224:	94 02 bf f5 	add  %o2, -11, %o2

4000e228 <L3.13>:
4000e228:	96 82 c0 0d 	addcc  %o3, %o5, %o3
4000e22c:	06 80 00 05 	bl  4000e240 <L4.9>
4000e230:	9b 33 60 01 	srl  %o5, 1, %o5
4000e234:	96 a2 c0 0d 	subcc  %o3, %o5, %o3
4000e238:	10 80 00 05 	b  4000e24c <end_regular_divide>
4000e23c:	94 02 bf f3 	add  %o2, -13, %o2

4000e240 <L4.9>:
4000e240:	96 82 c0 0d 	addcc  %o3, %o5, %o3
4000e244:	10 80 00 02 	b  4000e24c <end_regular_divide>
4000e248:	94 02 bf f1 	add  %o2, -15, %o2

4000e24c <end_regular_divide>:
4000e24c:	98 a3 20 01 	deccc  %o4
4000e250:	16 bf ff a2 	bge  4000e0d8 <divloop>
4000e254:	80 92 c0 00 	tst  %o3
4000e258:	26 80 00 02 	bl,a   4000e260 <got_result>
4000e25c:	94 22 a0 01 	dec  %o2

4000e260 <got_result>:
4000e260:	80 90 c0 00 	tst  %g3
4000e264:	26 80 00 02 	bl,a   4000e26c <got_result+0xc>
4000e268:	94 20 00 0a 	neg  %o2
4000e26c:	81 c3 e0 08 	retl 
4000e270:	90 10 00 0a 	mov  %o2, %o0

4000e274 <.urem>:
4000e274:	10 80 00 0b 	b  4000e2a0 <divide>
4000e278:	86 10 20 00 	clr  %g3

4000e27c <.rem>:
4000e27c:	80 92 40 08 	orcc  %o1, %o0, %g0
4000e280:	16 80 00 08 	bge  4000e2a0 <divide>
4000e284:	86 10 00 08 	mov  %o0, %g3
4000e288:	80 92 40 00 	tst  %o1
4000e28c:	16 80 00 04 	bge  4000e29c <.rem+0x20>
4000e290:	80 92 00 00 	tst  %o0
4000e294:	16 80 00 03 	bge  4000e2a0 <divide>
4000e298:	92 20 00 09 	neg  %o1
4000e29c:	90 20 00 08 	neg  %o0

4000e2a0 <divide>:
4000e2a0:	9a 92 40 00 	orcc  %o1, %g0, %o5
4000e2a4:	12 80 00 05 	bne  4000e2b8 <divide+0x18>
4000e2a8:	96 10 00 08 	mov  %o0, %o3
4000e2ac:	91 d0 20 02 	ta  2
4000e2b0:	81 c3 e0 08 	retl 
4000e2b4:	90 10 00 00 	mov  %g0, %o0
4000e2b8:	80 a2 c0 0d 	cmp  %o3, %o5
4000e2bc:	0a 80 00 95 	bcs  4000e510 <got_result>
4000e2c0:	94 10 00 00 	mov  %g0, %o2
4000e2c4:	03 02 00 00 	sethi  %hi(0x8000000), %g1
4000e2c8:	80 a2 c0 01 	cmp  %o3, %g1
4000e2cc:	0a 80 00 28 	bcs  4000e36c <not_really_big>
4000e2d0:	98 10 00 00 	mov  %g0, %o4
4000e2d4:	80 a3 40 01 	cmp  %o5, %g1
4000e2d8:	1a 80 00 0d 	bcc  4000e30c <not_too_big>
4000e2dc:	84 10 20 01 	mov  1, %g2
4000e2e0:	9b 2b 60 04 	sll  %o5, 4, %o5
4000e2e4:	10 bf ff fc 	b  4000e2d4 <divide+0x34>
4000e2e8:	98 03 20 01 	inc  %o4
4000e2ec:	9a 83 40 0d 	addcc  %o5, %o5, %o5
4000e2f0:	1a 80 00 07 	bcc  4000e30c <not_too_big>
4000e2f4:	84 00 a0 01 	inc  %g2
4000e2f8:	83 28 60 04 	sll  %g1, 4, %g1
4000e2fc:	9b 33 60 01 	srl  %o5, 1, %o5
4000e300:	9a 03 40 01 	add  %o5, %g1, %o5
4000e304:	10 80 00 07 	b  4000e320 <do_single_div>
4000e308:	84 20 a0 01 	dec  %g2

4000e30c <not_too_big>:
4000e30c:	80 a3 40 0b 	cmp  %o5, %o3
4000e310:	0a bf ff f7 	bcs  4000e2ec <divide+0x4c>
4000e314:	01 00 00 00 	nop 
4000e318:	02 80 00 02 	be  4000e320 <do_single_div>
4000e31c:	01 00 00 00 	nop 

4000e320 <do_single_div>:
4000e320:	84 a0 a0 01 	deccc  %g2
4000e324:	06 80 00 76 	bl  4000e4fc <end_regular_divide>
4000e328:	01 00 00 00 	nop 
4000e32c:	96 22 c0 0d 	sub  %o3, %o5, %o3
4000e330:	94 10 20 01 	mov  1, %o2
4000e334:	10 80 00 0a 	b  4000e35c <end_single_divloop>
4000e338:	01 00 00 00 	nop 

4000e33c <single_divloop>:
4000e33c:	95 2a a0 01 	sll  %o2, 1, %o2
4000e340:	06 80 00 05 	bl  4000e354 <single_divloop+0x18>
4000e344:	9b 33 60 01 	srl  %o5, 1, %o5
4000e348:	96 22 c0 0d 	sub  %o3, %o5, %o3
4000e34c:	10 80 00 04 	b  4000e35c <end_single_divloop>
4000e350:	94 02 a0 01 	inc  %o2
4000e354:	96 02 c0 0d 	add  %o3, %o5, %o3
4000e358:	94 22 a0 01 	dec  %o2

4000e35c <end_single_divloop>:
4000e35c:	84 a0 a0 01 	deccc  %g2
4000e360:	16 bf ff f7 	bge  4000e33c <single_divloop>
4000e364:	80 92 c0 00 	tst  %o3
4000e368:	30 80 00 65 	b,a   4000e4fc <end_regular_divide>

4000e36c <not_really_big>:
4000e36c:	9b 2b 60 04 	sll  %o5, 4, %o5
4000e370:	80 a3 40 0b 	cmp  %o5, %o3
4000e374:	08 bf ff fe 	bleu  4000e36c <not_really_big>
4000e378:	98 83 20 01 	inccc  %o4
4000e37c:	02 80 00 65 	be  4000e510 <got_result>
4000e380:	98 23 20 01 	dec  %o4
4000e384:	80 92 c0 00 	tst  %o3

4000e388 <divloop>:
4000e388:	95 2a a0 04 	sll  %o2, 4, %o2
4000e38c:	06 80 00 2f 	bl  4000e448 <L1.16>
4000e390:	9b 33 60 01 	srl  %o5, 1, %o5
4000e394:	96 a2 c0 0d 	subcc  %o3, %o5, %o3
4000e398:	06 80 00 17 	bl  4000e3f4 <L2.17>
4000e39c:	9b 33 60 01 	srl  %o5, 1, %o5
4000e3a0:	96 a2 c0 0d 	subcc  %o3, %o5, %o3
4000e3a4:	06 80 00 0b 	bl  4000e3d0 <L3.19>
4000e3a8:	9b 33 60 01 	srl  %o5, 1, %o5
4000e3ac:	96 a2 c0 0d 	subcc  %o3, %o5, %o3
4000e3b0:	06 80 00 05 	bl  4000e3c4 <L4.23>
4000e3b4:	9b 33 60 01 	srl  %o5, 1, %o5
4000e3b8:	96 a2 c0 0d 	subcc  %o3, %o5, %o3
4000e3bc:	10 80 00 50 	b  4000e4fc <end_regular_divide>
4000e3c0:	94 02 a0 0f 	add  %o2, 0xf, %o2

4000e3c4 <L4.23>:
4000e3c4:	96 82 c0 0d 	addcc  %o3, %o5, %o3
4000e3c8:	10 80 00 4d 	b  4000e4fc <end_regular_divide>
4000e3cc:	94 02 a0 0d 	add  %o2, 0xd, %o2

4000e3d0 <L3.19>:
4000e3d0:	96 82 c0 0d 	addcc  %o3, %o5, %o3
4000e3d4:	06 80 00 05 	bl  4000e3e8 <L4.21>
4000e3d8:	9b 33 60 01 	srl  %o5, 1, %o5
4000e3dc:	96 a2 c0 0d 	subcc  %o3, %o5, %o3
4000e3e0:	10 80 00 47 	b  4000e4fc <end_regular_divide>
4000e3e4:	94 02 a0 0b 	add  %o2, 0xb, %o2

4000e3e8 <L4.21>:
4000e3e8:	96 82 c0 0d 	addcc  %o3, %o5, %o3
4000e3ec:	10 80 00 44 	b  4000e4fc <end_regular_divide>
4000e3f0:	94 02 a0 09 	add  %o2, 9, %o2

4000e3f4 <L2.17>:
4000e3f4:	96 82 c0 0d 	addcc  %o3, %o5, %o3
4000e3f8:	06 80 00 0b 	bl  4000e424 <L3.17>
4000e3fc:	9b 33 60 01 	srl  %o5, 1, %o5
4000e400:	96 a2 c0 0d 	subcc  %o3, %o5, %o3
4000e404:	06 80 00 05 	bl  4000e418 <L4.19>
4000e408:	9b 33 60 01 	srl  %o5, 1, %o5
4000e40c:	96 a2 c0 0d 	subcc  %o3, %o5, %o3
4000e410:	10 80 00 3b 	b  4000e4fc <end_regular_divide>
4000e414:	94 02 a0 07 	add  %o2, 7, %o2

4000e418 <L4.19>:
4000e418:	96 82 c0 0d 	addcc  %o3, %o5, %o3
4000e41c:	10 80 00 38 	b  4000e4fc <end_regular_divide>
4000e420:	94 02 a0 05 	add  %o2, 5, %o2

4000e424 <L3.17>:
4000e424:	96 82 c0 0d 	addcc  %o3, %o5, %o3
4000e428:	06 80 00 05 	bl  4000e43c <L4.17>
4000e42c:	9b 33 60 01 	srl  %o5, 1, %o5
4000e430:	96 a2 c0 0d 	subcc  %o3, %o5, %o3
4000e434:	10 80 00 32 	b  4000e4fc <end_regular_divide>
4000e438:	94 02 a0 03 	add  %o2, 3, %o2

4000e43c <L4.17>:
4000e43c:	96 82 c0 0d 	addcc  %o3, %o5, %o3
4000e440:	10 80 00 2f 	b  4000e4fc <end_regular_divide>
4000e444:	94 02 a0 01 	inc  %o2

4000e448 <L1.16>:
4000e448:	96 82 c0 0d 	addcc  %o3, %o5, %o3
4000e44c:	06 80 00 17 	bl  4000e4a8 <L2.15>
4000e450:	9b 33 60 01 	srl  %o5, 1, %o5
4000e454:	96 a2 c0 0d 	subcc  %o3, %o5, %o3
4000e458:	06 80 00 0b 	bl  4000e484 <L3.15>
4000e45c:	9b 33 60 01 	srl  %o5, 1, %o5
4000e460:	96 a2 c0 0d 	subcc  %o3, %o5, %o3
4000e464:	06 80 00 05 	bl  4000e478 <L4.15>
4000e468:	9b 33 60 01 	srl  %o5, 1, %o5
4000e46c:	96 a2 c0 0d 	subcc  %o3, %o5, %o3
4000e470:	10 80 00 23 	b  4000e4fc <end_regular_divide>
4000e474:	94 02 bf ff 	add  %o2, -1, %o2

4000e478 <L4.15>:
4000e478:	96 82 c0 0d 	addcc  %o3, %o5, %o3
4000e47c:	10 80 00 20 	b  4000e4fc <end_regular_divide>
4000e480:	94 02 bf fd 	add  %o2, -3, %o2

4000e484 <L3.15>:
4000e484:	96 82 c0 0d 	addcc  %o3, %o5, %o3
4000e488:	06 80 00 05 	bl  4000e49c <L4.13>
4000e48c:	9b 33 60 01 	srl  %o5, 1, %o5
4000e490:	96 a2 c0 0d 	subcc  %o3, %o5, %o3
4000e494:	10 80 00 1a 	b  4000e4fc <end_regular_divide>
4000e498:	94 02 bf fb 	add  %o2, -5, %o2

4000e49c <L4.13>:
4000e49c:	96 82 c0 0d 	addcc  %o3, %o5, %o3
4000e4a0:	10 80 00 17 	b  4000e4fc <end_regular_divide>
4000e4a4:	94 02 bf f9 	add  %o2, -7, %o2

4000e4a8 <L2.15>:
4000e4a8:	96 82 c0 0d 	addcc  %o3, %o5, %o3
4000e4ac:	06 80 00 0b 	bl  4000e4d8 <L3.13>
4000e4b0:	9b 33 60 01 	srl  %o5, 1, %o5
4000e4b4:	96 a2 c0 0d 	subcc  %o3, %o5, %o3
4000e4b8:	06 80 00 05 	bl  4000e4cc <L4.11>
4000e4bc:	9b 33 60 01 	srl  %o5, 1, %o5
4000e4c0:	96 a2 c0 0d 	subcc  %o3, %o5, %o3
4000e4c4:	10 80 00 0e 	b  4000e4fc <end_regular_divide>
4000e4c8:	94 02 bf f7 	add  %o2, -9, %o2

4000e4cc <L4.11>:
4000e4cc:	96 82 c0 0d 	addcc  %o3, %o5, %o3
4000e4d0:	10 80 00 0b 	b  4000e4fc <end_regular_divide>
4000e4d4:	94 02 bf f5 	add  %o2, -11, %o2

4000e4d8 <L3.13>:
4000e4d8:	96 82 c0 0d 	addcc  %o3, %o5, %o3
4000e4dc:	06 80 00 05 	bl  4000e4f0 <L4.9>
4000e4e0:	9b 33 60 01 	srl  %o5, 1, %o5
4000e4e4:	96 a2 c0 0d 	subcc  %o3, %o5, %o3
4000e4e8:	10 80 00 05 	b  4000e4fc <end_regular_divide>
4000e4ec:	94 02 bf f3 	add  %o2, -13, %o2

4000e4f0 <L4.9>:
4000e4f0:	96 82 c0 0d 	addcc  %o3, %o5, %o3
4000e4f4:	10 80 00 02 	b  4000e4fc <end_regular_divide>
4000e4f8:	94 02 bf f1 	add  %o2, -15, %o2

4000e4fc <end_regular_divide>:
4000e4fc:	98 a3 20 01 	deccc  %o4
4000e500:	16 bf ff a2 	bge  4000e388 <divloop>
4000e504:	80 92 c0 00 	tst  %o3
4000e508:	26 80 00 02 	bl,a   4000e510 <got_result>
4000e50c:	96 02 c0 09 	add  %o3, %o1, %o3

4000e510 <got_result>:
4000e510:	80 90 c0 00 	tst  %g3
4000e514:	26 80 00 02 	bl,a   4000e51c <got_result+0xc>
4000e518:	96 20 00 0b 	neg  %o3
4000e51c:	81 c3 e0 08 	retl 
4000e520:	90 10 00 0b 	mov  %o3, %o0

4000e524 <__udivdi3>:
4000e524:	9d e3 bf a0 	save  %sp, -96, %sp
4000e528:	80 a6 a0 00 	cmp  %i2, 0
4000e52c:	12 80 00 20 	bne  4000e5ac <__udivdi3+0x88>
4000e530:	80 a6 80 18 	cmp  %i2, %i0
4000e534:	80 a6 c0 18 	cmp  %i3, %i0
4000e538:	08 80 00 40 	bleu  4000e638 <__udivdi3+0x114>
4000e53c:	80 a6 e0 00 	cmp  %i3, 0
4000e540:	84 10 00 18 	mov  %i0, %g2
4000e544:	b0 10 20 00 	clr  %i0
4000e548:	82 10 20 20 	mov  0x20, %g1
4000e54c:	80 a0 80 1b 	cmp  %g2, %i3
4000e550:	0a 80 00 0c 	bcs  4000e580 <__udivdi3+0x5c>
4000e554:	b2 c6 40 19 	addxcc  %i1, %i1, %i1
4000e558:	84 20 80 1b 	sub  %g2, %i3, %g2
4000e55c:	84 40 80 02 	addx  %g2, %g2, %g2
4000e560:	82 a0 60 01 	deccc  %g1
4000e564:	12 bf ff fb 	bne  4000e550 <__udivdi3+0x2c>
4000e568:	80 a0 80 1b 	cmp  %g2, %i3
4000e56c:	0a 80 00 0b 	bcs  4000e598 <__udivdi3+0x74>
4000e570:	b2 c6 40 19 	addxcc  %i1, %i1, %i1
4000e574:	10 80 00 09 	b  4000e598 <__udivdi3+0x74>
4000e578:	84 20 80 1b 	sub  %g2, %i3, %g2
4000e57c:	84 20 80 1b 	sub  %g2, %i3, %g2
4000e580:	84 c0 80 02 	addxcc  %g2, %g2, %g2
4000e584:	1a bf ff f8 	bcc  4000e564 <__udivdi3+0x40>
4000e588:	82 a0 60 01 	deccc  %g1
4000e58c:	12 bf ff fc 	bne  4000e57c <__udivdi3+0x58>
4000e590:	b2 86 40 19 	addcc  %i1, %i1, %i1
4000e594:	84 20 80 1b 	sub  %g2, %i3, %g2
4000e598:	b2 3e 60 00 	xnor  %i1, 0, %i1
4000e59c:	82 10 00 19 	mov  %i1, %g1
4000e5a0:	b2 10 00 01 	mov  %g1, %i1
4000e5a4:	81 c7 e0 08 	ret 
4000e5a8:	81 e8 00 00 	restore 
4000e5ac:	08 80 00 07 	bleu  4000e5c8 <__udivdi3+0xa4>
4000e5b0:	03 00 00 3f 	sethi  %hi(0xfc00), %g1
4000e5b4:	82 10 20 00 	clr  %g1
4000e5b8:	b0 10 20 00 	clr  %i0
4000e5bc:	b2 10 00 01 	mov  %g1, %i1
4000e5c0:	81 c7 e0 08 	ret 
4000e5c4:	81 e8 00 00 	restore 
4000e5c8:	82 10 63 ff 	or  %g1, 0x3ff, %g1
4000e5cc:	80 a6 80 01 	cmp  %i2, %g1
4000e5d0:	08 80 00 4f 	bleu  4000e70c <__udivdi3+0x1e8>
4000e5d4:	80 a6 a0 ff 	cmp  %i2, 0xff
4000e5d8:	03 00 3f ff 	sethi  %hi(0xfffc00), %g1
4000e5dc:	82 10 63 ff 	or  %g1, 0x3ff, %g1	! ffffff <__data_size+0xfff9ef>
4000e5e0:	80 a6 80 01 	cmp  %i2, %g1
4000e5e4:	08 80 00 a0 	bleu  4000e864 <__udivdi3+0x340>
4000e5e8:	83 36 a0 10 	srl  %i2, 0x10, %g1
4000e5ec:	83 36 a0 18 	srl  %i2, 0x18, %g1
4000e5f0:	88 10 20 18 	mov  0x18, %g4
4000e5f4:	84 10 20 20 	mov  0x20, %g2
4000e5f8:	07 10 00 3c 	sethi  %hi(0x4000f000), %g3
4000e5fc:	86 10 e2 60 	or  %g3, 0x260, %g3	! 4000f260 <__clz_tab>
4000e600:	c2 08 c0 01 	ldub  [ %g3 + %g1 ], %g1
4000e604:	82 00 40 04 	add  %g1, %g4, %g1
4000e608:	84 a0 80 01 	subcc  %g2, %g1, %g2
4000e60c:	32 80 00 45 	bne,a   4000e720 <__udivdi3+0x1fc>
4000e610:	87 36 c0 01 	srl  %i3, %g1, %g3
4000e614:	80 a6 80 18 	cmp  %i2, %i0
4000e618:	0a 80 00 05 	bcs  4000e62c <__udivdi3+0x108>
4000e61c:	80 a6 40 1b 	cmp  %i1, %i3
4000e620:	82 10 20 00 	clr  %g1
4000e624:	0a bf ff e6 	bcs  4000e5bc <__udivdi3+0x98>
4000e628:	b0 10 20 00 	clr  %i0
4000e62c:	82 10 20 01 	mov  1, %g1
4000e630:	10 bf ff e3 	b  4000e5bc <__udivdi3+0x98>
4000e634:	b0 10 20 00 	clr  %i0
4000e638:	12 80 00 07 	bne  4000e654 <__udivdi3+0x130>
4000e63c:	84 10 20 00 	clr  %g2
4000e640:	92 10 20 00 	clr  %o1
4000e644:	7f ff fe 60 	call  4000dfc4 <.udiv>
4000e648:	90 10 20 01 	mov  1, %o0
4000e64c:	b6 10 00 08 	mov  %o0, %i3
4000e650:	84 10 20 00 	clr  %g2
4000e654:	82 10 20 20 	mov  0x20, %g1
4000e658:	80 a0 80 1b 	cmp  %g2, %i3
4000e65c:	0a 80 00 0c 	bcs  4000e68c <__udivdi3+0x168>
4000e660:	b0 c6 00 18 	addxcc  %i0, %i0, %i0
4000e664:	84 20 80 1b 	sub  %g2, %i3, %g2
4000e668:	84 40 80 02 	addx  %g2, %g2, %g2
4000e66c:	82 a0 60 01 	deccc  %g1
4000e670:	12 bf ff fb 	bne  4000e65c <__udivdi3+0x138>
4000e674:	80 a0 80 1b 	cmp  %g2, %i3
4000e678:	0a 80 00 0b 	bcs  4000e6a4 <__udivdi3+0x180>
4000e67c:	b0 c6 00 18 	addxcc  %i0, %i0, %i0
4000e680:	10 80 00 09 	b  4000e6a4 <__udivdi3+0x180>
4000e684:	84 20 80 1b 	sub  %g2, %i3, %g2
4000e688:	84 20 80 1b 	sub  %g2, %i3, %g2
4000e68c:	84 c0 80 02 	addxcc  %g2, %g2, %g2
4000e690:	1a bf ff f8 	bcc  4000e670 <__udivdi3+0x14c>
4000e694:	82 a0 60 01 	deccc  %g1
4000e698:	12 bf ff fc 	bne  4000e688 <__udivdi3+0x164>
4000e69c:	b0 86 00 18 	addcc  %i0, %i0, %i0
4000e6a0:	84 20 80 1b 	sub  %g2, %i3, %g2
4000e6a4:	b0 3e 20 00 	xnor  %i0, 0, %i0
4000e6a8:	82 10 20 20 	mov  0x20, %g1
4000e6ac:	80 a0 80 1b 	cmp  %g2, %i3
4000e6b0:	0a 80 00 0c 	bcs  4000e6e0 <__udivdi3+0x1bc>
4000e6b4:	b2 c6 40 19 	addxcc  %i1, %i1, %i1
4000e6b8:	84 20 80 1b 	sub  %g2, %i3, %g2
4000e6bc:	84 40 80 02 	addx  %g2, %g2, %g2
4000e6c0:	82 a0 60 01 	deccc  %g1
4000e6c4:	12 bf ff fb 	bne  4000e6b0 <__udivdi3+0x18c>
4000e6c8:	80 a0 80 1b 	cmp  %g2, %i3
4000e6cc:	0a 80 00 0b 	bcs  4000e6f8 <__udivdi3+0x1d4>
4000e6d0:	b2 c6 40 19 	addxcc  %i1, %i1, %i1
4000e6d4:	10 80 00 09 	b  4000e6f8 <__udivdi3+0x1d4>
4000e6d8:	84 20 80 1b 	sub  %g2, %i3, %g2
4000e6dc:	84 20 80 1b 	sub  %g2, %i3, %g2
4000e6e0:	84 c0 80 02 	addxcc  %g2, %g2, %g2
4000e6e4:	1a bf ff f8 	bcc  4000e6c4 <__udivdi3+0x1a0>
4000e6e8:	82 a0 60 01 	deccc  %g1
4000e6ec:	12 bf ff fc 	bne  4000e6dc <__udivdi3+0x1b8>
4000e6f0:	b2 86 40 19 	addcc  %i1, %i1, %i1
4000e6f4:	84 20 80 1b 	sub  %g2, %i3, %g2
4000e6f8:	b2 3e 60 00 	xnor  %i1, 0, %i1
4000e6fc:	82 10 00 19 	mov  %i1, %g1
4000e700:	b2 10 00 01 	mov  %g1, %i1
4000e704:	81 c7 e0 08 	ret 
4000e708:	81 e8 00 00 	restore 
4000e70c:	28 80 00 54 	bleu,a   4000e85c <__udivdi3+0x338>
4000e710:	82 10 00 1a 	mov  %i2, %g1
4000e714:	83 36 a0 08 	srl  %i2, 8, %g1
4000e718:	10 bf ff b7 	b  4000e5f4 <__udivdi3+0xd0>
4000e71c:	88 10 20 08 	mov  8, %g4
4000e720:	b5 2e 80 02 	sll  %i2, %g2, %i2
4000e724:	b4 10 c0 1a 	or  %g3, %i2, %i2
4000e728:	87 36 00 01 	srl  %i0, %g1, %g3
4000e72c:	b1 2e 00 02 	sll  %i0, %g2, %i0
4000e730:	91 2e c0 02 	sll  %i3, %g2, %o0
4000e734:	83 36 40 01 	srl  %i1, %g1, %g1
4000e738:	82 10 40 18 	or  %g1, %i0, %g1
4000e73c:	b0 10 00 01 	mov  %g1, %i0
4000e740:	82 10 20 20 	mov  0x20, %g1
4000e744:	80 a0 c0 1a 	cmp  %g3, %i2
4000e748:	0a 80 00 0c 	bcs  4000e778 <__udivdi3+0x254>
4000e74c:	b0 c6 00 18 	addxcc  %i0, %i0, %i0
4000e750:	86 20 c0 1a 	sub  %g3, %i2, %g3
4000e754:	86 40 c0 03 	addx  %g3, %g3, %g3
4000e758:	82 a0 60 01 	deccc  %g1
4000e75c:	12 bf ff fb 	bne  4000e748 <__udivdi3+0x224>
4000e760:	80 a0 c0 1a 	cmp  %g3, %i2
4000e764:	0a 80 00 0b 	bcs  4000e790 <__udivdi3+0x26c>
4000e768:	b0 c6 00 18 	addxcc  %i0, %i0, %i0
4000e76c:	10 80 00 09 	b  4000e790 <__udivdi3+0x26c>
4000e770:	86 20 c0 1a 	sub  %g3, %i2, %g3
4000e774:	86 20 c0 1a 	sub  %g3, %i2, %g3
4000e778:	86 c0 c0 03 	addxcc  %g3, %g3, %g3
4000e77c:	1a bf ff f8 	bcc  4000e75c <__udivdi3+0x238>
4000e780:	82 a0 60 01 	deccc  %g1
4000e784:	12 bf ff fc 	bne  4000e774 <__udivdi3+0x250>
4000e788:	b0 86 00 18 	addcc  %i0, %i0, %i0
4000e78c:	86 20 c0 1a 	sub  %g3, %i2, %g3
4000e790:	b0 3e 20 00 	xnor  %i0, 0, %i0
4000e794:	81 80 00 18 	wr  %i0, %y
4000e798:	9b 3a 20 1f 	sra  %o0, 0x1f, %o5
4000e79c:	9a 0e 00 0d 	and  %i0, %o5, %o5
4000e7a0:	82 88 20 00 	andcc  %g0, 0, %g1
4000e7a4:	83 20 40 08 	mulscc  %g1, %o0, %g1
4000e7a8:	83 20 40 08 	mulscc  %g1, %o0, %g1
4000e7ac:	83 20 40 08 	mulscc  %g1, %o0, %g1
4000e7b0:	83 20 40 08 	mulscc  %g1, %o0, %g1
4000e7b4:	83 20 40 08 	mulscc  %g1, %o0, %g1
4000e7b8:	83 20 40 08 	mulscc  %g1, %o0, %g1
4000e7bc:	83 20 40 08 	mulscc  %g1, %o0, %g1
4000e7c0:	83 20 40 08 	mulscc  %g1, %o0, %g1
4000e7c4:	83 20 40 08 	mulscc  %g1, %o0, %g1
4000e7c8:	83 20 40 08 	mulscc  %g1, %o0, %g1
4000e7cc:	83 20 40 08 	mulscc  %g1, %o0, %g1
4000e7d0:	83 20 40 08 	mulscc  %g1, %o0, %g1
4000e7d4:	83 20 40 08 	mulscc  %g1, %o0, %g1
4000e7d8:	83 20 40 08 	mulscc  %g1, %o0, %g1
4000e7dc:	83 20 40 08 	mulscc  %g1, %o0, %g1
4000e7e0:	83 20 40 08 	mulscc  %g1, %o0, %g1
4000e7e4:	83 20 40 08 	mulscc  %g1, %o0, %g1
4000e7e8:	83 20 40 08 	mulscc  %g1, %o0, %g1
4000e7ec:	83 20 40 08 	mulscc  %g1, %o0, %g1
4000e7f0:	83 20 40 08 	mulscc  %g1, %o0, %g1
4000e7f4:	83 20 40 08 	mulscc  %g1, %o0, %g1
4000e7f8:	83 20 40 08 	mulscc  %g1, %o0, %g1
4000e7fc:	83 20 40 08 	mulscc  %g1, %o0, %g1
4000e800:	83 20 40 08 	mulscc  %g1, %o0, %g1
4000e804:	83 20 40 08 	mulscc  %g1, %o0, %g1
4000e808:	83 20 40 08 	mulscc  %g1, %o0, %g1
4000e80c:	83 20 40 08 	mulscc  %g1, %o0, %g1
4000e810:	83 20 40 08 	mulscc  %g1, %o0, %g1
4000e814:	83 20 40 08 	mulscc  %g1, %o0, %g1
4000e818:	83 20 40 08 	mulscc  %g1, %o0, %g1
4000e81c:	83 20 40 08 	mulscc  %g1, %o0, %g1
4000e820:	83 20 40 08 	mulscc  %g1, %o0, %g1
4000e824:	83 20 60 00 	mulscc  %g1, 0, %g1
4000e828:	90 00 40 0d 	add  %g1, %o5, %o0
4000e82c:	b7 40 00 00 	rd  %y, %i3
4000e830:	80 a0 c0 08 	cmp  %g3, %o0
4000e834:	0a 80 00 08 	bcs  4000e854 <__udivdi3+0x330>
4000e838:	82 06 3f ff 	add  %i0, -1, %g1
4000e83c:	b3 2e 40 02 	sll  %i1, %g2, %i1
4000e840:	80 a6 40 1b 	cmp  %i1, %i3
4000e844:	1a 80 00 0a 	bcc  4000e86c <__udivdi3+0x348>
4000e848:	80 a0 c0 08 	cmp  %g3, %o0
4000e84c:	32 80 00 09 	bne,a   4000e870 <__udivdi3+0x34c>
4000e850:	82 10 00 18 	mov  %i0, %g1
4000e854:	10 bf ff 5a 	b  4000e5bc <__udivdi3+0x98>
4000e858:	b0 10 20 00 	clr  %i0
4000e85c:	10 bf ff 66 	b  4000e5f4 <__udivdi3+0xd0>
4000e860:	88 10 20 00 	clr  %g4
4000e864:	10 bf ff 64 	b  4000e5f4 <__udivdi3+0xd0>
4000e868:	88 10 20 10 	mov  0x10, %g4
4000e86c:	82 10 00 18 	mov  %i0, %g1
4000e870:	10 bf ff 53 	b  4000e5bc <__udivdi3+0x98>
4000e874:	b0 10 20 00 	clr  %i0

4000e878 <__umoddi3>:
4000e878:	9d e3 bf a0 	save  %sp, -96, %sp
4000e87c:	80 a6 a0 00 	cmp  %i2, 0
4000e880:	12 80 00 1e 	bne  4000e8f8 <__umoddi3+0x80>
4000e884:	84 10 00 18 	mov  %i0, %g2
4000e888:	80 a6 c0 18 	cmp  %i3, %i0
4000e88c:	08 80 00 3b 	bleu  4000e978 <__umoddi3+0x100>
4000e890:	80 a6 e0 00 	cmp  %i3, 0
4000e894:	82 10 20 20 	mov  0x20, %g1
4000e898:	80 a6 00 1b 	cmp  %i0, %i3
4000e89c:	0a 80 00 0c 	bcs  4000e8cc <__umoddi3+0x54>
4000e8a0:	b2 c6 40 19 	addxcc  %i1, %i1, %i1
4000e8a4:	b0 26 00 1b 	sub  %i0, %i3, %i0
4000e8a8:	b0 46 00 18 	addx  %i0, %i0, %i0
4000e8ac:	82 a0 60 01 	deccc  %g1
4000e8b0:	12 bf ff fb 	bne  4000e89c <__umoddi3+0x24>
4000e8b4:	80 a6 00 1b 	cmp  %i0, %i3
4000e8b8:	0a 80 00 0b 	bcs  4000e8e4 <__umoddi3+0x6c>
4000e8bc:	b2 c6 40 19 	addxcc  %i1, %i1, %i1
4000e8c0:	10 80 00 09 	b  4000e8e4 <__umoddi3+0x6c>
4000e8c4:	b0 26 00 1b 	sub  %i0, %i3, %i0
4000e8c8:	b0 26 00 1b 	sub  %i0, %i3, %i0
4000e8cc:	b0 c6 00 18 	addxcc  %i0, %i0, %i0
4000e8d0:	1a bf ff f8 	bcc  4000e8b0 <__umoddi3+0x38>
4000e8d4:	82 a0 60 01 	deccc  %g1
4000e8d8:	12 bf ff fc 	bne  4000e8c8 <__umoddi3+0x50>
4000e8dc:	b2 86 40 19 	addcc  %i1, %i1, %i1
4000e8e0:	b0 26 00 1b 	sub  %i0, %i3, %i0
4000e8e4:	b2 3e 60 00 	xnor  %i1, 0, %i1
4000e8e8:	b2 10 00 18 	mov  %i0, %i1
4000e8ec:	b0 10 20 00 	clr  %i0
4000e8f0:	81 c7 e0 08 	ret 
4000e8f4:	81 e8 00 00 	restore 
4000e8f8:	80 a6 80 18 	cmp  %i2, %i0
4000e8fc:	18 bf ff fd 	bgu  4000e8f0 <__umoddi3+0x78>
4000e900:	86 10 00 19 	mov  %i1, %g3
4000e904:	03 00 00 3f 	sethi  %hi(0xfc00), %g1
4000e908:	82 10 63 ff 	or  %g1, 0x3ff, %g1	! ffff <__data_size+0xf9ef>
4000e90c:	80 a6 80 01 	cmp  %i2, %g1
4000e910:	08 80 00 4f 	bleu  4000ea4c <__umoddi3+0x1d4>
4000e914:	80 a6 a0 ff 	cmp  %i2, 0xff
4000e918:	03 00 3f ff 	sethi  %hi(0xfffc00), %g1
4000e91c:	82 10 63 ff 	or  %g1, 0x3ff, %g1	! ffffff <__data_size+0xfff9ef>
4000e920:	80 a6 80 01 	cmp  %i2, %g1
4000e924:	08 80 00 af 	bleu  4000ebe0 <__umoddi3+0x368>
4000e928:	83 36 a0 10 	srl  %i2, 0x10, %g1
4000e92c:	83 36 a0 18 	srl  %i2, 0x18, %g1
4000e930:	b8 10 20 18 	mov  0x18, %i4
4000e934:	09 10 00 3c 	sethi  %hi(0x4000f000), %g4
4000e938:	88 11 22 60 	or  %g4, 0x260, %g4	! 4000f260 <__clz_tab>
4000e93c:	ba 10 20 20 	mov  0x20, %i5
4000e940:	c2 09 00 01 	ldub  [ %g4 + %g1 ], %g1
4000e944:	88 00 40 1c 	add  %g1, %i4, %g4
4000e948:	ba a7 40 04 	subcc  %i5, %g4, %i5
4000e94c:	32 80 00 4b 	bne,a   4000ea78 <__umoddi3+0x200>
4000e950:	83 36 c0 04 	srl  %i3, %g4, %g1
4000e954:	80 a6 80 18 	cmp  %i2, %i0
4000e958:	0a 80 00 42 	bcs  4000ea60 <__umoddi3+0x1e8>
4000e95c:	80 a6 40 1b 	cmp  %i1, %i3
4000e960:	1a 80 00 40 	bcc  4000ea60 <__umoddi3+0x1e8>
4000e964:	01 00 00 00 	nop 
4000e968:	b0 10 00 02 	mov  %g2, %i0
4000e96c:	b2 10 00 03 	mov  %g3, %i1
4000e970:	81 c7 e0 08 	ret 
4000e974:	81 e8 00 00 	restore 
4000e978:	12 80 00 07 	bne  4000e994 <__umoddi3+0x11c>
4000e97c:	86 10 00 19 	mov  %i1, %g3
4000e980:	92 10 20 00 	clr  %o1
4000e984:	7f ff fd 90 	call  4000dfc4 <.udiv>
4000e988:	90 10 20 01 	mov  1, %o0
4000e98c:	b6 10 00 08 	mov  %o0, %i3
4000e990:	86 10 00 19 	mov  %i1, %g3
4000e994:	84 10 20 00 	clr  %g2
4000e998:	82 10 20 20 	mov  0x20, %g1
4000e99c:	80 a0 80 1b 	cmp  %g2, %i3
4000e9a0:	0a 80 00 0c 	bcs  4000e9d0 <__umoddi3+0x158>
4000e9a4:	b0 c6 00 18 	addxcc  %i0, %i0, %i0
4000e9a8:	84 20 80 1b 	sub  %g2, %i3, %g2
4000e9ac:	84 40 80 02 	addx  %g2, %g2, %g2
4000e9b0:	82 a0 60 01 	deccc  %g1
4000e9b4:	12 bf ff fb 	bne  4000e9a0 <__umoddi3+0x128>
4000e9b8:	80 a0 80 1b 	cmp  %g2, %i3
4000e9bc:	0a 80 00 0b 	bcs  4000e9e8 <__umoddi3+0x170>
4000e9c0:	b0 c6 00 18 	addxcc  %i0, %i0, %i0
4000e9c4:	10 80 00 09 	b  4000e9e8 <__umoddi3+0x170>
4000e9c8:	84 20 80 1b 	sub  %g2, %i3, %g2
4000e9cc:	84 20 80 1b 	sub  %g2, %i3, %g2
4000e9d0:	84 c0 80 02 	addxcc  %g2, %g2, %g2
4000e9d4:	1a bf ff f8 	bcc  4000e9b4 <__umoddi3+0x13c>
4000e9d8:	82 a0 60 01 	deccc  %g1
4000e9dc:	12 bf ff fc 	bne  4000e9cc <__umoddi3+0x154>
4000e9e0:	b0 86 00 18 	addcc  %i0, %i0, %i0
4000e9e4:	84 20 80 1b 	sub  %g2, %i3, %g2
4000e9e8:	b0 3e 20 00 	xnor  %i0, 0, %i0
4000e9ec:	b0 10 20 00 	clr  %i0
4000e9f0:	b2 10 00 02 	mov  %g2, %i1
4000e9f4:	82 10 20 20 	mov  0x20, %g1
4000e9f8:	80 a6 40 1b 	cmp  %i1, %i3
4000e9fc:	0a 80 00 0c 	bcs  4000ea2c <__umoddi3+0x1b4>
4000ea00:	86 c0 c0 03 	addxcc  %g3, %g3, %g3
4000ea04:	b2 26 40 1b 	sub  %i1, %i3, %i1
4000ea08:	b2 46 40 19 	addx  %i1, %i1, %i1
4000ea0c:	82 a0 60 01 	deccc  %g1
4000ea10:	12 bf ff fb 	bne  4000e9fc <__umoddi3+0x184>
4000ea14:	80 a6 40 1b 	cmp  %i1, %i3
4000ea18:	0a 80 00 0b 	bcs  4000ea44 <__umoddi3+0x1cc>
4000ea1c:	86 c0 c0 03 	addxcc  %g3, %g3, %g3
4000ea20:	10 80 00 09 	b  4000ea44 <__umoddi3+0x1cc>
4000ea24:	b2 26 40 1b 	sub  %i1, %i3, %i1
4000ea28:	b2 26 40 1b 	sub  %i1, %i3, %i1
4000ea2c:	b2 c6 40 19 	addxcc  %i1, %i1, %i1
4000ea30:	1a bf ff f8 	bcc  4000ea10 <__umoddi3+0x198>
4000ea34:	82 a0 60 01 	deccc  %g1
4000ea38:	12 bf ff fc 	bne  4000ea28 <__umoddi3+0x1b0>
4000ea3c:	86 80 c0 03 	addcc  %g3, %g3, %g3
4000ea40:	b2 26 40 1b 	sub  %i1, %i3, %i1
4000ea44:	86 38 e0 00 	xnor  %g3, 0, %g3
4000ea48:	30 bf ff aa 	b,a   4000e8f0 <__umoddi3+0x78>
4000ea4c:	28 80 00 63 	bleu,a   4000ebd8 <__umoddi3+0x360>
4000ea50:	82 10 00 1a 	mov  %i2, %g1
4000ea54:	83 36 a0 08 	srl  %i2, 8, %g1
4000ea58:	10 bf ff b7 	b  4000e934 <__umoddi3+0xbc>
4000ea5c:	b8 10 20 08 	mov  8, %i4
4000ea60:	86 a6 40 1b 	subcc  %i1, %i3, %g3
4000ea64:	b0 66 00 1a 	subx  %i0, %i2, %i0
4000ea68:	84 10 00 18 	mov  %i0, %g2
4000ea6c:	b2 10 00 03 	mov  %g3, %i1
4000ea70:	10 bf ff c0 	b  4000e970 <__umoddi3+0xf8>
4000ea74:	b0 10 00 02 	mov  %g2, %i0
4000ea78:	b5 2e 80 1d 	sll  %i2, %i5, %i2
4000ea7c:	b4 10 40 1a 	or  %g1, %i2, %i2
4000ea80:	83 2e 00 1d 	sll  %i0, %i5, %g1
4000ea84:	87 36 00 04 	srl  %i0, %g4, %g3
4000ea88:	85 36 40 04 	srl  %i1, %g4, %g2
4000ea8c:	b7 2e c0 1d 	sll  %i3, %i5, %i3
4000ea90:	b0 10 80 01 	or  %g2, %g1, %i0
4000ea94:	99 2e 40 1d 	sll  %i1, %i5, %o4
4000ea98:	82 10 20 20 	mov  0x20, %g1
4000ea9c:	80 a0 c0 1a 	cmp  %g3, %i2
4000eaa0:	0a 80 00 0c 	bcs  4000ead0 <__umoddi3+0x258>
4000eaa4:	b0 c6 00 18 	addxcc  %i0, %i0, %i0
4000eaa8:	86 20 c0 1a 	sub  %g3, %i2, %g3
4000eaac:	86 40 c0 03 	addx  %g3, %g3, %g3
4000eab0:	82 a0 60 01 	deccc  %g1
4000eab4:	12 bf ff fb 	bne  4000eaa0 <__umoddi3+0x228>
4000eab8:	80 a0 c0 1a 	cmp  %g3, %i2
4000eabc:	0a 80 00 0b 	bcs  4000eae8 <__umoddi3+0x270>
4000eac0:	b0 c6 00 18 	addxcc  %i0, %i0, %i0
4000eac4:	10 80 00 09 	b  4000eae8 <__umoddi3+0x270>
4000eac8:	86 20 c0 1a 	sub  %g3, %i2, %g3
4000eacc:	86 20 c0 1a 	sub  %g3, %i2, %g3
4000ead0:	86 c0 c0 03 	addxcc  %g3, %g3, %g3
4000ead4:	1a bf ff f8 	bcc  4000eab4 <__umoddi3+0x23c>
4000ead8:	82 a0 60 01 	deccc  %g1
4000eadc:	12 bf ff fc 	bne  4000eacc <__umoddi3+0x254>
4000eae0:	b0 86 00 18 	addcc  %i0, %i0, %i0
4000eae4:	86 20 c0 1a 	sub  %g3, %i2, %g3
4000eae8:	b0 3e 20 00 	xnor  %i0, 0, %i0
4000eaec:	81 80 00 18 	wr  %i0, %y
4000eaf0:	9b 3e e0 1f 	sra  %i3, 0x1f, %o5
4000eaf4:	9a 0e 00 0d 	and  %i0, %o5, %o5
4000eaf8:	82 88 20 00 	andcc  %g0, 0, %g1
4000eafc:	83 20 40 1b 	mulscc  %g1, %i3, %g1
4000eb00:	83 20 40 1b 	mulscc  %g1, %i3, %g1
4000eb04:	83 20 40 1b 	mulscc  %g1, %i3, %g1
4000eb08:	83 20 40 1b 	mulscc  %g1, %i3, %g1
4000eb0c:	83 20 40 1b 	mulscc  %g1, %i3, %g1
4000eb10:	83 20 40 1b 	mulscc  %g1, %i3, %g1
4000eb14:	83 20 40 1b 	mulscc  %g1, %i3, %g1
4000eb18:	83 20 40 1b 	mulscc  %g1, %i3, %g1
4000eb1c:	83 20 40 1b 	mulscc  %g1, %i3, %g1
4000eb20:	83 20 40 1b 	mulscc  %g1, %i3, %g1
4000eb24:	83 20 40 1b 	mulscc  %g1, %i3, %g1
4000eb28:	83 20 40 1b 	mulscc  %g1, %i3, %g1
4000eb2c:	83 20 40 1b 	mulscc  %g1, %i3, %g1
4000eb30:	83 20 40 1b 	mulscc  %g1, %i3, %g1
4000eb34:	83 20 40 1b 	mulscc  %g1, %i3, %g1
4000eb38:	83 20 40 1b 	mulscc  %g1, %i3, %g1
4000eb3c:	83 20 40 1b 	mulscc  %g1, %i3, %g1
4000eb40:	83 20 40 1b 	mulscc  %g1, %i3, %g1
4000eb44:	83 20 40 1b 	mulscc  %g1, %i3, %g1
4000eb48:	83 20 40 1b 	mulscc  %g1, %i3, %g1
4000eb4c:	83 20 40 1b 	mulscc  %g1, %i3, %g1
4000eb50:	83 20 40 1b 	mulscc  %g1, %i3, %g1
4000eb54:	83 20 40 1b 	mulscc  %g1, %i3, %g1
4000eb58:	83 20 40 1b 	mulscc  %g1, %i3, %g1
4000eb5c:	83 20 40 1b 	mulscc  %g1, %i3, %g1
4000eb60:	83 20 40 1b 	mulscc  %g1, %i3, %g1
4000eb64:	83 20 40 1b 	mulscc  %g1, %i3, %g1
4000eb68:	83 20 40 1b 	mulscc  %g1, %i3, %g1
4000eb6c:	83 20 40 1b 	mulscc  %g1, %i3, %g1
4000eb70:	83 20 40 1b 	mulscc  %g1, %i3, %g1
4000eb74:	83 20 40 1b 	mulscc  %g1, %i3, %g1
4000eb78:	83 20 40 1b 	mulscc  %g1, %i3, %g1
4000eb7c:	83 20 60 00 	mulscc  %g1, 0, %g1
4000eb80:	84 00 40 0d 	add  %g1, %o5, %g2
4000eb84:	9f 40 00 00 	rd  %y, %o7
4000eb88:	82 10 00 02 	mov  %g2, %g1
4000eb8c:	80 a0 c0 02 	cmp  %g3, %g2
4000eb90:	0a 80 00 06 	bcs  4000eba8 <__umoddi3+0x330>
4000eb94:	b0 10 00 0f 	mov  %o7, %i0
4000eb98:	12 80 00 08 	bne  4000ebb8 <__umoddi3+0x340>
4000eb9c:	80 a3 00 0f 	cmp  %o4, %o7
4000eba0:	1a 80 00 06 	bcc  4000ebb8 <__umoddi3+0x340>
4000eba4:	01 00 00 00 	nop 
4000eba8:	b8 a3 c0 1b 	subcc  %o7, %i3, %i4
4000ebac:	b0 60 80 1a 	subx  %g2, %i2, %i0
4000ebb0:	82 10 00 18 	mov  %i0, %g1
4000ebb4:	b0 10 00 1c 	mov  %i4, %i0
4000ebb8:	b2 a3 00 18 	subcc  %o4, %i0, %i1
4000ebbc:	b0 60 c0 01 	subx  %g3, %g1, %i0
4000ebc0:	83 2e 00 04 	sll  %i0, %g4, %g1
4000ebc4:	b3 36 40 1d 	srl  %i1, %i5, %i1
4000ebc8:	b1 36 00 1d 	srl  %i0, %i5, %i0
4000ebcc:	b2 10 40 19 	or  %g1, %i1, %i1
4000ebd0:	81 c7 e0 08 	ret 
4000ebd4:	81 e8 00 00 	restore 
4000ebd8:	10 bf ff 57 	b  4000e934 <__umoddi3+0xbc>
4000ebdc:	b8 10 20 00 	clr  %i4
4000ebe0:	10 bf ff 55 	b  4000e934 <__umoddi3+0xbc>
4000ebe4:	b8 10 20 10 	mov  0x10, %i4

4000ebe8 <__do_global_ctors_aux>:
4000ebe8:	9d e3 bf a0 	save  %sp, -96, %sp
4000ebec:	3b 10 00 3b 	sethi  %hi(0x4000ec00), %i5
4000ebf0:	ba 17 60 98 	or  %i5, 0x98, %i5	! 4000ec98 <__CTOR_END__>
4000ebf4:	c2 07 7f fc 	ld  [ %i5 + -4 ], %g1
4000ebf8:	80 a0 7f ff 	cmp  %g1, -1
4000ebfc:	02 80 00 08 	be  4000ec1c <__do_global_ctors_aux+0x34>
4000ec00:	ba 07 7f fc 	add  %i5, -4, %i5
4000ec04:	9f c0 40 00 	call  %g1
4000ec08:	ba 07 7f fc 	add  %i5, -4, %i5
4000ec0c:	c2 07 40 00 	ld  [ %i5 ], %g1
4000ec10:	80 a0 7f ff 	cmp  %g1, -1
4000ec14:	12 bf ff fc 	bne  4000ec04 <__do_global_ctors_aux+0x1c>
4000ec18:	01 00 00 00 	nop 
4000ec1c:	81 c7 e0 08 	ret 
4000ec20:	81 e8 00 00 	restore 

4000ec24 <call___do_global_ctors_aux>:
4000ec24:	9d e3 bf a0 	save  %sp, -96, %sp
4000ec28:	81 c7 e0 08 	ret 
4000ec2c:	81 e8 00 00 	restore 

4000ec30 <__EH_FRAME_BEGIN__>:
4000ec30:	00 00 00 10 00 00 00 00 01 7a 52 00 04 7c 0f 01     .........zR..|..
4000ec40:	1b 0c 0e 00 00 00 00 14 00 00 00 18 ff ff f8 d8     ................
4000ec50:	00 00 03 54 00 41 2d 09 0f 1f 0d 1e 00 00 00 10     ...T.A-.........
4000ec60:	00 00 00 00 01 7a 52 00 04 7c 0f 01 1b 0c 0e 00     .....zR..|......
4000ec70:	00 00 00 14 00 00 00 18 ff ff fc 00 00 00 03 70     ...............p
4000ec80:	00 41 2d 09 0f 1f 0d 1e                             .A-.....

4000ec88 <__FRAME_END__>:
	...

4000ec90 <___CTOR_LIST__>:
4000ec90:	00 00 00 02 	unimp  0x2

4000ec94 <__CTOR_LIST__>:
4000ec94:	ff ff ff ff                                         ....

4000ec98 <__CTOR_END__>:
	...

4000eca0 <___CTOR_END__>:
4000eca0:	00 00 00 02 	unimp  0x2

4000eca4 <__DTOR_LIST__>:
4000eca4:	ff ff ff ff                                         ....

4000eca8 <__DTOR_END__>:
	...

4000ecb0 <_init>:
4000ecb0:	9d e3 bf a0 	save  %sp, -96, %sp
4000ecb4:	7f ff c9 58 	call  40001214 <frame_dummy>
4000ecb8:	01 00 00 00 	nop 
4000ecbc:	7f ff ff cb 	call  4000ebe8 <__do_global_ctors_aux>
4000ecc0:	01 00 00 00 	nop 
4000ecc4:	81 e8 00 00 	restore 
4000ecc8:	81 c3 e0 08 	retl 
4000eccc:	01 00 00 00 	nop 

4000ecd0 <_fini>:
4000ecd0:	9d e3 bf a0 	save  %sp, -96, %sp
4000ecd4:	7f ff c9 22 	call  4000115c <__do_global_dtors_aux>
4000ecd8:	01 00 00 00 	nop 
4000ecdc:	81 e8 00 00 	restore 
4000ece0:	81 c3 e0 08 	retl 
4000ece4:	01 00 00 00 	nop 
	...
